Microchip MPLAB XC8 Compiler V2.32

Linker command line:

-W-3 --edf=C:\Program Files\Microchip\xc8\v2.32\pic\dat\en_msgs.txt -cn \
  -h+dist/default/production\SLAVE2.X.production.sym \
  --cmf=dist/default/production\SLAVE2.X.production.cmf -z -Q16F877A \
  -oC:\Users\NGUYEN~1\AppData\Local\Temp\xcAs1bs.4 --defsym=__MPLAB_BUILD=1 \
  -Mdist/default/production/SLAVE2.X.production.map -E1 -ver=XC8 Compiler \
  --acfsm=1493 -ASTACK=0110h-016Fh -pstack=STACK -ACODE=00h-07FFhx4 \
  -ASTRCODE=00h-01FFFh -ASTRING=00h-0FFhx32 -ACONST=00h-0FFhx32 \
  -AENTRY=00h-0FFhx32 -ACOMMON=070h-07Fh -ABANK0=020h-06Fh \
  -ABANK1=0A0h-0EFh -ABANK2=0110h-016Fh -ABANK3=0190h-01EFh \
  -ARAM=020h-06Fh,0A0h-0EFh,0110h-016Fh,0190h-01EFh \
  -AABS1=020h-07Fh,0A0h-0EFh,0110h-016Fh,0190h-01EFh -ASFR0=00h-01Fh \
  -ASFR1=080h-09Fh -ASFR2=0100h-010Fh -ASFR3=0180h-018Fh \
  -ACONFIG=02007h-02007h -DCONFIG=2 -AIDLOC=02000h-02003h -DIDLOC=2 \
  -AEEDATA=00h-0FFh/02100h -peeprom_data=EEDATA -DEEDATA=2 -DCODE=2 \
  -DSTRCODE=2 -DSTRING=2 -DCONST=2 -DENTRY=2 \
  -preset_vec=00h,intentry,init,end_init -ppowerup=CODE -pcinit=CODE \
  -pfunctab=ENTRY -k C:\Users\NGUYEN~1\AppData\Local\Temp\xcAs1bs.o \
  dist/default/production\SLAVE2.X.production.o 

Object code version is 3.11

Machine type is 16F877A



                Name                               Link     Load   Length Selector   Space Scale
C:\Users\NGUYEN~1\AppData\Local\Temp\xcAs1bs.o
                end_init                              0        0        3        0       0
                config                             2007     2007        1        0       4
dist/default/production\SLAVE2.X.production.o
                cinit                               7F6      7F6        A      FEC       0
                config                             2007     2007        1        0       4
                text22                              EA7      EA7       9D     1D4E       0
                text21                                A        A       2F       14       0
                text20                              2B8      2B8      1DD      570       0
                text19                              B9E      B9E       27     173C       0
                text18                              495      495      361      92A       0
                text17                              E0B      E0B       9C     1C16       0
                text16                              F44      F44       BC     1E88       0
                text15                              CE1      CE1       95     19C2       0
                text14                              C43      C43       4F     1886       0
                text13                              B45      B45        B     168A       0
                text12                              D76      D76       95     1AEC       0
                text11                              C92      C92       4F     1924       0
                text10                              B50      B50        B     16A0       0
                text9                                F6       F6       DA      1EC       0
                text8                               B5B      B5B        C     16B6       0
                text7                               B7D      B7D       21     16FA       0
                text6                               B67      B67       16     16CE       0
                text5                                 3        3        7        0       0
                text4                               B3C      B3C        9     1678       0
                text3                               BFF      BFF       44     17FE       0
                text2                               BC5      BC5       3A     178A       0
                text1                               1D0      1D0       E8      3A0       0
                maintext                             39       39       BD       72       0
                cstackBANK0                          20       20       50       20       1
                cstackCOMMON                         70       70        E       70       1
                cstackBANK1                          A0       A0       21       A0       1
                bssBANK1                             C1       C1        4       A0       1
                strings                             800      800       1F     1000       0

TOTAL           Name                               Link     Load   Length     Space
        CLASS   STACK          

        CLASS   CODE           
                end_init                              0        0        3         0
                cinit                               7F6      7F6        A         0
                text22                              EA7      EA7       9D         0
                text21                                A        A       2F         0
                text20                              2B8      2B8      1DD         0
                text19                              B9E      B9E       27         0
                text18                              495      495      361         0
                text17                              E0B      E0B       9C         0
                text16                              F44      F44       BC         0
                text15                              CE1      CE1       95         0
                text14                              C43      C43       4F         0
                text13                              B45      B45        B         0
                text12                              D76      D76       95         0
                text11                              C92      C92       4F         0
                text10                              B50      B50        B         0
                text9                                F6       F6       DA         0
                text8                               B5B      B5B        C         0
                text7                               B7D      B7D       21         0
                text6                               B67      B67       16         0
                text5                                 3        3        7         0
                text4                               B3C      B3C        9         0
                text3                               BFF      BFF       44         0
                text2                               BC5      BC5       3A         0
                text1                               1D0      1D0       E8         0
                maintext                             39       39       BD         0

        CLASS   STRCODE        

        CLASS   STRING         
                strings                             800      800       1F         0

        CLASS   CONST          

        CLASS   ENTRY          

        CLASS   COMMON         
                cstackCOMMON                         70       70        E         1

        CLASS   BANK0          
                cstackBANK0                          20       20       50         1

        CLASS   BANK1          
                cstackBANK1                          A0       A0       21         1
                bssBANK1                             C1       C1        4         1

        CLASS   BANK2          

        CLASS   BANK3          

        CLASS   RAM            

        CLASS   ABS1           
                abs_s1                               7E       7E        2         1

        CLASS   SFR0           

        CLASS   SFR1           

        CLASS   SFR2           

        CLASS   SFR3           

        CLASS   CONFIG         
                config                             2007     2007        1         4

        CLASS   IDLOC          

        CLASS   EEDATA         



SEGMENTS        Name                           Load    Length   Top    Selector   Space  Class     Delta

                reset_vec                      000000  00000A  00000A         0       0  CODE        2
                text21                         00000A  00002F  000039        14       0  CODE        2
                cstackBANK0                    000020  000050  000070        20       1  BANK0       1
                cstackCOMMON                   000070  00000E  00007E        70       1  COMMON      1
                maintext                       000039  0000BD  0000F6        72       0  CODE        2
                cstackBANK1                    0000A0  000025  0000C5        A0       1  BANK1       1
                text9                          0000F6  0000DA  0001D0       1EC       0  CODE        2
                text1                          0001D0  0000E8  0002B8       3A0       0  CODE        2
                text20                         0002B8  0001DD  000495       570       0  CODE        2
                text18                         000495  000361  0007F6       92A       0  CODE        2
                cinit                          0007F6  00000A  000800       FEC       0  CODE        2
                strings                        000800  00001F  00081F      1000       0  STRING      2
                text4                          000B3C  000009  000B45      1678       0  CODE        2
                text13                         000B45  00000B  000B50      168A       0  CODE        2
                text10                         000B50  00000B  000B5B      16A0       0  CODE        2
                text8                          000B5B  00000C  000B67      16B6       0  CODE        2
                text6                          000B67  000016  000B7D      16CE       0  CODE        2
                text7                          000B7D  000021  000B9E      16FA       0  CODE        2
                text19                         000B9E  000027  000BC5      173C       0  CODE        2
                text2                          000BC5  00003A  000BFF      178A       0  CODE        2
                text3                          000BFF  000044  000C43      17FE       0  CODE        2
                text14                         000C43  00004F  000C92      1886       0  CODE        2
                text11                         000C92  00004F  000CE1      1924       0  CODE        2
                text15                         000CE1  000095  000D76      19C2       0  CODE        2
                text12                         000D76  000095  000E0B      1AEC       0  CODE        2
                text17                         000E0B  00009C  000EA7      1C16       0  CODE        2
                text22                         000EA7  00009D  000F44      1D4E       0  CODE        2
                text16                         000F44  0000BC  001000      1E88       0  CODE        2


UNUSED ADDRESS RANGES

        Name                Unused          Largest block    Delta
        BANK1            00C5-00EF             2B           1
        BANK2            0110-016F             60           1
        BANK3            0190-01EF             60           1
        CODE             081F-0B3B            31D           2
                         1000-1FFF            800
        CONST            081F-0B3B            100           2
                         1000-1FFF            100
        EEDATA           2100-21FF            100           2
        ENTRY            081F-0B3B            100           2
                         1000-1FFF            100
        IDLOC            2000-2003              4           2
        RAM              00C5-00EF             2B           1
                         0110-016F             60
                         0190-01EF             60
        SFR0             0000-001F             20           1
        SFR1             0080-009F             20           1
        SFR2             0100-010F             10           1
        SFR3             0180-018F             10           1
        STACK            0110-016F             60           1
        STRCODE          081F-0B3B            31D           2
                         1000-1FFF           1000
        STRING           081F-0B3B            100           2
                         1000-1FFF            100

                                  Symbol Table

?_PWM_Max_Duty            cstackBANK0  0026
?__Umul8_16               cstackCOMMON 0070
?___aldiv                 cstackCOMMON 0070
?___fldiv                 cstackBANK0  0036
?___flmul                 cstackBANK0  0050
?___fltol                 cstackBANK0  006A
?___lwdiv                 cstackCOMMON 0070
?___lwmod                 cstackCOMMON 0078
?___xxtofl                cstackBANK0  0028
?_sprintf                 cstackBANK0  0020
PWM1_Duty@duty            cstackBANK1  00A5
PWM1_Init_Fre@fre         cstackBANK0  0026
PWM2_Duty@duty            cstackBANK1  00A5
PWM2_Init_Fre@fre         cstackBANK0  0026
UART_Init@baudrate        cstackBANK0  0026
UART_Init@x               cstackCOMMON 0079
UART_Write@data           cstackCOMMON 0070
UART_Write_Text@i         cstackCOMMON 0072
UART_Write_Text@text      cstackCOMMON 0074
_ADCON1                   (abs)        009F
_BRGH                     (abs)        04C2
_CCP1CONbits              (abs)        0017
_CCP1X                    (abs)        00BD
_CCP1Y                    (abs)        00BC
_CCP2CONbits              (abs)        001D
_CCP2X                    (abs)        00ED
_CCP2Y                    (abs)        00EC
_CCPR1L                   (abs)        0015
_CCPR2L                   (abs)        001B
_CREN                     (abs)        00C4
_GIE                      (abs)        005F
_PEIE                     (abs)        005E
_PORTD                    (abs)        0008
_PORTDbits                (abs)        0008
_PR2                      (abs)        0092
_PWM1_Duty                text15       0CE1
_PWM1_Init_Fre            text14       0C43
_PWM1_Start               text13       0B45
_PWM2_Duty                text12       0D76
_PWM2_Init_Fre            text11       0C92
_PWM2_Start               text10       0B50
_PWM_Max_Duty             text21       000A
_RCIF                     (abs)        0065
_RCREG                    (abs)        001A
_RD0                      (abs)        0040
_SPBRG                    (abs)        0099
_SPEN                     (abs)        00C7
_SSPBUF                   (abs)        0013
_SSPCON                   (abs)        0014
_SSPIE                    (abs)        0463
_SSPIF                    (abs)        0063
_SSPSTAT                  (abs)        0094
_SSPSTATbits              (abs)        0094
_SYNC                     (abs)        04C4
_T2CONbits                (abs)        0012
_TRISA5                   (abs)        042D
_TRISC3                   (abs)        043B
_TRISC5                   (abs)        043D
_TRISC6                   (abs)        043E
_TRISC7                   (abs)        043F
_TRISCbits                (abs)        0087
_TRISD                    (abs)        0088
_TRMT                     (abs)        04C1
_TXEN                     (abs)        04C5
_TXREG                    (abs)        0019
_UART_Init                text9        00F6
_UART_Write               text8        0B5B
_UART_Write_Text          text7        0B7D
__Habs1                   abs1         0000
__Hbank0                  bank0        0000
__Hbank1                  bank1        0000
__Hbank2                  bank2        0000
__Hbank3                  bank3        0000
__HbssBANK1               bssBANK1     0000
__Hcinit                  cinit        0800
__Hclrtext                clrtext      0000
__Hcode                   code         0000
__Hcommon                 common       0000
__Hconfig                 config       2008
__HcstackBANK0            cstackBANK0  0000
__HcstackBANK1            cstackBANK1  0000
__HcstackCOMMON           cstackCOMMON 0000
__Heeprom_data            eeprom_data  0000
__Hend_init               end_init     0003
__Hfunctab                functab      0000
__Hinit                   init         0000
__Hintentry               intentry     0000
__Hmaintext               maintext     0000
__Hpowerup                powerup      0000
__Hram                    ram          0000
__Hreset_vec              reset_vec    0000
__Hsfr0                   sfr0         0000
__Hsfr1                   sfr1         0000
__Hsfr2                   sfr2         0000
__Hsfr3                   sfr3         0000
__Hspace_0                (abs)        1000
__Hspace_1                (abs)        00C5
__Hspace_2                (abs)        0000
__Hspace_3                (abs)        0000
__Hspace_4                (abs)        400F
__Hstack                  stack        0000
__Hstrings                strings      0000
__Htext                   text         0000
__Labs1                   abs1         0000
__Lbank0                  bank0        0000
__Lbank1                  bank1        0000
__Lbank2                  bank2        0000
__Lbank3                  bank3        0000
__LbssBANK1               bssBANK1     0000
__Lcinit                  cinit        07F6
__Lclrtext                clrtext      0000
__Lcode                   code         0000
__Lcommon                 common       0000
__Lconfig                 config       0000
__LcstackBANK0            cstackBANK0  0000
__LcstackBANK1            cstackBANK1  0000
__LcstackCOMMON           cstackCOMMON 0000
__Leeprom_data            eeprom_data  0000
__Lend_init               end_init     0000
__Lfunctab                functab      0000
__Linit                   init         0000
__Lintentry               intentry     0000
__Lmaintext               maintext     0000
__Lpowerup                powerup      0000
__Lram                    ram          0000
__Lreset_vec              reset_vec    0000
__Lsfr0                   sfr0         0000
__Lsfr1                   sfr1         0000
__Lsfr2                   sfr2         0000
__Lsfr3                   sfr3         0000
__Lspace_0                (abs)        0000
__Lspace_1                (abs)        0000
__Lspace_2                (abs)        0000
__Lspace_3                (abs)        0000
__Lspace_4                (abs)        0000
__Lstack                  stack        0000
__Lstrings                strings      0000
__Ltext                   text         0000
__S0                      (abs)        1000
__S1                      (abs)        00C5
__S2                      (abs)        0000
__S3                      (abs)        0000
__Umul8_16                text19       0B9E
__Umul8_16@multiplicand   cstackCOMMON 0070
__Umul8_16@multiplier     cstackCOMMON 0078
__Umul8_16@product        cstackCOMMON 0074
__Umul8_16@word_mpld      cstackCOMMON 0076
___aldiv                  text22       0EA7
___aldiv@counter          cstackBANK0  0020
___aldiv@dividend         cstackCOMMON 0074
___aldiv@divisor          cstackCOMMON 0070
___aldiv@quotient         cstackBANK0  0022
___aldiv@sign             cstackBANK0  0021
___fldiv                  text20       02B8
___fldiv@a                cstackBANK0  0036
___fldiv@aexp             cstackBANK0  004F
___fldiv@b                cstackBANK0  003A
___fldiv@bexp             cstackBANK0  004E
___fldiv@grs              cstackBANK0  004A
___fldiv@new_exp          cstackBANK0  0048
___fldiv@rem              cstackBANK0  0043
___fldiv@sign             cstackBANK0  0047
___flmul                  text18       0495
___flmul@a                cstackBANK0  0054
___flmul@aexp             cstackBANK0  0062
___flmul@b                cstackBANK0  0050
___flmul@bexp             cstackBANK0  0063
___flmul@grs              cstackBANK0  005E
___flmul@prod             cstackBANK0  0064
___flmul@sign             cstackBANK0  005D
___flmul@temp             cstackBANK0  0068
___fltol                  text17       0E0B
___fltol@exp1             cstackBANK0  006F
___fltol@f1               cstackBANK0  006A
___fltol@sign1            cstackBANK0  006E
___int_sp                 stack        0000
___latbits                (abs)        0002
___lwdiv                  text3        0BFF
___lwdiv@counter          cstackCOMMON 0077
___lwdiv@dividend         cstackCOMMON 0072
___lwdiv@divisor          cstackCOMMON 0070
___lwdiv@quotient         cstackCOMMON 0075
___lwmod                  text2        0BC5
___lwmod@counter          cstackCOMMON 007D
___lwmod@dividend         cstackCOMMON 007A
___lwmod@divisor          cstackCOMMON 0078
___sp                     stack        0000
___stackhi                (abs)        0000
___stacklo                (abs)        0000
___xxtofl                 text16       0F44
___xxtofl@arg             cstackBANK0  0032
___xxtofl@exp             cstackBANK0  0031
___xxtofl@sign            cstackBANK0  0030
___xxtofl@val             cstackBANK0  0028
__end_of_PWM1_Duty        text15       0D76
__end_of_PWM1_Init_Fre    text14       0C92
__end_of_PWM1_Start       text13       0B50
__end_of_PWM2_Duty        text12       0E0B
__end_of_PWM2_Init_Fre    text11       0CE1
__end_of_PWM2_Start       text10       0B5B
__end_of_PWM_Max_Duty     text21       0039
__end_of_UART_Init        text9        01D0
__end_of_UART_Write       text8        0B67
__end_of_UART_Write_Text  text7        0B9E
__end_of__Umul8_16        text19       0BC5
__end_of___aldiv          text22       0F44
__end_of___fldiv          text20       0495
__end_of___flmul          text18       07F6
__end_of___fltol          text17       0EA7
__end_of___lwdiv          text3        0C43
__end_of___lwmod          text2        0BFF
__end_of___xxtofl         text16       1000
__end_of__initialization  cinit        07FC
__end_of__stringtab       strings      0806
__end_of_dpowers          strings      0810
__end_of_main             maintext     00F6
__end_of_spiInit          text6        0B7D
__end_of_spiRead          text4        0B45
__end_of_spiReceiveWait   text5        000A
__end_of_sprintf          text1        02B8
__initialization          cinit        07F6
__pbssBANK1               bssBANK1     00C1
__pcstackBANK0            cstackBANK0  0020
__pcstackBANK1            cstackBANK1  00A0
__pcstackCOMMON           cstackCOMMON 0070
__pmaintext               maintext     0039
__pstrings                strings      0800
__ptext1                  text1        01D0
__ptext10                 text10       0B50
__ptext11                 text11       0C92
__ptext12                 text12       0D76
__ptext13                 text13       0B45
__ptext14                 text14       0C43
__ptext15                 text15       0CE1
__ptext16                 text16       0F44
__ptext17                 text17       0E0B
__ptext18                 text18       0495
__ptext19                 text19       0B9E
__ptext2                  text2        0BC5
__ptext20                 text20       02B8
__ptext21                 text21       000A
__ptext22                 text22       0EA7
__ptext3                  text3        0BFF
__ptext4                  text4        0B3C
__ptext5                  text5        0003
__ptext6                  text6        0B67
__ptext7                  text7        0B7D
__ptext8                  text8        0B5B
__ptext9                  text9        00F6
__size_of_PWM1_Duty       (abs)        0000
__size_of_PWM1_Init_Fre   (abs)        0000
__size_of_PWM1_Start      (abs)        0000
__size_of_PWM2_Duty       (abs)        0000
__size_of_PWM2_Init_Fre   (abs)        0000
__size_of_PWM2_Start      (abs)        0000
__size_of_PWM_Max_Duty    (abs)        0000
__size_of_UART_Init       (abs)        0000
__size_of_UART_Write      (abs)        0000
__size_of_UART_Write_Text (abs)        0000
__size_of__Umul8_16       (abs)        0000
__size_of___aldiv         (abs)        0000
__size_of___fldiv         (abs)        0000
__size_of___flmul         (abs)        0000
__size_of___fltol         (abs)        0000
__size_of___lwdiv         (abs)        0000
__size_of___lwmod         (abs)        0000
__size_of___xxtofl        (abs)        0000
__size_of_main            (abs)        0000
__size_of_spiInit         (abs)        0000
__size_of_spiRead         (abs)        0000
__size_of_spiReceiveWait  (abs)        0000
__size_of_sprintf         (abs)        0000
__stringbase              strings      0805
__stringtab               strings      0800
_dpowers                  strings      0806
_freq                     bssBANK1     00C1
_main                     maintext     0039
_spiInit                  text6        0B67
_spiRead                  text4        0B3C
_spiReceiveWait           text5        0003
_sprintf                  text1        01D0
btemp                     (abs)        007E
end_of_initialization     cinit        07FC
intlevel0                 functab      0000
intlevel1                 functab      0000
intlevel2                 functab      0000
intlevel3                 functab      0000
intlevel4                 functab      0000
intlevel5                 functab      0000
main@PID_Val              cstackBANK1  00BF
main@uart_logs            cstackBANK1  00AB
reset_vec                 reset_vec    0000
spiInit@sClockIdle        cstackCOMMON 0071
spiInit@sDataSample       cstackCOMMON 0070
spiInit@sTransmitEdge     cstackCOMMON 0072
spiInit@sType             cstackCOMMON 0073
sprintf@ap                cstackBANK0  0026
sprintf@c                 cstackBANK0  002C
sprintf@f                 cstackBANK0  0020
sprintf@flag              cstackBANK0  0027
sprintf@prec              cstackBANK0  0028
sprintf@sp                cstackBANK0  002B
sprintf@val               cstackBANK0  0029
start                     init         0000
start_initialization      cinit        07F6
wtemp0                    (abs)        007E


MODULE INFORMATION

Module		Function		Class		Link	Load	Size
C:\Program Files\Microchip\xc8\v2.32\pic\sources\c90\common\xxtofl.c
		___xxtofl      		CODE           	0F44	0000	188

C:\Program Files\Microchip\xc8\v2.32\pic\sources\c90\common\xxtofl.c estimated size: 188

C:\Program Files\Microchip\xc8\v2.32\pic\sources\c90\common\Umul8_16.c
		__Umul8_16     		CODE           	0B9E	0000	39

C:\Program Files\Microchip\xc8\v2.32\pic\sources\c90\common\Umul8_16.c estimated size: 39

newmain.c
		_main          		CODE           	0039	0000	189

newmain.c estimated size: 189

./uart.h
		_UART_Init     		CODE           	00F6	0000	218
		_UART_Write_Text		CODE           	0B7D	0000	33
		_UART_Write    		CODE           	0B5B	0000	12

./uart.h estimated size: 263

C:\Program Files\Microchip\xc8\v2.32\pic\sources\c90\common\lwmod.c
		___lwmod       		CODE           	0BC5	0000	58

C:\Program Files\Microchip\xc8\v2.32\pic\sources\c90\common\lwmod.c estimated size: 58

spi.c
		_spiInit       		CODE           	0B67	0000	22
		_spiReceiveWait		CODE           	0003	0000	7
		_spiRead       		CODE           	0B3C	0000	9

spi.c estimated size: 38

shared
		__stringtab    		STRING         	0800	0000	6
		_dpowers       		STRING         	0806	0000	10
		__initialization		CODE           	07F6	0000	6

shared estimated size: 22

C:\Program Files\Microchip\xc8\v2.32\pic\sources\c90\common\sprcmul.c
		___flmul       		CODE           	0495	0000	865

C:\Program Files\Microchip\xc8\v2.32\pic\sources\c90\common\sprcmul.c estimated size: 865

C:\Program Files\Microchip\xc8\v2.32\pic\sources\c90\common\sprcdiv.c
		___fldiv       		CODE           	02B8	0000	477

C:\Program Files\Microchip\xc8\v2.32\pic\sources\c90\common\sprcdiv.c estimated size: 477

C:\Program Files\Microchip\xc8\v2.32\pic\sources\c90\common\doprnt.c
		_sprintf       		CODE           	01D0	0000	232

C:\Program Files\Microchip\xc8\v2.32\pic\sources\c90\common\doprnt.c estimated size: 232

C:\Program Files\Microchip\xc8\v2.32\pic\sources\c90\common\lwdiv.c
		___lwdiv       		CODE           	0BFF	0000	68

C:\Program Files\Microchip\xc8\v2.32\pic\sources\c90\common\lwdiv.c estimated size: 68

C:\Program Files\Microchip\xc8\v2.32\pic\sources\c90\common\fltol.c
		___fltol       		CODE           	0E0B	0000	156

C:\Program Files\Microchip\xc8\v2.32\pic\sources\c90\common\fltol.c estimated size: 156

./pwm.h
		_PWM1_Start    		CODE           	0B45	0000	11
		_PWM2_Start    		CODE           	0B50	0000	11
		_PWM_Max_Duty  		CODE           	000A	0000	47
		_PWM1_Duty     		CODE           	0CE1	0000	149
		_PWM1_Init_Fre 		CODE           	0C43	0000	79
		_PWM2_Duty     		CODE           	0D76	0000	149
		_PWM2_Init_Fre 		CODE           	0C92	0000	79

./pwm.h estimated size: 525

C:\Program Files\Microchip\xc8\v2.32\pic\sources\c90\common\aldiv.c
		___aldiv       		CODE           	0EA7	0000	157

C:\Program Files\Microchip\xc8\v2.32\pic\sources\c90\common\aldiv.c estimated size: 157

