

Microchip MPLAB XC8 Assembler V2.32 build 20210201212658 
                                                                                               Sat Nov 27 21:56:00 2021

Microchip MPLAB XC8 C Compiler v2.32 (Free license) build 20210201212658 Og1 
     1                           	processor	16F877A
     2                           	pagewidth 120
     3                           	opt	flic
     4                           	psect	strings,global,class=STRING,delta=2,noexec
     5                           	psect	cinit,global,class=CODE,merge=1,delta=2
     6                           	psect	bssBANK1,global,class=BANK1,space=1,delta=1,noexec
     7                           	psect	cstackBANK1,global,class=BANK1,space=1,delta=1,noexec
     8                           	psect	cstackCOMMON,global,class=COMMON,space=1,delta=1,noexec
     9                           	psect	cstackBANK0,global,class=BANK0,space=1,delta=1,noexec
    10                           	psect	maintext,global,class=CODE,split=1,delta=2
    11                           	psect	text1,local,class=CODE,merge=1,delta=2,group=1
    12                           	psect	text2,local,class=CODE,merge=1,delta=2,group=2
    13                           	psect	text3,local,class=CODE,merge=1,delta=2,group=2
    14                           	psect	text4,local,class=CODE,merge=1,delta=2
    15                           	psect	text5,local,class=CODE,merge=1,delta=2
    16                           	psect	text6,local,class=CODE,merge=1,delta=2
    17                           	psect	text7,local,class=CODE,merge=1,delta=2
    18                           	psect	text8,local,class=CODE,merge=1,delta=2
    19                           	psect	text9,local,class=CODE,merge=1,delta=2
    20                           	psect	text10,local,class=CODE,merge=1,delta=2
    21                           	psect	text11,local,class=CODE,merge=1,delta=2
    22                           	psect	text12,local,class=CODE,merge=1,delta=2
    23                           	psect	text13,local,class=CODE,merge=1,delta=2
    24                           	psect	text14,local,class=CODE,merge=1,delta=2
    25                           	psect	text15,local,class=CODE,merge=1,delta=2
    26                           	psect	text16,local,class=CODE,merge=1,delta=2
    27                           	psect	text17,local,class=CODE,merge=1,delta=2
    28                           	psect	text18,local,class=CODE,merge=1,delta=2,group=2
    29                           	psect	text19,local,class=CODE,merge=1,delta=2,group=2
    30                           	psect	text20,local,class=CODE,merge=1,delta=2,group=2
    31                           	psect	text21,local,class=CODE,merge=1,delta=2,group=2
    32                           	psect	text22,local,class=CODE,merge=1,delta=2,group=2
    33                           	psect	text23,local,class=CODE,merge=1,delta=2
    34                           	psect	text24,local,class=CODE,merge=1,delta=2,group=2
    35                           	psect	config,global,abs,ovrld,class=CONFIG,space=4,delta=2,noexec
    36                           	dabs	1,0x7E,2
    37  0000                     
    38                           ; Version 2.20
    39                           ; Generated 12/02/2020 GMT
    40                           ; 
    41                           ; Copyright © 2020, Microchip Technology Inc. and its subsidiaries ("Microchip")
    42                           ; All rights reserved.
    43                           ; 
    44                           ; This software is developed by Microchip Technology Inc. and its subsidiaries ("Microch
      +                          ip").
    45                           ; 
    46                           ; Redistribution and use in source and binary forms, with or without modification, are
    47                           ; permitted provided that the following conditions are met:
    48                           ; 
    49                           ;     1. Redistributions of source code must retain the above copyright notice, this lis
      +                          t of
    50                           ;        conditions and the following disclaimer.
    51                           ; 
    52                           ;     2. Redistributions in binary form must reproduce the above copyright notice, this 
      +                          list
    53                           ;        of conditions and the following disclaimer in the documentation and/or other
    54                           ;        materials provided with the distribution.
    55                           ; 
    56                           ;     3. Microchip's name may not be used to endorse or promote products derived from th
      +                          is
    57                           ;        software without specific prior written permission.
    58                           ; 
    59                           ; THIS SOFTWARE IS PROVIDED BY MICROCHIP "AS IS" AND ANY EXPRESS OR IMPLIED WARRANTIES,
    60                           ; INCLUDING, BUT NOT LIMITED TO, THE IMPLIED WARRANTIES OF MERCHANTABILITY AND FITNESS F
      +                          OR
    61                           ; PURPOSE ARE DISCLAIMED.  IN NO EVENT SHALL MICROCHIP BE LIABLE FOR ANY DIRECT, INDIREC
      +                          T,
    62                           ; INCIDENTAL, SPECIAL, EXEMPLARY, OR CONSEQUENTIAL DAMAGES (INCLUDING BUT NOT LIMITED TO
    63                           ; PROCUREMENT OF SUBSTITUTE GOODS OR SERVICES; LOSS OF USE, DATA OR PROFITS; OR BUSINESS
    64                           ; INTERRUPTION) HOWSOEVER CAUSED AND ON ANY THEORY OF LIABILITY, WHETHER IN CONTRACT, ST
      +                          RICT
    65                           ; LIABILITY, OR TORT (INCLUDING NEGLIGENCE OR OTHERWISE) ARISING IN ANY WAY OUT OF THE U
      +                          SE OF
    66                           ; THIS SOFTWARE, EVEN IF ADVISED OF THE POSSIBILITY OF SUCH DAMAGE.
    67                           ; 
    68                           ; 
    69                           ; Code-generator required, PIC16F877A Definitions
    70                           ; 
    71                           ; SFR Addresses
    72  0000                     	;# 
    73  0001                     	;# 
    74  0002                     	;# 
    75  0003                     	;# 
    76  0004                     	;# 
    77  0005                     	;# 
    78  0006                     	;# 
    79  0007                     	;# 
    80  0008                     	;# 
    81  0009                     	;# 
    82  000A                     	;# 
    83  000B                     	;# 
    84  000C                     	;# 
    85  000D                     	;# 
    86  000E                     	;# 
    87  000E                     	;# 
    88  000F                     	;# 
    89  0010                     	;# 
    90  0011                     	;# 
    91  0012                     	;# 
    92  0013                     	;# 
    93  0014                     	;# 
    94  0015                     	;# 
    95  0015                     	;# 
    96  0016                     	;# 
    97  0017                     	;# 
    98  0018                     	;# 
    99  0019                     	;# 
   100  001A                     	;# 
   101  001B                     	;# 
   102  001B                     	;# 
   103  001C                     	;# 
   104  001D                     	;# 
   105  001E                     	;# 
   106  001F                     	;# 
   107  0081                     	;# 
   108  0085                     	;# 
   109  0086                     	;# 
   110  0087                     	;# 
   111  0088                     	;# 
   112  0089                     	;# 
   113  008C                     	;# 
   114  008D                     	;# 
   115  008E                     	;# 
   116  0091                     	;# 
   117  0092                     	;# 
   118  0093                     	;# 
   119  0094                     	;# 
   120  0098                     	;# 
   121  0099                     	;# 
   122  009C                     	;# 
   123  009D                     	;# 
   124  009E                     	;# 
   125  009F                     	;# 
   126  010C                     	;# 
   127  010D                     	;# 
   128  010E                     	;# 
   129  010F                     	;# 
   130  018C                     	;# 
   131  018D                     	;# 
   132  0000                     	;# 
   133  0001                     	;# 
   134  0002                     	;# 
   135  0003                     	;# 
   136  0004                     	;# 
   137  0005                     	;# 
   138  0006                     	;# 
   139  0007                     	;# 
   140  0008                     	;# 
   141  0009                     	;# 
   142  000A                     	;# 
   143  000B                     	;# 
   144  000C                     	;# 
   145  000D                     	;# 
   146  000E                     	;# 
   147  000E                     	;# 
   148  000F                     	;# 
   149  0010                     	;# 
   150  0011                     	;# 
   151  0012                     	;# 
   152  0013                     	;# 
   153  0014                     	;# 
   154  0015                     	;# 
   155  0015                     	;# 
   156  0016                     	;# 
   157  0017                     	;# 
   158  0018                     	;# 
   159  0019                     	;# 
   160  001A                     	;# 
   161  001B                     	;# 
   162  001B                     	;# 
   163  001C                     	;# 
   164  001D                     	;# 
   165  001E                     	;# 
   166  001F                     	;# 
   167  0081                     	;# 
   168  0085                     	;# 
   169  0086                     	;# 
   170  0087                     	;# 
   171  0088                     	;# 
   172  0089                     	;# 
   173  008C                     	;# 
   174  008D                     	;# 
   175  008E                     	;# 
   176  0091                     	;# 
   177  0092                     	;# 
   178  0093                     	;# 
   179  0094                     	;# 
   180  0098                     	;# 
   181  0099                     	;# 
   182  009C                     	;# 
   183  009D                     	;# 
   184  009E                     	;# 
   185  009F                     	;# 
   186  010C                     	;# 
   187  010D                     	;# 
   188  010E                     	;# 
   189  010F                     	;# 
   190  018C                     	;# 
   191  018D                     	;# 
   192  0000                     	;# 
   193  0001                     	;# 
   194  0002                     	;# 
   195  0003                     	;# 
   196  0004                     	;# 
   197  0005                     	;# 
   198  0006                     	;# 
   199  0007                     	;# 
   200  0008                     	;# 
   201  0009                     	;# 
   202  000A                     	;# 
   203  000B                     	;# 
   204  000C                     	;# 
   205  000D                     	;# 
   206  000E                     	;# 
   207  000E                     	;# 
   208  000F                     	;# 
   209  0010                     	;# 
   210  0011                     	;# 
   211  0012                     	;# 
   212  0013                     	;# 
   213  0014                     	;# 
   214  0015                     	;# 
   215  0015                     	;# 
   216  0016                     	;# 
   217  0017                     	;# 
   218  0018                     	;# 
   219  0019                     	;# 
   220  001A                     	;# 
   221  001B                     	;# 
   222  001B                     	;# 
   223  001C                     	;# 
   224  001D                     	;# 
   225  001E                     	;# 
   226  001F                     	;# 
   227  0081                     	;# 
   228  0085                     	;# 
   229  0086                     	;# 
   230  0087                     	;# 
   231  0088                     	;# 
   232  0089                     	;# 
   233  008C                     	;# 
   234  008D                     	;# 
   235  008E                     	;# 
   236  0091                     	;# 
   237  0092                     	;# 
   238  0093                     	;# 
   239  0094                     	;# 
   240  0098                     	;# 
   241  0099                     	;# 
   242  009C                     	;# 
   243  009D                     	;# 
   244  009E                     	;# 
   245  009F                     	;# 
   246  010C                     	;# 
   247  010D                     	;# 
   248  010E                     	;# 
   249  010F                     	;# 
   250  018C                     	;# 
   251  018D                     	;# 
   252                           
   253                           	psect	strings
   254  0800                     __pstrings:
   255  0800                     stringtab:
   256  0800                     __stringtab:
   257                           
   258                           ;	String table - string pointers are 1 byte each
   259  0800  1BFF               	btfsc	btemp+1,7
   260  0801  280A               	ljmp	stringcode
   261  0802  1383               	bcf	3,7
   262  0803  187F               	btfsc	btemp+1,0
   263  0804  1783               	bsf	3,7
   264  0805  0800               	movf	0,w
   265  0806  0A84               	incf	4,f
   266  0807  1903               	skipnz
   267  0808  0AFF               	incf	btemp+1,f
   268  0809  0008               	return
   269  080A                     stringcode:
   270  080A                     stringdir:
   271  080A  3008               	movlw	high stringdir
   272  080B  008A               	movwf	10
   273  080C  0804               	movf	4,w
   274  080D  0A84               	incf	4,f
   275  080E  0782               	addwf	2,f
   276  080F                     __stringbase:
   277  080F  3400               	retlw	0
   278  0810                     __end_of__stringtab:
   279  0810                     _dpowers:
   280  0810  3401               	retlw	1
   281  0811  3400               	retlw	0
   282  0812  340A               	retlw	10
   283  0813  3400               	retlw	0
   284  0814  3464               	retlw	100
   285  0815  3400               	retlw	0
   286  0816  34E8               	retlw	232
   287  0817  3403               	retlw	3
   288  0818  3410               	retlw	16
   289  0819  3427               	retlw	39
   290  081A                     __end_of_dpowers:
   291  0013                     _SSPBUF	set	19
   292  0014                     _SSPCON	set	20
   293  0008                     _PORTDbits	set	8
   294  0008                     _PORTD	set	8
   295  001D                     _CCP2CONbits	set	29
   296  0012                     _T2CONbits	set	18
   297  0017                     _CCP1CONbits	set	23
   298  001B                     _CCPR2L	set	27
   299  0015                     _CCPR1L	set	21
   300  0019                     _TXREG	set	25
   301  001A                     _RCREG	set	26
   302  0040                     _RD0	set	64
   303  0063                     _SSPIF	set	99
   304  005E                     _PEIE	set	94
   305  005F                     _GIE	set	95
   306  00EC                     _CCP2Y	set	236
   307  00ED                     _CCP2X	set	237
   308  00BC                     _CCP1Y	set	188
   309  00BD                     _CCP1X	set	189
   310  0065                     _RCIF	set	101
   311  00C4                     _CREN	set	196
   312  00C7                     _SPEN	set	199
   313  0094                     _SSPSTATbits	set	148
   314  0094                     _SSPSTAT	set	148
   315  009F                     _ADCON1	set	159
   316  0088                     _TRISD	set	136
   317  0087                     _TRISCbits	set	135
   318  0092                     _PR2	set	146
   319  0099                     _SPBRG	set	153
   320  043B                     _TRISC3	set	1083
   321  043D                     _TRISC5	set	1085
   322  042D                     _TRISA5	set	1069
   323  0463                     _SSPIE	set	1123
   324  04C1                     _TRMT	set	1217
   325  04C5                     _TXEN	set	1221
   326  043E                     _TRISC6	set	1086
   327  043F                     _TRISC7	set	1087
   328  04C4                     _SYNC	set	1220
   329  04C2                     _BRGH	set	1218
   330  081A                     STR_2:
   331  081A  3444               	retlw	68	;'D'
   332  081B  3461               	retlw	97	;'a'
   333  081C  3474               	retlw	116	;'t'
   334  081D  3461               	retlw	97	;'a'
   335  081E  3420               	retlw	32	;' '
   336  081F  343D               	retlw	61	;'='
   337  0820  3420               	retlw	32	;' '
   338  0821  3400               	retlw	0
   339  0822                     STR_1:
   340  0822  3425               	retlw	37	;'%'
   341  0823  3464               	retlw	100	;'d'
   342  0824  340A               	retlw	10
   343  0825  3400               	retlw	0
   344  0826                     STR_3:
   345  0826  340A               	retlw	10
   346  0827  340D               	retlw	13
   347  0828  3400               	retlw	0
   348                           
   349                           	psect	cinit
   350  07F6                     start_initialization:	
   351                           ; #config settings
   352                           
   353  07F6                     __initialization:
   354                           
   355                           ; Clear objects allocated to BANK1
   356  07F6  1683               	bsf	3,5	;RP0=1, select bank1
   357  07F7  1303               	bcf	3,6	;RP1=0, select bank1
   358  07F8  01B8               	clrf	__pbssBANK1& (0+127)
   359  07F9  01B9               	clrf	(__pbssBANK1+1)& (0+127)
   360  07FA  01BA               	clrf	(__pbssBANK1+2)& (0+127)
   361  07FB  01BB               	clrf	(__pbssBANK1+3)& (0+127)
   362  07FC                     end_of_initialization:	
   363                           ;End of C runtime variable initialization code
   364                           
   365  07FC                     __end_of__initialization:
   366  07FC  0183               	clrf	3
   367  07FD  120A  118A  29C4   	ljmp	_main	;jump to C main() function
   368                           
   369                           	psect	bssBANK1
   370  00B8                     __pbssBANK1:
   371  00B8                     _freq:
   372  00B8                     	ds	4
   373                           
   374                           	psect	cstackBANK1
   375  00A0                     __pcstackBANK1:
   376  00A0                     ??___fltol:
   377                           
   378                           ; 1 bytes @ 0x0
   379  00A0                     	ds	5
   380  00A5                     ?_PWM1_Duty:
   381  00A5                     ?_PWM2_Duty:	
   382                           ; 2 bytes @ 0x5
   383                           
   384  00A5                     PWM1_Duty@duty:	
   385                           ; 2 bytes @ 0x5
   386                           
   387  00A5                     PWM2_Duty@duty:	
   388                           ; 2 bytes @ 0x5
   389                           
   390                           
   391                           ; 2 bytes @ 0x5
   392  00A5                     	ds	2
   393  00A7                     ??_PWM1_Duty:
   394  00A7                     ??_PWM2_Duty:	
   395                           ; 1 bytes @ 0x7
   396                           
   397                           
   398                           ; 1 bytes @ 0x7
   399  00A7                     	ds	2
   400  00A9                     ??_main:
   401                           
   402                           ; 1 bytes @ 0x9
   403  00A9                     	ds	3
   404  00AC                     main@out:
   405                           
   406                           ; 10 bytes @ 0xC
   407  00AC                     	ds	10
   408  00B6                     main@num:
   409                           
   410                           ; 2 bytes @ 0x16
   411  00B6                     	ds	2
   412                           
   413                           	psect	cstackCOMMON
   414  0070                     __pcstackCOMMON:
   415  0070                     ?_spiInit:
   416  0070                     ?_spiRead:	
   417                           ; 1 bytes @ 0x0
   418                           
   419  0070                     ??_spiRead:	
   420                           ; 1 bytes @ 0x0
   421                           
   422  0070                     ?_spiWrite:	
   423                           ; 1 bytes @ 0x0
   424                           
   425  0070                     ??_spiWrite:	
   426                           ; 1 bytes @ 0x0
   427                           
   428  0070                     ?_UART_Write:	
   429                           ; 1 bytes @ 0x0
   430                           
   431  0070                     ??_UART_Write:	
   432                           ; 1 bytes @ 0x0
   433                           
   434  0070                     ??_PWM1_Start:	
   435                           ; 1 bytes @ 0x0
   436                           
   437  0070                     ??_PWM2_Start:	
   438                           ; 1 bytes @ 0x0
   439                           
   440  0070                     ?_main:	
   441                           ; 1 bytes @ 0x0
   442                           
   443  0070                     ?_spiReceiveWait:	
   444                           ; 1 bytes @ 0x0
   445                           
   446  0070                     ??_spiReceiveWait:	
   447                           ; 1 bytes @ 0x0
   448                           
   449  0070                     ?_spiDataReady:	
   450                           ; 1 bytes @ 0x0
   451                           
   452  0070                     ?__Umul8_16:	
   453                           ; 2 bytes @ 0x0
   454                           
   455  0070                     ?_PWM1_Start:	
   456                           ; 2 bytes @ 0x0
   457                           
   458  0070                     ?_PWM2_Start:	
   459                           ; 2 bytes @ 0x0
   460                           
   461  0070                     ?___lwdiv:	
   462                           ; 2 bytes @ 0x0
   463                           
   464  0070                     ?___aldiv:	
   465                           ; 2 bytes @ 0x0
   466                           
   467  0070                     UART_Write@data:	
   468                           ; 4 bytes @ 0x0
   469                           
   470  0070                     spiInit@sDataSample:	
   471                           ; 1 bytes @ 0x0
   472                           
   473  0070                     spiWrite@dat:	
   474                           ; 1 bytes @ 0x0
   475                           
   476  0070                     __Umul8_16@multiplicand:	
   477                           ; 1 bytes @ 0x0
   478                           
   479  0070                     ___lwdiv@divisor:	
   480                           ; 1 bytes @ 0x0
   481                           
   482  0070                     ___aldiv@divisor:	
   483                           ; 2 bytes @ 0x0
   484                           
   485                           
   486                           ; 4 bytes @ 0x0
   487  0070                     	ds	1
   488  0071                     ?_UART_Write_Text:
   489  0071                     spiInit@sClockIdle:	
   490                           ; 1 bytes @ 0x1
   491                           
   492  0071                     UART_Write_Text@text:	
   493                           ; 1 bytes @ 0x1
   494                           
   495                           
   496                           ; 2 bytes @ 0x1
   497  0071                     	ds	1
   498  0072                     ??_spiDataReady:
   499  0072                     ??__Umul8_16:	
   500                           ; 1 bytes @ 0x2
   501                           
   502  0072                     spiInit@sTransmitEdge:	
   503                           ; 1 bytes @ 0x2
   504                           
   505  0072                     ___lwdiv@dividend:	
   506                           ; 1 bytes @ 0x2
   507                           
   508                           
   509                           ; 2 bytes @ 0x2
   510  0072                     	ds	1
   511  0073                     ??_spiInit:
   512  0073                     ??_UART_Write_Text:	
   513                           ; 1 bytes @ 0x3
   514                           
   515  0073                     spiInit@sType:	
   516                           ; 1 bytes @ 0x3
   517                           
   518                           
   519                           ; 1 bytes @ 0x3
   520  0073                     	ds	1
   521  0074                     ??___lwdiv:
   522  0074                     __Umul8_16@product:	
   523                           ; 1 bytes @ 0x4
   524                           
   525  0074                     ___aldiv@dividend:	
   526                           ; 2 bytes @ 0x4
   527                           
   528                           
   529                           ; 4 bytes @ 0x4
   530  0074                     	ds	1
   531  0075                     ___lwdiv@quotient:
   532                           
   533                           ; 2 bytes @ 0x5
   534  0075                     	ds	1
   535  0076                     UART_Write_Text@i:
   536  0076                     __Umul8_16@word_mpld:	
   537                           ; 2 bytes @ 0x6
   538                           
   539                           
   540                           ; 2 bytes @ 0x6
   541  0076                     	ds	1
   542  0077                     ___lwdiv@counter:
   543                           
   544                           ; 1 bytes @ 0x7
   545  0077                     	ds	1
   546  0078                     ??___aldiv:
   547  0078                     ?___lwmod:	
   548                           ; 1 bytes @ 0x8
   549                           
   550  0078                     __Umul8_16@multiplier:	
   551                           ; 2 bytes @ 0x8
   552                           
   553  0078                     ___lwmod@divisor:	
   554                           ; 1 bytes @ 0x8
   555                           
   556                           
   557                           ; 2 bytes @ 0x8
   558  0078                     	ds	1
   559  0079                     ??_PWM_Max_Duty:
   560  0079                     ??_PWM1_Init_Fre:	
   561                           ; 1 bytes @ 0x9
   562                           
   563  0079                     ??_PWM2_Init_Fre:	
   564                           ; 1 bytes @ 0x9
   565                           
   566  0079                     UART_Init@x:	
   567                           ; 1 bytes @ 0x9
   568                           
   569                           
   570                           ; 2 bytes @ 0x9
   571  0079                     	ds	1
   572  007A                     ___lwmod@dividend:
   573                           
   574                           ; 2 bytes @ 0xA
   575  007A                     	ds	2
   576  007C                     ??___lwmod:
   577                           
   578                           ; 1 bytes @ 0xC
   579  007C                     	ds	1
   580  007D                     ___lwmod@counter:
   581                           
   582                           ; 1 bytes @ 0xD
   583  007D                     	ds	1
   584                           
   585                           	psect	cstackBANK0
   586  0020                     __pcstackBANK0:
   587  0020                     ?_sprintf:
   588  0020                     sprintf@f:	
   589                           ; 2 bytes @ 0x0
   590                           
   591  0020                     ___aldiv@counter:	
   592                           ; 1 bytes @ 0x0
   593                           
   594                           
   595                           ; 1 bytes @ 0x0
   596  0020                     	ds	1
   597  0021                     ___aldiv@sign:
   598                           
   599                           ; 1 bytes @ 0x1
   600  0021                     	ds	1
   601  0022                     ___aldiv@quotient:
   602                           
   603                           ; 4 bytes @ 0x2
   604  0022                     	ds	1
   605  0023                     ??_sprintf:
   606                           
   607                           ; 1 bytes @ 0x3
   608  0023                     	ds	3
   609  0026                     ?_UART_Init:
   610  0026                     ?_PWM_Max_Duty:	
   611                           ; 1 bytes @ 0x6
   612                           
   613  0026                     ?_PWM1_Init_Fre:	
   614                           ; 2 bytes @ 0x6
   615                           
   616  0026                     ?_PWM2_Init_Fre:	
   617                           ; 2 bytes @ 0x6
   618                           
   619  0026                     sprintf@ap:	
   620                           ; 2 bytes @ 0x6
   621                           
   622  0026                     UART_Init@baudrate:	
   623                           ; 1 bytes @ 0x6
   624                           
   625  0026                     PWM1_Init_Fre@fre:	
   626                           ; 4 bytes @ 0x6
   627                           
   628  0026                     PWM2_Init_Fre@fre:	
   629                           ; 4 bytes @ 0x6
   630                           
   631                           
   632                           ; 4 bytes @ 0x6
   633  0026                     	ds	1
   634  0027                     sprintf@flag:
   635                           
   636                           ; 1 bytes @ 0x7
   637  0027                     	ds	1
   638  0028                     ?___xxtofl:
   639  0028                     sprintf@prec:	
   640                           ; 4 bytes @ 0x8
   641                           
   642  0028                     ___xxtofl@val:	
   643                           ; 1 bytes @ 0x8
   644                           
   645                           
   646                           ; 4 bytes @ 0x8
   647  0028                     	ds	1
   648  0029                     sprintf@val:
   649                           
   650                           ; 2 bytes @ 0x9
   651  0029                     	ds	1
   652  002A                     ??_UART_Init:
   653                           
   654                           ; 1 bytes @ 0xA
   655  002A                     	ds	1
   656  002B                     sprintf@sp:
   657                           
   658                           ; 1 bytes @ 0xB
   659  002B                     	ds	1
   660  002C                     ??___xxtofl:
   661  002C                     sprintf@c:	
   662                           ; 1 bytes @ 0xC
   663                           
   664                           
   665                           ; 1 bytes @ 0xC
   666  002C                     	ds	4
   667  0030                     ___xxtofl@sign:
   668                           
   669                           ; 1 bytes @ 0x10
   670  0030                     	ds	1
   671  0031                     ___xxtofl@exp:
   672                           
   673                           ; 1 bytes @ 0x11
   674  0031                     	ds	1
   675  0032                     ___xxtofl@arg:
   676                           
   677                           ; 4 bytes @ 0x12
   678  0032                     	ds	4
   679  0036                     ?___fldiv:
   680  0036                     ___fldiv@a:	
   681                           ; 4 bytes @ 0x16
   682                           
   683                           
   684                           ; 4 bytes @ 0x16
   685  0036                     	ds	4
   686  003A                     ___fldiv@b:
   687                           
   688                           ; 4 bytes @ 0x1A
   689  003A                     	ds	4
   690  003E                     ??___fldiv:
   691                           
   692                           ; 1 bytes @ 0x1E
   693  003E                     	ds	5
   694  0043                     ___fldiv@rem:
   695                           
   696                           ; 4 bytes @ 0x23
   697  0043                     	ds	4
   698  0047                     ___fldiv@sign:
   699                           
   700                           ; 1 bytes @ 0x27
   701  0047                     	ds	1
   702  0048                     ___fldiv@new_exp:
   703                           
   704                           ; 2 bytes @ 0x28
   705  0048                     	ds	2
   706  004A                     ___fldiv@grs:
   707                           
   708                           ; 4 bytes @ 0x2A
   709  004A                     	ds	4
   710  004E                     ___fldiv@bexp:
   711                           
   712                           ; 1 bytes @ 0x2E
   713  004E                     	ds	1
   714  004F                     ___fldiv@aexp:
   715                           
   716                           ; 1 bytes @ 0x2F
   717  004F                     	ds	1
   718  0050                     ?___flmul:
   719  0050                     ___flmul@b:	
   720                           ; 4 bytes @ 0x30
   721                           
   722                           
   723                           ; 4 bytes @ 0x30
   724  0050                     	ds	4
   725  0054                     ___flmul@a:
   726                           
   727                           ; 4 bytes @ 0x34
   728  0054                     	ds	4
   729  0058                     ??___flmul:
   730                           
   731                           ; 1 bytes @ 0x38
   732  0058                     	ds	5
   733  005D                     ___flmul@sign:
   734                           
   735                           ; 1 bytes @ 0x3D
   736  005D                     	ds	1
   737  005E                     ___flmul@grs:
   738                           
   739                           ; 4 bytes @ 0x3E
   740  005E                     	ds	4
   741  0062                     ___flmul@aexp:
   742                           
   743                           ; 1 bytes @ 0x42
   744  0062                     	ds	1
   745  0063                     ___flmul@bexp:
   746                           
   747                           ; 1 bytes @ 0x43
   748  0063                     	ds	1
   749  0064                     ___flmul@prod:
   750                           
   751                           ; 4 bytes @ 0x44
   752  0064                     	ds	4
   753  0068                     ___flmul@temp:
   754                           
   755                           ; 2 bytes @ 0x48
   756  0068                     	ds	2
   757  006A                     ?___fltol:
   758  006A                     ___fltol@f1:	
   759                           ; 4 bytes @ 0x4A
   760                           
   761                           
   762                           ; 4 bytes @ 0x4A
   763  006A                     	ds	4
   764  006E                     ___fltol@sign1:
   765                           
   766                           ; 1 bytes @ 0x4E
   767  006E                     	ds	1
   768  006F                     ___fltol@exp1:
   769                           
   770                           ; 1 bytes @ 0x4F
   771  006F                     	ds	1
   772                           
   773                           	psect	maintext
   774  01C4                     __pmaintext:	
   775 ;;
   776 ;;Main: autosize = 0, tempsize = 3, incstack = 0, save=0
   777 ;;
   778 ;; *************** function _main *****************
   779 ;; Defined at:
   780 ;;		line 27 in file "newmain.c"
   781 ;; Parameters:    Size  Location     Type
   782 ;;		None
   783 ;; Auto vars:     Size  Location     Type
   784 ;;  out            10   12[BANK1 ] unsigned char [10]
   785 ;;  num             2   22[BANK1 ] int 
   786 ;; Return value:  Size  Location     Type
   787 ;;                  1    wreg      void 
   788 ;; Registers used:
   789 ;;		wreg, fsr0l, fsr0h, status,2, status,0, btemp+1, pclath, cstack
   790 ;; Tracked objects:
   791 ;;		On entry : B00/0
   792 ;;		On exit  : 0/0
   793 ;;		Unchanged: 0/0
   794 ;; Data sizes:     COMMON   BANK0   BANK1   BANK3   BANK2
   795 ;;      Params:         0       0       0       0       0
   796 ;;      Locals:         0       0      12       0       0
   797 ;;      Temps:          0       0       3       0       0
   798 ;;      Totals:         0       0      15       0       0
   799 ;;Total ram usage:       15 bytes
   800 ;; Hardware stack levels required when called: 3
   801 ;; This function calls:
   802 ;;		_PWM1_Duty
   803 ;;		_PWM1_Init_Fre
   804 ;;		_PWM1_Start
   805 ;;		_PWM2_Duty
   806 ;;		_PWM2_Init_Fre
   807 ;;		_PWM2_Start
   808 ;;		_UART_Init
   809 ;;		_UART_Write_Text
   810 ;;		_spiDataReady
   811 ;;		_spiInit
   812 ;;		_spiRead
   813 ;;		_spiWrite
   814 ;;		_sprintf
   815 ;; This function is called by:
   816 ;;		Startup code after reset
   817 ;; This function uses a non-reentrant model
   818 ;;
   819                           
   820                           
   821                           ;psect for function _main
   822  01C4                     _main:
   823  01C4                     l2170:	
   824                           ;incstack = 0
   825                           ; Regs used in _main: [wreg-fsr0h+status,2+status,0+btemp+1+pclath+cstack]
   826                           
   827                           
   828                           ;newmain.c: 29:     TRISD = 0;
   829  01C4  1683               	bsf	3,5	;RP0=1, select bank1
   830  01C5  1303               	bcf	3,6	;RP1=0, select bank1
   831  01C6  0188               	clrf	8	;volatile
   832                           
   833                           ;newmain.c: 30:     PORTD = 0;
   834  01C7  1283               	bcf	3,5	;RP0=0, select bank0
   835  01C8  1303               	bcf	3,6	;RP1=0, select bank0
   836  01C9  0188               	clrf	8	;volatile
   837  01CA                     l2172:
   838                           
   839                           ;newmain.c: 32:     GIE = 1;
   840  01CA  178B               	bsf	11,7	;volatile
   841  01CB                     l2174:
   842                           
   843                           ;newmain.c: 33:     PEIE = 1;
   844  01CB  170B               	bsf	11,6	;volatile
   845  01CC                     l2176:
   846                           
   847                           ;newmain.c: 34:     SSPIF = 0;
   848  01CC  118C               	bcf	12,3	;volatile
   849  01CD                     l2178:
   850                           
   851                           ;newmain.c: 35:     SSPIE = 1;
   852  01CD  1683               	bsf	3,5	;RP0=1, select bank1
   853  01CE  1303               	bcf	3,6	;RP1=0, select bank1
   854  01CF  158C               	bsf	12,3	;volatile
   855  01D0                     l2180:
   856                           
   857                           ;newmain.c: 36:     ADCON1 = 0x07;
   858  01D0  3007               	movlw	7
   859  01D1  009F               	movwf	31	;volatile
   860  01D2                     l2182:
   861                           
   862                           ;newmain.c: 37:     TRISA5 = 1;
   863  01D2  1685               	bsf	5,5	;volatile
   864  01D3                     l2184:
   865                           
   866                           ;newmain.c: 38:     UART_Init(9600);
   867  01D3  3000               	movlw	0
   868  01D4  1283               	bcf	3,5	;RP0=0, select bank0
   869  01D5  1303               	bcf	3,6	;RP1=0, select bank0
   870  01D6  00A9               	movwf	UART_Init@baudrate+3
   871  01D7  3000               	movlw	0
   872  01D8  00A8               	movwf	UART_Init@baudrate+2
   873  01D9  3025               	movlw	37
   874  01DA  00A7               	movwf	UART_Init@baudrate+1
   875  01DB  3080               	movlw	128
   876  01DC  00A6               	movwf	UART_Init@baudrate
   877  01DD  120A  158A  2726  120A  118A  	fcall	_UART_Init
   878  01E2                     l2186:
   879                           
   880                           ;newmain.c: 39:     spiInit(SPI_SLAVE_SS_EN, SPI_DATA_SAMPLE_MIDDLE, SPI_CLOCK_IDLE_LOW,
      +                           SPI_IDLE_2_ACTIVE);
   881  01E2  01F0               	clrf	spiInit@sDataSample
   882  01E3  01F1               	clrf	spiInit@sClockIdle
   883  01E4  01F2               	clrf	spiInit@sTransmitEdge
   884  01E5  3024               	movlw	36
   885  01E6  120A  118A  200A  120A  118A  	fcall	_spiInit
   886  01EB                     l2188:
   887                           
   888                           ;newmain.c: 40:     PWM2_Init_Fre(1000);
   889  01EB  3000               	movlw	0
   890  01EC  1283               	bcf	3,5	;RP0=0, select bank0
   891  01ED  1303               	bcf	3,6	;RP1=0, select bank0
   892  01EE  00A9               	movwf	PWM2_Init_Fre@fre+3
   893  01EF  3000               	movlw	0
   894  01F0  00A8               	movwf	PWM2_Init_Fre@fre+2
   895  01F1  3003               	movlw	3
   896  01F2  00A7               	movwf	PWM2_Init_Fre@fre+1
   897  01F3  30E8               	movlw	232
   898  01F4  00A6               	movwf	PWM2_Init_Fre@fre
   899  01F5  120A  158A  2474  120A  118A  	fcall	_PWM2_Init_Fre
   900  01FA                     l2190:
   901                           
   902                           ;newmain.c: 41:     PWM1_Init_Fre(1000);
   903  01FA  3000               	movlw	0
   904  01FB  1283               	bcf	3,5	;RP0=0, select bank0
   905  01FC  1303               	bcf	3,6	;RP1=0, select bank0
   906  01FD  00A9               	movwf	PWM1_Init_Fre@fre+3
   907  01FE  3000               	movlw	0
   908  01FF  00A8               	movwf	PWM1_Init_Fre@fre+2
   909  0200  3003               	movlw	3
   910  0201  00A7               	movwf	PWM1_Init_Fre@fre+1
   911  0202  30E8               	movlw	232
   912  0203  00A6               	movwf	PWM1_Init_Fre@fre
   913  0204  120A  158A  2425  120A  118A  	fcall	_PWM1_Init_Fre
   914  0209                     l2192:
   915                           
   916                           ;newmain.c: 42:     PORTDbits.RD1 = 0;
   917  0209  1283               	bcf	3,5	;RP0=0, select bank0
   918  020A  1303               	bcf	3,6	;RP1=0, select bank0
   919  020B  1088               	bcf	8,1	;volatile
   920  020C                     l2194:
   921                           
   922                           ;newmain.c: 43:     PORTDbits.RD2 = 1;
   923  020C  1508               	bsf	8,2	;volatile
   924  020D                     l2196:
   925                           
   926                           ;newmain.c: 44:     PORTDbits.RD3 = 0;
   927  020D  1188               	bcf	8,3	;volatile
   928  020E                     l2198:
   929                           
   930                           ;newmain.c: 45:     PORTDbits.RD4 = 1;
   931  020E  1608               	bsf	8,4	;volatile
   932  020F                     l2200:
   933                           
   934                           ;newmain.c: 47:     {;newmain.c: 48:         PWM2_Duty(255);
   935  020F  30FF               	movlw	255
   936  0210  1683               	bsf	3,5	;RP0=1, select bank1
   937  0211  1303               	bcf	3,6	;RP1=0, select bank1
   938  0212  00A5               	movwf	PWM2_Duty@duty^(0+128)
   939  0213  3000               	movlw	0
   940  0214  00A6               	movwf	(PWM2_Duty@duty^(0+128)+1)
   941  0215  120A  158A  2558  120A  118A  	fcall	_PWM2_Duty
   942  021A                     l2202:
   943                           
   944                           ;newmain.c: 49:         PWM1_Duty(50);
   945  021A  3032               	movlw	50
   946  021B  1683               	bsf	3,5	;RP0=1, select bank1
   947  021C  1303               	bcf	3,6	;RP1=0, select bank1
   948  021D  00A5               	movwf	PWM1_Duty@duty^(0+128)
   949  021E  3000               	movlw	0
   950  021F  00A6               	movwf	(PWM1_Duty@duty^(0+128)+1)
   951  0220  120A  158A  24C3  120A  118A  	fcall	_PWM1_Duty
   952  0225                     l2204:
   953                           
   954                           ;newmain.c: 50:         PWM2_Start();
   955  0225  120A  158A  22EA  120A  118A  	fcall	_PWM2_Start
   956  022A                     l2206:
   957                           
   958                           ;newmain.c: 51:         PWM1_Start();
   959  022A  120A  158A  22DF  120A  118A  	fcall	_PWM1_Start
   960  022F                     l2208:
   961                           
   962                           ;newmain.c: 53:         if(spiDataReady())
   963  022F  120A  158A  2301  120A  118A  	fcall	_spiDataReady
   964  0234  0870               	movf	?_spiDataReady,w
   965  0235  0471               	iorwf	?_spiDataReady+1,w
   966  0236  1903               	btfsc	3,2
   967  0237  2A39               	goto	u2991
   968  0238  2A3A               	goto	u2990
   969  0239                     u2991:
   970  0239  2AAA               	goto	l2234
   971  023A                     u2990:
   972  023A                     l2210:
   973                           
   974                           ;newmain.c: 54:         {;newmain.c: 55:             char out [10];;newmain.c: 56:      
      +                                 int num = spiRead ();
   975  023A  120A  158A  22D6  120A  118A  	fcall	_spiRead
   976  023F  1683               	bsf	3,5	;RP0=1, select bank1
   977  0240  1303               	bcf	3,6	;RP1=0, select bank1
   978  0241  00A9               	movwf	??_main^(0+128)
   979  0242  01AA               	clrf	(??_main^(0+128)+1)
   980  0243  0829               	movf	??_main^(0+128),w
   981  0244  00B6               	movwf	main@num^(0+128)
   982  0245  082A               	movf	(??_main+1)^(0+128),w
   983  0246  00B7               	movwf	(main@num+1)^(0+128)
   984  0247                     l2212:
   985                           
   986                           ;newmain.c: 57:             sprintf(out, "%d\n", num);
   987  0247  3013               	movlw	(low ((STR_1-__stringbase)| (0+32768)))& (0+255)
   988  0248  00A9               	movwf	??_main^(0+128)
   989  0249  0829               	movf	??_main^(0+128),w
   990  024A  1283               	bcf	3,5	;RP0=0, select bank0
   991  024B  1303               	bcf	3,6	;RP1=0, select bank0
   992  024C  00A0               	movwf	sprintf@f
   993  024D  1683               	bsf	3,5	;RP0=1, select bank1
   994  024E  1303               	bcf	3,6	;RP1=0, select bank1
   995  024F  0837               	movf	(main@num+1)^(0+128),w
   996  0250  1283               	bcf	3,5	;RP0=0, select bank0
   997  0251  1303               	bcf	3,6	;RP1=0, select bank0
   998  0252  00A2               	movwf	?_sprintf+2
   999  0253  1683               	bsf	3,5	;RP0=1, select bank1
  1000  0254  1303               	bcf	3,6	;RP1=0, select bank1
  1001  0255  0836               	movf	main@num^(0+128),w
  1002  0256  1283               	bcf	3,5	;RP0=0, select bank0
  1003  0257  1303               	bcf	3,6	;RP1=0, select bank0
  1004  0258  00A1               	movwf	?_sprintf+1
  1005  0259  30AC               	movlw	(low (main@out| 0))& (0+255)
  1006  025A  120A  118A  20DC  120A  118A  	fcall	_sprintf
  1007  025F                     l2214:
  1008                           
  1009                           ;newmain.c: 58:             if (spiRead())
  1010  025F  120A  158A  22D6  120A  118A  	fcall	_spiRead
  1011  0264  3A00               	xorlw	0
  1012  0265  1903               	skipnz
  1013  0266  2A68               	goto	u3001
  1014  0267  2A69               	goto	u3000
  1015  0268                     u3001:
  1016  0268  2AA6               	goto	l2230
  1017  0269                     u3000:
  1018  0269                     l2216:
  1019                           
  1020                           ;newmain.c: 59:             {;newmain.c: 60:                 RD0 = 1;
  1021  0269  1283               	bcf	3,5	;RP0=0, select bank0
  1022  026A  1303               	bcf	3,6	;RP1=0, select bank0
  1023  026B  1408               	bsf	8,0	;volatile
  1024  026C                     l2218:
  1025                           
  1026                           ;newmain.c: 61:                 spiWrite (1);
  1027  026C  3001               	movlw	1
  1028  026D  120A  158A  22D0  120A  118A  	fcall	_spiWrite
  1029  0272                     l2220:
  1030                           
  1031                           ;newmain.c: 62:                 UART_Write_Text("Data = ");
  1032  0272  300B               	movlw	(low ((STR_2-__stringbase)| (0+32768)))& (0+255)
  1033  0273  00F1               	movwf	UART_Write_Text@text
  1034  0274  3080               	movlw	128
  1035  0275  00F2               	movwf	UART_Write_Text@text+1
  1036  0276  120A  158A  239F  120A  118A  	fcall	_UART_Write_Text
  1037  027B                     l2222:
  1038                           
  1039                           ;newmain.c: 63:                 UART_Write_Text (out);
  1040  027B  30AC               	movlw	(low (main@out| 0))& (0+255)
  1041  027C  00F1               	movwf	UART_Write_Text@text
  1042  027D  3000               	movlw	0
  1043  027E  00F2               	movwf	UART_Write_Text@text+1
  1044  027F  120A  158A  239F  120A  118A  	fcall	_UART_Write_Text
  1045  0284                     l2224:
  1046                           
  1047                           ;newmain.c: 64:                 _delay((unsigned long)((90)*(8000000/4000.0)));
  1048  0284  30EA               	movlw	234
  1049  0285  1683               	bsf	3,5	;RP0=1, select bank1
  1050  0286  1303               	bcf	3,6	;RP1=0, select bank1
  1051  0287  00AA               	movwf	(??_main^(0+128)+1)
  1052  0288  30C2               	movlw	194
  1053  0289  00A9               	movwf	??_main^(0+128)
  1054  028A                     u3017:
  1055  028A  0BA9               	decfsz	??_main^(0+128),f
  1056  028B  2A8A               	goto	u3017
  1057  028C  0BAA               	decfsz	(??_main^(0+128)+1),f
  1058  028D  2A8A               	goto	u3017
  1059  028E  0000               	nop
  1060  028F                     l2226:
  1061                           
  1062                           ;newmain.c: 65:                 UART_Write_Text("\n\r");
  1063  028F  3017               	movlw	(low ((STR_3-__stringbase)| (0+32768)))& (0+255)
  1064  0290  00F1               	movwf	UART_Write_Text@text
  1065  0291  3080               	movlw	128
  1066  0292  00F2               	movwf	UART_Write_Text@text+1
  1067  0293  120A  158A  239F  120A  118A  	fcall	_UART_Write_Text
  1068  0298                     l2228:
  1069                           
  1070                           ;newmain.c: 66:                 _delay((unsigned long)((1000)*(8000000/4000.0)));
  1071  0298  300B               	movlw	11
  1072  0299  1683               	bsf	3,5	;RP0=1, select bank1
  1073  029A  1303               	bcf	3,6	;RP1=0, select bank1
  1074  029B  00AB               	movwf	(??_main^(0+128)+2)
  1075  029C  3026               	movlw	38
  1076  029D  00AA               	movwf	(??_main^(0+128)+1)
  1077  029E  305D               	movlw	93
  1078  029F  00A9               	movwf	??_main^(0+128)
  1079  02A0                     u3027:
  1080  02A0  0BA9               	decfsz	??_main^(0+128),f
  1081  02A1  2AA0               	goto	u3027
  1082  02A2  0BAA               	decfsz	(??_main^(0+128)+1),f
  1083  02A3  2AA0               	goto	u3027
  1084  02A4  0BAB               	decfsz	(??_main^(0+128)+2),f
  1085  02A5  2AA0               	goto	u3027
  1086  02A6                     l2230:
  1087                           
  1088                           ;newmain.c: 68:             RD0 = 0;
  1089  02A6  1283               	bcf	3,5	;RP0=0, select bank0
  1090  02A7  1303               	bcf	3,6	;RP1=0, select bank0
  1091  02A8  1008               	bcf	8,0	;volatile
  1092  02A9                     l2232:
  1093                           
  1094                           ;newmain.c: 69:             SSPIF = 0;
  1095  02A9  118C               	bcf	12,3	;volatile
  1096  02AA                     l2234:
  1097                           
  1098                           ;newmain.c: 71:         _delay((unsigned long)((5)*(8000000/4000.0)));
  1099  02AA  300D               	movlw	13
  1100  02AB  1683               	bsf	3,5	;RP0=1, select bank1
  1101  02AC  1303               	bcf	3,6	;RP1=0, select bank1
  1102  02AD  00AA               	movwf	(??_main^(0+128)+1)
  1103  02AE  30FB               	movlw	251
  1104  02AF  00A9               	movwf	??_main^(0+128)
  1105  02B0                     u3037:
  1106  02B0  0BA9               	decfsz	??_main^(0+128),f
  1107  02B1  2AB0               	goto	u3037
  1108  02B2  0BAA               	decfsz	(??_main^(0+128)+1),f
  1109  02B3  2AB0               	goto	u3037
  1110  02B4  2A0F               	goto	l2200
  1111  02B5  120A  118A  2800   	ljmp	start
  1112  02B8                     __end_of_main:
  1113                           
  1114                           	psect	text1
  1115  00DC                     __ptext1:	
  1116 ;; *************** function _sprintf *****************
  1117 ;; Defined at:
  1118 ;;		line 505 in file "C:\Program Files\Microchip\xc8\v2.32\pic\sources\c90\common\doprnt.c"
  1119 ;; Parameters:    Size  Location     Type
  1120 ;;  sp              1    wreg     PTR unsigned char 
  1121 ;;		 -> main@out(10), 
  1122 ;;  f               1    0[BANK0 ] PTR const unsigned char 
  1123 ;;		 -> STR_1(4), 
  1124 ;; Auto vars:     Size  Location     Type
  1125 ;;  sp              1   11[BANK0 ] PTR unsigned char 
  1126 ;;		 -> main@out(10), 
  1127 ;;  tmpval          4    0        struct .
  1128 ;;  val             2    9[BANK0 ] unsigned int 
  1129 ;;  cp              2    0        PTR const unsigned char 
  1130 ;;  len             2    0        unsigned int 
  1131 ;;  c               1   12[BANK0 ] unsigned char 
  1132 ;;  prec            1    8[BANK0 ] char 
  1133 ;;  flag            1    7[BANK0 ] unsigned char 
  1134 ;;  ap              1    6[BANK0 ] PTR void [1]
  1135 ;;		 -> ?_sprintf(2), 
  1136 ;; Return value:  Size  Location     Type
  1137 ;;                  2    0[BANK0 ] int 
  1138 ;; Registers used:
  1139 ;;		wreg, fsr0l, fsr0h, status,2, status,0, btemp+1, pclath, cstack
  1140 ;; Tracked objects:
  1141 ;;		On entry : 0/0
  1142 ;;		On exit  : 0/0
  1143 ;;		Unchanged: 0/0
  1144 ;; Data sizes:     COMMON   BANK0   BANK1   BANK3   BANK2
  1145 ;;      Params:         0       3       0       0       0
  1146 ;;      Locals:         0       7       0       0       0
  1147 ;;      Temps:          0       3       0       0       0
  1148 ;;      Totals:         0      13       0       0       0
  1149 ;;Total ram usage:       13 bytes
  1150 ;; Hardware stack levels used: 1
  1151 ;; Hardware stack levels required when called: 1
  1152 ;; This function calls:
  1153 ;;		___lwdiv
  1154 ;;		___lwmod
  1155 ;; This function is called by:
  1156 ;;		_main
  1157 ;; This function uses a non-reentrant model
  1158 ;;
  1159                           
  1160                           
  1161                           ;psect for function _sprintf
  1162  00DC                     _sprintf:
  1163                           
  1164                           ;incstack = 0
  1165                           ; Regs used in _sprintf: [wreg-fsr0h+status,2+status,0+btemp+1+pclath+cstack]
  1166                           ;sprintf@sp stored from wreg
  1167  00DC  1283               	bcf	3,5	;RP0=0, select bank0
  1168  00DD  1303               	bcf	3,6	;RP1=0, select bank0
  1169  00DE  00AB               	movwf	sprintf@sp
  1170  00DF                     l2106:
  1171                           
  1172                           ;C:\Program Files\Microchip\xc8\v2.32\pic\sources\c90\common\doprnt.c: 505: sprintf(char
      +                           * sp, const char * f, ...);C:\Program Files\Microchip\xc8\v2.32\pic\sources\c90\common\
      +                          doprnt.c: 506: {;C:\Program Files\Microchip\xc8\v2.32\pic\sources\c90\common\doprnt.c: 5
      +                          07:  va_list ap;;C:\Program Files\Microchip\xc8\v2.32\pic\sources\c90\common\doprnt.c: 5
      +                          12:  char c;;C:\Program Files\Microchip\xc8\v2.32\pic\sources\c90\common\doprnt.c: 521: 
      +                           signed char prec;;C:\Program Files\Microchip\xc8\v2.32\pic\sources\c90\common\doprnt.c:
      +                           525:  unsigned char flag;
  1173  00DF  3021               	movlw	(low ((?_sprintf| 0+1)))& (0+255)
  1174  00E0  00A3               	movwf	??_sprintf
  1175  00E1  0823               	movf	??_sprintf,w
  1176  00E2  00A6               	movwf	sprintf@ap
  1177                           
  1178                           ;C:\Program Files\Microchip\xc8\v2.32\pic\sources\c90\common\doprnt.c: 553:  while((c = 
      +                          *f++)) {
  1179  00E3  29AD               	goto	l2158
  1180  00E4                     l2108:
  1181                           
  1182                           ;C:\Program Files\Microchip\xc8\v2.32\pic\sources\c90\common\doprnt.c: 555:   if(c != '%
      +                          ')
  1183  00E4  3025               	movlw	37
  1184  00E5  062C               	xorwf	sprintf@c,w
  1185  00E6  1903               	btfsc	3,2
  1186  00E7  28E9               	goto	u2921
  1187  00E8  28EA               	goto	u2920
  1188  00E9                     u2921:
  1189  00E9  28F6               	goto	l2114
  1190  00EA                     u2920:
  1191  00EA                     l2110:
  1192                           
  1193                           ;C:\Program Files\Microchip\xc8\v2.32\pic\sources\c90\common\doprnt.c: 557:   {;C:\Progr
      +                          am Files\Microchip\xc8\v2.32\pic\sources\c90\common\doprnt.c: 558:    ((*sp++ = (c)));
  1194  00EA  082C               	movf	sprintf@c,w
  1195  00EB  00A3               	movwf	??_sprintf
  1196  00EC  082B               	movf	sprintf@sp,w
  1197  00ED  0084               	movwf	4
  1198  00EE  0823               	movf	??_sprintf,w
  1199  00EF  1383               	bcf	3,7	;select IRP bank0
  1200  00F0  0080               	movwf	0
  1201  00F1                     l2112:
  1202  00F1  3001               	movlw	1
  1203  00F2  00A3               	movwf	??_sprintf
  1204  00F3  0823               	movf	??_sprintf,w
  1205  00F4  07AB               	addwf	sprintf@sp,f
  1206                           
  1207                           ;C:\Program Files\Microchip\xc8\v2.32\pic\sources\c90\common\doprnt.c: 559:    continue;
  1208  00F5  29AD               	goto	l2158
  1209  00F6                     l2114:
  1210                           
  1211                           ;C:\Program Files\Microchip\xc8\v2.32\pic\sources\c90\common\doprnt.c: 565:   flag = 0;
  1212  00F6  01A7               	clrf	sprintf@flag
  1213  00F7                     l2118:	
  1214                           ;C:\Program Files\Microchip\xc8\v2.32\pic\sources\c90\common\doprnt.c: 661:   switch(c =
      +                           *f++) {
  1215                           
  1216  00F7  3001               	movlw	1
  1217  00F8  07A0               	addwf	sprintf@f,f
  1218  00F9  30FF               	movlw	-1
  1219  00FA  0720               	addwf	sprintf@f,w
  1220  00FB  0084               	movwf	4
  1221  00FC  120A  158A  200A  120A  118A  	fcall	stringdir
  1222  0101  00AC               	movwf	sprintf@c
  1223  0102  00A3               	movwf	??_sprintf
  1224  0103  01A4               	clrf	??_sprintf+1
  1225                           
  1226                           ; Switch on 2 bytes has been partitioned into a top level switch of size 1, and 1 sub-sw
      +                          itches
  1227                           ; Switch size 1, requested type "simple"
  1228                           ; Number of cases is 1, Range of values is 0 to 0
  1229                           ; switch strategies available:
  1230                           ; Name         Instructions Cycles
  1231                           ; simple_byte            4     3 (average)
  1232                           ; direct_byte           11     8 (fixed)
  1233                           ; jumptable            260     6 (fixed)
  1234                           ;	Chosen strategy is simple_byte
  1235  0104  0824               	movf	??_sprintf+1,w
  1236  0105  3A00               	xorlw	0	; case 0
  1237  0106  1903               	skipnz
  1238  0107  2909               	goto	l2256
  1239  0108  29AD               	goto	l2158
  1240  0109                     l2256:
  1241                           
  1242                           ; Switch size 1, requested type "simple"
  1243                           ; Number of cases is 3, Range of values is 0 to 105
  1244                           ; switch strategies available:
  1245                           ; Name         Instructions Cycles
  1246                           ; simple_byte           10     6 (average)
  1247                           ; jumptable            260     6 (fixed)
  1248                           ;	Chosen strategy is simple_byte
  1249  0109  0823               	movf	??_sprintf,w
  1250  010A  3A00               	xorlw	0	; case 0
  1251  010B  1903               	skipnz
  1252  010C  29BF               	goto	l2160
  1253  010D  3A64               	xorlw	100	; case 100
  1254  010E  1903               	skipnz
  1255  010F  2914               	goto	l2120
  1256  0110  3A0D               	xorlw	13	; case 105
  1257  0111  1903               	skipnz
  1258  0112  2914               	goto	l2120
  1259  0113  29AD               	goto	l2158
  1260  0114                     l2120:
  1261                           
  1262                           ;C:\Program Files\Microchip\xc8\v2.32\pic\sources\c90\common\doprnt.c: 1279:   {;C:\Prog
      +                          ram Files\Microchip\xc8\v2.32\pic\sources\c90\common\doprnt.c: 1285:     val = (unsigned
      +                           int)(*(int *)__va_arg((*(int **)ap), (int)0));
  1263  0114  0826               	movf	sprintf@ap,w
  1264  0115  0084               	movwf	4
  1265  0116  1383               	bcf	3,7	;select IRP bank0
  1266  0117  0800               	movf	0,w
  1267  0118  00A9               	movwf	sprintf@val
  1268  0119  0A84               	incf	4,f
  1269  011A  0800               	movf	0,w
  1270  011B  00AA               	movwf	sprintf@val+1
  1271  011C                     l2122:
  1272  011C  3002               	movlw	2
  1273  011D  00A3               	movwf	??_sprintf
  1274  011E  0823               	movf	??_sprintf,w
  1275  011F  07A6               	addwf	sprintf@ap,f
  1276  0120                     l2124:
  1277                           
  1278                           ;C:\Program Files\Microchip\xc8\v2.32\pic\sources\c90\common\doprnt.c: 1287:    if((int)
      +                          val < 0) {
  1279  0120  1FAA               	btfss	sprintf@val+1,7
  1280  0121  2923               	goto	u2931
  1281  0122  2924               	goto	u2930
  1282  0123                     u2931:
  1283  0123  292D               	goto	l2130
  1284  0124                     u2930:
  1285  0124                     l2126:
  1286                           
  1287                           ;C:\Program Files\Microchip\xc8\v2.32\pic\sources\c90\common\doprnt.c: 1288:     flag |=
      +                           0x03;
  1288  0124  3003               	movlw	3
  1289  0125  00A3               	movwf	??_sprintf
  1290  0126  0823               	movf	??_sprintf,w
  1291  0127  04A7               	iorwf	sprintf@flag,f
  1292  0128                     l2128:
  1293                           
  1294                           ;C:\Program Files\Microchip\xc8\v2.32\pic\sources\c90\common\doprnt.c: 1289:     val = -
      +                          val;
  1295  0128  09A9               	comf	sprintf@val,f
  1296  0129  09AA               	comf	sprintf@val+1,f
  1297  012A  0AA9               	incf	sprintf@val,f
  1298  012B  1903               	skipnz
  1299  012C  0AAA               	incf	sprintf@val+1,f
  1300  012D                     l2130:
  1301                           
  1302                           ;C:\Program Files\Microchip\xc8\v2.32\pic\sources\c90\common\doprnt.c: 1292:   };C:\Prog
      +                          ram Files\Microchip\xc8\v2.32\pic\sources\c90\common\doprnt.c: 1331:    for(c = 1 ; c !=
      +                           sizeof dpowers/sizeof dpowers[0] ; c++)
  1303  012D  01AC               	clrf	sprintf@c
  1304  012E  0AAC               	incf	sprintf@c,f
  1305  012F                     l2136:
  1306                           
  1307                           ;C:\Program Files\Microchip\xc8\v2.32\pic\sources\c90\common\doprnt.c: 1332:     if(val 
      +                          < dpowers[c])
  1308  012F  082C               	movf	sprintf@c,w
  1309  0130  00A3               	movwf	??_sprintf
  1310  0131  0723               	addwf	??_sprintf,w
  1311  0132  3E01               	addlw	low ((_dpowers-__stringbase)| (0+32768))
  1312  0133  0084               	movwf	4
  1313  0134  120A  158A  200A  120A  118A  	fcall	stringdir
  1314  0139  00A4               	movwf	??_sprintf+1
  1315  013A  120A  158A  200A  120A  118A  	fcall	stringdir
  1316  013F  00A5               	movwf	??_sprintf+2
  1317  0140  0825               	movf	??_sprintf+2,w
  1318  0141  022A               	subwf	sprintf@val+1,w
  1319  0142  1D03               	skipz
  1320  0143  2946               	goto	u2945
  1321  0144  0824               	movf	??_sprintf+1,w
  1322  0145  0229               	subwf	sprintf@val,w
  1323  0146                     u2945:
  1324  0146  1803               	skipnc
  1325  0147  2949               	goto	u2941
  1326  0148  294A               	goto	u2940
  1327  0149                     u2941:
  1328  0149  294B               	goto	l2140
  1329  014A                     u2940:
  1330  014A  2955               	goto	l2142
  1331  014B                     l2140:
  1332  014B  3001               	movlw	1
  1333  014C  00A3               	movwf	??_sprintf
  1334  014D  0823               	movf	??_sprintf,w
  1335  014E  07AC               	addwf	sprintf@c,f
  1336  014F  3005               	movlw	5
  1337  0150  062C               	xorwf	sprintf@c,w
  1338  0151  1D03               	btfss	3,2
  1339  0152  2954               	goto	u2951
  1340  0153  2955               	goto	u2950
  1341  0154                     u2951:
  1342  0154  292F               	goto	l2136
  1343  0155                     u2950:
  1344  0155                     l2142:
  1345                           
  1346                           ;C:\Program Files\Microchip\xc8\v2.32\pic\sources\c90\common\doprnt.c: 1448:   {;C:\Prog
      +                          ram Files\Microchip\xc8\v2.32\pic\sources\c90\common\doprnt.c: 1464:    if(flag & 0x03)
  1347  0155  0827               	movf	sprintf@flag,w
  1348  0156  3903               	andlw	3
  1349  0157  1903               	btfsc	3,2
  1350  0158  295A               	goto	u2961
  1351  0159  295B               	goto	u2960
  1352  015A                     u2961:
  1353  015A  2966               	goto	l2148
  1354  015B                     u2960:
  1355  015B                     l2144:
  1356                           
  1357                           ;C:\Program Files\Microchip\xc8\v2.32\pic\sources\c90\common\doprnt.c: 1465:     ((*sp++
      +                           = ('-')));
  1358  015B  302D               	movlw	45
  1359  015C  00A3               	movwf	??_sprintf
  1360  015D  082B               	movf	sprintf@sp,w
  1361  015E  0084               	movwf	4
  1362  015F  0823               	movf	??_sprintf,w
  1363  0160  1383               	bcf	3,7	;select IRP bank0
  1364  0161  0080               	movwf	0
  1365  0162                     l2146:
  1366  0162  3001               	movlw	1
  1367  0163  00A3               	movwf	??_sprintf
  1368  0164  0823               	movf	??_sprintf,w
  1369  0165  07AB               	addwf	sprintf@sp,f
  1370  0166                     l2148:
  1371                           
  1372                           ;C:\Program Files\Microchip\xc8\v2.32\pic\sources\c90\common\doprnt.c: 1495:   };C:\Prog
      +                          ram Files\Microchip\xc8\v2.32\pic\sources\c90\common\doprnt.c: 1498:   prec = c;
  1373  0166  082C               	movf	sprintf@c,w
  1374  0167  00A3               	movwf	??_sprintf
  1375  0168  0823               	movf	??_sprintf,w
  1376  0169  00A8               	movwf	sprintf@prec
  1377                           
  1378                           ;C:\Program Files\Microchip\xc8\v2.32\pic\sources\c90\common\doprnt.c: 1500:   while(pre
      +                          c--) {
  1379  016A  29A4               	goto	l2156
  1380  016B                     l2150:
  1381                           
  1382                           ;C:\Program Files\Microchip\xc8\v2.32\pic\sources\c90\common\doprnt.c: 1504:    {;C:\Pro
      +                          gram Files\Microchip\xc8\v2.32\pic\sources\c90\common\doprnt.c: 1515:     c = (val / dpo
      +                          wers[(unsigned char)prec]) % 10 + '0';
  1383  016B  300A               	movlw	10
  1384  016C  00F8               	movwf	___lwmod@divisor
  1385  016D  3000               	movlw	0
  1386  016E  00F9               	movwf	___lwmod@divisor+1
  1387  016F  0828               	movf	sprintf@prec,w
  1388  0170  00A3               	movwf	??_sprintf
  1389  0171  0723               	addwf	??_sprintf,w
  1390  0172  3E01               	addlw	low ((_dpowers-__stringbase)| (0+32768))
  1391  0173  0084               	movwf	4
  1392  0174  120A  158A  200A  120A  118A  	fcall	stringdir
  1393  0179  00F0               	movwf	___lwdiv@divisor
  1394  017A  120A  158A  200A  120A  118A  	fcall	stringdir
  1395  017F  00F1               	movwf	___lwdiv@divisor+1
  1396  0180  082A               	movf	sprintf@val+1,w
  1397  0181  00F3               	movwf	___lwdiv@dividend+1
  1398  0182  0829               	movf	sprintf@val,w
  1399  0183  00F2               	movwf	___lwdiv@dividend
  1400  0184  120A  158A  23E1  120A  118A  	fcall	___lwdiv
  1401  0189  0871               	movf	?___lwdiv+1,w
  1402  018A  00FB               	movwf	___lwmod@dividend+1
  1403  018B  0870               	movf	?___lwdiv,w
  1404  018C  00FA               	movwf	___lwmod@dividend
  1405  018D  120A  158A  2365  120A  118A  	fcall	___lwmod
  1406  0192  0878               	movf	?___lwmod,w
  1407  0193  3E30               	addlw	48
  1408  0194  1283               	bcf	3,5	;RP0=0, select bank0
  1409  0195  1303               	bcf	3,6	;RP1=0, select bank0
  1410  0196  00A4               	movwf	??_sprintf+1
  1411  0197  0824               	movf	??_sprintf+1,w
  1412  0198  00AC               	movwf	sprintf@c
  1413  0199                     l2152:
  1414                           
  1415                           ;C:\Program Files\Microchip\xc8\v2.32\pic\sources\c90\common\doprnt.c: 1549:    };C:\Pro
      +                          gram Files\Microchip\xc8\v2.32\pic\sources\c90\common\doprnt.c: 1550:    ((*sp++ = (c)))
      +                          ;
  1416  0199  082C               	movf	sprintf@c,w
  1417  019A  00A3               	movwf	??_sprintf
  1418  019B  082B               	movf	sprintf@sp,w
  1419  019C  0084               	movwf	4
  1420  019D  0823               	movf	??_sprintf,w
  1421  019E  1383               	bcf	3,7	;select IRP bank0
  1422  019F  0080               	movwf	0
  1423  01A0                     l2154:
  1424  01A0  3001               	movlw	1
  1425  01A1  00A3               	movwf	??_sprintf
  1426  01A2  0823               	movf	??_sprintf,w
  1427  01A3  07AB               	addwf	sprintf@sp,f
  1428  01A4                     l2156:
  1429                           
  1430                           ;C:\Program Files\Microchip\xc8\v2.32\pic\sources\c90\common\doprnt.c: 1500:   while(pre
      +                          c--) {
  1431  01A4  30FF               	movlw	255
  1432  01A5  00A3               	movwf	??_sprintf
  1433  01A6  0823               	movf	??_sprintf,w
  1434  01A7  07A8               	addwf	sprintf@prec,f
  1435  01A8  0A28               	incf	sprintf@prec,w
  1436  01A9  1D03               	btfss	3,2
  1437  01AA  29AC               	goto	u2971
  1438  01AB  29AD               	goto	u2970
  1439  01AC                     u2971:
  1440  01AC  296B               	goto	l2150
  1441  01AD                     u2970:
  1442  01AD                     l2158:
  1443                           
  1444                           ;C:\Program Files\Microchip\xc8\v2.32\pic\sources\c90\common\doprnt.c: 553:  while((c = 
      +                          *f++)) {
  1445  01AD  3001               	movlw	1
  1446  01AE  07A0               	addwf	sprintf@f,f
  1447  01AF  30FF               	movlw	-1
  1448  01B0  0720               	addwf	sprintf@f,w
  1449  01B1  0084               	movwf	4
  1450  01B2  120A  158A  200A  120A  118A  	fcall	stringdir
  1451  01B7  00A3               	movwf	??_sprintf
  1452  01B8  0823               	movf	??_sprintf,w
  1453  01B9  00AC               	movwf	sprintf@c
  1454  01BA  082C               	movf	sprintf@c,w
  1455  01BB  1D03               	btfss	3,2
  1456  01BC  29BE               	goto	u2981
  1457  01BD  29BF               	goto	u2980
  1458  01BE                     u2981:
  1459  01BE  28E4               	goto	l2108
  1460  01BF                     u2980:
  1461  01BF                     l2160:
  1462                           
  1463                           ;C:\Program Files\Microchip\xc8\v2.32\pic\sources\c90\common\doprnt.c: 1564:  *sp = 0;
  1464  01BF  082B               	movf	sprintf@sp,w
  1465  01C0  0084               	movwf	4
  1466  01C1  1383               	bcf	3,7	;select IRP bank0
  1467  01C2  0180               	clrf	0
  1468  01C3                     l296:
  1469  01C3  0008               	return
  1470  01C4                     __end_of_sprintf:
  1471                           
  1472                           	psect	text2
  1473  0B65                     __ptext2:	
  1474 ;; *************** function ___lwmod *****************
  1475 ;; Defined at:
  1476 ;;		line 5 in file "C:\Program Files\Microchip\xc8\v2.32\pic\sources\c90\common\lwmod.c"
  1477 ;; Parameters:    Size  Location     Type
  1478 ;;  divisor         2    8[COMMON] unsigned int 
  1479 ;;  dividend        2   10[COMMON] unsigned int 
  1480 ;; Auto vars:     Size  Location     Type
  1481 ;;  counter         1   13[COMMON] unsigned char 
  1482 ;; Return value:  Size  Location     Type
  1483 ;;                  2    8[COMMON] unsigned int 
  1484 ;; Registers used:
  1485 ;;		wreg, status,2, status,0
  1486 ;; Tracked objects:
  1487 ;;		On entry : 0/0
  1488 ;;		On exit  : 0/0
  1489 ;;		Unchanged: 0/0
  1490 ;; Data sizes:     COMMON   BANK0   BANK1   BANK3   BANK2
  1491 ;;      Params:         4       0       0       0       0
  1492 ;;      Locals:         1       0       0       0       0
  1493 ;;      Temps:          1       0       0       0       0
  1494 ;;      Totals:         6       0       0       0       0
  1495 ;;Total ram usage:        6 bytes
  1496 ;; Hardware stack levels used: 1
  1497 ;; This function calls:
  1498 ;;		Nothing
  1499 ;; This function is called by:
  1500 ;;		_sprintf
  1501 ;; This function uses a non-reentrant model
  1502 ;;
  1503                           
  1504                           
  1505                           ;psect for function ___lwmod
  1506  0B65                     ___lwmod:
  1507  0B65                     l1668:	
  1508                           ;incstack = 0
  1509                           ; Regs used in ___lwmod: [wreg+status,2+status,0]
  1510                           
  1511  0B65  0878               	movf	___lwmod@divisor,w
  1512  0B66  0479               	iorwf	___lwmod@divisor+1,w
  1513  0B67  1903               	btfsc	3,2
  1514  0B68  2B6A               	goto	u1851
  1515  0B69  2B6B               	goto	u1850
  1516  0B6A                     u1851:
  1517  0B6A  2B9A               	goto	l1686
  1518  0B6B                     u1850:
  1519  0B6B                     l1670:
  1520  0B6B  01FD               	clrf	___lwmod@counter
  1521  0B6C  0AFD               	incf	___lwmod@counter,f
  1522  0B6D  2B79               	goto	l1676
  1523  0B6E                     l1672:
  1524  0B6E  3001               	movlw	1
  1525  0B6F                     u1865:
  1526  0B6F  1003               	clrc
  1527  0B70  0DF8               	rlf	___lwmod@divisor,f
  1528  0B71  0DF9               	rlf	___lwmod@divisor+1,f
  1529  0B72  3EFF               	addlw	-1
  1530  0B73  1D03               	skipz
  1531  0B74  2B6F               	goto	u1865
  1532  0B75                     l1674:
  1533  0B75  3001               	movlw	1
  1534  0B76  00FC               	movwf	??___lwmod
  1535  0B77  087C               	movf	??___lwmod,w
  1536  0B78  07FD               	addwf	___lwmod@counter,f
  1537  0B79                     l1676:
  1538  0B79  1FF9               	btfss	___lwmod@divisor+1,7
  1539  0B7A  2B7C               	goto	u1871
  1540  0B7B  2B7D               	goto	u1870
  1541  0B7C                     u1871:
  1542  0B7C  2B6E               	goto	l1672
  1543  0B7D                     u1870:
  1544  0B7D                     l1678:
  1545  0B7D  0879               	movf	___lwmod@divisor+1,w
  1546  0B7E  027B               	subwf	___lwmod@dividend+1,w
  1547  0B7F  1D03               	skipz
  1548  0B80  2B83               	goto	u1885
  1549  0B81  0878               	movf	___lwmod@divisor,w
  1550  0B82  027A               	subwf	___lwmod@dividend,w
  1551  0B83                     u1885:
  1552  0B83  1C03               	skipc
  1553  0B84  2B86               	goto	u1881
  1554  0B85  2B87               	goto	u1880
  1555  0B86                     u1881:
  1556  0B86  2B8D               	goto	l1682
  1557  0B87                     u1880:
  1558  0B87                     l1680:
  1559  0B87  0878               	movf	___lwmod@divisor,w
  1560  0B88  02FA               	subwf	___lwmod@dividend,f
  1561  0B89  0879               	movf	___lwmod@divisor+1,w
  1562  0B8A  1C03               	skipc
  1563  0B8B  03FB               	decf	___lwmod@dividend+1,f
  1564  0B8C  02FB               	subwf	___lwmod@dividend+1,f
  1565  0B8D                     l1682:
  1566  0B8D  3001               	movlw	1
  1567  0B8E                     u1895:
  1568  0B8E  1003               	clrc
  1569  0B8F  0CF9               	rrf	___lwmod@divisor+1,f
  1570  0B90  0CF8               	rrf	___lwmod@divisor,f
  1571  0B91  3EFF               	addlw	-1
  1572  0B92  1D03               	skipz
  1573  0B93  2B8E               	goto	u1895
  1574  0B94                     l1684:
  1575  0B94  3001               	movlw	1
  1576  0B95  02FD               	subwf	___lwmod@counter,f
  1577  0B96  1D03               	btfss	3,2
  1578  0B97  2B99               	goto	u1901
  1579  0B98  2B9A               	goto	u1900
  1580  0B99                     u1901:
  1581  0B99  2B7D               	goto	l1678
  1582  0B9A                     u1900:
  1583  0B9A                     l1686:
  1584  0B9A  087B               	movf	___lwmod@dividend+1,w
  1585  0B9B  00F9               	movwf	?___lwmod+1
  1586  0B9C  087A               	movf	___lwmod@dividend,w
  1587  0B9D  00F8               	movwf	?___lwmod
  1588  0B9E                     l582:
  1589  0B9E  0008               	return
  1590  0B9F                     __end_of___lwmod:
  1591                           
  1592                           	psect	text3
  1593  0BE1                     __ptext3:	
  1594 ;; *************** function ___lwdiv *****************
  1595 ;; Defined at:
  1596 ;;		line 5 in file "C:\Program Files\Microchip\xc8\v2.32\pic\sources\c90\common\lwdiv.c"
  1597 ;; Parameters:    Size  Location     Type
  1598 ;;  divisor         2    0[COMMON] unsigned int 
  1599 ;;  dividend        2    2[COMMON] unsigned int 
  1600 ;; Auto vars:     Size  Location     Type
  1601 ;;  quotient        2    5[COMMON] unsigned int 
  1602 ;;  counter         1    7[COMMON] unsigned char 
  1603 ;; Return value:  Size  Location     Type
  1604 ;;                  2    0[COMMON] unsigned int 
  1605 ;; Registers used:
  1606 ;;		wreg, status,2, status,0
  1607 ;; Tracked objects:
  1608 ;;		On entry : 0/0
  1609 ;;		On exit  : 0/0
  1610 ;;		Unchanged: 0/0
  1611 ;; Data sizes:     COMMON   BANK0   BANK1   BANK3   BANK2
  1612 ;;      Params:         4       0       0       0       0
  1613 ;;      Locals:         3       0       0       0       0
  1614 ;;      Temps:          1       0       0       0       0
  1615 ;;      Totals:         8       0       0       0       0
  1616 ;;Total ram usage:        8 bytes
  1617 ;; Hardware stack levels used: 1
  1618 ;; This function calls:
  1619 ;;		Nothing
  1620 ;; This function is called by:
  1621 ;;		_sprintf
  1622 ;; This function uses a non-reentrant model
  1623 ;;
  1624                           
  1625                           
  1626                           ;psect for function ___lwdiv
  1627  0BE1                     ___lwdiv:
  1628  0BE1                     l1642:	
  1629                           ;incstack = 0
  1630                           ; Regs used in ___lwdiv: [wreg+status,2+status,0]
  1631                           
  1632  0BE1  01F5               	clrf	___lwdiv@quotient
  1633  0BE2  01F6               	clrf	___lwdiv@quotient+1
  1634  0BE3                     l1644:
  1635  0BE3  0870               	movf	___lwdiv@divisor,w
  1636  0BE4  0471               	iorwf	___lwdiv@divisor+1,w
  1637  0BE5  1903               	btfsc	3,2
  1638  0BE6  2BE8               	goto	u1781
  1639  0BE7  2BE9               	goto	u1780
  1640  0BE8                     u1781:
  1641  0BE8  2C20               	goto	l1664
  1642  0BE9                     u1780:
  1643  0BE9                     l1646:
  1644  0BE9  01F7               	clrf	___lwdiv@counter
  1645  0BEA  0AF7               	incf	___lwdiv@counter,f
  1646  0BEB  2BF7               	goto	l1652
  1647  0BEC                     l1648:
  1648  0BEC  3001               	movlw	1
  1649  0BED                     u1795:
  1650  0BED  1003               	clrc
  1651  0BEE  0DF0               	rlf	___lwdiv@divisor,f
  1652  0BEF  0DF1               	rlf	___lwdiv@divisor+1,f
  1653  0BF0  3EFF               	addlw	-1
  1654  0BF1  1D03               	skipz
  1655  0BF2  2BED               	goto	u1795
  1656  0BF3                     l1650:
  1657  0BF3  3001               	movlw	1
  1658  0BF4  00F4               	movwf	??___lwdiv
  1659  0BF5  0874               	movf	??___lwdiv,w
  1660  0BF6  07F7               	addwf	___lwdiv@counter,f
  1661  0BF7                     l1652:
  1662  0BF7  1FF1               	btfss	___lwdiv@divisor+1,7
  1663  0BF8  2BFA               	goto	u1801
  1664  0BF9  2BFB               	goto	u1800
  1665  0BFA                     u1801:
  1666  0BFA  2BEC               	goto	l1648
  1667  0BFB                     u1800:
  1668  0BFB                     l1654:
  1669  0BFB  3001               	movlw	1
  1670  0BFC                     u1815:
  1671  0BFC  1003               	clrc
  1672  0BFD  0DF5               	rlf	___lwdiv@quotient,f
  1673  0BFE  0DF6               	rlf	___lwdiv@quotient+1,f
  1674  0BFF  3EFF               	addlw	-1
  1675  0C00  1D03               	skipz
  1676  0C01  2BFC               	goto	u1815
  1677  0C02  0871               	movf	___lwdiv@divisor+1,w
  1678  0C03  0273               	subwf	___lwdiv@dividend+1,w
  1679  0C04  1D03               	skipz
  1680  0C05  2C08               	goto	u1825
  1681  0C06  0870               	movf	___lwdiv@divisor,w
  1682  0C07  0272               	subwf	___lwdiv@dividend,w
  1683  0C08                     u1825:
  1684  0C08  1C03               	skipc
  1685  0C09  2C0B               	goto	u1821
  1686  0C0A  2C0C               	goto	u1820
  1687  0C0B                     u1821:
  1688  0C0B  2C13               	goto	l1660
  1689  0C0C                     u1820:
  1690  0C0C                     l1656:
  1691  0C0C  0870               	movf	___lwdiv@divisor,w
  1692  0C0D  02F2               	subwf	___lwdiv@dividend,f
  1693  0C0E  0871               	movf	___lwdiv@divisor+1,w
  1694  0C0F  1C03               	skipc
  1695  0C10  03F3               	decf	___lwdiv@dividend+1,f
  1696  0C11  02F3               	subwf	___lwdiv@dividend+1,f
  1697  0C12                     l1658:
  1698  0C12  1475               	bsf	___lwdiv@quotient,0
  1699  0C13                     l1660:
  1700  0C13  3001               	movlw	1
  1701  0C14                     u1835:
  1702  0C14  1003               	clrc
  1703  0C15  0CF1               	rrf	___lwdiv@divisor+1,f
  1704  0C16  0CF0               	rrf	___lwdiv@divisor,f
  1705  0C17  3EFF               	addlw	-1
  1706  0C18  1D03               	skipz
  1707  0C19  2C14               	goto	u1835
  1708  0C1A                     l1662:
  1709  0C1A  3001               	movlw	1
  1710  0C1B  02F7               	subwf	___lwdiv@counter,f
  1711  0C1C  1D03               	btfss	3,2
  1712  0C1D  2C1F               	goto	u1841
  1713  0C1E  2C20               	goto	u1840
  1714  0C1F                     u1841:
  1715  0C1F  2BFB               	goto	l1654
  1716  0C20                     u1840:
  1717  0C20                     l1664:
  1718  0C20  0876               	movf	___lwdiv@quotient+1,w
  1719  0C21  00F1               	movwf	?___lwdiv+1
  1720  0C22  0875               	movf	___lwdiv@quotient,w
  1721  0C23  00F0               	movwf	?___lwdiv
  1722  0C24                     l572:
  1723  0C24  0008               	return
  1724  0C25                     __end_of___lwdiv:
  1725                           
  1726                           	psect	text4
  1727  0AD0                     __ptext4:	
  1728 ;; *************** function _spiWrite *****************
  1729 ;; Defined at:
  1730 ;;		line 34 in file "spi.c"
  1731 ;; Parameters:    Size  Location     Type
  1732 ;;  dat             1    wreg     unsigned char 
  1733 ;; Auto vars:     Size  Location     Type
  1734 ;;  dat             1    0[COMMON] unsigned char 
  1735 ;; Return value:  Size  Location     Type
  1736 ;;                  1    wreg      void 
  1737 ;; Registers used:
  1738 ;;		wreg
  1739 ;; Tracked objects:
  1740 ;;		On entry : 0/0
  1741 ;;		On exit  : 0/0
  1742 ;;		Unchanged: 0/0
  1743 ;; Data sizes:     COMMON   BANK0   BANK1   BANK3   BANK2
  1744 ;;      Params:         0       0       0       0       0
  1745 ;;      Locals:         1       0       0       0       0
  1746 ;;      Temps:          0       0       0       0       0
  1747 ;;      Totals:         1       0       0       0       0
  1748 ;;Total ram usage:        1 bytes
  1749 ;; Hardware stack levels used: 1
  1750 ;; This function calls:
  1751 ;;		Nothing
  1752 ;; This function is called by:
  1753 ;;		_main
  1754 ;; This function uses a non-reentrant model
  1755 ;;
  1756                           
  1757                           
  1758                           ;psect for function _spiWrite
  1759  0AD0                     _spiWrite:
  1760                           
  1761                           ;incstack = 0
  1762                           ; Regs used in _spiWrite: [wreg]
  1763                           ;spiWrite@dat stored from wreg
  1764  0AD0  00F0               	movwf	spiWrite@dat
  1765  0AD1                     l2168:
  1766                           
  1767                           ;spi.c: 34: void spiWrite(char dat);spi.c: 35: {;spi.c: 36:     SSPBUF = dat;
  1768  0AD1  0870               	movf	spiWrite@dat,w
  1769  0AD2  1283               	bcf	3,5	;RP0=0, select bank0
  1770  0AD3  1303               	bcf	3,6	;RP1=0, select bank0
  1771  0AD4  0093               	movwf	19	;volatile
  1772  0AD5                     l178:
  1773  0AD5  0008               	return
  1774  0AD6                     __end_of_spiWrite:
  1775                           
  1776                           	psect	text5
  1777  0AD6                     __ptext5:	
  1778 ;; *************** function _spiRead *****************
  1779 ;; Defined at:
  1780 ;;		line 47 in file "spi.c"
  1781 ;; Parameters:    Size  Location     Type
  1782 ;;		None
  1783 ;; Auto vars:     Size  Location     Type
  1784 ;;		None
  1785 ;; Return value:  Size  Location     Type
  1786 ;;                  1    wreg      unsigned char 
  1787 ;; Registers used:
  1788 ;;		wreg, status,2, status,0, pclath, cstack
  1789 ;; Tracked objects:
  1790 ;;		On entry : 0/0
  1791 ;;		On exit  : 0/0
  1792 ;;		Unchanged: 0/0
  1793 ;; Data sizes:     COMMON   BANK0   BANK1   BANK3   BANK2
  1794 ;;      Params:         0       0       0       0       0
  1795 ;;      Locals:         0       0       0       0       0
  1796 ;;      Temps:          0       0       0       0       0
  1797 ;;      Totals:         0       0       0       0       0
  1798 ;;Total ram usage:        0 bytes
  1799 ;; Hardware stack levels used: 1
  1800 ;; Hardware stack levels required when called: 1
  1801 ;; This function calls:
  1802 ;;		_spiReceiveWait
  1803 ;; This function is called by:
  1804 ;;		_main
  1805 ;; This function uses a non-reentrant model
  1806 ;;
  1807                           
  1808                           
  1809                           ;psect for function _spiRead
  1810  0AD6                     _spiRead:
  1811  0AD6                     l2100:	
  1812                           ;incstack = 0
  1813                           ; Regs used in _spiRead: [wreg+status,2+status,0+pclath+cstack]
  1814                           
  1815                           
  1816                           ;spi.c: 49:     spiReceiveWait();
  1817  0AD6  120A  118A  2003  120A  158A  	fcall	_spiReceiveWait
  1818  0ADB                     l2102:
  1819                           
  1820                           ;spi.c: 50:     return(SSPBUF);
  1821  0ADB  1283               	bcf	3,5	;RP0=0, select bank0
  1822  0ADC  1303               	bcf	3,6	;RP1=0, select bank0
  1823  0ADD  0813               	movf	19,w	;volatile
  1824  0ADE                     l186:
  1825  0ADE  0008               	return
  1826  0ADF                     __end_of_spiRead:
  1827                           
  1828                           	psect	text6
  1829  0003                     __ptext6:	
  1830 ;; *************** function _spiReceiveWait *****************
  1831 ;; Defined at:
  1832 ;;		line 29 in file "spi.c"
  1833 ;; Parameters:    Size  Location     Type
  1834 ;;		None
  1835 ;; Auto vars:     Size  Location     Type
  1836 ;;		None
  1837 ;; Return value:  Size  Location     Type
  1838 ;;                  1    wreg      void 
  1839 ;; Registers used:
  1840 ;;		None
  1841 ;; Tracked objects:
  1842 ;;		On entry : 0/0
  1843 ;;		On exit  : 0/0
  1844 ;;		Unchanged: 0/0
  1845 ;; Data sizes:     COMMON   BANK0   BANK1   BANK3   BANK2
  1846 ;;      Params:         0       0       0       0       0
  1847 ;;      Locals:         0       0       0       0       0
  1848 ;;      Temps:          0       0       0       0       0
  1849 ;;      Totals:         0       0       0       0       0
  1850 ;;Total ram usage:        0 bytes
  1851 ;; Hardware stack levels used: 1
  1852 ;; This function calls:
  1853 ;;		Nothing
  1854 ;; This function is called by:
  1855 ;;		_spiRead
  1856 ;; This function uses a non-reentrant model
  1857 ;;
  1858                           
  1859                           
  1860                           ;psect for function _spiReceiveWait
  1861  0003                     _spiReceiveWait:
  1862  0003                     l1604:	
  1863                           ;incstack = 0
  1864                           ; Regs used in _spiReceiveWait: []
  1865                           
  1866  0003                     l172:	
  1867                           ;spi.c: 31:     while ( !SSPSTATbits.BF );
  1868                           
  1869  0003  1683               	bsf	3,5	;RP0=1, select bank1
  1870  0004  1303               	bcf	3,6	;RP1=0, select bank1
  1871  0005  1C14               	btfss	20,0	;volatile
  1872  0006  2808               	goto	u1671
  1873  0007  2809               	goto	u1670
  1874  0008                     u1671:
  1875  0008  2803               	goto	l172
  1876  0009                     u1670:
  1877  0009                     l175:
  1878  0009  0008               	return
  1879  000A                     __end_of_spiReceiveWait:
  1880                           
  1881                           	psect	text7
  1882  000A                     __ptext7:	
  1883 ;; *************** function _spiInit *****************
  1884 ;; Defined at:
  1885 ;;		line 12 in file "spi.c"
  1886 ;; Parameters:    Size  Location     Type
  1887 ;;  sType           1    wreg     enum E850
  1888 ;;  sDataSample     1    0[COMMON] enum E858
  1889 ;;  sClockIdle      1    1[COMMON] enum E862
  1890 ;;  sTransmitEdg    1    2[COMMON] enum E866
  1891 ;; Auto vars:     Size  Location     Type
  1892 ;;  sType           1    3[COMMON] enum E850
  1893 ;; Return value:  Size  Location     Type
  1894 ;;                  1    wreg      void 
  1895 ;; Registers used:
  1896 ;;		wreg, status,2, status,0
  1897 ;; Tracked objects:
  1898 ;;		On entry : 0/0
  1899 ;;		On exit  : 0/0
  1900 ;;		Unchanged: 0/0
  1901 ;; Data sizes:     COMMON   BANK0   BANK1   BANK3   BANK2
  1902 ;;      Params:         3       0       0       0       0
  1903 ;;      Locals:         1       0       0       0       0
  1904 ;;      Temps:          0       0       0       0       0
  1905 ;;      Totals:         4       0       0       0       0
  1906 ;;Total ram usage:        4 bytes
  1907 ;; Hardware stack levels used: 1
  1908 ;; This function calls:
  1909 ;;		Nothing
  1910 ;; This function is called by:
  1911 ;;		_main
  1912 ;; This function uses a non-reentrant model
  1913 ;;
  1914                           
  1915                           
  1916                           ;psect for function _spiInit
  1917  000A                     _spiInit:
  1918                           
  1919                           ;incstack = 0
  1920                           ; Regs used in _spiInit: [wreg+status,2+status,0]
  1921                           ;spiInit@sType stored from wreg
  1922  000A  00F3               	movwf	spiInit@sType
  1923  000B                     l2078:
  1924                           
  1925                           ;spi.c: 12: void spiInit(Spi_Type sType, Spi_Data_Sample sDataSample, Spi_Clock_Idle sCl
      +                          ockIdle, Spi_Transmit_Edge sTransmitEdge);spi.c: 13: {;spi.c: 14:     TRISC5 = 0;
  1926  000B  1683               	bsf	3,5	;RP0=1, select bank1
  1927  000C  1303               	bcf	3,6	;RP1=0, select bank1
  1928  000D  1287               	bcf	7,5	;volatile
  1929                           
  1930                           ;spi.c: 15:     if(sType & 0b00000100)
  1931  000E  1D73               	btfss	spiInit@sType,2
  1932  000F  2811               	goto	u2901
  1933  0010  2812               	goto	u2900
  1934  0011                     u2901:
  1935  0011  2816               	goto	l2084
  1936  0012                     u2900:
  1937  0012                     l2080:
  1938                           
  1939                           ;spi.c: 16:     {;spi.c: 17:         SSPSTAT = sTransmitEdge;
  1940  0012  0872               	movf	spiInit@sTransmitEdge,w
  1941  0013  0094               	movwf	20	;volatile
  1942  0014                     l2082:
  1943                           
  1944                           ;spi.c: 18:         TRISC3 = 1;
  1945  0014  1587               	bsf	7,3	;volatile
  1946                           
  1947                           ;spi.c: 19:     }
  1948  0015  281A               	goto	l168
  1949  0016                     l2084:
  1950                           
  1951                           ;spi.c: 21:     {;spi.c: 22:         SSPSTAT = sDataSample | sTransmitEdge;
  1952  0016  0870               	movf	spiInit@sDataSample,w
  1953  0017  0472               	iorwf	spiInit@sTransmitEdge,w
  1954  0018  0094               	movwf	20	;volatile
  1955  0019                     l2086:
  1956                           
  1957                           ;spi.c: 23:         TRISC3 = 0;
  1958  0019  1187               	bcf	7,3	;volatile
  1959  001A                     l168:	
  1960                           ;spi.c: 24:     }
  1961                           
  1962                           
  1963                           ;spi.c: 26:     SSPCON = sType | sClockIdle;
  1964  001A  0873               	movf	spiInit@sType,w
  1965  001B  0471               	iorwf	spiInit@sClockIdle,w
  1966  001C  1283               	bcf	3,5	;RP0=0, select bank0
  1967  001D  1303               	bcf	3,6	;RP1=0, select bank0
  1968  001E  0094               	movwf	20	;volatile
  1969  001F                     l169:
  1970  001F  0008               	return
  1971  0020                     __end_of_spiInit:
  1972                           
  1973                           	psect	text8
  1974  0B01                     __ptext8:	
  1975 ;; *************** function _spiDataReady *****************
  1976 ;; Defined at:
  1977 ;;		line 39 in file "spi.c"
  1978 ;; Parameters:    Size  Location     Type
  1979 ;;		None
  1980 ;; Auto vars:     Size  Location     Type
  1981 ;;		None
  1982 ;; Return value:  Size  Location     Type
  1983 ;;                  2    0[COMMON] unsigned int 
  1984 ;; Registers used:
  1985 ;;		wreg, status,2
  1986 ;; Tracked objects:
  1987 ;;		On entry : 0/0
  1988 ;;		On exit  : 0/0
  1989 ;;		Unchanged: 0/0
  1990 ;; Data sizes:     COMMON   BANK0   BANK1   BANK3   BANK2
  1991 ;;      Params:         2       0       0       0       0
  1992 ;;      Locals:         0       0       0       0       0
  1993 ;;      Temps:          0       0       0       0       0
  1994 ;;      Totals:         2       0       0       0       0
  1995 ;;Total ram usage:        2 bytes
  1996 ;; Hardware stack levels used: 1
  1997 ;; This function calls:
  1998 ;;		Nothing
  1999 ;; This function is called by:
  2000 ;;		_main
  2001 ;; This function uses a non-reentrant model
  2002 ;;
  2003                           
  2004                           
  2005                           ;psect for function _spiDataReady
  2006  0B01                     _spiDataReady:
  2007  0B01                     l2088:	
  2008                           ;incstack = 0
  2009                           ; Regs used in _spiDataReady: [wreg+status,2]
  2010                           
  2011                           
  2012                           ;spi.c: 41:     if(SSPSTATbits.BF)
  2013  0B01  1683               	bsf	3,5	;RP0=1, select bank1
  2014  0B02  1303               	bcf	3,6	;RP1=0, select bank1
  2015  0B03  1C14               	btfss	20,0	;volatile
  2016  0B04  2B06               	goto	u2911
  2017  0B05  2B07               	goto	u2910
  2018  0B06                     u2911:
  2019  0B06  2B0C               	goto	l2096
  2020  0B07                     u2910:
  2021  0B07                     l2090:
  2022                           
  2023                           ;spi.c: 42:         return 1;
  2024  0B07  3001               	movlw	1
  2025  0B08  00F0               	movwf	?_spiDataReady
  2026  0B09  3000               	movlw	0
  2027  0B0A  00F1               	movwf	?_spiDataReady+1
  2028  0B0B  2B0E               	goto	l182
  2029  0B0C                     l2096:
  2030                           
  2031                           ;spi.c: 44:         return 0;
  2032  0B0C  01F0               	clrf	?_spiDataReady
  2033  0B0D  01F1               	clrf	?_spiDataReady+1
  2034  0B0E                     l182:
  2035  0B0E  0008               	return
  2036  0B0F                     __end_of_spiDataReady:
  2037                           
  2038                           	psect	text9
  2039  0B9F                     __ptext9:	
  2040 ;; *************** function _UART_Write_Text *****************
  2041 ;; Defined at:
  2042 ;;		line 53 in file "./uart.h"
  2043 ;; Parameters:    Size  Location     Type
  2044 ;;  text            2    1[COMMON] PTR unsigned char 
  2045 ;;		 -> STR_3(3), STR_2(8), main@out(10), 
  2046 ;; Auto vars:     Size  Location     Type
  2047 ;;  i               2    6[COMMON] int 
  2048 ;; Return value:  Size  Location     Type
  2049 ;;                  1    wreg      void 
  2050 ;; Registers used:
  2051 ;;		wreg, fsr0l, fsr0h, status,2, status,0, btemp+1, pclath, cstack
  2052 ;; Tracked objects:
  2053 ;;		On entry : 0/0
  2054 ;;		On exit  : 0/0
  2055 ;;		Unchanged: 0/0
  2056 ;; Data sizes:     COMMON   BANK0   BANK1   BANK3   BANK2
  2057 ;;      Params:         2       0       0       0       0
  2058 ;;      Locals:         2       0       0       0       0
  2059 ;;      Temps:          3       0       0       0       0
  2060 ;;      Totals:         7       0       0       0       0
  2061 ;;Total ram usage:        7 bytes
  2062 ;; Hardware stack levels used: 1
  2063 ;; Hardware stack levels required when called: 1
  2064 ;; This function calls:
  2065 ;;		_UART_Write
  2066 ;; This function is called by:
  2067 ;;		_main
  2068 ;; This function uses a non-reentrant model
  2069 ;;
  2070                           
  2071                           
  2072                           ;psect for function _UART_Write_Text
  2073  0B9F                     _UART_Write_Text:
  2074  0B9F                     l2042:	
  2075                           ;incstack = 0
  2076                           ; Regs used in _UART_Write_Text: [wreg-fsr0h+status,2+status,0+btemp+1+pclath+cstack]
  2077                           
  2078                           
  2079                           ;./uart.h: 53: void UART_Write_Text(char *text);./uart.h: 54: {;./uart.h: 55:   int i;;.
      +                          /uart.h: 56:   for(i=0;text[i]!='\0';i++)
  2080  0B9F  01F6               	clrf	UART_Write_Text@i
  2081  0BA0  01F7               	clrf	UART_Write_Text@i+1
  2082  0BA1  2BC4               	goto	l2048
  2083  0BA2                     l2044:
  2084                           
  2085                           ;./uart.h: 57:    UART_Write(text[i]);
  2086  0BA2  0876               	movf	UART_Write_Text@i,w
  2087  0BA3  0771               	addwf	UART_Write_Text@text,w
  2088  0BA4  00F4               	movwf	??_UART_Write_Text+1
  2089  0BA5  0872               	movf	UART_Write_Text@text+1,w
  2090  0BA6  00F3               	movwf	??_UART_Write_Text
  2091  0BA7  1803               	skipnc
  2092  0BA8  0AF3               	incf	??_UART_Write_Text,f
  2093  0BA9  1FF6               	btfss	UART_Write_Text@i,7
  2094  0BAA  2BAC               	goto	u2790
  2095  0BAB  03F3               	decf	??_UART_Write_Text,f
  2096  0BAC                     u2790:
  2097  0BAC  0873               	movf	??_UART_Write_Text,w
  2098  0BAD  00F5               	movwf	??_UART_Write_Text+2
  2099  0BAE  0875               	movf	??_UART_Write_Text+2,w
  2100  0BAF  1283               	bcf	3,5	;RP0=0, select bank0
  2101  0BB0  1303               	bcf	3,6	;RP1=0, select bank0
  2102  0BB1  00FF               	movwf	btemp+1
  2103  0BB2  0874               	movf	??_UART_Write_Text+1,w
  2104  0BB3  0084               	movwf	4
  2105  0BB4  120A  158A  2000  120A  158A  	fcall	stringtab
  2106  0BB9  120A  158A  22F5  120A  158A  	fcall	_UART_Write
  2107  0BBE                     l2046:
  2108  0BBE  3001               	movlw	1
  2109  0BBF  07F6               	addwf	UART_Write_Text@i,f
  2110  0BC0  1803               	skipnc
  2111  0BC1  0AF7               	incf	UART_Write_Text@i+1,f
  2112  0BC2  3000               	movlw	0
  2113  0BC3  07F7               	addwf	UART_Write_Text@i+1,f
  2114  0BC4                     l2048:
  2115  0BC4  0876               	movf	UART_Write_Text@i,w
  2116  0BC5  0771               	addwf	UART_Write_Text@text,w
  2117  0BC6  00F4               	movwf	??_UART_Write_Text+1
  2118  0BC7  0872               	movf	UART_Write_Text@text+1,w
  2119  0BC8  00F3               	movwf	??_UART_Write_Text
  2120  0BC9  1803               	skipnc
  2121  0BCA  0AF3               	incf	??_UART_Write_Text,f
  2122  0BCB  1FF6               	btfss	UART_Write_Text@i,7
  2123  0BCC  2BCE               	goto	u2800
  2124  0BCD  03F3               	decf	??_UART_Write_Text,f
  2125  0BCE                     u2800:
  2126  0BCE  0873               	movf	??_UART_Write_Text,w
  2127  0BCF  00F5               	movwf	??_UART_Write_Text+2
  2128  0BD0  0875               	movf	??_UART_Write_Text+2,w
  2129  0BD1  1283               	bcf	3,5	;RP0=0, select bank0
  2130  0BD2  1303               	bcf	3,6	;RP1=0, select bank0
  2131  0BD3  00FF               	movwf	btemp+1
  2132  0BD4  0874               	movf	??_UART_Write_Text+1,w
  2133  0BD5  0084               	movwf	4
  2134  0BD6  120A  158A  2000  120A  158A  	fcall	stringtab
  2135  0BDB  3A00               	xorlw	0
  2136  0BDC  1D03               	skipz
  2137  0BDD  2BDF               	goto	u2811
  2138  0BDE  2BE0               	goto	u2810
  2139  0BDF                     u2811:
  2140  0BDF  2BA2               	goto	l2044
  2141  0BE0                     u2810:
  2142  0BE0                     l113:
  2143  0BE0  0008               	return
  2144  0BE1                     __end_of_UART_Write_Text:
  2145                           
  2146                           	psect	text10
  2147  0AF5                     __ptext10:	
  2148 ;; *************** function _UART_Write *****************
  2149 ;; Defined at:
  2150 ;;		line 47 in file "./uart.h"
  2151 ;; Parameters:    Size  Location     Type
  2152 ;;  data            1    wreg     unsigned char 
  2153 ;; Auto vars:     Size  Location     Type
  2154 ;;  data            1    0[COMMON] unsigned char 
  2155 ;; Return value:  Size  Location     Type
  2156 ;;                  1    wreg      void 
  2157 ;; Registers used:
  2158 ;;		wreg
  2159 ;; Tracked objects:
  2160 ;;		On entry : 0/0
  2161 ;;		On exit  : 0/0
  2162 ;;		Unchanged: 0/0
  2163 ;; Data sizes:     COMMON   BANK0   BANK1   BANK3   BANK2
  2164 ;;      Params:         0       0       0       0       0
  2165 ;;      Locals:         1       0       0       0       0
  2166 ;;      Temps:          0       0       0       0       0
  2167 ;;      Totals:         1       0       0       0       0
  2168 ;;Total ram usage:        1 bytes
  2169 ;; Hardware stack levels used: 1
  2170 ;; This function calls:
  2171 ;;		Nothing
  2172 ;; This function is called by:
  2173 ;;		_UART_Write_Text
  2174 ;; This function uses a non-reentrant model
  2175 ;;
  2176                           
  2177                           
  2178                           ;psect for function _UART_Write
  2179  0AF5                     _UART_Write:
  2180                           
  2181                           ;incstack = 0
  2182                           ; Regs used in _UART_Write: [wreg]
  2183                           ;UART_Write@data stored from wreg
  2184  0AF5  00F0               	movwf	UART_Write@data
  2185  0AF6                     l1596:
  2186  0AF6                     l104:	
  2187                           ;./uart.h: 47: void UART_Write(char data);./uart.h: 48: {;./uart.h: 49:   while(!TRMT);
  2188                           
  2189  0AF6  1683               	bsf	3,5	;RP0=1, select bank1
  2190  0AF7  1303               	bcf	3,6	;RP1=0, select bank1
  2191  0AF8  1C98               	btfss	24,1	;volatile
  2192  0AF9  2AFB               	goto	u1651
  2193  0AFA  2AFC               	goto	u1650
  2194  0AFB                     u1651:
  2195  0AFB  2AF6               	goto	l104
  2196  0AFC                     u1650:
  2197  0AFC                     l1598:
  2198                           
  2199                           ;./uart.h: 50:   TXREG = data;
  2200  0AFC  0870               	movf	UART_Write@data,w
  2201  0AFD  1283               	bcf	3,5	;RP0=0, select bank0
  2202  0AFE  1303               	bcf	3,6	;RP1=0, select bank0
  2203  0AFF  0099               	movwf	25	;volatile
  2204  0B00                     l107:
  2205  0B00  0008               	return
  2206  0B01                     __end_of_UART_Write:
  2207                           
  2208                           	psect	text11
  2209  0F26                     __ptext11:	
  2210 ;; *************** function _UART_Init *****************
  2211 ;; Defined at:
  2212 ;;		line 1 in file "./uart.h"
  2213 ;; Parameters:    Size  Location     Type
  2214 ;;  baudrate        4    6[BANK0 ] const long 
  2215 ;; Auto vars:     Size  Location     Type
  2216 ;;  x               2    9[COMMON] unsigned int 
  2217 ;; Return value:  Size  Location     Type
  2218 ;;                  1    wreg      unsigned char 
  2219 ;; Registers used:
  2220 ;;		wreg, status,2, status,0, pclath, cstack
  2221 ;; Tracked objects:
  2222 ;;		On entry : 0/0
  2223 ;;		On exit  : 0/0
  2224 ;;		Unchanged: 0/0
  2225 ;; Data sizes:     COMMON   BANK0   BANK1   BANK3   BANK2
  2226 ;;      Params:         0       4       0       0       0
  2227 ;;      Locals:         2       0       0       0       0
  2228 ;;      Temps:          0      12       0       0       0
  2229 ;;      Totals:         2      16       0       0       0
  2230 ;;Total ram usage:       18 bytes
  2231 ;; Hardware stack levels used: 1
  2232 ;; Hardware stack levels required when called: 1
  2233 ;; This function calls:
  2234 ;;		___aldiv
  2235 ;; This function is called by:
  2236 ;;		_main
  2237 ;; This function uses a non-reentrant model
  2238 ;;
  2239                           
  2240                           
  2241                           ;psect for function _UART_Init
  2242  0F26                     _UART_Init:
  2243  0F26                     l2016:	
  2244                           ;incstack = 0
  2245                           ; Regs used in _UART_Init: [wreg+status,2+status,0+pclath+cstack]
  2246                           
  2247                           
  2248                           ;./uart.h: 1: char UART_Init(const long int baudrate);./uart.h: 2: {;./uart.h: 3:  unsig
      +                          ned int x;;./uart.h: 4:  x = (8000000 - baudrate*64)/(baudrate*64);
  2249  0F26  1283               	bcf	3,5	;RP0=0, select bank0
  2250  0F27  1303               	bcf	3,6	;RP1=0, select bank0
  2251  0F28  0826               	movf	UART_Init@baudrate,w
  2252  0F29  00AA               	movwf	??_UART_Init
  2253  0F2A  0827               	movf	UART_Init@baudrate+1,w
  2254  0F2B  00AB               	movwf	??_UART_Init+1
  2255  0F2C  0828               	movf	UART_Init@baudrate+2,w
  2256  0F2D  00AC               	movwf	??_UART_Init+2
  2257  0F2E  0829               	movf	UART_Init@baudrate+3,w
  2258  0F2F  00AD               	movwf	??_UART_Init+3
  2259  0F30  3006               	movlw	6
  2260  0F31                     u2715:
  2261  0F31  1003               	clrc
  2262  0F32  0DAA               	rlf	??_UART_Init,f
  2263  0F33  0DAB               	rlf	??_UART_Init+1,f
  2264  0F34  0DAC               	rlf	??_UART_Init+2,f
  2265  0F35  0DAD               	rlf	??_UART_Init+3,f
  2266  0F36                     u2710:
  2267  0F36  3EFF               	addlw	-1
  2268  0F37  1D03               	skipz
  2269  0F38  2F31               	goto	u2715
  2270  0F39  082D               	movf	??_UART_Init+3,w
  2271  0F3A  00F3               	movwf	___aldiv@divisor+3
  2272  0F3B  082C               	movf	??_UART_Init+2,w
  2273  0F3C  00F2               	movwf	___aldiv@divisor+2
  2274  0F3D  082B               	movf	??_UART_Init+1,w
  2275  0F3E  00F1               	movwf	___aldiv@divisor+1
  2276  0F3F  082A               	movf	??_UART_Init,w
  2277  0F40  00F0               	movwf	___aldiv@divisor
  2278  0F41  0826               	movf	UART_Init@baudrate,w
  2279  0F42  00AE               	movwf	??_UART_Init+4
  2280  0F43  0827               	movf	UART_Init@baudrate+1,w
  2281  0F44  00AF               	movwf	??_UART_Init+5
  2282  0F45  0828               	movf	UART_Init@baudrate+2,w
  2283  0F46  00B0               	movwf	??_UART_Init+6
  2284  0F47  0829               	movf	UART_Init@baudrate+3,w
  2285  0F48  00B1               	movwf	??_UART_Init+7
  2286  0F49  3006               	movlw	6
  2287  0F4A                     u2725:
  2288  0F4A  1003               	clrc
  2289  0F4B  0DAE               	rlf	??_UART_Init+4,f
  2290  0F4C  0DAF               	rlf	??_UART_Init+5,f
  2291  0F4D  0DB0               	rlf	??_UART_Init+6,f
  2292  0F4E  0DB1               	rlf	??_UART_Init+7,f
  2293  0F4F                     u2720:
  2294  0F4F  3EFF               	addlw	-1
  2295  0F50  1D03               	skipz
  2296  0F51  2F4A               	goto	u2725
  2297  0F52  3000               	movlw	0
  2298  0F53  00B2               	movwf	??_UART_Init+8
  2299  0F54  3012               	movlw	18
  2300  0F55  00B3               	movwf	??_UART_Init+9
  2301  0F56  307A               	movlw	122
  2302  0F57  00B4               	movwf	??_UART_Init+10
  2303  0F58  3000               	movlw	0
  2304  0F59  00B5               	movwf	??_UART_Init+11
  2305  0F5A  082E               	movf	??_UART_Init+4,w
  2306  0F5B  02B2               	subwf	??_UART_Init+8,f
  2307  0F5C  082F               	movf	??_UART_Init+5,w
  2308  0F5D  1C03               	skipc
  2309  0F5E  0F2F               	incfsz	??_UART_Init+5,w
  2310  0F5F  2F61               	goto	u2731
  2311  0F60  2F62               	goto	u2732
  2312  0F61                     u2731:
  2313  0F61  02B3               	subwf	??_UART_Init+9,f
  2314  0F62                     u2732:
  2315  0F62  0830               	movf	??_UART_Init+6,w
  2316  0F63  1C03               	skipc
  2317  0F64  0F30               	incfsz	??_UART_Init+6,w
  2318  0F65  2F67               	goto	u2733
  2319  0F66  2F68               	goto	u2734
  2320  0F67                     u2733:
  2321  0F67  02B4               	subwf	??_UART_Init+10,f
  2322  0F68                     u2734:
  2323  0F68  0831               	movf	??_UART_Init+7,w
  2324  0F69  1C03               	skipc
  2325  0F6A  0F31               	incfsz	??_UART_Init+7,w
  2326  0F6B  2F6D               	goto	u2735
  2327  0F6C  2F6E               	goto	u2736
  2328  0F6D                     u2735:
  2329  0F6D  02B5               	subwf	??_UART_Init+11,f
  2330  0F6E                     u2736:
  2331  0F6E  0835               	movf	??_UART_Init+11,w
  2332  0F6F  00F7               	movwf	___aldiv@dividend+3
  2333  0F70  0834               	movf	??_UART_Init+10,w
  2334  0F71  00F6               	movwf	___aldiv@dividend+2
  2335  0F72  0833               	movf	??_UART_Init+9,w
  2336  0F73  00F5               	movwf	___aldiv@dividend+1
  2337  0F74  0832               	movf	??_UART_Init+8,w
  2338  0F75  00F4               	movwf	___aldiv@dividend
  2339  0F76  120A  158A  2689  120A  158A  	fcall	___aldiv
  2340  0F7B  0871               	movf	?___aldiv+1,w
  2341  0F7C  00FA               	movwf	UART_Init@x+1
  2342  0F7D  0870               	movf	?___aldiv,w
  2343  0F7E  00F9               	movwf	UART_Init@x
  2344  0F7F                     l2018:
  2345                           
  2346                           ;./uart.h: 5:  if(x>255)
  2347  0F7F  3001               	movlw	1
  2348  0F80  027A               	subwf	UART_Init@x+1,w
  2349  0F81  3000               	movlw	0
  2350  0F82  1903               	skipnz
  2351  0F83  0279               	subwf	UART_Init@x,w
  2352  0F84  1C03               	skipc
  2353  0F85  2F87               	goto	u2741
  2354  0F86  2F88               	goto	u2740
  2355  0F87                     u2741:
  2356  0F87  2FE4               	goto	l2024
  2357  0F88                     u2740:
  2358  0F88                     l2020:
  2359                           
  2360                           ;./uart.h: 6:  {;./uart.h: 7:   x = (8000000 - baudrate*16)/(baudrate*16);
  2361  0F88  1283               	bcf	3,5	;RP0=0, select bank0
  2362  0F89  1303               	bcf	3,6	;RP1=0, select bank0
  2363  0F8A  0826               	movf	UART_Init@baudrate,w
  2364  0F8B  00AA               	movwf	??_UART_Init
  2365  0F8C  0827               	movf	UART_Init@baudrate+1,w
  2366  0F8D  00AB               	movwf	??_UART_Init+1
  2367  0F8E  0828               	movf	UART_Init@baudrate+2,w
  2368  0F8F  00AC               	movwf	??_UART_Init+2
  2369  0F90  0829               	movf	UART_Init@baudrate+3,w
  2370  0F91  00AD               	movwf	??_UART_Init+3
  2371  0F92  3004               	movlw	4
  2372  0F93                     u2755:
  2373  0F93  1003               	clrc
  2374  0F94  0DAA               	rlf	??_UART_Init,f
  2375  0F95  0DAB               	rlf	??_UART_Init+1,f
  2376  0F96  0DAC               	rlf	??_UART_Init+2,f
  2377  0F97  0DAD               	rlf	??_UART_Init+3,f
  2378  0F98                     u2750:
  2379  0F98  3EFF               	addlw	-1
  2380  0F99  1D03               	skipz
  2381  0F9A  2F93               	goto	u2755
  2382  0F9B  082D               	movf	??_UART_Init+3,w
  2383  0F9C  00F3               	movwf	___aldiv@divisor+3
  2384  0F9D  082C               	movf	??_UART_Init+2,w
  2385  0F9E  00F2               	movwf	___aldiv@divisor+2
  2386  0F9F  082B               	movf	??_UART_Init+1,w
  2387  0FA0  00F1               	movwf	___aldiv@divisor+1
  2388  0FA1  082A               	movf	??_UART_Init,w
  2389  0FA2  00F0               	movwf	___aldiv@divisor
  2390  0FA3  0826               	movf	UART_Init@baudrate,w
  2391  0FA4  00AE               	movwf	??_UART_Init+4
  2392  0FA5  0827               	movf	UART_Init@baudrate+1,w
  2393  0FA6  00AF               	movwf	??_UART_Init+5
  2394  0FA7  0828               	movf	UART_Init@baudrate+2,w
  2395  0FA8  00B0               	movwf	??_UART_Init+6
  2396  0FA9  0829               	movf	UART_Init@baudrate+3,w
  2397  0FAA  00B1               	movwf	??_UART_Init+7
  2398  0FAB  3004               	movlw	4
  2399  0FAC                     u2765:
  2400  0FAC  1003               	clrc
  2401  0FAD  0DAE               	rlf	??_UART_Init+4,f
  2402  0FAE  0DAF               	rlf	??_UART_Init+5,f
  2403  0FAF  0DB0               	rlf	??_UART_Init+6,f
  2404  0FB0  0DB1               	rlf	??_UART_Init+7,f
  2405  0FB1                     u2760:
  2406  0FB1  3EFF               	addlw	-1
  2407  0FB2  1D03               	skipz
  2408  0FB3  2FAC               	goto	u2765
  2409  0FB4  3000               	movlw	0
  2410  0FB5  00B2               	movwf	??_UART_Init+8
  2411  0FB6  3012               	movlw	18
  2412  0FB7  00B3               	movwf	??_UART_Init+9
  2413  0FB8  307A               	movlw	122
  2414  0FB9  00B4               	movwf	??_UART_Init+10
  2415  0FBA  3000               	movlw	0
  2416  0FBB  00B5               	movwf	??_UART_Init+11
  2417  0FBC  082E               	movf	??_UART_Init+4,w
  2418  0FBD  02B2               	subwf	??_UART_Init+8,f
  2419  0FBE  082F               	movf	??_UART_Init+5,w
  2420  0FBF  1C03               	skipc
  2421  0FC0  0F2F               	incfsz	??_UART_Init+5,w
  2422  0FC1  2FC3               	goto	u2771
  2423  0FC2  2FC4               	goto	u2772
  2424  0FC3                     u2771:
  2425  0FC3  02B3               	subwf	??_UART_Init+9,f
  2426  0FC4                     u2772:
  2427  0FC4  0830               	movf	??_UART_Init+6,w
  2428  0FC5  1C03               	skipc
  2429  0FC6  0F30               	incfsz	??_UART_Init+6,w
  2430  0FC7  2FC9               	goto	u2773
  2431  0FC8  2FCA               	goto	u2774
  2432  0FC9                     u2773:
  2433  0FC9  02B4               	subwf	??_UART_Init+10,f
  2434  0FCA                     u2774:
  2435  0FCA  0831               	movf	??_UART_Init+7,w
  2436  0FCB  1C03               	skipc
  2437  0FCC  0F31               	incfsz	??_UART_Init+7,w
  2438  0FCD  2FCF               	goto	u2775
  2439  0FCE  2FD0               	goto	u2776
  2440  0FCF                     u2775:
  2441  0FCF  02B5               	subwf	??_UART_Init+11,f
  2442  0FD0                     u2776:
  2443  0FD0  0835               	movf	??_UART_Init+11,w
  2444  0FD1  00F7               	movwf	___aldiv@dividend+3
  2445  0FD2  0834               	movf	??_UART_Init+10,w
  2446  0FD3  00F6               	movwf	___aldiv@dividend+2
  2447  0FD4  0833               	movf	??_UART_Init+9,w
  2448  0FD5  00F5               	movwf	___aldiv@dividend+1
  2449  0FD6  0832               	movf	??_UART_Init+8,w
  2450  0FD7  00F4               	movwf	___aldiv@dividend
  2451  0FD8  120A  158A  2689  120A  158A  	fcall	___aldiv
  2452  0FDD  0871               	movf	?___aldiv+1,w
  2453  0FDE  00FA               	movwf	UART_Init@x+1
  2454  0FDF  0870               	movf	?___aldiv,w
  2455  0FE0  00F9               	movwf	UART_Init@x
  2456  0FE1                     l2022:
  2457                           
  2458                           ;./uart.h: 8:   BRGH = 1;
  2459  0FE1  1683               	bsf	3,5	;RP0=1, select bank1
  2460  0FE2  1303               	bcf	3,6	;RP1=0, select bank1
  2461  0FE3  1518               	bsf	24,2	;volatile
  2462  0FE4                     l2024:
  2463                           
  2464                           ;./uart.h: 10:  if(x<256)
  2465  0FE4  3001               	movlw	1
  2466  0FE5  027A               	subwf	UART_Init@x+1,w
  2467  0FE6  3000               	movlw	0
  2468  0FE7  1903               	skipnz
  2469  0FE8  0279               	subwf	UART_Init@x,w
  2470  0FE9  1803               	skipnc
  2471  0FEA  2FEC               	goto	u2781
  2472  0FEB  2FED               	goto	u2780
  2473  0FEC                     u2781:
  2474  0FEC  2FFF               	goto	l83
  2475  0FED                     u2780:
  2476  0FED                     l2026:
  2477                           
  2478                           ;./uart.h: 11:  {;./uart.h: 12:    SPBRG = x;
  2479  0FED  0879               	movf	UART_Init@x,w
  2480  0FEE  1683               	bsf	3,5	;RP0=1, select bank1
  2481  0FEF  1303               	bcf	3,6	;RP1=0, select bank1
  2482  0FF0  0099               	movwf	25	;volatile
  2483  0FF1                     l2028:
  2484                           
  2485                           ;./uart.h: 13:    SYNC = 0;
  2486  0FF1  1218               	bcf	24,4	;volatile
  2487  0FF2                     l2030:
  2488                           
  2489                           ;./uart.h: 14:    SPEN = 1;
  2490  0FF2  1283               	bcf	3,5	;RP0=0, select bank0
  2491  0FF3  1303               	bcf	3,6	;RP1=0, select bank0
  2492  0FF4  1798               	bsf	24,7	;volatile
  2493  0FF5                     l2032:
  2494                           
  2495                           ;./uart.h: 15:           TRISC7 = 1;
  2496  0FF5  1683               	bsf	3,5	;RP0=1, select bank1
  2497  0FF6  1303               	bcf	3,6	;RP1=0, select bank1
  2498  0FF7  1787               	bsf	7,7	;volatile
  2499  0FF8                     l2034:
  2500                           
  2501                           ;./uart.h: 16:           TRISC6 = 1;
  2502  0FF8  1707               	bsf	7,6	;volatile
  2503  0FF9                     l2036:
  2504                           
  2505                           ;./uart.h: 17:           CREN = 1;
  2506  0FF9  1283               	bcf	3,5	;RP0=0, select bank0
  2507  0FFA  1303               	bcf	3,6	;RP1=0, select bank0
  2508  0FFB  1618               	bsf	24,4	;volatile
  2509  0FFC                     l2038:
  2510                           
  2511                           ;./uart.h: 18:           TXEN = 1;
  2512  0FFC  1683               	bsf	3,5	;RP0=1, select bank1
  2513  0FFD  1303               	bcf	3,6	;RP1=0, select bank1
  2514  0FFE  1698               	bsf	24,5	;volatile
  2515  0FFF                     l83:
  2516  0FFF  0008               	return
  2517  1000                     __end_of_UART_Init:
  2518                           
  2519                           	psect	text12
  2520  0AEA                     __ptext12:	
  2521 ;; *************** function _PWM2_Start *****************
  2522 ;; Defined at:
  2523 ;;		line 54 in file "./pwm.h"
  2524 ;; Parameters:    Size  Location     Type
  2525 ;;		None
  2526 ;; Auto vars:     Size  Location     Type
  2527 ;;		None
  2528 ;; Return value:  Size  Location     Type
  2529 ;;                  2  135[None  ] int 
  2530 ;; Registers used:
  2531 ;;		None
  2532 ;; Tracked objects:
  2533 ;;		On entry : 0/0
  2534 ;;		On exit  : 0/0
  2535 ;;		Unchanged: 0/0
  2536 ;; Data sizes:     COMMON   BANK0   BANK1   BANK3   BANK2
  2537 ;;      Params:         0       0       0       0       0
  2538 ;;      Locals:         0       0       0       0       0
  2539 ;;      Temps:          0       0       0       0       0
  2540 ;;      Totals:         0       0       0       0       0
  2541 ;;Total ram usage:        0 bytes
  2542 ;; Hardware stack levels used: 1
  2543 ;; This function calls:
  2544 ;;		Nothing
  2545 ;; This function is called by:
  2546 ;;		_main
  2547 ;; This function uses a non-reentrant model
  2548 ;;
  2549                           
  2550                           
  2551                           ;psect for function _PWM2_Start
  2552  0AEA                     _PWM2_Start:
  2553  0AEA                     l2076:	
  2554                           ;incstack = 0
  2555                           ; Regs used in _PWM2_Start: []
  2556                           
  2557                           
  2558                           ;./pwm.h: 56:   CCP2CONbits.CCP2M3 = 1;
  2559  0AEA  1283               	bcf	3,5	;RP0=0, select bank0
  2560  0AEB  1303               	bcf	3,6	;RP1=0, select bank0
  2561  0AEC  159D               	bsf	29,3	;volatile
  2562                           
  2563                           ;./pwm.h: 57:   CCP2CONbits.CCP2M2 = 1;
  2564  0AED  151D               	bsf	29,2	;volatile
  2565                           
  2566                           ;./pwm.h: 62:     T2CONbits.T2CKPS0 = 1;
  2567  0AEE  1412               	bsf	18,0	;volatile
  2568                           
  2569                           ;./pwm.h: 63:     T2CONbits.T2CKPS1 = 0;
  2570  0AEF  1092               	bcf	18,1	;volatile
  2571                           
  2572                           ;./pwm.h: 68:     T2CONbits.TMR2ON = 1;
  2573  0AF0  1512               	bsf	18,2	;volatile
  2574                           
  2575                           ;./pwm.h: 69:     TRISCbits.TRISC1 = 0;
  2576  0AF1  1683               	bsf	3,5	;RP0=1, select bank1
  2577  0AF2  1303               	bcf	3,6	;RP1=0, select bank1
  2578  0AF3  1087               	bcf	7,1	;volatile
  2579  0AF4                     l136:
  2580  0AF4  0008               	return
  2581  0AF5                     __end_of_PWM2_Start:
  2582                           
  2583                           	psect	text13
  2584  0C74                     __ptext13:	
  2585 ;; *************** function _PWM2_Init_Fre *****************
  2586 ;; Defined at:
  2587 ;;		line 16 in file "./pwm.h"
  2588 ;; Parameters:    Size  Location     Type
  2589 ;;  fre             4    6[BANK0 ] long 
  2590 ;; Auto vars:     Size  Location     Type
  2591 ;;		None
  2592 ;; Return value:  Size  Location     Type
  2593 ;;                  2    6[BANK0 ] int 
  2594 ;; Registers used:
  2595 ;;		wreg, status,2, status,0, pclath, cstack
  2596 ;; Tracked objects:
  2597 ;;		On entry : 0/0
  2598 ;;		On exit  : 0/0
  2599 ;;		Unchanged: 0/0
  2600 ;; Data sizes:     COMMON   BANK0   BANK1   BANK3   BANK2
  2601 ;;      Params:         0       4       0       0       0
  2602 ;;      Locals:         0       0       0       0       0
  2603 ;;      Temps:          4       0       0       0       0
  2604 ;;      Totals:         4       4       0       0       0
  2605 ;;Total ram usage:        8 bytes
  2606 ;; Hardware stack levels used: 1
  2607 ;; Hardware stack levels required when called: 1
  2608 ;; This function calls:
  2609 ;;		___aldiv
  2610 ;; This function is called by:
  2611 ;;		_main
  2612 ;; This function uses a non-reentrant model
  2613 ;;
  2614                           
  2615                           
  2616                           ;psect for function _PWM2_Init_Fre
  2617  0C74                     _PWM2_Init_Fre:
  2618  0C74                     l2054:	
  2619                           ;incstack = 0
  2620                           ; Regs used in _PWM2_Init_Fre: [wreg+status,2+status,0+pclath+cstack]
  2621                           
  2622                           
  2623                           ;./pwm.h: 16: PWM2_Init_Fre(long fre);./pwm.h: 17: {;./pwm.h: 18:   PR2 = (8000000/(freq
      +                          *4*4)) - 1;
  2624  0C74  1683               	bsf	3,5	;RP0=1, select bank1
  2625  0C75  1303               	bcf	3,6	;RP1=0, select bank1
  2626  0C76  0838               	movf	_freq^(0+128),w
  2627  0C77  00F9               	movwf	??_PWM2_Init_Fre
  2628  0C78  0839               	movf	(_freq+1)^(0+128),w
  2629  0C79  00FA               	movwf	??_PWM2_Init_Fre+1
  2630  0C7A  083A               	movf	(_freq+2)^(0+128),w
  2631  0C7B  00FB               	movwf	??_PWM2_Init_Fre+2
  2632  0C7C  083B               	movf	(_freq+3)^(0+128),w
  2633  0C7D  00FC               	movwf	??_PWM2_Init_Fre+3
  2634  0C7E  3002               	movlw	2
  2635  0C7F                     u2845:
  2636  0C7F  1003               	clrc
  2637  0C80  0DF9               	rlf	??_PWM2_Init_Fre,f
  2638  0C81  0DFA               	rlf	??_PWM2_Init_Fre+1,f
  2639  0C82  0DFB               	rlf	??_PWM2_Init_Fre+2,f
  2640  0C83  0DFC               	rlf	??_PWM2_Init_Fre+3,f
  2641  0C84                     u2840:
  2642  0C84  3EFF               	addlw	-1
  2643  0C85  1D03               	skipz
  2644  0C86  2C7F               	goto	u2845
  2645  0C87  3002               	movlw	2
  2646  0C88                     u2855:
  2647  0C88  1003               	clrc
  2648  0C89  0DF9               	rlf	??_PWM2_Init_Fre,f
  2649  0C8A  0DFA               	rlf	??_PWM2_Init_Fre+1,f
  2650  0C8B  0DFB               	rlf	??_PWM2_Init_Fre+2,f
  2651  0C8C  0DFC               	rlf	??_PWM2_Init_Fre+3,f
  2652  0C8D                     u2850:
  2653  0C8D  3EFF               	addlw	-1
  2654  0C8E  1D03               	skipz
  2655  0C8F  2C88               	goto	u2855
  2656  0C90  087C               	movf	??_PWM2_Init_Fre+3,w
  2657  0C91  00F3               	movwf	___aldiv@divisor+3
  2658  0C92  087B               	movf	??_PWM2_Init_Fre+2,w
  2659  0C93  00F2               	movwf	___aldiv@divisor+2
  2660  0C94  087A               	movf	??_PWM2_Init_Fre+1,w
  2661  0C95  00F1               	movwf	___aldiv@divisor+1
  2662  0C96  0879               	movf	??_PWM2_Init_Fre,w
  2663  0C97  00F0               	movwf	___aldiv@divisor
  2664  0C98  3000               	movlw	0
  2665  0C99  00F7               	movwf	___aldiv@dividend+3
  2666  0C9A  307A               	movlw	122
  2667  0C9B  00F6               	movwf	___aldiv@dividend+2
  2668  0C9C  3012               	movlw	18
  2669  0C9D  00F5               	movwf	___aldiv@dividend+1
  2670  0C9E  3000               	movlw	0
  2671  0C9F  00F4               	movwf	___aldiv@dividend
  2672  0CA0  120A  158A  2689  120A  158A  	fcall	___aldiv
  2673  0CA5  0870               	movf	?___aldiv,w
  2674  0CA6  3EFF               	addlw	255
  2675  0CA7  1683               	bsf	3,5	;RP0=1, select bank1
  2676  0CA8  1303               	bcf	3,6	;RP1=0, select bank1
  2677  0CA9  0092               	movwf	18	;volatile
  2678  0CAA                     l2056:
  2679                           
  2680                           ;./pwm.h: 19:   freq = fre;
  2681  0CAA  1283               	bcf	3,5	;RP0=0, select bank0
  2682  0CAB  1303               	bcf	3,6	;RP1=0, select bank0
  2683  0CAC  0829               	movf	PWM2_Init_Fre@fre+3,w
  2684  0CAD  1683               	bsf	3,5	;RP0=1, select bank1
  2685  0CAE  1303               	bcf	3,6	;RP1=0, select bank1
  2686  0CAF  00BB               	movwf	(_freq+3)^(0+128)
  2687  0CB0  1283               	bcf	3,5	;RP0=0, select bank0
  2688  0CB1  1303               	bcf	3,6	;RP1=0, select bank0
  2689  0CB2  0828               	movf	PWM2_Init_Fre@fre+2,w
  2690  0CB3  1683               	bsf	3,5	;RP0=1, select bank1
  2691  0CB4  1303               	bcf	3,6	;RP1=0, select bank1
  2692  0CB5  00BA               	movwf	(_freq+2)^(0+128)
  2693  0CB6  1283               	bcf	3,5	;RP0=0, select bank0
  2694  0CB7  1303               	bcf	3,6	;RP1=0, select bank0
  2695  0CB8  0827               	movf	PWM2_Init_Fre@fre+1,w
  2696  0CB9  1683               	bsf	3,5	;RP0=1, select bank1
  2697  0CBA  1303               	bcf	3,6	;RP1=0, select bank1
  2698  0CBB  00B9               	movwf	(_freq+1)^(0+128)
  2699  0CBC  1283               	bcf	3,5	;RP0=0, select bank0
  2700  0CBD  1303               	bcf	3,6	;RP1=0, select bank0
  2701  0CBE  0826               	movf	PWM2_Init_Fre@fre,w
  2702  0CBF  1683               	bsf	3,5	;RP0=1, select bank1
  2703  0CC0  1303               	bcf	3,6	;RP1=0, select bank1
  2704  0CC1  00B8               	movwf	_freq^(0+128)
  2705  0CC2                     l124:
  2706  0CC2  0008               	return
  2707  0CC3                     __end_of_PWM2_Init_Fre:
  2708                           
  2709                           	psect	text14
  2710  0D58                     __ptext14:	
  2711 ;; *************** function _PWM2_Duty *****************
  2712 ;; Defined at:
  2713 ;;		line 29 in file "./pwm.h"
  2714 ;; Parameters:    Size  Location     Type
  2715 ;;  duty            2    5[BANK1 ] unsigned int 
  2716 ;; Auto vars:     Size  Location     Type
  2717 ;;		None
  2718 ;; Return value:  Size  Location     Type
  2719 ;;                  2    5[BANK1 ] int 
  2720 ;; Registers used:
  2721 ;;		wreg, status,2, status,0, btemp+1, pclath, cstack
  2722 ;; Tracked objects:
  2723 ;;		On entry : 0/0
  2724 ;;		On exit  : 0/0
  2725 ;;		Unchanged: 0/0
  2726 ;; Data sizes:     COMMON   BANK0   BANK1   BANK3   BANK2
  2727 ;;      Params:         0       0       2       0       0
  2728 ;;      Locals:         0       0       0       0       0
  2729 ;;      Temps:          0       0       2       0       0
  2730 ;;      Totals:         0       0       4       0       0
  2731 ;;Total ram usage:        4 bytes
  2732 ;; Hardware stack levels used: 1
  2733 ;; Hardware stack levels required when called: 2
  2734 ;; This function calls:
  2735 ;;		_PWM_Max_Duty
  2736 ;;		___fldiv
  2737 ;;		___flmul
  2738 ;;		___fltol
  2739 ;;		___xxtofl
  2740 ;; This function is called by:
  2741 ;;		_main
  2742 ;; This function uses a non-reentrant model
  2743 ;;
  2744                           
  2745                           
  2746                           ;psect for function _PWM2_Duty
  2747  0D58                     _PWM2_Duty:
  2748  0D58                     l2066:	
  2749                           ;incstack = 0
  2750                           ; Regs used in _PWM2_Duty: [wreg+status,2+status,0+btemp+1+pclath+cstack]
  2751                           
  2752                           
  2753                           ;./pwm.h: 29: PWM2_Duty(unsigned int duty);./pwm.h: 30: {;./pwm.h: 31:     duty = ((floa
      +                          t)duty/100.0)*PWM_Max_Duty();
  2754  0D58  1683               	bsf	3,5	;RP0=1, select bank1
  2755  0D59  1303               	bcf	3,6	;RP1=0, select bank1
  2756  0D5A  0825               	movf	PWM2_Duty@duty^(0+128),w
  2757  0D5B  1283               	bcf	3,5	;RP0=0, select bank0
  2758  0D5C  1303               	bcf	3,6	;RP1=0, select bank0
  2759  0D5D  00A8               	movwf	___xxtofl@val
  2760  0D5E  1683               	bsf	3,5	;RP0=1, select bank1
  2761  0D5F  1303               	bcf	3,6	;RP1=0, select bank1
  2762  0D60  0826               	movf	(PWM2_Duty@duty+1)^(0+128),w
  2763  0D61  1283               	bcf	3,5	;RP0=0, select bank0
  2764  0D62  1303               	bcf	3,6	;RP1=0, select bank0
  2765  0D63  00A9               	movwf	___xxtofl@val+1
  2766  0D64  01AA               	clrf	___xxtofl@val+2
  2767  0D65  01AB               	clrf	___xxtofl@val+3
  2768  0D66  3000               	movlw	0
  2769  0D67  120A  118A  2020  120A  158A  	fcall	___xxtofl
  2770  0D6C  1283               	bcf	3,5	;RP0=0, select bank0
  2771  0D6D  1303               	bcf	3,6	;RP1=0, select bank0
  2772  0D6E  082B               	movf	?___xxtofl+3,w
  2773  0D6F  00BD               	movwf	___fldiv@b+3
  2774  0D70  082A               	movf	?___xxtofl+2,w
  2775  0D71  00BC               	movwf	___fldiv@b+2
  2776  0D72  0829               	movf	?___xxtofl+1,w
  2777  0D73  00BB               	movwf	___fldiv@b+1
  2778  0D74  0828               	movf	?___xxtofl,w
  2779  0D75  00BA               	movwf	___fldiv@b
  2780  0D76  3042               	movlw	66
  2781  0D77  00B9               	movwf	___fldiv@a+3
  2782  0D78  30C8               	movlw	200
  2783  0D79  00B8               	movwf	___fldiv@a+2
  2784  0D7A  3000               	movlw	0
  2785  0D7B  00B7               	movwf	___fldiv@a+1
  2786  0D7C  3000               	movlw	0
  2787  0D7D  00B6               	movwf	___fldiv@a
  2788  0D7E  120A  118A  22B8  120A  158A  	fcall	___fldiv
  2789  0D83  1283               	bcf	3,5	;RP0=0, select bank0
  2790  0D84  1303               	bcf	3,6	;RP1=0, select bank0
  2791  0D85  0839               	movf	?___fldiv+3,w
  2792  0D86  00D7               	movwf	___flmul@a+3
  2793  0D87  0838               	movf	?___fldiv+2,w
  2794  0D88  00D6               	movwf	___flmul@a+2
  2795  0D89  0837               	movf	?___fldiv+1,w
  2796  0D8A  00D5               	movwf	___flmul@a+1
  2797  0D8B  0836               	movf	?___fldiv,w
  2798  0D8C  00D4               	movwf	___flmul@a
  2799  0D8D  120A  158A  2336  120A  158A  	fcall	_PWM_Max_Duty
  2800  0D92  1283               	bcf	3,5	;RP0=0, select bank0
  2801  0D93  1303               	bcf	3,6	;RP1=0, select bank0
  2802  0D94  0826               	movf	?_PWM_Max_Duty,w
  2803  0D95  00A8               	movwf	___xxtofl@val
  2804  0D96  0827               	movf	?_PWM_Max_Duty+1,w
  2805  0D97  00A9               	movwf	___xxtofl@val+1
  2806  0D98  3000               	movlw	0
  2807  0D99  1BA9               	btfsc	___xxtofl@val+1,7
  2808  0D9A  30FF               	movlw	255
  2809  0D9B  00AA               	movwf	___xxtofl@val+2
  2810  0D9C  00AB               	movwf	___xxtofl@val+3
  2811  0D9D  3001               	movlw	1
  2812  0D9E  120A  118A  2020  120A  158A  	fcall	___xxtofl
  2813  0DA3  1283               	bcf	3,5	;RP0=0, select bank0
  2814  0DA4  1303               	bcf	3,6	;RP1=0, select bank0
  2815  0DA5  082B               	movf	?___xxtofl+3,w
  2816  0DA6  00D3               	movwf	___flmul@b+3
  2817  0DA7  082A               	movf	?___xxtofl+2,w
  2818  0DA8  00D2               	movwf	___flmul@b+2
  2819  0DA9  0829               	movf	?___xxtofl+1,w
  2820  0DAA  00D1               	movwf	___flmul@b+1
  2821  0DAB  0828               	movf	?___xxtofl,w
  2822  0DAC  00D0               	movwf	___flmul@b
  2823  0DAD  120A  118A  2495  120A  158A  	fcall	___flmul
  2824  0DB2  1283               	bcf	3,5	;RP0=0, select bank0
  2825  0DB3  1303               	bcf	3,6	;RP1=0, select bank0
  2826  0DB4  0853               	movf	?___flmul+3,w
  2827  0DB5  00ED               	movwf	___fltol@f1+3
  2828  0DB6  0852               	movf	?___flmul+2,w
  2829  0DB7  00EC               	movwf	___fltol@f1+2
  2830  0DB8  0851               	movf	?___flmul+1,w
  2831  0DB9  00EB               	movwf	___fltol@f1+1
  2832  0DBA  0850               	movf	?___flmul,w
  2833  0DBB  00EA               	movwf	___fltol@f1
  2834  0DBC  120A  158A  25ED  120A  158A  	fcall	___fltol
  2835  0DC1  1283               	bcf	3,5	;RP0=0, select bank0
  2836  0DC2  1303               	bcf	3,6	;RP1=0, select bank0
  2837  0DC3  086B               	movf	?___fltol+1,w
  2838  0DC4  1683               	bsf	3,5	;RP0=1, select bank1
  2839  0DC5  1303               	bcf	3,6	;RP1=0, select bank1
  2840  0DC6  00A6               	movwf	(PWM2_Duty@duty+1)^(0+128)
  2841  0DC7  1283               	bcf	3,5	;RP0=0, select bank0
  2842  0DC8  1303               	bcf	3,6	;RP1=0, select bank0
  2843  0DC9  086A               	movf	?___fltol,w
  2844  0DCA  1683               	bsf	3,5	;RP0=1, select bank1
  2845  0DCB  1303               	bcf	3,6	;RP1=0, select bank1
  2846  0DCC  00A5               	movwf	PWM2_Duty@duty^(0+128)
  2847  0DCD                     l2068:
  2848                           
  2849                           ;./pwm.h: 32:     CCP2X = duty & 2;
  2850  0DCD  1283               	bcf	3,5	;RP0=0, select bank0
  2851  0DCE  1303               	bcf	3,6	;RP1=0, select bank0
  2852  0DCF  129D               	bcf	29,5	;volatile
  2853  0DD0                     l2070:
  2854                           
  2855                           ;./pwm.h: 33:     CCP2Y = duty & 1;
  2856  0DD0  1683               	bsf	3,5	;RP0=1, select bank1
  2857  0DD1  1303               	bcf	3,6	;RP1=0, select bank1
  2858  0DD2  1825               	btfsc	PWM2_Duty@duty^(0+128),0
  2859  0DD3  2DD5               	goto	u2881
  2860  0DD4  2DD9               	goto	u2880
  2861  0DD5                     u2881:
  2862  0DD5  1283               	bcf	3,5	;RP0=0, select bank0
  2863  0DD6  1303               	bcf	3,6	;RP1=0, select bank0
  2864  0DD7  161D               	bsf	29,4	;volatile
  2865  0DD8  2DDC               	goto	u2894
  2866  0DD9                     u2880:
  2867  0DD9  1283               	bcf	3,5	;RP0=0, select bank0
  2868  0DDA  1303               	bcf	3,6	;RP1=0, select bank0
  2869  0DDB  121D               	bcf	29,4	;volatile
  2870  0DDC                     u2894:
  2871  0DDC                     l2072:
  2872                           
  2873                           ;./pwm.h: 34:     CCPR2L = duty>>2;
  2874  0DDC  1683               	bsf	3,5	;RP0=1, select bank1
  2875  0DDD  1303               	bcf	3,6	;RP1=0, select bank1
  2876  0DDE  0826               	movf	(PWM2_Duty@duty+1)^(0+128),w
  2877  0DDF  00A8               	movwf	(??_PWM2_Duty^(0+128)+1)
  2878  0DE0  0825               	movf	PWM2_Duty@duty^(0+128),w
  2879  0DE1  00A7               	movwf	??_PWM2_Duty^(0+128)
  2880  0DE2  1003               	clrc
  2881  0DE3  0CA8               	rrf	(??_PWM2_Duty^(0+128)+1),f
  2882  0DE4  0CA7               	rrf	??_PWM2_Duty^(0+128),f
  2883  0DE5  1003               	clrc
  2884  0DE6  0CA8               	rrf	(??_PWM2_Duty^(0+128)+1),f
  2885  0DE7  0CA7               	rrf	??_PWM2_Duty^(0+128),f
  2886  0DE8  0827               	movf	??_PWM2_Duty^(0+128),w
  2887  0DE9  1283               	bcf	3,5	;RP0=0, select bank0
  2888  0DEA  1303               	bcf	3,6	;RP1=0, select bank0
  2889  0DEB  009B               	movwf	27	;volatile
  2890  0DEC                     l130:
  2891  0DEC  0008               	return
  2892  0DED                     __end_of_PWM2_Duty:
  2893                           
  2894                           	psect	text15
  2895  0ADF                     __ptext15:	
  2896 ;; *************** function _PWM1_Start *****************
  2897 ;; Defined at:
  2898 ;;		line 37 in file "./pwm.h"
  2899 ;; Parameters:    Size  Location     Type
  2900 ;;		None
  2901 ;; Auto vars:     Size  Location     Type
  2902 ;;		None
  2903 ;; Return value:  Size  Location     Type
  2904 ;;                  2  132[None  ] int 
  2905 ;; Registers used:
  2906 ;;		None
  2907 ;; Tracked objects:
  2908 ;;		On entry : 0/0
  2909 ;;		On exit  : 0/0
  2910 ;;		Unchanged: 0/0
  2911 ;; Data sizes:     COMMON   BANK0   BANK1   BANK3   BANK2
  2912 ;;      Params:         0       0       0       0       0
  2913 ;;      Locals:         0       0       0       0       0
  2914 ;;      Temps:          0       0       0       0       0
  2915 ;;      Totals:         0       0       0       0       0
  2916 ;;Total ram usage:        0 bytes
  2917 ;; Hardware stack levels used: 1
  2918 ;; This function calls:
  2919 ;;		Nothing
  2920 ;; This function is called by:
  2921 ;;		_main
  2922 ;; This function uses a non-reentrant model
  2923 ;;
  2924                           
  2925                           
  2926                           ;psect for function _PWM1_Start
  2927  0ADF                     _PWM1_Start:
  2928  0ADF                     l2074:	
  2929                           ;incstack = 0
  2930                           ; Regs used in _PWM1_Start: []
  2931                           
  2932                           
  2933                           ;./pwm.h: 39:   CCP1CONbits.CCP1M3 = 1;
  2934  0ADF  1283               	bcf	3,5	;RP0=0, select bank0
  2935  0AE0  1303               	bcf	3,6	;RP1=0, select bank0
  2936  0AE1  1597               	bsf	23,3	;volatile
  2937                           
  2938                           ;./pwm.h: 40:   CCP1CONbits.CCP1M2 = 1;
  2939  0AE2  1517               	bsf	23,2	;volatile
  2940                           
  2941                           ;./pwm.h: 45:     T2CONbits.T2CKPS0 = 1;
  2942  0AE3  1412               	bsf	18,0	;volatile
  2943                           
  2944                           ;./pwm.h: 46:     T2CONbits.T2CKPS1 = 0;
  2945  0AE4  1092               	bcf	18,1	;volatile
  2946                           
  2947                           ;./pwm.h: 51:   T2CONbits.TMR2ON = 1;
  2948  0AE5  1512               	bsf	18,2	;volatile
  2949                           
  2950                           ;./pwm.h: 52:   TRISCbits.TRISC2 = 0;
  2951  0AE6  1683               	bsf	3,5	;RP0=1, select bank1
  2952  0AE7  1303               	bcf	3,6	;RP1=0, select bank1
  2953  0AE8  1107               	bcf	7,2	;volatile
  2954  0AE9                     l133:
  2955  0AE9  0008               	return
  2956  0AEA                     __end_of_PWM1_Start:
  2957                           
  2958                           	psect	text16
  2959  0C25                     __ptext16:	
  2960 ;; *************** function _PWM1_Init_Fre *****************
  2961 ;; Defined at:
  2962 ;;		line 11 in file "./pwm.h"
  2963 ;; Parameters:    Size  Location     Type
  2964 ;;  fre             4    6[BANK0 ] long 
  2965 ;; Auto vars:     Size  Location     Type
  2966 ;;		None
  2967 ;; Return value:  Size  Location     Type
  2968 ;;                  2    6[BANK0 ] int 
  2969 ;; Registers used:
  2970 ;;		wreg, status,2, status,0, pclath, cstack
  2971 ;; Tracked objects:
  2972 ;;		On entry : 0/0
  2973 ;;		On exit  : 0/0
  2974 ;;		Unchanged: 0/0
  2975 ;; Data sizes:     COMMON   BANK0   BANK1   BANK3   BANK2
  2976 ;;      Params:         0       4       0       0       0
  2977 ;;      Locals:         0       0       0       0       0
  2978 ;;      Temps:          4       0       0       0       0
  2979 ;;      Totals:         4       4       0       0       0
  2980 ;;Total ram usage:        8 bytes
  2981 ;; Hardware stack levels used: 1
  2982 ;; Hardware stack levels required when called: 1
  2983 ;; This function calls:
  2984 ;;		___aldiv
  2985 ;; This function is called by:
  2986 ;;		_main
  2987 ;; This function uses a non-reentrant model
  2988 ;;
  2989                           
  2990                           
  2991                           ;psect for function _PWM1_Init_Fre
  2992  0C25                     _PWM1_Init_Fre:
  2993  0C25                     l2050:	
  2994                           ;incstack = 0
  2995                           ; Regs used in _PWM1_Init_Fre: [wreg+status,2+status,0+pclath+cstack]
  2996                           
  2997                           
  2998                           ;./pwm.h: 11: PWM1_Init_Fre(long fre);./pwm.h: 12: {;./pwm.h: 13:   PR2 = (8000000/(freq
      +                          *4*4)) - 1;
  2999  0C25  1683               	bsf	3,5	;RP0=1, select bank1
  3000  0C26  1303               	bcf	3,6	;RP1=0, select bank1
  3001  0C27  0838               	movf	_freq^(0+128),w
  3002  0C28  00F9               	movwf	??_PWM1_Init_Fre
  3003  0C29  0839               	movf	(_freq+1)^(0+128),w
  3004  0C2A  00FA               	movwf	??_PWM1_Init_Fre+1
  3005  0C2B  083A               	movf	(_freq+2)^(0+128),w
  3006  0C2C  00FB               	movwf	??_PWM1_Init_Fre+2
  3007  0C2D  083B               	movf	(_freq+3)^(0+128),w
  3008  0C2E  00FC               	movwf	??_PWM1_Init_Fre+3
  3009  0C2F  3002               	movlw	2
  3010  0C30                     u2825:
  3011  0C30  1003               	clrc
  3012  0C31  0DF9               	rlf	??_PWM1_Init_Fre,f
  3013  0C32  0DFA               	rlf	??_PWM1_Init_Fre+1,f
  3014  0C33  0DFB               	rlf	??_PWM1_Init_Fre+2,f
  3015  0C34  0DFC               	rlf	??_PWM1_Init_Fre+3,f
  3016  0C35                     u2820:
  3017  0C35  3EFF               	addlw	-1
  3018  0C36  1D03               	skipz
  3019  0C37  2C30               	goto	u2825
  3020  0C38  3002               	movlw	2
  3021  0C39                     u2835:
  3022  0C39  1003               	clrc
  3023  0C3A  0DF9               	rlf	??_PWM1_Init_Fre,f
  3024  0C3B  0DFA               	rlf	??_PWM1_Init_Fre+1,f
  3025  0C3C  0DFB               	rlf	??_PWM1_Init_Fre+2,f
  3026  0C3D  0DFC               	rlf	??_PWM1_Init_Fre+3,f
  3027  0C3E                     u2830:
  3028  0C3E  3EFF               	addlw	-1
  3029  0C3F  1D03               	skipz
  3030  0C40  2C39               	goto	u2835
  3031  0C41  087C               	movf	??_PWM1_Init_Fre+3,w
  3032  0C42  00F3               	movwf	___aldiv@divisor+3
  3033  0C43  087B               	movf	??_PWM1_Init_Fre+2,w
  3034  0C44  00F2               	movwf	___aldiv@divisor+2
  3035  0C45  087A               	movf	??_PWM1_Init_Fre+1,w
  3036  0C46  00F1               	movwf	___aldiv@divisor+1
  3037  0C47  0879               	movf	??_PWM1_Init_Fre,w
  3038  0C48  00F0               	movwf	___aldiv@divisor
  3039  0C49  3000               	movlw	0
  3040  0C4A  00F7               	movwf	___aldiv@dividend+3
  3041  0C4B  307A               	movlw	122
  3042  0C4C  00F6               	movwf	___aldiv@dividend+2
  3043  0C4D  3012               	movlw	18
  3044  0C4E  00F5               	movwf	___aldiv@dividend+1
  3045  0C4F  3000               	movlw	0
  3046  0C50  00F4               	movwf	___aldiv@dividend
  3047  0C51  120A  158A  2689  120A  158A  	fcall	___aldiv
  3048  0C56  0870               	movf	?___aldiv,w
  3049  0C57  3EFF               	addlw	255
  3050  0C58  1683               	bsf	3,5	;RP0=1, select bank1
  3051  0C59  1303               	bcf	3,6	;RP1=0, select bank1
  3052  0C5A  0092               	movwf	18	;volatile
  3053  0C5B                     l2052:
  3054                           
  3055                           ;./pwm.h: 14:   freq = fre;
  3056  0C5B  1283               	bcf	3,5	;RP0=0, select bank0
  3057  0C5C  1303               	bcf	3,6	;RP1=0, select bank0
  3058  0C5D  0829               	movf	PWM1_Init_Fre@fre+3,w
  3059  0C5E  1683               	bsf	3,5	;RP0=1, select bank1
  3060  0C5F  1303               	bcf	3,6	;RP1=0, select bank1
  3061  0C60  00BB               	movwf	(_freq+3)^(0+128)
  3062  0C61  1283               	bcf	3,5	;RP0=0, select bank0
  3063  0C62  1303               	bcf	3,6	;RP1=0, select bank0
  3064  0C63  0828               	movf	PWM1_Init_Fre@fre+2,w
  3065  0C64  1683               	bsf	3,5	;RP0=1, select bank1
  3066  0C65  1303               	bcf	3,6	;RP1=0, select bank1
  3067  0C66  00BA               	movwf	(_freq+2)^(0+128)
  3068  0C67  1283               	bcf	3,5	;RP0=0, select bank0
  3069  0C68  1303               	bcf	3,6	;RP1=0, select bank0
  3070  0C69  0827               	movf	PWM1_Init_Fre@fre+1,w
  3071  0C6A  1683               	bsf	3,5	;RP0=1, select bank1
  3072  0C6B  1303               	bcf	3,6	;RP1=0, select bank1
  3073  0C6C  00B9               	movwf	(_freq+1)^(0+128)
  3074  0C6D  1283               	bcf	3,5	;RP0=0, select bank0
  3075  0C6E  1303               	bcf	3,6	;RP1=0, select bank0
  3076  0C6F  0826               	movf	PWM1_Init_Fre@fre,w
  3077  0C70  1683               	bsf	3,5	;RP0=1, select bank1
  3078  0C71  1303               	bcf	3,6	;RP1=0, select bank1
  3079  0C72  00B8               	movwf	_freq^(0+128)
  3080  0C73                     l121:
  3081  0C73  0008               	return
  3082  0C74                     __end_of_PWM1_Init_Fre:
  3083                           
  3084                           	psect	text17
  3085  0CC3                     __ptext17:	
  3086 ;; *************** function _PWM1_Duty *****************
  3087 ;; Defined at:
  3088 ;;		line 22 in file "./pwm.h"
  3089 ;; Parameters:    Size  Location     Type
  3090 ;;  duty            2    5[BANK1 ] unsigned int 
  3091 ;; Auto vars:     Size  Location     Type
  3092 ;;		None
  3093 ;; Return value:  Size  Location     Type
  3094 ;;                  2    5[BANK1 ] int 
  3095 ;; Registers used:
  3096 ;;		wreg, status,2, status,0, btemp+1, pclath, cstack
  3097 ;; Tracked objects:
  3098 ;;		On entry : 0/0
  3099 ;;		On exit  : 0/0
  3100 ;;		Unchanged: 0/0
  3101 ;; Data sizes:     COMMON   BANK0   BANK1   BANK3   BANK2
  3102 ;;      Params:         0       0       2       0       0
  3103 ;;      Locals:         0       0       0       0       0
  3104 ;;      Temps:          0       0       2       0       0
  3105 ;;      Totals:         0       0       4       0       0
  3106 ;;Total ram usage:        4 bytes
  3107 ;; Hardware stack levels used: 1
  3108 ;; Hardware stack levels required when called: 2
  3109 ;; This function calls:
  3110 ;;		_PWM_Max_Duty
  3111 ;;		___fldiv
  3112 ;;		___flmul
  3113 ;;		___fltol
  3114 ;;		___xxtofl
  3115 ;; This function is called by:
  3116 ;;		_main
  3117 ;; This function uses a non-reentrant model
  3118 ;;
  3119                           
  3120                           
  3121                           ;psect for function _PWM1_Duty
  3122  0CC3                     _PWM1_Duty:
  3123  0CC3                     l2058:	
  3124                           ;incstack = 0
  3125                           ; Regs used in _PWM1_Duty: [wreg+status,2+status,0+btemp+1+pclath+cstack]
  3126                           
  3127                           
  3128                           ;./pwm.h: 22: PWM1_Duty(unsigned int duty);./pwm.h: 23: {;./pwm.h: 24:     duty = ((floa
      +                          t)duty/100.0)*PWM_Max_Duty();
  3129  0CC3  1683               	bsf	3,5	;RP0=1, select bank1
  3130  0CC4  1303               	bcf	3,6	;RP1=0, select bank1
  3131  0CC5  0825               	movf	PWM1_Duty@duty^(0+128),w
  3132  0CC6  1283               	bcf	3,5	;RP0=0, select bank0
  3133  0CC7  1303               	bcf	3,6	;RP1=0, select bank0
  3134  0CC8  00A8               	movwf	___xxtofl@val
  3135  0CC9  1683               	bsf	3,5	;RP0=1, select bank1
  3136  0CCA  1303               	bcf	3,6	;RP1=0, select bank1
  3137  0CCB  0826               	movf	(PWM1_Duty@duty+1)^(0+128),w
  3138  0CCC  1283               	bcf	3,5	;RP0=0, select bank0
  3139  0CCD  1303               	bcf	3,6	;RP1=0, select bank0
  3140  0CCE  00A9               	movwf	___xxtofl@val+1
  3141  0CCF  01AA               	clrf	___xxtofl@val+2
  3142  0CD0  01AB               	clrf	___xxtofl@val+3
  3143  0CD1  3000               	movlw	0
  3144  0CD2  120A  118A  2020  120A  158A  	fcall	___xxtofl
  3145  0CD7  1283               	bcf	3,5	;RP0=0, select bank0
  3146  0CD8  1303               	bcf	3,6	;RP1=0, select bank0
  3147  0CD9  082B               	movf	?___xxtofl+3,w
  3148  0CDA  00BD               	movwf	___fldiv@b+3
  3149  0CDB  082A               	movf	?___xxtofl+2,w
  3150  0CDC  00BC               	movwf	___fldiv@b+2
  3151  0CDD  0829               	movf	?___xxtofl+1,w
  3152  0CDE  00BB               	movwf	___fldiv@b+1
  3153  0CDF  0828               	movf	?___xxtofl,w
  3154  0CE0  00BA               	movwf	___fldiv@b
  3155  0CE1  3042               	movlw	66
  3156  0CE2  00B9               	movwf	___fldiv@a+3
  3157  0CE3  30C8               	movlw	200
  3158  0CE4  00B8               	movwf	___fldiv@a+2
  3159  0CE5  3000               	movlw	0
  3160  0CE6  00B7               	movwf	___fldiv@a+1
  3161  0CE7  3000               	movlw	0
  3162  0CE8  00B6               	movwf	___fldiv@a
  3163  0CE9  120A  118A  22B8  120A  158A  	fcall	___fldiv
  3164  0CEE  1283               	bcf	3,5	;RP0=0, select bank0
  3165  0CEF  1303               	bcf	3,6	;RP1=0, select bank0
  3166  0CF0  0839               	movf	?___fldiv+3,w
  3167  0CF1  00D7               	movwf	___flmul@a+3
  3168  0CF2  0838               	movf	?___fldiv+2,w
  3169  0CF3  00D6               	movwf	___flmul@a+2
  3170  0CF4  0837               	movf	?___fldiv+1,w
  3171  0CF5  00D5               	movwf	___flmul@a+1
  3172  0CF6  0836               	movf	?___fldiv,w
  3173  0CF7  00D4               	movwf	___flmul@a
  3174  0CF8  120A  158A  2336  120A  158A  	fcall	_PWM_Max_Duty
  3175  0CFD  1283               	bcf	3,5	;RP0=0, select bank0
  3176  0CFE  1303               	bcf	3,6	;RP1=0, select bank0
  3177  0CFF  0826               	movf	?_PWM_Max_Duty,w
  3178  0D00  00A8               	movwf	___xxtofl@val
  3179  0D01  0827               	movf	?_PWM_Max_Duty+1,w
  3180  0D02  00A9               	movwf	___xxtofl@val+1
  3181  0D03  3000               	movlw	0
  3182  0D04  1BA9               	btfsc	___xxtofl@val+1,7
  3183  0D05  30FF               	movlw	255
  3184  0D06  00AA               	movwf	___xxtofl@val+2
  3185  0D07  00AB               	movwf	___xxtofl@val+3
  3186  0D08  3001               	movlw	1
  3187  0D09  120A  118A  2020  120A  158A  	fcall	___xxtofl
  3188  0D0E  1283               	bcf	3,5	;RP0=0, select bank0
  3189  0D0F  1303               	bcf	3,6	;RP1=0, select bank0
  3190  0D10  082B               	movf	?___xxtofl+3,w
  3191  0D11  00D3               	movwf	___flmul@b+3
  3192  0D12  082A               	movf	?___xxtofl+2,w
  3193  0D13  00D2               	movwf	___flmul@b+2
  3194  0D14  0829               	movf	?___xxtofl+1,w
  3195  0D15  00D1               	movwf	___flmul@b+1
  3196  0D16  0828               	movf	?___xxtofl,w
  3197  0D17  00D0               	movwf	___flmul@b
  3198  0D18  120A  118A  2495  120A  158A  	fcall	___flmul
  3199  0D1D  1283               	bcf	3,5	;RP0=0, select bank0
  3200  0D1E  1303               	bcf	3,6	;RP1=0, select bank0
  3201  0D1F  0853               	movf	?___flmul+3,w
  3202  0D20  00ED               	movwf	___fltol@f1+3
  3203  0D21  0852               	movf	?___flmul+2,w
  3204  0D22  00EC               	movwf	___fltol@f1+2
  3205  0D23  0851               	movf	?___flmul+1,w
  3206  0D24  00EB               	movwf	___fltol@f1+1
  3207  0D25  0850               	movf	?___flmul,w
  3208  0D26  00EA               	movwf	___fltol@f1
  3209  0D27  120A  158A  25ED  120A  158A  	fcall	___fltol
  3210  0D2C  1283               	bcf	3,5	;RP0=0, select bank0
  3211  0D2D  1303               	bcf	3,6	;RP1=0, select bank0
  3212  0D2E  086B               	movf	?___fltol+1,w
  3213  0D2F  1683               	bsf	3,5	;RP0=1, select bank1
  3214  0D30  1303               	bcf	3,6	;RP1=0, select bank1
  3215  0D31  00A6               	movwf	(PWM1_Duty@duty+1)^(0+128)
  3216  0D32  1283               	bcf	3,5	;RP0=0, select bank0
  3217  0D33  1303               	bcf	3,6	;RP1=0, select bank0
  3218  0D34  086A               	movf	?___fltol,w
  3219  0D35  1683               	bsf	3,5	;RP0=1, select bank1
  3220  0D36  1303               	bcf	3,6	;RP1=0, select bank1
  3221  0D37  00A5               	movwf	PWM1_Duty@duty^(0+128)
  3222  0D38                     l2060:
  3223                           
  3224                           ;./pwm.h: 25:     CCP1X = duty & 2;
  3225  0D38  1283               	bcf	3,5	;RP0=0, select bank0
  3226  0D39  1303               	bcf	3,6	;RP1=0, select bank0
  3227  0D3A  1297               	bcf	23,5	;volatile
  3228  0D3B                     l2062:
  3229                           
  3230                           ;./pwm.h: 26:     CCP1Y = duty & 1;
  3231  0D3B  1683               	bsf	3,5	;RP0=1, select bank1
  3232  0D3C  1303               	bcf	3,6	;RP1=0, select bank1
  3233  0D3D  1825               	btfsc	PWM1_Duty@duty^(0+128),0
  3234  0D3E  2D40               	goto	u2861
  3235  0D3F  2D44               	goto	u2860
  3236  0D40                     u2861:
  3237  0D40  1283               	bcf	3,5	;RP0=0, select bank0
  3238  0D41  1303               	bcf	3,6	;RP1=0, select bank0
  3239  0D42  1617               	bsf	23,4	;volatile
  3240  0D43  2D47               	goto	u2874
  3241  0D44                     u2860:
  3242  0D44  1283               	bcf	3,5	;RP0=0, select bank0
  3243  0D45  1303               	bcf	3,6	;RP1=0, select bank0
  3244  0D46  1217               	bcf	23,4	;volatile
  3245  0D47                     u2874:
  3246  0D47                     l2064:
  3247                           
  3248                           ;./pwm.h: 27:     CCPR1L = duty>>2;
  3249  0D47  1683               	bsf	3,5	;RP0=1, select bank1
  3250  0D48  1303               	bcf	3,6	;RP1=0, select bank1
  3251  0D49  0826               	movf	(PWM1_Duty@duty+1)^(0+128),w
  3252  0D4A  00A8               	movwf	(??_PWM1_Duty^(0+128)+1)
  3253  0D4B  0825               	movf	PWM1_Duty@duty^(0+128),w
  3254  0D4C  00A7               	movwf	??_PWM1_Duty^(0+128)
  3255  0D4D  1003               	clrc
  3256  0D4E  0CA8               	rrf	(??_PWM1_Duty^(0+128)+1),f
  3257  0D4F  0CA7               	rrf	??_PWM1_Duty^(0+128),f
  3258  0D50  1003               	clrc
  3259  0D51  0CA8               	rrf	(??_PWM1_Duty^(0+128)+1),f
  3260  0D52  0CA7               	rrf	??_PWM1_Duty^(0+128),f
  3261  0D53  0827               	movf	??_PWM1_Duty^(0+128),w
  3262  0D54  1283               	bcf	3,5	;RP0=0, select bank0
  3263  0D55  1303               	bcf	3,6	;RP1=0, select bank0
  3264  0D56  0095               	movwf	21	;volatile
  3265  0D57                     l127:
  3266  0D57  0008               	return
  3267  0D58                     __end_of_PWM1_Duty:
  3268                           
  3269                           	psect	text18
  3270  0020                     __ptext18:	
  3271 ;; *************** function ___xxtofl *****************
  3272 ;; Defined at:
  3273 ;;		line 10 in file "C:\Program Files\Microchip\xc8\v2.32\pic\sources\c90\common\xxtofl.c"
  3274 ;; Parameters:    Size  Location     Type
  3275 ;;  sign            1    wreg     unsigned char 
  3276 ;;  val             4    8[BANK0 ] long 
  3277 ;; Auto vars:     Size  Location     Type
  3278 ;;  sign            1   16[BANK0 ] unsigned char 
  3279 ;;  arg             4   18[BANK0 ] unsigned long 
  3280 ;;  exp             1   17[BANK0 ] unsigned char 
  3281 ;; Return value:  Size  Location     Type
  3282 ;;                  4    8[BANK0 ] unsigned char 
  3283 ;; Registers used:
  3284 ;;		wreg, status,2, status,0
  3285 ;; Tracked objects:
  3286 ;;		On entry : 0/0
  3287 ;;		On exit  : 0/0
  3288 ;;		Unchanged: 0/0
  3289 ;; Data sizes:     COMMON   BANK0   BANK1   BANK3   BANK2
  3290 ;;      Params:         0       4       0       0       0
  3291 ;;      Locals:         0       6       0       0       0
  3292 ;;      Temps:          0       4       0       0       0
  3293 ;;      Totals:         0      14       0       0       0
  3294 ;;Total ram usage:       14 bytes
  3295 ;; Hardware stack levels used: 1
  3296 ;; This function calls:
  3297 ;;		Nothing
  3298 ;; This function is called by:
  3299 ;;		_PWM1_Duty
  3300 ;;		_PWM2_Duty
  3301 ;; This function uses a non-reentrant model
  3302 ;;
  3303                           
  3304                           
  3305                           ;psect for function ___xxtofl
  3306  0020                     ___xxtofl:
  3307                           
  3308                           ;incstack = 0
  3309                           ; Regs used in ___xxtofl: [wreg+status,2+status,0]
  3310                           ;___xxtofl@sign stored from wreg
  3311  0020  1283               	bcf	3,5	;RP0=0, select bank0
  3312  0021  1303               	bcf	3,6	;RP1=0, select bank0
  3313  0022  00B0               	movwf	___xxtofl@sign
  3314  0023                     l1972:
  3315  0023  0830               	movf	___xxtofl@sign,w
  3316  0024  1903               	btfsc	3,2
  3317  0025  2827               	goto	u2571
  3318  0026  2828               	goto	u2570
  3319  0027                     u2571:
  3320  0027  283C               	goto	l1978
  3321  0028                     u2570:
  3322  0028                     l1974:
  3323  0028  1FAB               	btfss	___xxtofl@val+3,7
  3324  0029  282B               	goto	u2581
  3325  002A  282C               	goto	u2580
  3326  002B                     u2581:
  3327  002B  283C               	goto	l1978
  3328  002C                     u2580:
  3329  002C                     l1976:
  3330  002C  0928               	comf	___xxtofl@val,w
  3331  002D  00B2               	movwf	___xxtofl@arg
  3332  002E  0929               	comf	___xxtofl@val+1,w
  3333  002F  00B3               	movwf	___xxtofl@arg+1
  3334  0030  092A               	comf	___xxtofl@val+2,w
  3335  0031  00B4               	movwf	___xxtofl@arg+2
  3336  0032  092B               	comf	___xxtofl@val+3,w
  3337  0033  00B5               	movwf	___xxtofl@arg+3
  3338  0034  0AB2               	incf	___xxtofl@arg,f
  3339  0035  1903               	skipnz
  3340  0036  0AB3               	incf	___xxtofl@arg+1,f
  3341  0037  1903               	skipnz
  3342  0038  0AB4               	incf	___xxtofl@arg+2,f
  3343  0039  1903               	skipnz
  3344  003A  0AB5               	incf	___xxtofl@arg+3,f
  3345  003B  2844               	goto	l733
  3346  003C                     l1978:
  3347  003C  082B               	movf	___xxtofl@val+3,w
  3348  003D  00B5               	movwf	___xxtofl@arg+3
  3349  003E  082A               	movf	___xxtofl@val+2,w
  3350  003F  00B4               	movwf	___xxtofl@arg+2
  3351  0040  0829               	movf	___xxtofl@val+1,w
  3352  0041  00B3               	movwf	___xxtofl@arg+1
  3353  0042  0828               	movf	___xxtofl@val,w
  3354  0043  00B2               	movwf	___xxtofl@arg
  3355  0044                     l733:
  3356  0044  082B               	movf	___xxtofl@val+3,w
  3357  0045  042A               	iorwf	___xxtofl@val+2,w
  3358  0046  0429               	iorwf	___xxtofl@val+1,w
  3359  0047  0428               	iorwf	___xxtofl@val,w
  3360  0048  1D03               	skipz
  3361  0049  284B               	goto	u2591
  3362  004A  284C               	goto	u2590
  3363  004B                     u2591:
  3364  004B  2855               	goto	l1984
  3365  004C                     u2590:
  3366  004C                     l1980:
  3367  004C  3000               	movlw	0
  3368  004D  00AB               	movwf	?___xxtofl+3
  3369  004E  3000               	movlw	0
  3370  004F  00AA               	movwf	?___xxtofl+2
  3371  0050  3000               	movlw	0
  3372  0051  00A9               	movwf	?___xxtofl+1
  3373  0052  3000               	movlw	0
  3374  0053  00A8               	movwf	?___xxtofl
  3375  0054  28DB               	goto	l735
  3376  0055                     l1984:
  3377  0055  3096               	movlw	150
  3378  0056  00AC               	movwf	??___xxtofl
  3379  0057  082C               	movf	??___xxtofl,w
  3380  0058  00B1               	movwf	___xxtofl@exp
  3381  0059  2867               	goto	l1988
  3382  005A                     l1986:
  3383  005A  3001               	movlw	1
  3384  005B  00AC               	movwf	??___xxtofl
  3385  005C  082C               	movf	??___xxtofl,w
  3386  005D  07B1               	addwf	___xxtofl@exp,f
  3387  005E  3001               	movlw	1
  3388  005F                     u2605:
  3389  005F  1003               	clrc
  3390  0060  0CB5               	rrf	___xxtofl@arg+3,f
  3391  0061  0CB4               	rrf	___xxtofl@arg+2,f
  3392  0062  0CB3               	rrf	___xxtofl@arg+1,f
  3393  0063  0CB2               	rrf	___xxtofl@arg,f
  3394  0064  3EFF               	addlw	-1
  3395  0065  1D03               	skipz
  3396  0066  285F               	goto	u2605
  3397  0067                     l1988:
  3398  0067  30FE               	movlw	254
  3399  0068  0535               	andwf	___xxtofl@arg+3,w
  3400  0069  1D03               	btfss	3,2
  3401  006A  286C               	goto	u2611
  3402  006B  286D               	goto	u2610
  3403  006C                     u2611:
  3404  006C  285A               	goto	l1986
  3405  006D                     u2610:
  3406  006D  2889               	goto	l739
  3407  006E                     l1990:
  3408  006E  3001               	movlw	1
  3409  006F  00AC               	movwf	??___xxtofl
  3410  0070  082C               	movf	??___xxtofl,w
  3411  0071  07B1               	addwf	___xxtofl@exp,f
  3412  0072                     l1992:
  3413  0072  3001               	movlw	1
  3414  0073  07B2               	addwf	___xxtofl@arg,f
  3415  0074  3000               	movlw	0
  3416  0075  1803               	skipnc
  3417  0076  3001               	movlw	1
  3418  0077  07B3               	addwf	___xxtofl@arg+1,f
  3419  0078  3000               	movlw	0
  3420  0079  1803               	skipnc
  3421  007A  3001               	movlw	1
  3422  007B  07B4               	addwf	___xxtofl@arg+2,f
  3423  007C  3000               	movlw	0
  3424  007D  1803               	skipnc
  3425  007E  3001               	movlw	1
  3426  007F  07B5               	addwf	___xxtofl@arg+3,f
  3427  0080                     l1994:
  3428  0080  3001               	movlw	1
  3429  0081                     u2625:
  3430  0081  1003               	clrc
  3431  0082  0CB5               	rrf	___xxtofl@arg+3,f
  3432  0083  0CB4               	rrf	___xxtofl@arg+2,f
  3433  0084  0CB3               	rrf	___xxtofl@arg+1,f
  3434  0085  0CB2               	rrf	___xxtofl@arg,f
  3435  0086  3EFF               	addlw	-1
  3436  0087  1D03               	skipz
  3437  0088  2881               	goto	u2625
  3438  0089                     l739:
  3439  0089  30FF               	movlw	255
  3440  008A  0535               	andwf	___xxtofl@arg+3,w
  3441  008B  1D03               	btfss	3,2
  3442  008C  288E               	goto	u2631
  3443  008D  288F               	goto	u2630
  3444  008E                     u2631:
  3445  008E  286E               	goto	l1990
  3446  008F                     u2630:
  3447  008F  289B               	goto	l1998
  3448  0090                     l1996:
  3449  0090  3001               	movlw	1
  3450  0091  02B1               	subwf	___xxtofl@exp,f
  3451  0092  3001               	movlw	1
  3452  0093  00AC               	movwf	??___xxtofl
  3453  0094                     u2645:
  3454  0094  1003               	clrc
  3455  0095  0DB2               	rlf	___xxtofl@arg,f
  3456  0096  0DB3               	rlf	___xxtofl@arg+1,f
  3457  0097  0DB4               	rlf	___xxtofl@arg+2,f
  3458  0098  0DB5               	rlf	___xxtofl@arg+3,f
  3459  0099  0BAC               	decfsz	??___xxtofl,f
  3460  009A  2894               	goto	u2645
  3461  009B                     l1998:
  3462  009B  1BB4               	btfsc	___xxtofl@arg+2,7
  3463  009C  289E               	goto	u2651
  3464  009D  289F               	goto	u2650
  3465  009E                     u2651:
  3466  009E  28A5               	goto	l746
  3467  009F                     u2650:
  3468  009F                     l2000:
  3469  009F  3002               	movlw	2
  3470  00A0  0231               	subwf	___xxtofl@exp,w
  3471  00A1  1803               	skipnc
  3472  00A2  28A4               	goto	u2661
  3473  00A3  28A5               	goto	u2660
  3474  00A4                     u2661:
  3475  00A4  2890               	goto	l1996
  3476  00A5                     u2660:
  3477  00A5                     l746:
  3478  00A5  1831               	btfsc	___xxtofl@exp,0
  3479  00A6  28A8               	goto	u2671
  3480  00A7  28A9               	goto	u2670
  3481  00A8                     u2671:
  3482  00A8  28B1               	goto	l747
  3483  00A9                     u2670:
  3484  00A9                     l2002:
  3485  00A9  30FF               	movlw	255
  3486  00AA  05B2               	andwf	___xxtofl@arg,f
  3487  00AB  30FF               	movlw	255
  3488  00AC  05B3               	andwf	___xxtofl@arg+1,f
  3489  00AD  307F               	movlw	127
  3490  00AE  05B4               	andwf	___xxtofl@arg+2,f
  3491  00AF  30FF               	movlw	255
  3492  00B0  05B5               	andwf	___xxtofl@arg+3,f
  3493  00B1                     l747:
  3494  00B1  1003               	clrc
  3495  00B2  0CB1               	rrf	___xxtofl@exp,f
  3496  00B3                     l2004:
  3497  00B3  0831               	movf	___xxtofl@exp,w
  3498  00B4  00AC               	movwf	??___xxtofl
  3499  00B5  01AD               	clrf	??___xxtofl+1
  3500  00B6  01AE               	clrf	??___xxtofl+2
  3501  00B7  01AF               	clrf	??___xxtofl+3
  3502  00B8  3018               	movlw	24
  3503  00B9                     u2685:
  3504  00B9  1003               	clrc
  3505  00BA  0DAC               	rlf	??___xxtofl,f
  3506  00BB  0DAD               	rlf	??___xxtofl+1,f
  3507  00BC  0DAE               	rlf	??___xxtofl+2,f
  3508  00BD  0DAF               	rlf	??___xxtofl+3,f
  3509  00BE                     u2680:
  3510  00BE  3EFF               	addlw	-1
  3511  00BF  1D03               	skipz
  3512  00C0  28B9               	goto	u2685
  3513  00C1  082C               	movf	??___xxtofl,w
  3514  00C2  04B2               	iorwf	___xxtofl@arg,f
  3515  00C3  082D               	movf	??___xxtofl+1,w
  3516  00C4  04B3               	iorwf	___xxtofl@arg+1,f
  3517  00C5  082E               	movf	??___xxtofl+2,w
  3518  00C6  04B4               	iorwf	___xxtofl@arg+2,f
  3519  00C7  082F               	movf	??___xxtofl+3,w
  3520  00C8  04B5               	iorwf	___xxtofl@arg+3,f
  3521  00C9                     l2006:
  3522  00C9  0830               	movf	___xxtofl@sign,w
  3523  00CA  1903               	btfsc	3,2
  3524  00CB  28CD               	goto	u2691
  3525  00CC  28CE               	goto	u2690
  3526  00CD                     u2691:
  3527  00CD  28D3               	goto	l2012
  3528  00CE                     u2690:
  3529  00CE                     l2008:
  3530  00CE  1FAB               	btfss	___xxtofl@val+3,7
  3531  00CF  28D1               	goto	u2701
  3532  00D0  28D2               	goto	u2700
  3533  00D1                     u2701:
  3534  00D1  28D3               	goto	l2012
  3535  00D2                     u2700:
  3536  00D2                     l2010:
  3537  00D2  17B5               	bsf	___xxtofl@arg+3,7
  3538  00D3                     l2012:
  3539  00D3  0835               	movf	___xxtofl@arg+3,w
  3540  00D4  00AB               	movwf	?___xxtofl+3
  3541  00D5  0834               	movf	___xxtofl@arg+2,w
  3542  00D6  00AA               	movwf	?___xxtofl+2
  3543  00D7  0833               	movf	___xxtofl@arg+1,w
  3544  00D8  00A9               	movwf	?___xxtofl+1
  3545  00D9  0832               	movf	___xxtofl@arg,w
  3546  00DA  00A8               	movwf	?___xxtofl
  3547  00DB                     l735:
  3548  00DB  0008               	return
  3549  00DC                     __end_of___xxtofl:
  3550                           
  3551                           	psect	text19
  3552  0DED                     __ptext19:	
  3553 ;; *************** function ___fltol *****************
  3554 ;; Defined at:
  3555 ;;		line 43 in file "C:\Program Files\Microchip\xc8\v2.32\pic\sources\c90\common\fltol.c"
  3556 ;; Parameters:    Size  Location     Type
  3557 ;;  f1              4   74[BANK0 ] unsigned char 
  3558 ;; Auto vars:     Size  Location     Type
  3559 ;;  exp1            1   79[BANK0 ] unsigned char 
  3560 ;;  sign1           1   78[BANK0 ] unsigned char 
  3561 ;; Return value:  Size  Location     Type
  3562 ;;                  4   74[BANK0 ] long 
  3563 ;; Registers used:
  3564 ;;		wreg, status,2, status,0
  3565 ;; Tracked objects:
  3566 ;;		On entry : 0/0
  3567 ;;		On exit  : 0/0
  3568 ;;		Unchanged: 0/0
  3569 ;; Data sizes:     COMMON   BANK0   BANK1   BANK3   BANK2
  3570 ;;      Params:         0       4       0       0       0
  3571 ;;      Locals:         0       2       0       0       0
  3572 ;;      Temps:          0       0       5       0       0
  3573 ;;      Totals:         0       6       5       0       0
  3574 ;;Total ram usage:       11 bytes
  3575 ;; Hardware stack levels used: 1
  3576 ;; This function calls:
  3577 ;;		Nothing
  3578 ;; This function is called by:
  3579 ;;		_PWM1_Duty
  3580 ;;		_PWM2_Duty
  3581 ;; This function uses a non-reentrant model
  3582 ;;
  3583                           
  3584                           
  3585                           ;psect for function ___fltol
  3586  0DED                     ___fltol:
  3587  0DED                     l1606:	
  3588                           ;incstack = 0
  3589                           ; Regs used in ___fltol: [wreg+status,2+status,0]
  3590                           
  3591  0DED  1003               	clrc
  3592  0DEE  1283               	bcf	3,5	;RP0=0, select bank0
  3593  0DEF  1303               	bcf	3,6	;RP1=0, select bank0
  3594  0DF0  0D6C               	rlf	___fltol@f1+2,w
  3595  0DF1  0D6D               	rlf	___fltol@f1+3,w
  3596  0DF2  1683               	bsf	3,5	;RP0=1, select bank1
  3597  0DF3  1303               	bcf	3,6	;RP1=0, select bank1
  3598  0DF4  00A0               	movwf	??___fltol^(0+128)
  3599  0DF5  0820               	movf	??___fltol^(0+128),w
  3600  0DF6  1283               	bcf	3,5	;RP0=0, select bank0
  3601  0DF7  1303               	bcf	3,6	;RP1=0, select bank0
  3602  0DF8  00EF               	movwf	___fltol@exp1
  3603  0DF9  086F               	movf	___fltol@exp1,w
  3604  0DFA  1D03               	btfss	3,2
  3605  0DFB  2DFD               	goto	u1681
  3606  0DFC  2DFE               	goto	u1680
  3607  0DFD                     u1681:
  3608  0DFD  2E07               	goto	l1612
  3609  0DFE                     u1680:
  3610  0DFE                     l1608:
  3611  0DFE  3000               	movlw	0
  3612  0DFF  00ED               	movwf	?___fltol+3
  3613  0E00  3000               	movlw	0
  3614  0E01  00EC               	movwf	?___fltol+2
  3615  0E02  3000               	movlw	0
  3616  0E03  00EB               	movwf	?___fltol+1
  3617  0E04  3000               	movlw	0
  3618  0E05  00EA               	movwf	?___fltol
  3619  0E06  2E88               	goto	l486
  3620  0E07                     l1612:
  3621  0E07  086A               	movf	___fltol@f1,w
  3622  0E08  1683               	bsf	3,5	;RP0=1, select bank1
  3623  0E09  1303               	bcf	3,6	;RP1=0, select bank1
  3624  0E0A  00A0               	movwf	??___fltol^(0+128)
  3625  0E0B  1283               	bcf	3,5	;RP0=0, select bank0
  3626  0E0C  1303               	bcf	3,6	;RP1=0, select bank0
  3627  0E0D  086B               	movf	___fltol@f1+1,w
  3628  0E0E  1683               	bsf	3,5	;RP0=1, select bank1
  3629  0E0F  1303               	bcf	3,6	;RP1=0, select bank1
  3630  0E10  00A1               	movwf	(??___fltol^(0+128)+1)
  3631  0E11  1283               	bcf	3,5	;RP0=0, select bank0
  3632  0E12  1303               	bcf	3,6	;RP1=0, select bank0
  3633  0E13  086C               	movf	___fltol@f1+2,w
  3634  0E14  1683               	bsf	3,5	;RP0=1, select bank1
  3635  0E15  1303               	bcf	3,6	;RP1=0, select bank1
  3636  0E16  00A2               	movwf	(??___fltol^(0+128)+2)
  3637  0E17  1283               	bcf	3,5	;RP0=0, select bank0
  3638  0E18  1303               	bcf	3,6	;RP1=0, select bank0
  3639  0E19  086D               	movf	___fltol@f1+3,w
  3640  0E1A  1683               	bsf	3,5	;RP0=1, select bank1
  3641  0E1B  1303               	bcf	3,6	;RP1=0, select bank1
  3642  0E1C  00A3               	movwf	(??___fltol^(0+128)+3)
  3643  0E1D  301F               	movlw	31
  3644  0E1E                     u1695:
  3645  0E1E  1003               	clrc
  3646  0E1F  0CA3               	rrf	(??___fltol^(0+128)+3),f
  3647  0E20  0CA2               	rrf	(??___fltol^(0+128)+2),f
  3648  0E21  0CA1               	rrf	(??___fltol^(0+128)+1),f
  3649  0E22  0CA0               	rrf	??___fltol^(0+128),f
  3650  0E23                     u1690:
  3651  0E23  3EFF               	addlw	-1
  3652  0E24  1D03               	skipz
  3653  0E25  2E1E               	goto	u1695
  3654  0E26  0820               	movf	??___fltol^(0+128),w
  3655  0E27  00A4               	movwf	(??___fltol+4)^(0+128)
  3656  0E28  0824               	movf	(??___fltol+4)^(0+128),w
  3657  0E29  1283               	bcf	3,5	;RP0=0, select bank0
  3658  0E2A  1303               	bcf	3,6	;RP1=0, select bank0
  3659  0E2B  00EE               	movwf	___fltol@sign1
  3660  0E2C                     l1614:
  3661  0E2C  17EC               	bsf	___fltol@f1+2,7
  3662  0E2D                     l1616:
  3663  0E2D  30FF               	movlw	255
  3664  0E2E  05EA               	andwf	___fltol@f1,f
  3665  0E2F  30FF               	movlw	255
  3666  0E30  05EB               	andwf	___fltol@f1+1,f
  3667  0E31  30FF               	movlw	255
  3668  0E32  05EC               	andwf	___fltol@f1+2,f
  3669  0E33  3000               	movlw	0
  3670  0E34  05ED               	andwf	___fltol@f1+3,f
  3671  0E35                     l1618:
  3672  0E35  3096               	movlw	150
  3673  0E36  02EF               	subwf	___fltol@exp1,f
  3674  0E37                     l1620:
  3675  0E37  1FEF               	btfss	___fltol@exp1,7
  3676  0E38  2E3A               	goto	u1701
  3677  0E39  2E3B               	goto	u1700
  3678  0E3A                     u1701:
  3679  0E3A  2E59               	goto	l1630
  3680  0E3B                     u1700:
  3681  0E3B                     l1622:
  3682  0E3B  086F               	movf	___fltol@exp1,w
  3683  0E3C  3A80               	xorlw	128
  3684  0E3D  3E97               	addlw	151
  3685  0E3E  1803               	skipnc
  3686  0E3F  2E41               	goto	u1711
  3687  0E40  2E42               	goto	u1710
  3688  0E41                     u1711:
  3689  0E41  2E43               	goto	l1628
  3690  0E42                     u1710:
  3691  0E42  2DFE               	goto	l1608
  3692  0E43                     l1628:
  3693  0E43  3001               	movlw	1
  3694  0E44                     u1725:
  3695  0E44  1003               	clrc
  3696  0E45  0CED               	rrf	___fltol@f1+3,f
  3697  0E46  0CEC               	rrf	___fltol@f1+2,f
  3698  0E47  0CEB               	rrf	___fltol@f1+1,f
  3699  0E48  0CEA               	rrf	___fltol@f1,f
  3700  0E49  3EFF               	addlw	-1
  3701  0E4A  1D03               	skipz
  3702  0E4B  2E44               	goto	u1725
  3703  0E4C  3001               	movlw	1
  3704  0E4D  1683               	bsf	3,5	;RP0=1, select bank1
  3705  0E4E  1303               	bcf	3,6	;RP1=0, select bank1
  3706  0E4F  00A0               	movwf	??___fltol^(0+128)
  3707  0E50  0820               	movf	??___fltol^(0+128),w
  3708  0E51  1283               	bcf	3,5	;RP0=0, select bank0
  3709  0E52  1303               	bcf	3,6	;RP1=0, select bank0
  3710  0E53  07EF               	addwf	___fltol@exp1,f
  3711  0E54  1D03               	btfss	3,2
  3712  0E55  2E57               	goto	u1731
  3713  0E56  2E58               	goto	u1730
  3714  0E57                     u1731:
  3715  0E57  2E43               	goto	l1628
  3716  0E58                     u1730:
  3717  0E58  2E78               	goto	l1638
  3718  0E59                     l1630:
  3719  0E59  3020               	movlw	32
  3720  0E5A  026F               	subwf	___fltol@exp1,w
  3721  0E5B  1C03               	skipc
  3722  0E5C  2E5E               	goto	u1741
  3723  0E5D  2E5F               	goto	u1740
  3724  0E5E                     u1741:
  3725  0E5E  2E73               	goto	l493
  3726  0E5F                     u1740:
  3727  0E5F  2DFE               	goto	l1608
  3728  0E60                     l1636:
  3729  0E60  3001               	movlw	1
  3730  0E61  1683               	bsf	3,5	;RP0=1, select bank1
  3731  0E62  1303               	bcf	3,6	;RP1=0, select bank1
  3732  0E63  00A0               	movwf	??___fltol^(0+128)
  3733  0E64                     u1755:
  3734  0E64  1003               	clrc
  3735  0E65  1283               	bcf	3,5	;RP0=0, select bank0
  3736  0E66  1303               	bcf	3,6	;RP1=0, select bank0
  3737  0E67  0DEA               	rlf	___fltol@f1,f
  3738  0E68  0DEB               	rlf	___fltol@f1+1,f
  3739  0E69  0DEC               	rlf	___fltol@f1+2,f
  3740  0E6A  0DED               	rlf	___fltol@f1+3,f
  3741  0E6B  1683               	bsf	3,5	;RP0=1, select bank1
  3742  0E6C  1303               	bcf	3,6	;RP1=0, select bank1
  3743  0E6D  0BA0               	decfsz	??___fltol^(0+128),f
  3744  0E6E  2E64               	goto	u1755
  3745  0E6F  3001               	movlw	1
  3746  0E70  1283               	bcf	3,5	;RP0=0, select bank0
  3747  0E71  1303               	bcf	3,6	;RP1=0, select bank0
  3748  0E72  02EF               	subwf	___fltol@exp1,f
  3749  0E73                     l493:
  3750  0E73  086F               	movf	___fltol@exp1,w
  3751  0E74  1D03               	btfss	3,2
  3752  0E75  2E77               	goto	u1761
  3753  0E76  2E78               	goto	u1760
  3754  0E77                     u1761:
  3755  0E77  2E60               	goto	l1636
  3756  0E78                     u1760:
  3757  0E78                     l1638:
  3758  0E78  086E               	movf	___fltol@sign1,w
  3759  0E79  1903               	btfsc	3,2
  3760  0E7A  2E7C               	goto	u1771
  3761  0E7B  2E7D               	goto	u1770
  3762  0E7C                     u1771:
  3763  0E7C  2E88               	goto	l496
  3764  0E7D                     u1770:
  3765  0E7D                     l1640:
  3766  0E7D  09EA               	comf	___fltol@f1,f
  3767  0E7E  09EB               	comf	___fltol@f1+1,f
  3768  0E7F  09EC               	comf	___fltol@f1+2,f
  3769  0E80  09ED               	comf	___fltol@f1+3,f
  3770  0E81  0AEA               	incf	___fltol@f1,f
  3771  0E82  1903               	skipnz
  3772  0E83  0AEB               	incf	___fltol@f1+1,f
  3773  0E84  1903               	skipnz
  3774  0E85  0AEC               	incf	___fltol@f1+2,f
  3775  0E86  1903               	skipnz
  3776  0E87  0AED               	incf	___fltol@f1+3,f
  3777  0E88                     l496:
  3778  0E88                     l486:
  3779  0E88  0008               	return
  3780  0E89                     __end_of___fltol:
  3781                           
  3782                           	psect	text20
  3783  0495                     __ptext20:	
  3784 ;; *************** function ___flmul *****************
  3785 ;; Defined at:
  3786 ;;		line 8 in file "C:\Program Files\Microchip\xc8\v2.32\pic\sources\c90\common\sprcmul.c"
  3787 ;; Parameters:    Size  Location     Type
  3788 ;;  b               4   48[BANK0 ] long 
  3789 ;;  a               4   52[BANK0 ] long 
  3790 ;; Auto vars:     Size  Location     Type
  3791 ;;  prod            4   68[BANK0 ] struct .
  3792 ;;  grs             4   62[BANK0 ] unsigned long 
  3793 ;;  temp            2   72[BANK0 ] struct .
  3794 ;;  bexp            1   67[BANK0 ] unsigned char 
  3795 ;;  aexp            1   66[BANK0 ] unsigned char 
  3796 ;;  sign            1   61[BANK0 ] unsigned char 
  3797 ;; Return value:  Size  Location     Type
  3798 ;;                  4   48[BANK0 ] unsigned char 
  3799 ;; Registers used:
  3800 ;;		wreg, status,2, status,0, btemp+1, pclath, cstack
  3801 ;; Tracked objects:
  3802 ;;		On entry : 0/0
  3803 ;;		On exit  : 0/0
  3804 ;;		Unchanged: 0/0
  3805 ;; Data sizes:     COMMON   BANK0   BANK1   BANK3   BANK2
  3806 ;;      Params:         0       8       0       0       0
  3807 ;;      Locals:         0      13       0       0       0
  3808 ;;      Temps:          0       5       0       0       0
  3809 ;;      Totals:         0      26       0       0       0
  3810 ;;Total ram usage:       26 bytes
  3811 ;; Hardware stack levels used: 1
  3812 ;; Hardware stack levels required when called: 1
  3813 ;; This function calls:
  3814 ;;		__Umul8_16
  3815 ;; This function is called by:
  3816 ;;		_PWM1_Duty
  3817 ;;		_PWM2_Duty
  3818 ;; This function uses a non-reentrant model
  3819 ;;
  3820                           
  3821                           
  3822                           ;psect for function ___flmul
  3823  0495                     ___flmul:
  3824  0495                     l1832:	
  3825                           ;incstack = 0
  3826                           ; Regs used in ___flmul: [wreg+status,2+status,0+btemp+1+pclath+cstack]
  3827                           
  3828  0495  1283               	bcf	3,5	;RP0=0, select bank0
  3829  0496  1303               	bcf	3,6	;RP1=0, select bank0
  3830  0497  0853               	movf	___flmul@b+3,w
  3831  0498  3980               	andlw	128
  3832  0499  00D8               	movwf	??___flmul
  3833  049A  0858               	movf	??___flmul,w
  3834  049B  00DD               	movwf	___flmul@sign
  3835  049C                     l1834:
  3836  049C  0853               	movf	___flmul@b+3,w
  3837  049D  00D8               	movwf	??___flmul
  3838  049E  0758               	addwf	??___flmul,w
  3839  049F  00D9               	movwf	??___flmul+1
  3840  04A0  0859               	movf	??___flmul+1,w
  3841  04A1  00E3               	movwf	___flmul@bexp
  3842  04A2                     l1836:
  3843  04A2  1FD2               	btfss	___flmul@b+2,7
  3844  04A3  2CA5               	goto	u2201
  3845  04A4  2CA6               	goto	u2200
  3846  04A5                     u2201:
  3847  04A5  2CA7               	goto	l1840
  3848  04A6                     u2200:
  3849  04A6                     l1838:
  3850  04A6  1463               	bsf	___flmul@bexp,0
  3851  04A7                     l1840:
  3852  04A7  0863               	movf	___flmul@bexp,w
  3853  04A8  1903               	btfsc	3,2
  3854  04A9  2CAB               	goto	u2211
  3855  04AA  2CAC               	goto	u2210
  3856  04AB                     u2211:
  3857  04AB  2CBB               	goto	l1848
  3858  04AC                     u2210:
  3859  04AC                     l1842:
  3860  04AC  0A63               	incf	___flmul@bexp,w
  3861  04AD  1D03               	btfss	3,2
  3862  04AE  2CB0               	goto	u2221
  3863  04AF  2CB1               	goto	u2220
  3864  04B0                     u2221:
  3865  04B0  2CB9               	goto	l1846
  3866  04B1                     u2220:
  3867  04B1                     l1844:
  3868  04B1  3000               	movlw	0
  3869  04B2  00D3               	movwf	___flmul@b+3
  3870  04B3  3000               	movlw	0
  3871  04B4  00D2               	movwf	___flmul@b+2
  3872  04B5  3000               	movlw	0
  3873  04B6  00D1               	movwf	___flmul@b+1
  3874  04B7  3000               	movlw	0
  3875  04B8  00D0               	movwf	___flmul@b
  3876  04B9                     l1846:
  3877  04B9  17D2               	bsf	___flmul@b+2,7
  3878  04BA  2CC3               	goto	l1850
  3879  04BB                     l1848:
  3880  04BB  3000               	movlw	0
  3881  04BC  00D3               	movwf	___flmul@b+3
  3882  04BD  3000               	movlw	0
  3883  04BE  00D2               	movwf	___flmul@b+2
  3884  04BF  3000               	movlw	0
  3885  04C0  00D1               	movwf	___flmul@b+1
  3886  04C1  3000               	movlw	0
  3887  04C2  00D0               	movwf	___flmul@b
  3888  04C3                     l1850:
  3889  04C3  0857               	movf	___flmul@a+3,w
  3890  04C4  3980               	andlw	128
  3891  04C5  00D8               	movwf	??___flmul
  3892  04C6  0858               	movf	??___flmul,w
  3893  04C7  06DD               	xorwf	___flmul@sign,f
  3894  04C8                     l1852:
  3895  04C8  0857               	movf	___flmul@a+3,w
  3896  04C9  00D8               	movwf	??___flmul
  3897  04CA  0758               	addwf	??___flmul,w
  3898  04CB  00D9               	movwf	??___flmul+1
  3899  04CC  0859               	movf	??___flmul+1,w
  3900  04CD  00E2               	movwf	___flmul@aexp
  3901  04CE                     l1854:
  3902  04CE  1FD6               	btfss	___flmul@a+2,7
  3903  04CF  2CD1               	goto	u2231
  3904  04D0  2CD2               	goto	u2230
  3905  04D1                     u2231:
  3906  04D1  2CD3               	goto	l1858
  3907  04D2                     u2230:
  3908  04D2                     l1856:
  3909  04D2  1462               	bsf	___flmul@aexp,0
  3910  04D3                     l1858:
  3911  04D3  0862               	movf	___flmul@aexp,w
  3912  04D4  1903               	btfsc	3,2
  3913  04D5  2CD7               	goto	u2241
  3914  04D6  2CD8               	goto	u2240
  3915  04D7                     u2241:
  3916  04D7  2CE7               	goto	l1866
  3917  04D8                     u2240:
  3918  04D8                     l1860:
  3919  04D8  0A62               	incf	___flmul@aexp,w
  3920  04D9  1D03               	btfss	3,2
  3921  04DA  2CDC               	goto	u2251
  3922  04DB  2CDD               	goto	u2250
  3923  04DC                     u2251:
  3924  04DC  2CE5               	goto	l1864
  3925  04DD                     u2250:
  3926  04DD                     l1862:
  3927  04DD  3000               	movlw	0
  3928  04DE  00D7               	movwf	___flmul@a+3
  3929  04DF  3000               	movlw	0
  3930  04E0  00D6               	movwf	___flmul@a+2
  3931  04E1  3000               	movlw	0
  3932  04E2  00D5               	movwf	___flmul@a+1
  3933  04E3  3000               	movlw	0
  3934  04E4  00D4               	movwf	___flmul@a
  3935  04E5                     l1864:
  3936  04E5  17D6               	bsf	___flmul@a+2,7
  3937  04E6  2CEF               	goto	l1868
  3938  04E7                     l1866:
  3939  04E7  3000               	movlw	0
  3940  04E8  00D7               	movwf	___flmul@a+3
  3941  04E9  3000               	movlw	0
  3942  04EA  00D6               	movwf	___flmul@a+2
  3943  04EB  3000               	movlw	0
  3944  04EC  00D5               	movwf	___flmul@a+1
  3945  04ED  3000               	movlw	0
  3946  04EE  00D4               	movwf	___flmul@a
  3947  04EF                     l1868:
  3948  04EF  0862               	movf	___flmul@aexp,w
  3949  04F0  1903               	btfsc	3,2
  3950  04F1  2CF3               	goto	u2261
  3951  04F2  2CF4               	goto	u2260
  3952  04F3                     u2261:
  3953  04F3  2CF9               	goto	l1872
  3954  04F4                     u2260:
  3955  04F4                     l1870:
  3956  04F4  0863               	movf	___flmul@bexp,w
  3957  04F5  1D03               	btfss	3,2
  3958  04F6  2CF8               	goto	u2271
  3959  04F7  2CF9               	goto	u2270
  3960  04F8                     u2271:
  3961  04F8  2D02               	goto	l1876
  3962  04F9                     u2270:
  3963  04F9                     l1872:
  3964  04F9  3000               	movlw	0
  3965  04FA  00D3               	movwf	?___flmul+3
  3966  04FB  3000               	movlw	0
  3967  04FC  00D2               	movwf	?___flmul+2
  3968  04FD  3000               	movlw	0
  3969  04FE  00D1               	movwf	?___flmul+1
  3970  04FF  3000               	movlw	0
  3971  0500  00D0               	movwf	?___flmul
  3972  0501  2FF5               	goto	l689
  3973  0502                     l1876:
  3974  0502  0850               	movf	___flmul@b,w
  3975  0503  00D8               	movwf	??___flmul
  3976  0504  0858               	movf	??___flmul,w
  3977  0505  00F0               	movwf	__Umul8_16@multiplicand
  3978  0506  0856               	movf	___flmul@a+2,w
  3979  0507  120A  158A  230F  120A  118A  	fcall	__Umul8_16
  3980  050C  0871               	movf	?__Umul8_16+1,w
  3981  050D  1283               	bcf	3,5	;RP0=0, select bank0
  3982  050E  1303               	bcf	3,6	;RP1=0, select bank0
  3983  050F  00E9               	movwf	___flmul@temp+1
  3984  0510  0870               	movf	?__Umul8_16,w
  3985  0511  00E8               	movwf	___flmul@temp
  3986  0512                     l1878:
  3987  0512  0868               	movf	___flmul@temp,w
  3988  0513  00D8               	movwf	??___flmul
  3989  0514  01D9               	clrf	??___flmul+1
  3990  0515  01DA               	clrf	??___flmul+2
  3991  0516  01DB               	clrf	??___flmul+3
  3992  0517  085B               	movf	??___flmul+3,w
  3993  0518  00E1               	movwf	___flmul@grs+3
  3994  0519  085A               	movf	??___flmul+2,w
  3995  051A  00E0               	movwf	___flmul@grs+2
  3996  051B  0859               	movf	??___flmul+1,w
  3997  051C  00DF               	movwf	___flmul@grs+1
  3998  051D  0858               	movf	??___flmul,w
  3999  051E  00DE               	movwf	___flmul@grs
  4000  051F                     l1880:
  4001  051F  0869               	movf	___flmul@temp+1,w
  4002  0520  00D8               	movwf	??___flmul
  4003  0521  01D9               	clrf	??___flmul+1
  4004  0522  01DA               	clrf	??___flmul+2
  4005  0523  01DB               	clrf	??___flmul+3
  4006  0524  085B               	movf	??___flmul+3,w
  4007  0525  00E7               	movwf	___flmul@prod+3
  4008  0526  085A               	movf	??___flmul+2,w
  4009  0527  00E6               	movwf	___flmul@prod+2
  4010  0528  0859               	movf	??___flmul+1,w
  4011  0529  00E5               	movwf	___flmul@prod+1
  4012  052A  0858               	movf	??___flmul,w
  4013  052B  00E4               	movwf	___flmul@prod
  4014  052C  0851               	movf	___flmul@b+1,w
  4015  052D  00D8               	movwf	??___flmul
  4016  052E  0858               	movf	??___flmul,w
  4017  052F  00F0               	movwf	__Umul8_16@multiplicand
  4018  0530  0855               	movf	___flmul@a+1,w
  4019  0531  120A  158A  230F  120A  118A  	fcall	__Umul8_16
  4020  0536  0871               	movf	?__Umul8_16+1,w
  4021  0537  1283               	bcf	3,5	;RP0=0, select bank0
  4022  0538  1303               	bcf	3,6	;RP1=0, select bank0
  4023  0539  00E9               	movwf	___flmul@temp+1
  4024  053A  0870               	movf	?__Umul8_16,w
  4025  053B  00E8               	movwf	___flmul@temp
  4026  053C                     l1882:
  4027  053C  0868               	movf	___flmul@temp,w
  4028  053D  00D8               	movwf	??___flmul
  4029  053E  01D9               	clrf	??___flmul+1
  4030  053F  01DA               	clrf	??___flmul+2
  4031  0540  01DB               	clrf	??___flmul+3
  4032  0541  0858               	movf	??___flmul,w
  4033  0542  07DE               	addwf	___flmul@grs,f
  4034  0543  0859               	movf	??___flmul+1,w
  4035  0544  1103               	clrz
  4036  0545  1803               	skipnc
  4037  0546  3E01               	addlw	1
  4038  0547  1903               	skipnz
  4039  0548  2D4A               	goto	u2281
  4040  0549  07DF               	addwf	___flmul@grs+1,f
  4041  054A                     u2281:
  4042  054A  085A               	movf	??___flmul+2,w
  4043  054B  1103               	clrz
  4044  054C  1803               	skipnc
  4045  054D  3E01               	addlw	1
  4046  054E  1903               	skipnz
  4047  054F  2D51               	goto	u2282
  4048  0550  07E0               	addwf	___flmul@grs+2,f
  4049  0551                     u2282:
  4050  0551  085B               	movf	??___flmul+3,w
  4051  0552  1103               	clrz
  4052  0553  1803               	skipnc
  4053  0554  3E01               	addlw	1
  4054  0555  1903               	skipnz
  4055  0556  2D58               	goto	u2283
  4056  0557  07E1               	addwf	___flmul@grs+3,f
  4057  0558                     u2283:
  4058  0558                     l1884:
  4059  0558  0869               	movf	___flmul@temp+1,w
  4060  0559  00D8               	movwf	??___flmul
  4061  055A  01D9               	clrf	??___flmul+1
  4062  055B  01DA               	clrf	??___flmul+2
  4063  055C  01DB               	clrf	??___flmul+3
  4064  055D  0858               	movf	??___flmul,w
  4065  055E  07E4               	addwf	___flmul@prod,f
  4066  055F  0859               	movf	??___flmul+1,w
  4067  0560  1103               	clrz
  4068  0561  1803               	skipnc
  4069  0562  3E01               	addlw	1
  4070  0563  1903               	skipnz
  4071  0564  2D66               	goto	u2291
  4072  0565  07E5               	addwf	___flmul@prod+1,f
  4073  0566                     u2291:
  4074  0566  085A               	movf	??___flmul+2,w
  4075  0567  1103               	clrz
  4076  0568  1803               	skipnc
  4077  0569  3E01               	addlw	1
  4078  056A  1903               	skipnz
  4079  056B  2D6D               	goto	u2292
  4080  056C  07E6               	addwf	___flmul@prod+2,f
  4081  056D                     u2292:
  4082  056D  085B               	movf	??___flmul+3,w
  4083  056E  1103               	clrz
  4084  056F  1803               	skipnc
  4085  0570  3E01               	addlw	1
  4086  0571  1903               	skipnz
  4087  0572  2D74               	goto	u2293
  4088  0573  07E7               	addwf	___flmul@prod+3,f
  4089  0574                     u2293:
  4090  0574  0852               	movf	___flmul@b+2,w
  4091  0575  00D8               	movwf	??___flmul
  4092  0576  0858               	movf	??___flmul,w
  4093  0577  00F0               	movwf	__Umul8_16@multiplicand
  4094  0578  0854               	movf	___flmul@a,w
  4095  0579  120A  158A  230F  120A  118A  	fcall	__Umul8_16
  4096  057E  0871               	movf	?__Umul8_16+1,w
  4097  057F  1283               	bcf	3,5	;RP0=0, select bank0
  4098  0580  1303               	bcf	3,6	;RP1=0, select bank0
  4099  0581  00E9               	movwf	___flmul@temp+1
  4100  0582  0870               	movf	?__Umul8_16,w
  4101  0583  00E8               	movwf	___flmul@temp
  4102  0584                     l1886:
  4103  0584  0868               	movf	___flmul@temp,w
  4104  0585  00D8               	movwf	??___flmul
  4105  0586  01D9               	clrf	??___flmul+1
  4106  0587  01DA               	clrf	??___flmul+2
  4107  0588  01DB               	clrf	??___flmul+3
  4108  0589  0858               	movf	??___flmul,w
  4109  058A  07DE               	addwf	___flmul@grs,f
  4110  058B  0859               	movf	??___flmul+1,w
  4111  058C  1103               	clrz
  4112  058D  1803               	skipnc
  4113  058E  3E01               	addlw	1
  4114  058F  1903               	skipnz
  4115  0590  2D92               	goto	u2301
  4116  0591  07DF               	addwf	___flmul@grs+1,f
  4117  0592                     u2301:
  4118  0592  085A               	movf	??___flmul+2,w
  4119  0593  1103               	clrz
  4120  0594  1803               	skipnc
  4121  0595  3E01               	addlw	1
  4122  0596  1903               	skipnz
  4123  0597  2D99               	goto	u2302
  4124  0598  07E0               	addwf	___flmul@grs+2,f
  4125  0599                     u2302:
  4126  0599  085B               	movf	??___flmul+3,w
  4127  059A  1103               	clrz
  4128  059B  1803               	skipnc
  4129  059C  3E01               	addlw	1
  4130  059D  1903               	skipnz
  4131  059E  2DA0               	goto	u2303
  4132  059F  07E1               	addwf	___flmul@grs+3,f
  4133  05A0                     u2303:
  4134  05A0                     l1888:
  4135  05A0  0869               	movf	___flmul@temp+1,w
  4136  05A1  00D8               	movwf	??___flmul
  4137  05A2  01D9               	clrf	??___flmul+1
  4138  05A3  01DA               	clrf	??___flmul+2
  4139  05A4  01DB               	clrf	??___flmul+3
  4140  05A5  0858               	movf	??___flmul,w
  4141  05A6  07E4               	addwf	___flmul@prod,f
  4142  05A7  0859               	movf	??___flmul+1,w
  4143  05A8  1103               	clrz
  4144  05A9  1803               	skipnc
  4145  05AA  3E01               	addlw	1
  4146  05AB  1903               	skipnz
  4147  05AC  2DAE               	goto	u2311
  4148  05AD  07E5               	addwf	___flmul@prod+1,f
  4149  05AE                     u2311:
  4150  05AE  085A               	movf	??___flmul+2,w
  4151  05AF  1103               	clrz
  4152  05B0  1803               	skipnc
  4153  05B1  3E01               	addlw	1
  4154  05B2  1903               	skipnz
  4155  05B3  2DB5               	goto	u2312
  4156  05B4  07E6               	addwf	___flmul@prod+2,f
  4157  05B5                     u2312:
  4158  05B5  085B               	movf	??___flmul+3,w
  4159  05B6  1103               	clrz
  4160  05B7  1803               	skipnc
  4161  05B8  3E01               	addlw	1
  4162  05B9  1903               	skipnz
  4163  05BA  2DBC               	goto	u2313
  4164  05BB  07E7               	addwf	___flmul@prod+3,f
  4165  05BC                     u2313:
  4166  05BC                     l1890:
  4167  05BC  3008               	movlw	8
  4168  05BD  00D8               	movwf	??___flmul
  4169  05BE                     u2325:
  4170  05BE  1003               	clrc
  4171  05BF  0DDE               	rlf	___flmul@grs,f
  4172  05C0  0DDF               	rlf	___flmul@grs+1,f
  4173  05C1  0DE0               	rlf	___flmul@grs+2,f
  4174  05C2  0DE1               	rlf	___flmul@grs+3,f
  4175  05C3  0BD8               	decfsz	??___flmul,f
  4176  05C4  2DBE               	goto	u2325
  4177  05C5                     l1892:
  4178  05C5  0851               	movf	___flmul@b+1,w
  4179  05C6  00D8               	movwf	??___flmul
  4180  05C7  0858               	movf	??___flmul,w
  4181  05C8  00F0               	movwf	__Umul8_16@multiplicand
  4182  05C9  0854               	movf	___flmul@a,w
  4183  05CA  120A  158A  230F  120A  118A  	fcall	__Umul8_16
  4184  05CF  0871               	movf	?__Umul8_16+1,w
  4185  05D0  1283               	bcf	3,5	;RP0=0, select bank0
  4186  05D1  1303               	bcf	3,6	;RP1=0, select bank0
  4187  05D2  00E9               	movwf	___flmul@temp+1
  4188  05D3  0870               	movf	?__Umul8_16,w
  4189  05D4  00E8               	movwf	___flmul@temp
  4190  05D5                     l1894:
  4191  05D5  0868               	movf	___flmul@temp,w
  4192  05D6  00D8               	movwf	??___flmul
  4193  05D7  0869               	movf	___flmul@temp+1,w
  4194  05D8  00D9               	movwf	??___flmul+1
  4195  05D9  01DA               	clrf	??___flmul+2
  4196  05DA  01DB               	clrf	??___flmul+3
  4197  05DB  0858               	movf	??___flmul,w
  4198  05DC  07DE               	addwf	___flmul@grs,f
  4199  05DD  0859               	movf	??___flmul+1,w
  4200  05DE  1103               	clrz
  4201  05DF  1803               	skipnc
  4202  05E0  3E01               	addlw	1
  4203  05E1  1903               	skipnz
  4204  05E2  2DE4               	goto	u2331
  4205  05E3  07DF               	addwf	___flmul@grs+1,f
  4206  05E4                     u2331:
  4207  05E4  085A               	movf	??___flmul+2,w
  4208  05E5  1103               	clrz
  4209  05E6  1803               	skipnc
  4210  05E7  3E01               	addlw	1
  4211  05E8  1903               	skipnz
  4212  05E9  2DEB               	goto	u2332
  4213  05EA  07E0               	addwf	___flmul@grs+2,f
  4214  05EB                     u2332:
  4215  05EB  085B               	movf	??___flmul+3,w
  4216  05EC  1103               	clrz
  4217  05ED  1803               	skipnc
  4218  05EE  3E01               	addlw	1
  4219  05EF  1903               	skipnz
  4220  05F0  2DF2               	goto	u2333
  4221  05F1  07E1               	addwf	___flmul@grs+3,f
  4222  05F2                     u2333:
  4223  05F2                     l1896:
  4224  05F2  0850               	movf	___flmul@b,w
  4225  05F3  00D8               	movwf	??___flmul
  4226  05F4  0858               	movf	??___flmul,w
  4227  05F5  00F0               	movwf	__Umul8_16@multiplicand
  4228  05F6  0855               	movf	___flmul@a+1,w
  4229  05F7  120A  158A  230F  120A  118A  	fcall	__Umul8_16
  4230  05FC  0871               	movf	?__Umul8_16+1,w
  4231  05FD  1283               	bcf	3,5	;RP0=0, select bank0
  4232  05FE  1303               	bcf	3,6	;RP1=0, select bank0
  4233  05FF  00E9               	movwf	___flmul@temp+1
  4234  0600  0870               	movf	?__Umul8_16,w
  4235  0601  00E8               	movwf	___flmul@temp
  4236  0602                     l1898:
  4237  0602  0868               	movf	___flmul@temp,w
  4238  0603  00D8               	movwf	??___flmul
  4239  0604  0869               	movf	___flmul@temp+1,w
  4240  0605  00D9               	movwf	??___flmul+1
  4241  0606  01DA               	clrf	??___flmul+2
  4242  0607  01DB               	clrf	??___flmul+3
  4243  0608  0858               	movf	??___flmul,w
  4244  0609  07DE               	addwf	___flmul@grs,f
  4245  060A  0859               	movf	??___flmul+1,w
  4246  060B  1103               	clrz
  4247  060C  1803               	skipnc
  4248  060D  3E01               	addlw	1
  4249  060E  1903               	skipnz
  4250  060F  2E11               	goto	u2341
  4251  0610  07DF               	addwf	___flmul@grs+1,f
  4252  0611                     u2341:
  4253  0611  085A               	movf	??___flmul+2,w
  4254  0612  1103               	clrz
  4255  0613  1803               	skipnc
  4256  0614  3E01               	addlw	1
  4257  0615  1903               	skipnz
  4258  0616  2E18               	goto	u2342
  4259  0617  07E0               	addwf	___flmul@grs+2,f
  4260  0618                     u2342:
  4261  0618  085B               	movf	??___flmul+3,w
  4262  0619  1103               	clrz
  4263  061A  1803               	skipnc
  4264  061B  3E01               	addlw	1
  4265  061C  1903               	skipnz
  4266  061D  2E1F               	goto	u2343
  4267  061E  07E1               	addwf	___flmul@grs+3,f
  4268  061F                     u2343:
  4269  061F                     l1900:
  4270  061F  3008               	movlw	8
  4271  0620  00D8               	movwf	??___flmul
  4272  0621                     u2355:
  4273  0621  1003               	clrc
  4274  0622  0DDE               	rlf	___flmul@grs,f
  4275  0623  0DDF               	rlf	___flmul@grs+1,f
  4276  0624  0DE0               	rlf	___flmul@grs+2,f
  4277  0625  0DE1               	rlf	___flmul@grs+3,f
  4278  0626  0BD8               	decfsz	??___flmul,f
  4279  0627  2E21               	goto	u2355
  4280  0628  0850               	movf	___flmul@b,w
  4281  0629  00D8               	movwf	??___flmul
  4282  062A  0858               	movf	??___flmul,w
  4283  062B  00F0               	movwf	__Umul8_16@multiplicand
  4284  062C  0854               	movf	___flmul@a,w
  4285  062D  120A  158A  230F  120A  118A  	fcall	__Umul8_16
  4286  0632  0871               	movf	?__Umul8_16+1,w
  4287  0633  1283               	bcf	3,5	;RP0=0, select bank0
  4288  0634  1303               	bcf	3,6	;RP1=0, select bank0
  4289  0635  00E9               	movwf	___flmul@temp+1
  4290  0636  0870               	movf	?__Umul8_16,w
  4291  0637  00E8               	movwf	___flmul@temp
  4292  0638                     l1902:
  4293  0638  0868               	movf	___flmul@temp,w
  4294  0639  00D8               	movwf	??___flmul
  4295  063A  0869               	movf	___flmul@temp+1,w
  4296  063B  00D9               	movwf	??___flmul+1
  4297  063C  01DA               	clrf	??___flmul+2
  4298  063D  01DB               	clrf	??___flmul+3
  4299  063E  0858               	movf	??___flmul,w
  4300  063F  07DE               	addwf	___flmul@grs,f
  4301  0640  0859               	movf	??___flmul+1,w
  4302  0641  1103               	clrz
  4303  0642  1803               	skipnc
  4304  0643  3E01               	addlw	1
  4305  0644  1903               	skipnz
  4306  0645  2E47               	goto	u2361
  4307  0646  07DF               	addwf	___flmul@grs+1,f
  4308  0647                     u2361:
  4309  0647  085A               	movf	??___flmul+2,w
  4310  0648  1103               	clrz
  4311  0649  1803               	skipnc
  4312  064A  3E01               	addlw	1
  4313  064B  1903               	skipnz
  4314  064C  2E4E               	goto	u2362
  4315  064D  07E0               	addwf	___flmul@grs+2,f
  4316  064E                     u2362:
  4317  064E  085B               	movf	??___flmul+3,w
  4318  064F  1103               	clrz
  4319  0650  1803               	skipnc
  4320  0651  3E01               	addlw	1
  4321  0652  1903               	skipnz
  4322  0653  2E55               	goto	u2363
  4323  0654  07E1               	addwf	___flmul@grs+3,f
  4324  0655                     u2363:
  4325  0655                     l1904:
  4326  0655  0851               	movf	___flmul@b+1,w
  4327  0656  00D8               	movwf	??___flmul
  4328  0657  0858               	movf	??___flmul,w
  4329  0658  00F0               	movwf	__Umul8_16@multiplicand
  4330  0659  0856               	movf	___flmul@a+2,w
  4331  065A  120A  158A  230F  120A  118A  	fcall	__Umul8_16
  4332  065F  0871               	movf	?__Umul8_16+1,w
  4333  0660  1283               	bcf	3,5	;RP0=0, select bank0
  4334  0661  1303               	bcf	3,6	;RP1=0, select bank0
  4335  0662  00E9               	movwf	___flmul@temp+1
  4336  0663  0870               	movf	?__Umul8_16,w
  4337  0664  00E8               	movwf	___flmul@temp
  4338  0665  0868               	movf	___flmul@temp,w
  4339  0666  00D8               	movwf	??___flmul
  4340  0667  0869               	movf	___flmul@temp+1,w
  4341  0668  00D9               	movwf	??___flmul+1
  4342  0669  01DA               	clrf	??___flmul+2
  4343  066A  01DB               	clrf	??___flmul+3
  4344  066B  0858               	movf	??___flmul,w
  4345  066C  07E4               	addwf	___flmul@prod,f
  4346  066D  0859               	movf	??___flmul+1,w
  4347  066E  1103               	clrz
  4348  066F  1803               	skipnc
  4349  0670  3E01               	addlw	1
  4350  0671  1903               	skipnz
  4351  0672  2E74               	goto	u2371
  4352  0673  07E5               	addwf	___flmul@prod+1,f
  4353  0674                     u2371:
  4354  0674  085A               	movf	??___flmul+2,w
  4355  0675  1103               	clrz
  4356  0676  1803               	skipnc
  4357  0677  3E01               	addlw	1
  4358  0678  1903               	skipnz
  4359  0679  2E7B               	goto	u2372
  4360  067A  07E6               	addwf	___flmul@prod+2,f
  4361  067B                     u2372:
  4362  067B  085B               	movf	??___flmul+3,w
  4363  067C  1103               	clrz
  4364  067D  1803               	skipnc
  4365  067E  3E01               	addlw	1
  4366  067F  1903               	skipnz
  4367  0680  2E82               	goto	u2373
  4368  0681  07E7               	addwf	___flmul@prod+3,f
  4369  0682                     u2373:
  4370  0682                     l1906:
  4371  0682  0852               	movf	___flmul@b+2,w
  4372  0683  00D8               	movwf	??___flmul
  4373  0684  0858               	movf	??___flmul,w
  4374  0685  00F0               	movwf	__Umul8_16@multiplicand
  4375  0686  0855               	movf	___flmul@a+1,w
  4376  0687  120A  158A  230F  120A  118A  	fcall	__Umul8_16
  4377  068C  0871               	movf	?__Umul8_16+1,w
  4378  068D  1283               	bcf	3,5	;RP0=0, select bank0
  4379  068E  1303               	bcf	3,6	;RP1=0, select bank0
  4380  068F  00E9               	movwf	___flmul@temp+1
  4381  0690  0870               	movf	?__Umul8_16,w
  4382  0691  00E8               	movwf	___flmul@temp
  4383  0692                     l1908:
  4384  0692  0868               	movf	___flmul@temp,w
  4385  0693  00D8               	movwf	??___flmul
  4386  0694  0869               	movf	___flmul@temp+1,w
  4387  0695  00D9               	movwf	??___flmul+1
  4388  0696  01DA               	clrf	??___flmul+2
  4389  0697  01DB               	clrf	??___flmul+3
  4390  0698  0858               	movf	??___flmul,w
  4391  0699  07E4               	addwf	___flmul@prod,f
  4392  069A  0859               	movf	??___flmul+1,w
  4393  069B  1103               	clrz
  4394  069C  1803               	skipnc
  4395  069D  3E01               	addlw	1
  4396  069E  1903               	skipnz
  4397  069F  2EA1               	goto	u2381
  4398  06A0  07E5               	addwf	___flmul@prod+1,f
  4399  06A1                     u2381:
  4400  06A1  085A               	movf	??___flmul+2,w
  4401  06A2  1103               	clrz
  4402  06A3  1803               	skipnc
  4403  06A4  3E01               	addlw	1
  4404  06A5  1903               	skipnz
  4405  06A6  2EA8               	goto	u2382
  4406  06A7  07E6               	addwf	___flmul@prod+2,f
  4407  06A8                     u2382:
  4408  06A8  085B               	movf	??___flmul+3,w
  4409  06A9  1103               	clrz
  4410  06AA  1803               	skipnc
  4411  06AB  3E01               	addlw	1
  4412  06AC  1903               	skipnz
  4413  06AD  2EAF               	goto	u2383
  4414  06AE  07E7               	addwf	___flmul@prod+3,f
  4415  06AF                     u2383:
  4416  06AF  0852               	movf	___flmul@b+2,w
  4417  06B0  00D8               	movwf	??___flmul
  4418  06B1  0858               	movf	??___flmul,w
  4419  06B2  00F0               	movwf	__Umul8_16@multiplicand
  4420  06B3  0856               	movf	___flmul@a+2,w
  4421  06B4  120A  158A  230F  120A  118A  	fcall	__Umul8_16
  4422  06B9  0871               	movf	?__Umul8_16+1,w
  4423  06BA  1283               	bcf	3,5	;RP0=0, select bank0
  4424  06BB  1303               	bcf	3,6	;RP1=0, select bank0
  4425  06BC  00E9               	movwf	___flmul@temp+1
  4426  06BD  0870               	movf	?__Umul8_16,w
  4427  06BE  00E8               	movwf	___flmul@temp
  4428  06BF                     l1910:
  4429  06BF  0868               	movf	___flmul@temp,w
  4430  06C0  00D8               	movwf	??___flmul
  4431  06C1  0869               	movf	___flmul@temp+1,w
  4432  06C2  00D9               	movwf	??___flmul+1
  4433  06C3  01DA               	clrf	??___flmul+2
  4434  06C4  01DB               	clrf	??___flmul+3
  4435  06C5  3008               	movlw	8
  4436  06C6                     u2395:
  4437  06C6  1003               	clrc
  4438  06C7  0DD8               	rlf	??___flmul,f
  4439  06C8  0DD9               	rlf	??___flmul+1,f
  4440  06C9  0DDA               	rlf	??___flmul+2,f
  4441  06CA  0DDB               	rlf	??___flmul+3,f
  4442  06CB                     u2390:
  4443  06CB  3EFF               	addlw	-1
  4444  06CC  1D03               	skipz
  4445  06CD  2EC6               	goto	u2395
  4446  06CE  0858               	movf	??___flmul,w
  4447  06CF  07E4               	addwf	___flmul@prod,f
  4448  06D0  0859               	movf	??___flmul+1,w
  4449  06D1  1103               	clrz
  4450  06D2  1803               	skipnc
  4451  06D3  3E01               	addlw	1
  4452  06D4  1903               	skipnz
  4453  06D5  2ED7               	goto	u2401
  4454  06D6  07E5               	addwf	___flmul@prod+1,f
  4455  06D7                     u2401:
  4456  06D7  085A               	movf	??___flmul+2,w
  4457  06D8  1103               	clrz
  4458  06D9  1803               	skipnc
  4459  06DA  3E01               	addlw	1
  4460  06DB  1903               	skipnz
  4461  06DC  2EDE               	goto	u2402
  4462  06DD  07E6               	addwf	___flmul@prod+2,f
  4463  06DE                     u2402:
  4464  06DE  085B               	movf	??___flmul+3,w
  4465  06DF  1103               	clrz
  4466  06E0  1803               	skipnc
  4467  06E1  3E01               	addlw	1
  4468  06E2  1903               	skipnz
  4469  06E3  2EE5               	goto	u2403
  4470  06E4  07E7               	addwf	___flmul@prod+3,f
  4471  06E5                     u2403:
  4472  06E5                     l1912:
  4473  06E5  085E               	movf	___flmul@grs,w
  4474  06E6  00D8               	movwf	??___flmul
  4475  06E7  085F               	movf	___flmul@grs+1,w
  4476  06E8  00D9               	movwf	??___flmul+1
  4477  06E9  0860               	movf	___flmul@grs+2,w
  4478  06EA  00DA               	movwf	??___flmul+2
  4479  06EB  0861               	movf	___flmul@grs+3,w
  4480  06EC  00DB               	movwf	??___flmul+3
  4481  06ED  3018               	movlw	24
  4482  06EE                     u2415:
  4483  06EE  1003               	clrc
  4484  06EF  0CDB               	rrf	??___flmul+3,f
  4485  06F0  0CDA               	rrf	??___flmul+2,f
  4486  06F1  0CD9               	rrf	??___flmul+1,f
  4487  06F2  0CD8               	rrf	??___flmul,f
  4488  06F3                     u2410:
  4489  06F3  3EFF               	addlw	-1
  4490  06F4  1D03               	skipz
  4491  06F5  2EEE               	goto	u2415
  4492  06F6  0858               	movf	??___flmul,w
  4493  06F7  07E4               	addwf	___flmul@prod,f
  4494  06F8  0859               	movf	??___flmul+1,w
  4495  06F9  1103               	clrz
  4496  06FA  1803               	skipnc
  4497  06FB  3E01               	addlw	1
  4498  06FC  1903               	skipnz
  4499  06FD  2EFF               	goto	u2421
  4500  06FE  07E5               	addwf	___flmul@prod+1,f
  4501  06FF                     u2421:
  4502  06FF  085A               	movf	??___flmul+2,w
  4503  0700  1103               	clrz
  4504  0701  1803               	skipnc
  4505  0702  3E01               	addlw	1
  4506  0703  1903               	skipnz
  4507  0704  2F06               	goto	u2422
  4508  0705  07E6               	addwf	___flmul@prod+2,f
  4509  0706                     u2422:
  4510  0706  085B               	movf	??___flmul+3,w
  4511  0707  1103               	clrz
  4512  0708  1803               	skipnc
  4513  0709  3E01               	addlw	1
  4514  070A  1903               	skipnz
  4515  070B  2F0D               	goto	u2423
  4516  070C  07E7               	addwf	___flmul@prod+3,f
  4517  070D                     u2423:
  4518  070D                     l1914:
  4519  070D  3008               	movlw	8
  4520  070E  00D8               	movwf	??___flmul
  4521  070F                     u2435:
  4522  070F  1003               	clrc
  4523  0710  0DDE               	rlf	___flmul@grs,f
  4524  0711  0DDF               	rlf	___flmul@grs+1,f
  4525  0712  0DE0               	rlf	___flmul@grs+2,f
  4526  0713  0DE1               	rlf	___flmul@grs+3,f
  4527  0714  0BD8               	decfsz	??___flmul,f
  4528  0715  2F0F               	goto	u2435
  4529  0716                     l1916:
  4530  0716  0863               	movf	___flmul@bexp,w
  4531  0717  0762               	addwf	___flmul@aexp,w
  4532  0718  00D8               	movwf	??___flmul
  4533  0719  01D9               	clrf	??___flmul+1
  4534  071A  0DD9               	rlf	??___flmul+1,f
  4535  071B  0858               	movf	??___flmul,w
  4536  071C  3E82               	addlw	130
  4537  071D  00E8               	movwf	___flmul@temp
  4538  071E  0859               	movf	??___flmul+1,w
  4539  071F  1803               	skipnc
  4540  0720  3E01               	addlw	1
  4541  0721  3EFF               	addlw	255
  4542  0722  00E9               	movwf	___flmul@temp+1
  4543  0723  2F41               	goto	l1928
  4544  0724                     l1918:
  4545  0724  3001               	movlw	1
  4546  0725  00D8               	movwf	??___flmul
  4547  0726                     u2445:
  4548  0726  1003               	clrc
  4549  0727  0DE4               	rlf	___flmul@prod,f
  4550  0728  0DE5               	rlf	___flmul@prod+1,f
  4551  0729  0DE6               	rlf	___flmul@prod+2,f
  4552  072A  0DE7               	rlf	___flmul@prod+3,f
  4553  072B  0BD8               	decfsz	??___flmul,f
  4554  072C  2F26               	goto	u2445
  4555  072D                     l1920:
  4556  072D  1FE1               	btfss	___flmul@grs+3,7
  4557  072E  2F30               	goto	u2451
  4558  072F  2F31               	goto	u2450
  4559  0730                     u2451:
  4560  0730  2F32               	goto	l1924
  4561  0731                     u2450:
  4562  0731                     l1922:
  4563  0731  1464               	bsf	___flmul@prod,0
  4564  0732                     l1924:
  4565  0732  3001               	movlw	1
  4566  0733  00D8               	movwf	??___flmul
  4567  0734                     u2465:
  4568  0734  1003               	clrc
  4569  0735  0DDE               	rlf	___flmul@grs,f
  4570  0736  0DDF               	rlf	___flmul@grs+1,f
  4571  0737  0DE0               	rlf	___flmul@grs+2,f
  4572  0738  0DE1               	rlf	___flmul@grs+3,f
  4573  0739  0BD8               	decfsz	??___flmul,f
  4574  073A  2F34               	goto	u2465
  4575  073B                     l1926:
  4576  073B  30FF               	movlw	255
  4577  073C  07E8               	addwf	___flmul@temp,f
  4578  073D  1803               	skipnc
  4579  073E  0AE9               	incf	___flmul@temp+1,f
  4580  073F  30FF               	movlw	255
  4581  0740  07E9               	addwf	___flmul@temp+1,f
  4582  0741                     l1928:
  4583  0741  1FE6               	btfss	___flmul@prod+2,7
  4584  0742  2F44               	goto	u2471
  4585  0743  2F45               	goto	u2470
  4586  0744                     u2471:
  4587  0744  2F24               	goto	l1918
  4588  0745                     u2470:
  4589  0745                     l1930:
  4590  0745  01E2               	clrf	___flmul@aexp
  4591  0746                     l1932:
  4592  0746  1FE1               	btfss	___flmul@grs+3,7
  4593  0747  2F49               	goto	u2481
  4594  0748  2F4A               	goto	u2480
  4595  0749                     u2481:
  4596  0749  2F66               	goto	l1940
  4597  074A                     u2480:
  4598  074A                     l1934:
  4599  074A  30FF               	movlw	255
  4600  074B  055E               	andwf	___flmul@grs,w
  4601  074C  00D8               	movwf	??___flmul
  4602  074D  30FF               	movlw	255
  4603  074E  055F               	andwf	___flmul@grs+1,w
  4604  074F  00D9               	movwf	??___flmul+1
  4605  0750  30FF               	movlw	255
  4606  0751  0560               	andwf	___flmul@grs+2,w
  4607  0752  00DA               	movwf	??___flmul+2
  4608  0753  307F               	movlw	127
  4609  0754  0561               	andwf	___flmul@grs+3,w
  4610  0755  00DB               	movwf	??___flmul+3
  4611  0756  085B               	movf	??___flmul+3,w
  4612  0757  045A               	iorwf	??___flmul+2,w
  4613  0758  0459               	iorwf	??___flmul+1,w
  4614  0759  0458               	iorwf	??___flmul,w
  4615  075A  1903               	skipnz
  4616  075B  2F5D               	goto	u2491
  4617  075C  2F5E               	goto	u2490
  4618  075D                     u2491:
  4619  075D  2F61               	goto	l695
  4620  075E                     u2490:
  4621  075E                     l1936:
  4622  075E  01E2               	clrf	___flmul@aexp
  4623  075F  0AE2               	incf	___flmul@aexp,f
  4624  0760  2F66               	goto	l1940
  4625  0761                     l695:
  4626  0761  1C64               	btfss	___flmul@prod,0
  4627  0762  2F64               	goto	u2501
  4628  0763  2F65               	goto	u2500
  4629  0764                     u2501:
  4630  0764  2F66               	goto	l1940
  4631  0765                     u2500:
  4632  0765  2F5E               	goto	l1936
  4633  0766                     l1940:
  4634  0766  0862               	movf	___flmul@aexp,w
  4635  0767  1903               	btfsc	3,2
  4636  0768  2F6A               	goto	u2511
  4637  0769  2F6B               	goto	u2510
  4638  076A                     u2511:
  4639  076A  2F9C               	goto	l1950
  4640  076B                     u2510:
  4641  076B                     l1942:
  4642  076B  3001               	movlw	1
  4643  076C  07E4               	addwf	___flmul@prod,f
  4644  076D  3000               	movlw	0
  4645  076E  1803               	skipnc
  4646  076F  3001               	movlw	1
  4647  0770  07E5               	addwf	___flmul@prod+1,f
  4648  0771  3000               	movlw	0
  4649  0772  1803               	skipnc
  4650  0773  3001               	movlw	1
  4651  0774  07E6               	addwf	___flmul@prod+2,f
  4652  0775  3000               	movlw	0
  4653  0776  1803               	skipnc
  4654  0777  3001               	movlw	1
  4655  0778  07E7               	addwf	___flmul@prod+3,f
  4656  0779                     l1944:
  4657  0779  1C67               	btfss	___flmul@prod+3,0
  4658  077A  2F7C               	goto	u2521
  4659  077B  2F7D               	goto	u2520
  4660  077C                     u2521:
  4661  077C  2F9C               	goto	l1950
  4662  077D                     u2520:
  4663  077D                     l1946:
  4664  077D  0864               	movf	___flmul@prod,w
  4665  077E  00D8               	movwf	??___flmul
  4666  077F  0865               	movf	___flmul@prod+1,w
  4667  0780  00D9               	movwf	??___flmul+1
  4668  0781  0866               	movf	___flmul@prod+2,w
  4669  0782  00DA               	movwf	??___flmul+2
  4670  0783  0867               	movf	___flmul@prod+3,w
  4671  0784  00DB               	movwf	??___flmul+3
  4672  0785  3001               	movlw	1
  4673  0786  00DC               	movwf	??___flmul+4
  4674  0787                     u2535:
  4675  0787  0D5B               	rlf	??___flmul+3,w
  4676  0788  0CDB               	rrf	??___flmul+3,f
  4677  0789  0CDA               	rrf	??___flmul+2,f
  4678  078A  0CD9               	rrf	??___flmul+1,f
  4679  078B  0CD8               	rrf	??___flmul,f
  4680  078C                     u2530:
  4681  078C  0BDC               	decfsz	??___flmul+4,f
  4682  078D  2F87               	goto	u2535
  4683  078E  085B               	movf	??___flmul+3,w
  4684  078F  00E7               	movwf	___flmul@prod+3
  4685  0790  085A               	movf	??___flmul+2,w
  4686  0791  00E6               	movwf	___flmul@prod+2
  4687  0792  0859               	movf	??___flmul+1,w
  4688  0793  00E5               	movwf	___flmul@prod+1
  4689  0794  0858               	movf	??___flmul,w
  4690  0795  00E4               	movwf	___flmul@prod
  4691  0796                     l1948:
  4692  0796  3001               	movlw	1
  4693  0797  07E8               	addwf	___flmul@temp,f
  4694  0798  1803               	skipnc
  4695  0799  0AE9               	incf	___flmul@temp+1,f
  4696  079A  3000               	movlw	0
  4697  079B  07E9               	addwf	___flmul@temp+1,f
  4698  079C                     l1950:
  4699  079C  0869               	movf	___flmul@temp+1,w
  4700  079D  3A80               	xorlw	128
  4701  079E  00FF               	movwf	btemp+1
  4702  079F  3080               	movlw	128
  4703  07A0  027F               	subwf	btemp+1,w
  4704  07A1  1D03               	skipz
  4705  07A2  2FA5               	goto	u2545
  4706  07A3  30FF               	movlw	255
  4707  07A4  0268               	subwf	___flmul@temp,w
  4708  07A5                     u2545:
  4709  07A5  1C03               	skipc
  4710  07A6  2FA8               	goto	u2541
  4711  07A7  2FA9               	goto	u2540
  4712  07A8                     u2541:
  4713  07A8  2FB4               	goto	l1954
  4714  07A9                     u2540:
  4715  07A9                     l1952:
  4716  07A9  307F               	movlw	127
  4717  07AA  1283               	bcf	3,5	;RP0=0, select bank0
  4718  07AB  1303               	bcf	3,6	;RP1=0, select bank0
  4719  07AC  00E7               	movwf	___flmul@prod+3
  4720  07AD  3080               	movlw	128
  4721  07AE  00E6               	movwf	___flmul@prod+2
  4722  07AF  3000               	movlw	0
  4723  07B0  00E5               	movwf	___flmul@prod+1
  4724  07B1  3000               	movlw	0
  4725  07B2  00E4               	movwf	___flmul@prod
  4726  07B3  2FE9               	goto	l701
  4727  07B4                     l1954:
  4728  07B4  1283               	bcf	3,5	;RP0=0, select bank0
  4729  07B5  1303               	bcf	3,6	;RP1=0, select bank0
  4730  07B6  0869               	movf	___flmul@temp+1,w
  4731  07B7  3A80               	xorlw	128
  4732  07B8  00FF               	movwf	btemp+1
  4733  07B9  3080               	movlw	128
  4734  07BA  027F               	subwf	btemp+1,w
  4735  07BB  1D03               	skipz
  4736  07BC  2FBF               	goto	u2555
  4737  07BD  3001               	movlw	1
  4738  07BE  0268               	subwf	___flmul@temp,w
  4739  07BF                     u2555:
  4740  07BF  1803               	skipnc
  4741  07C0  2FC2               	goto	u2551
  4742  07C1  2FC3               	goto	u2550
  4743  07C2                     u2551:
  4744  07C2  2FCF               	goto	l1960
  4745  07C3                     u2550:
  4746  07C3                     l1956:
  4747  07C3  3000               	movlw	0
  4748  07C4  1283               	bcf	3,5	;RP0=0, select bank0
  4749  07C5  1303               	bcf	3,6	;RP1=0, select bank0
  4750  07C6  00E7               	movwf	___flmul@prod+3
  4751  07C7  3000               	movlw	0
  4752  07C8  00E6               	movwf	___flmul@prod+2
  4753  07C9  3000               	movlw	0
  4754  07CA  00E5               	movwf	___flmul@prod+1
  4755  07CB  3000               	movlw	0
  4756  07CC  00E4               	movwf	___flmul@prod
  4757  07CD                     l1958:
  4758  07CD  01DD               	clrf	___flmul@sign
  4759  07CE  2FE9               	goto	l701
  4760  07CF                     l1960:
  4761  07CF  1283               	bcf	3,5	;RP0=0, select bank0
  4762  07D0  1303               	bcf	3,6	;RP1=0, select bank0
  4763  07D1  0868               	movf	___flmul@temp,w
  4764  07D2  00D8               	movwf	??___flmul
  4765  07D3  0858               	movf	??___flmul,w
  4766  07D4  00E3               	movwf	___flmul@bexp
  4767  07D5  30FF               	movlw	255
  4768  07D6  05E4               	andwf	___flmul@prod,f
  4769  07D7  30FF               	movlw	255
  4770  07D8  05E5               	andwf	___flmul@prod+1,f
  4771  07D9  307F               	movlw	127
  4772  07DA  05E6               	andwf	___flmul@prod+2,f
  4773  07DB  3000               	movlw	0
  4774  07DC  05E7               	andwf	___flmul@prod+3,f
  4775  07DD                     l1962:
  4776  07DD  1C63               	btfss	___flmul@bexp,0
  4777  07DE  2FE0               	goto	u2561
  4778  07DF  2FE1               	goto	u2560
  4779  07E0                     u2561:
  4780  07E0  2FE2               	goto	l1966
  4781  07E1                     u2560:
  4782  07E1                     l1964:
  4783  07E1  17E6               	bsf	___flmul@prod+2,7
  4784  07E2                     l1966:
  4785  07E2  0863               	movf	___flmul@bexp,w
  4786  07E3  00D8               	movwf	??___flmul
  4787  07E4  1003               	clrc
  4788  07E5  0C58               	rrf	??___flmul,w
  4789  07E6  00D9               	movwf	??___flmul+1
  4790  07E7  0859               	movf	??___flmul+1,w
  4791  07E8  00E7               	movwf	___flmul@prod+3
  4792  07E9                     l701:
  4793  07E9  085D               	movf	___flmul@sign,w
  4794  07EA  00D8               	movwf	??___flmul
  4795  07EB  0858               	movf	??___flmul,w
  4796  07EC  04E7               	iorwf	___flmul@prod+3,f
  4797  07ED                     l1968:
  4798  07ED  0867               	movf	___flmul@prod+3,w
  4799  07EE  00D3               	movwf	?___flmul+3
  4800  07EF  0866               	movf	___flmul@prod+2,w
  4801  07F0  00D2               	movwf	?___flmul+2
  4802  07F1  0865               	movf	___flmul@prod+1,w
  4803  07F2  00D1               	movwf	?___flmul+1
  4804  07F3  0864               	movf	___flmul@prod,w
  4805  07F4  00D0               	movwf	?___flmul
  4806  07F5                     l689:
  4807  07F5  0008               	return
  4808  07F6                     __end_of___flmul:
  4809                           
  4810                           	psect	text21
  4811  0B0F                     __ptext21:	
  4812 ;; *************** function __Umul8_16 *****************
  4813 ;; Defined at:
  4814 ;;		line 4 in file "C:\Program Files\Microchip\xc8\v2.32\pic\sources\c90\common\Umul8_16.c"
  4815 ;; Parameters:    Size  Location     Type
  4816 ;;  multiplier      1    wreg     unsigned char 
  4817 ;;  multiplicand    1    0[COMMON] unsigned char 
  4818 ;; Auto vars:     Size  Location     Type
  4819 ;;  multiplier      1    8[COMMON] unsigned char 
  4820 ;;  word_mpld       2    6[COMMON] unsigned int 
  4821 ;;  product         2    4[COMMON] unsigned int 
  4822 ;; Return value:  Size  Location     Type
  4823 ;;                  2    0[COMMON] unsigned int 
  4824 ;; Registers used:
  4825 ;;		wreg, status,2, status,0
  4826 ;; Tracked objects:
  4827 ;;		On entry : 0/0
  4828 ;;		On exit  : 0/0
  4829 ;;		Unchanged: 0/0
  4830 ;; Data sizes:     COMMON   BANK0   BANK1   BANK3   BANK2
  4831 ;;      Params:         2       0       0       0       0
  4832 ;;      Locals:         5       0       0       0       0
  4833 ;;      Temps:          2       0       0       0       0
  4834 ;;      Totals:         9       0       0       0       0
  4835 ;;Total ram usage:        9 bytes
  4836 ;; Hardware stack levels used: 1
  4837 ;; This function calls:
  4838 ;;		Nothing
  4839 ;; This function is called by:
  4840 ;;		___flmul
  4841 ;; This function uses a non-reentrant model
  4842 ;;
  4843                           
  4844                           
  4845                           ;psect for function __Umul8_16
  4846  0B0F                     __Umul8_16:
  4847                           
  4848                           ;incstack = 0
  4849                           ; Regs used in __Umul8_16: [wreg+status,2+status,0]
  4850                           ;__Umul8_16@multiplier stored from wreg
  4851  0B0F  00F8               	movwf	__Umul8_16@multiplier
  4852  0B10                     l1582:
  4853  0B10  01F4               	clrf	__Umul8_16@product
  4854  0B11  01F5               	clrf	__Umul8_16@product+1
  4855  0B12                     l1584:
  4856  0B12  0870               	movf	__Umul8_16@multiplicand,w
  4857  0B13  00F2               	movwf	??__Umul8_16
  4858  0B14  01F3               	clrf	??__Umul8_16+1
  4859  0B15  0872               	movf	??__Umul8_16,w
  4860  0B16  00F6               	movwf	__Umul8_16@word_mpld
  4861  0B17  0873               	movf	??__Umul8_16+1,w
  4862  0B18  00F7               	movwf	__Umul8_16@word_mpld+1
  4863  0B19                     l1586:
  4864  0B19  1C78               	btfss	__Umul8_16@multiplier,0
  4865  0B1A  2B1C               	goto	u1621
  4866  0B1B  2B1D               	goto	u1620
  4867  0B1C                     u1621:
  4868  0B1C  2B23               	goto	l708
  4869  0B1D                     u1620:
  4870  0B1D                     l1588:
  4871  0B1D  0876               	movf	__Umul8_16@word_mpld,w
  4872  0B1E  07F4               	addwf	__Umul8_16@product,f
  4873  0B1F  1803               	skipnc
  4874  0B20  0AF5               	incf	__Umul8_16@product+1,f
  4875  0B21  0877               	movf	__Umul8_16@word_mpld+1,w
  4876  0B22  07F5               	addwf	__Umul8_16@product+1,f
  4877  0B23                     l708:
  4878  0B23  3001               	movlw	1
  4879  0B24                     u1635:
  4880  0B24  1003               	clrc
  4881  0B25  0DF6               	rlf	__Umul8_16@word_mpld,f
  4882  0B26  0DF7               	rlf	__Umul8_16@word_mpld+1,f
  4883  0B27  3EFF               	addlw	-1
  4884  0B28  1D03               	skipz
  4885  0B29  2B24               	goto	u1635
  4886  0B2A  1003               	clrc
  4887  0B2B  0CF8               	rrf	__Umul8_16@multiplier,f
  4888  0B2C                     l1590:
  4889  0B2C  0878               	movf	__Umul8_16@multiplier,w
  4890  0B2D  1D03               	btfss	3,2
  4891  0B2E  2B30               	goto	u1641
  4892  0B2F  2B31               	goto	u1640
  4893  0B30                     u1641:
  4894  0B30  2B19               	goto	l1586
  4895  0B31                     u1640:
  4896  0B31                     l1592:
  4897  0B31  0875               	movf	__Umul8_16@product+1,w
  4898  0B32  00F1               	movwf	?__Umul8_16+1
  4899  0B33  0874               	movf	__Umul8_16@product,w
  4900  0B34  00F0               	movwf	?__Umul8_16
  4901  0B35                     l710:
  4902  0B35  0008               	return
  4903  0B36                     __end_of__Umul8_16:
  4904                           
  4905                           	psect	text22
  4906  02B8                     __ptext22:	
  4907 ;; *************** function ___fldiv *****************
  4908 ;; Defined at:
  4909 ;;		line 8 in file "C:\Program Files\Microchip\xc8\v2.32\pic\sources\c90\common\sprcdiv.c"
  4910 ;; Parameters:    Size  Location     Type
  4911 ;;  a               4   22[BANK0 ] unsigned int 
  4912 ;;  b               4   26[BANK0 ] unsigned int 
  4913 ;; Auto vars:     Size  Location     Type
  4914 ;;  grs             4   42[BANK0 ] unsigned long 
  4915 ;;  rem             4   35[BANK0 ] unsigned long 
  4916 ;;  new_exp         2   40[BANK0 ] int 
  4917 ;;  aexp            1   47[BANK0 ] unsigned char 
  4918 ;;  bexp            1   46[BANK0 ] unsigned char 
  4919 ;;  sign            1   39[BANK0 ] unsigned char 
  4920 ;; Return value:  Size  Location     Type
  4921 ;;                  4   22[BANK0 ] unsigned char 
  4922 ;; Registers used:
  4923 ;;		wreg, status,2, status,0, btemp+1
  4924 ;; Tracked objects:
  4925 ;;		On entry : 0/0
  4926 ;;		On exit  : 0/0
  4927 ;;		Unchanged: 0/0
  4928 ;; Data sizes:     COMMON   BANK0   BANK1   BANK3   BANK2
  4929 ;;      Params:         0       8       0       0       0
  4930 ;;      Locals:         0      13       0       0       0
  4931 ;;      Temps:          0       5       0       0       0
  4932 ;;      Totals:         0      26       0       0       0
  4933 ;;Total ram usage:       26 bytes
  4934 ;; Hardware stack levels used: 1
  4935 ;; This function calls:
  4936 ;;		Nothing
  4937 ;; This function is called by:
  4938 ;;		_PWM1_Duty
  4939 ;;		_PWM2_Duty
  4940 ;; This function uses a non-reentrant model
  4941 ;;
  4942                           
  4943                           
  4944                           ;psect for function ___fldiv
  4945  02B8                     ___fldiv:
  4946  02B8                     l1690:	
  4947                           ;incstack = 0
  4948                           ; Regs used in ___fldiv: [wreg+status,2+status,0+btemp+1]
  4949                           
  4950  02B8  1283               	bcf	3,5	;RP0=0, select bank0
  4951  02B9  1303               	bcf	3,6	;RP1=0, select bank0
  4952  02BA  083D               	movf	___fldiv@b+3,w
  4953  02BB  3980               	andlw	128
  4954  02BC  00BE               	movwf	??___fldiv
  4955  02BD  083E               	movf	??___fldiv,w
  4956  02BE  00C7               	movwf	___fldiv@sign
  4957  02BF                     l1692:
  4958  02BF  083D               	movf	___fldiv@b+3,w
  4959  02C0  00BE               	movwf	??___fldiv
  4960  02C1  073E               	addwf	??___fldiv,w
  4961  02C2  00BF               	movwf	??___fldiv+1
  4962  02C3  083F               	movf	??___fldiv+1,w
  4963  02C4  00CE               	movwf	___fldiv@bexp
  4964  02C5                     l1694:
  4965  02C5  1FBC               	btfss	___fldiv@b+2,7
  4966  02C6  2AC8               	goto	u1911
  4967  02C7  2AC9               	goto	u1910
  4968  02C8                     u1911:
  4969  02C8  2ACA               	goto	l1698
  4970  02C9                     u1910:
  4971  02C9                     l1696:
  4972  02C9  144E               	bsf	___fldiv@bexp,0
  4973  02CA                     l1698:
  4974  02CA  084E               	movf	___fldiv@bexp,w
  4975  02CB  1903               	btfsc	3,2
  4976  02CC  2ACE               	goto	u1921
  4977  02CD  2ACF               	goto	u1920
  4978  02CE                     u1921:
  4979  02CE  2ADF               	goto	l1708
  4980  02CF                     u1920:
  4981  02CF                     l1700:
  4982  02CF  0A4E               	incf	___fldiv@bexp,w
  4983  02D0  1D03               	btfss	3,2
  4984  02D1  2AD3               	goto	u1931
  4985  02D2  2AD4               	goto	u1930
  4986  02D3                     u1931:
  4987  02D3  2ADC               	goto	l1704
  4988  02D4                     u1930:
  4989  02D4                     l1702:
  4990  02D4  3000               	movlw	0
  4991  02D5  00BD               	movwf	___fldiv@b+3
  4992  02D6  3000               	movlw	0
  4993  02D7  00BC               	movwf	___fldiv@b+2
  4994  02D8  3000               	movlw	0
  4995  02D9  00BB               	movwf	___fldiv@b+1
  4996  02DA  3000               	movlw	0
  4997  02DB  00BA               	movwf	___fldiv@b
  4998  02DC                     l1704:
  4999  02DC  17BC               	bsf	___fldiv@b+2,7
  5000  02DD                     l1706:
  5001  02DD  01BD               	clrf	___fldiv@b+3
  5002  02DE  2AE7               	goto	l1710
  5003  02DF                     l1708:
  5004  02DF  3000               	movlw	0
  5005  02E0  00BD               	movwf	___fldiv@b+3
  5006  02E1  3000               	movlw	0
  5007  02E2  00BC               	movwf	___fldiv@b+2
  5008  02E3  3000               	movlw	0
  5009  02E4  00BB               	movwf	___fldiv@b+1
  5010  02E5  3000               	movlw	0
  5011  02E6  00BA               	movwf	___fldiv@b
  5012  02E7                     l1710:
  5013  02E7  0839               	movf	___fldiv@a+3,w
  5014  02E8  3980               	andlw	128
  5015  02E9  00BE               	movwf	??___fldiv
  5016  02EA  083E               	movf	??___fldiv,w
  5017  02EB  06C7               	xorwf	___fldiv@sign,f
  5018  02EC                     l1712:
  5019  02EC  0839               	movf	___fldiv@a+3,w
  5020  02ED  00BE               	movwf	??___fldiv
  5021  02EE  073E               	addwf	??___fldiv,w
  5022  02EF  00BF               	movwf	??___fldiv+1
  5023  02F0  083F               	movf	??___fldiv+1,w
  5024  02F1  00CF               	movwf	___fldiv@aexp
  5025  02F2                     l1714:
  5026  02F2  1FB8               	btfss	___fldiv@a+2,7
  5027  02F3  2AF5               	goto	u1941
  5028  02F4  2AF6               	goto	u1940
  5029  02F5                     u1941:
  5030  02F5  2AF7               	goto	l1718
  5031  02F6                     u1940:
  5032  02F6                     l1716:
  5033  02F6  144F               	bsf	___fldiv@aexp,0
  5034  02F7                     l1718:
  5035  02F7  084F               	movf	___fldiv@aexp,w
  5036  02F8  1903               	btfsc	3,2
  5037  02F9  2AFB               	goto	u1951
  5038  02FA  2AFC               	goto	u1950
  5039  02FB                     u1951:
  5040  02FB  2B0C               	goto	l1728
  5041  02FC                     u1950:
  5042  02FC                     l1720:
  5043  02FC  0A4F               	incf	___fldiv@aexp,w
  5044  02FD  1D03               	btfss	3,2
  5045  02FE  2B00               	goto	u1961
  5046  02FF  2B01               	goto	u1960
  5047  0300                     u1961:
  5048  0300  2B09               	goto	l1724
  5049  0301                     u1960:
  5050  0301                     l1722:
  5051  0301  3000               	movlw	0
  5052  0302  00B9               	movwf	___fldiv@a+3
  5053  0303  3000               	movlw	0
  5054  0304  00B8               	movwf	___fldiv@a+2
  5055  0305  3000               	movlw	0
  5056  0306  00B7               	movwf	___fldiv@a+1
  5057  0307  3000               	movlw	0
  5058  0308  00B6               	movwf	___fldiv@a
  5059  0309                     l1724:
  5060  0309  17B8               	bsf	___fldiv@a+2,7
  5061  030A                     l1726:
  5062  030A  01B9               	clrf	___fldiv@a+3
  5063  030B  2B14               	goto	l649
  5064  030C                     l1728:
  5065  030C  3000               	movlw	0
  5066  030D  00B9               	movwf	___fldiv@a+3
  5067  030E  3000               	movlw	0
  5068  030F  00B8               	movwf	___fldiv@a+2
  5069  0310  3000               	movlw	0
  5070  0311  00B7               	movwf	___fldiv@a+1
  5071  0312  3000               	movlw	0
  5072  0313  00B6               	movwf	___fldiv@a
  5073  0314                     l649:
  5074  0314  0839               	movf	___fldiv@a+3,w
  5075  0315  0438               	iorwf	___fldiv@a+2,w
  5076  0316  0437               	iorwf	___fldiv@a+1,w
  5077  0317  0436               	iorwf	___fldiv@a,w
  5078  0318  1D03               	skipz
  5079  0319  2B1B               	goto	u1971
  5080  031A  2B1C               	goto	u1970
  5081  031B                     u1971:
  5082  031B  2B35               	goto	l1738
  5083  031C                     u1970:
  5084  031C                     l1730:
  5085  031C  3000               	movlw	0
  5086  031D  00BD               	movwf	___fldiv@b+3
  5087  031E  3000               	movlw	0
  5088  031F  00BC               	movwf	___fldiv@b+2
  5089  0320  3000               	movlw	0
  5090  0321  00BB               	movwf	___fldiv@b+1
  5091  0322  3000               	movlw	0
  5092  0323  00BA               	movwf	___fldiv@b
  5093  0324  3080               	movlw	128
  5094  0325  04BC               	iorwf	___fldiv@b+2,f
  5095  0326  307F               	movlw	127
  5096  0327  04BD               	iorwf	___fldiv@b+3,f
  5097  0328                     l1732:
  5098  0328  0847               	movf	___fldiv@sign,w
  5099  0329  00BE               	movwf	??___fldiv
  5100  032A  083E               	movf	??___fldiv,w
  5101  032B  04BD               	iorwf	___fldiv@b+3,f
  5102  032C                     l1734:
  5103  032C  083D               	movf	___fldiv@b+3,w
  5104  032D  00B9               	movwf	?___fldiv+3
  5105  032E  083C               	movf	___fldiv@b+2,w
  5106  032F  00B8               	movwf	?___fldiv+2
  5107  0330  083B               	movf	___fldiv@b+1,w
  5108  0331  00B7               	movwf	?___fldiv+1
  5109  0332  083A               	movf	___fldiv@b,w
  5110  0333  00B6               	movwf	?___fldiv
  5111  0334  2C94               	goto	l651
  5112  0335                     l1738:
  5113  0335  084E               	movf	___fldiv@bexp,w
  5114  0336  1D03               	btfss	3,2
  5115  0337  2B39               	goto	u1981
  5116  0338  2B3A               	goto	u1980
  5117  0339                     u1981:
  5118  0339  2B43               	goto	l1744
  5119  033A                     u1980:
  5120  033A                     l1740:
  5121  033A  3000               	movlw	0
  5122  033B  00B9               	movwf	?___fldiv+3
  5123  033C  3000               	movlw	0
  5124  033D  00B8               	movwf	?___fldiv+2
  5125  033E  3000               	movlw	0
  5126  033F  00B7               	movwf	?___fldiv+1
  5127  0340  3000               	movlw	0
  5128  0341  00B6               	movwf	?___fldiv
  5129  0342  2C94               	goto	l651
  5130  0343                     l1744:
  5131  0343  084E               	movf	___fldiv@bexp,w
  5132  0344  00BE               	movwf	??___fldiv
  5133  0345  01BF               	clrf	??___fldiv+1
  5134  0346  083F               	movf	??___fldiv+1,w
  5135  0347  00C1               	movwf	??___fldiv+3
  5136  0348  084F               	movf	___fldiv@aexp,w
  5137  0349  023E               	subwf	??___fldiv,w
  5138  034A  00C0               	movwf	??___fldiv+2
  5139  034B  1C03               	skipc
  5140  034C  03C1               	decf	??___fldiv+3,f
  5141  034D  0840               	movf	??___fldiv+2,w
  5142  034E  3E7F               	addlw	127
  5143  034F  00C8               	movwf	___fldiv@new_exp
  5144  0350  0841               	movf	??___fldiv+3,w
  5145  0351  1803               	skipnc
  5146  0352  3E01               	addlw	1
  5147  0353  3E00               	addlw	0
  5148  0354  00C9               	movwf	___fldiv@new_exp+1
  5149  0355                     l1746:
  5150  0355  083D               	movf	___fldiv@b+3,w
  5151  0356  00C6               	movwf	___fldiv@rem+3
  5152  0357  083C               	movf	___fldiv@b+2,w
  5153  0358  00C5               	movwf	___fldiv@rem+2
  5154  0359  083B               	movf	___fldiv@b+1,w
  5155  035A  00C4               	movwf	___fldiv@rem+1
  5156  035B  083A               	movf	___fldiv@b,w
  5157  035C  00C3               	movwf	___fldiv@rem
  5158  035D                     l1748:
  5159  035D  3000               	movlw	0
  5160  035E  00BD               	movwf	___fldiv@b+3
  5161  035F  3000               	movlw	0
  5162  0360  00BC               	movwf	___fldiv@b+2
  5163  0361  3000               	movlw	0
  5164  0362  00BB               	movwf	___fldiv@b+1
  5165  0363  3000               	movlw	0
  5166  0364  00BA               	movwf	___fldiv@b
  5167  0365                     l1750:
  5168  0365  3000               	movlw	0
  5169  0366  00CD               	movwf	___fldiv@grs+3
  5170  0367  3000               	movlw	0
  5171  0368  00CC               	movwf	___fldiv@grs+2
  5172  0369  3000               	movlw	0
  5173  036A  00CB               	movwf	___fldiv@grs+1
  5174  036B  3000               	movlw	0
  5175  036C  00CA               	movwf	___fldiv@grs
  5176  036D                     l1752:
  5177  036D  01CF               	clrf	___fldiv@aexp
  5178  036E  2BB9               	goto	l1772
  5179  036F                     l1754:
  5180  036F  084F               	movf	___fldiv@aexp,w
  5181  0370  1903               	btfsc	3,2
  5182  0371  2B73               	goto	u1991
  5183  0372  2B74               	goto	u1990
  5184  0373                     u1991:
  5185  0373  2B94               	goto	l1764
  5186  0374                     u1990:
  5187  0374                     l1756:
  5188  0374  3001               	movlw	1
  5189  0375  00BE               	movwf	??___fldiv
  5190  0376                     u2005:
  5191  0376  1003               	clrc
  5192  0377  0DC3               	rlf	___fldiv@rem,f
  5193  0378  0DC4               	rlf	___fldiv@rem+1,f
  5194  0379  0DC5               	rlf	___fldiv@rem+2,f
  5195  037A  0DC6               	rlf	___fldiv@rem+3,f
  5196  037B  0BBE               	decfsz	??___fldiv,f
  5197  037C  2B76               	goto	u2005
  5198  037D  3001               	movlw	1
  5199  037E  00BE               	movwf	??___fldiv
  5200  037F                     u2015:
  5201  037F  1003               	clrc
  5202  0380  0DBA               	rlf	___fldiv@b,f
  5203  0381  0DBB               	rlf	___fldiv@b+1,f
  5204  0382  0DBC               	rlf	___fldiv@b+2,f
  5205  0383  0DBD               	rlf	___fldiv@b+3,f
  5206  0384  0BBE               	decfsz	??___fldiv,f
  5207  0385  2B7F               	goto	u2015
  5208  0386                     l1758:
  5209  0386  1FCD               	btfss	___fldiv@grs+3,7
  5210  0387  2B89               	goto	u2021
  5211  0388  2B8A               	goto	u2020
  5212  0389                     u2021:
  5213  0389  2B8B               	goto	l1762
  5214  038A                     u2020:
  5215  038A                     l1760:
  5216  038A  143A               	bsf	___fldiv@b,0
  5217  038B                     l1762:
  5218  038B  3001               	movlw	1
  5219  038C  00BE               	movwf	??___fldiv
  5220  038D                     u2035:
  5221  038D  1003               	clrc
  5222  038E  0DCA               	rlf	___fldiv@grs,f
  5223  038F  0DCB               	rlf	___fldiv@grs+1,f
  5224  0390  0DCC               	rlf	___fldiv@grs+2,f
  5225  0391  0DCD               	rlf	___fldiv@grs+3,f
  5226  0392  0BBE               	decfsz	??___fldiv,f
  5227  0393  2B8D               	goto	u2035
  5228  0394                     l1764:
  5229  0394  0839               	movf	___fldiv@a+3,w
  5230  0395  0246               	subwf	___fldiv@rem+3,w
  5231  0396  1D03               	skipz
  5232  0397  2BA2               	goto	u2045
  5233  0398  0838               	movf	___fldiv@a+2,w
  5234  0399  0245               	subwf	___fldiv@rem+2,w
  5235  039A  1D03               	skipz
  5236  039B  2BA2               	goto	u2045
  5237  039C  0837               	movf	___fldiv@a+1,w
  5238  039D  0244               	subwf	___fldiv@rem+1,w
  5239  039E  1D03               	skipz
  5240  039F  2BA2               	goto	u2045
  5241  03A0  0836               	movf	___fldiv@a,w
  5242  03A1  0243               	subwf	___fldiv@rem,w
  5243  03A2                     u2045:
  5244  03A2  1C03               	skipc
  5245  03A3  2BA5               	goto	u2041
  5246  03A4  2BA6               	goto	u2040
  5247  03A5                     u2041:
  5248  03A5  2BB5               	goto	l1770
  5249  03A6                     u2040:
  5250  03A6                     l1766:
  5251  03A6  174D               	bsf	___fldiv@grs+3,6
  5252  03A7                     l1768:
  5253  03A7  0836               	movf	___fldiv@a,w
  5254  03A8  02C3               	subwf	___fldiv@rem,f
  5255  03A9  0837               	movf	___fldiv@a+1,w
  5256  03AA  1C03               	skipc
  5257  03AB  0F37               	incfsz	___fldiv@a+1,w
  5258  03AC  02C4               	subwf	___fldiv@rem+1,f
  5259  03AD  0838               	movf	___fldiv@a+2,w
  5260  03AE  1C03               	skipc
  5261  03AF  0F38               	incfsz	___fldiv@a+2,w
  5262  03B0  02C5               	subwf	___fldiv@rem+2,f
  5263  03B1  0839               	movf	___fldiv@a+3,w
  5264  03B2  1C03               	skipc
  5265  03B3  0F39               	incfsz	___fldiv@a+3,w
  5266  03B4  02C6               	subwf	___fldiv@rem+3,f
  5267  03B5                     l1770:
  5268  03B5  3001               	movlw	1
  5269  03B6  00BE               	movwf	??___fldiv
  5270  03B7  083E               	movf	??___fldiv,w
  5271  03B8  07CF               	addwf	___fldiv@aexp,f
  5272  03B9                     l1772:
  5273  03B9  301A               	movlw	26
  5274  03BA  024F               	subwf	___fldiv@aexp,w
  5275  03BB  1C03               	skipc
  5276  03BC  2BBE               	goto	u2051
  5277  03BD  2BBF               	goto	u2050
  5278  03BE                     u2051:
  5279  03BE  2B6F               	goto	l1754
  5280  03BF                     u2050:
  5281  03BF                     l1774:
  5282  03BF  0846               	movf	___fldiv@rem+3,w
  5283  03C0  0445               	iorwf	___fldiv@rem+2,w
  5284  03C1  0444               	iorwf	___fldiv@rem+1,w
  5285  03C2  0443               	iorwf	___fldiv@rem,w
  5286  03C3  1903               	skipnz
  5287  03C4  2BC6               	goto	u2061
  5288  03C5  2BC7               	goto	u2060
  5289  03C6                     u2061:
  5290  03C6  2BE6               	goto	l1788
  5291  03C7                     u2060:
  5292  03C7                     l1776:
  5293  03C7  144A               	bsf	___fldiv@grs,0
  5294  03C8  2BE6               	goto	l1788
  5295  03C9                     l1778:
  5296  03C9  3001               	movlw	1
  5297  03CA  00BE               	movwf	??___fldiv
  5298  03CB                     u2075:
  5299  03CB  1003               	clrc
  5300  03CC  0DBA               	rlf	___fldiv@b,f
  5301  03CD  0DBB               	rlf	___fldiv@b+1,f
  5302  03CE  0DBC               	rlf	___fldiv@b+2,f
  5303  03CF  0DBD               	rlf	___fldiv@b+3,f
  5304  03D0  0BBE               	decfsz	??___fldiv,f
  5305  03D1  2BCB               	goto	u2075
  5306  03D2                     l1780:
  5307  03D2  1FCD               	btfss	___fldiv@grs+3,7
  5308  03D3  2BD5               	goto	u2081
  5309  03D4  2BD6               	goto	u2080
  5310  03D5                     u2081:
  5311  03D5  2BD7               	goto	l1784
  5312  03D6                     u2080:
  5313  03D6                     l1782:
  5314  03D6  143A               	bsf	___fldiv@b,0
  5315  03D7                     l1784:
  5316  03D7  3001               	movlw	1
  5317  03D8  00BE               	movwf	??___fldiv
  5318  03D9                     u2095:
  5319  03D9  1003               	clrc
  5320  03DA  0DCA               	rlf	___fldiv@grs,f
  5321  03DB  0DCB               	rlf	___fldiv@grs+1,f
  5322  03DC  0DCC               	rlf	___fldiv@grs+2,f
  5323  03DD  0DCD               	rlf	___fldiv@grs+3,f
  5324  03DE  0BBE               	decfsz	??___fldiv,f
  5325  03DF  2BD9               	goto	u2095
  5326  03E0                     l1786:
  5327  03E0  30FF               	movlw	255
  5328  03E1  07C8               	addwf	___fldiv@new_exp,f
  5329  03E2  1803               	skipnc
  5330  03E3  0AC9               	incf	___fldiv@new_exp+1,f
  5331  03E4  30FF               	movlw	255
  5332  03E5  07C9               	addwf	___fldiv@new_exp+1,f
  5333  03E6                     l1788:
  5334  03E6  1FBC               	btfss	___fldiv@b+2,7
  5335  03E7  2BE9               	goto	u2101
  5336  03E8  2BEA               	goto	u2100
  5337  03E9                     u2101:
  5338  03E9  2BC9               	goto	l1778
  5339  03EA                     u2100:
  5340  03EA                     l1790:
  5341  03EA  01CF               	clrf	___fldiv@aexp
  5342  03EB                     l1792:
  5343  03EB  1FCD               	btfss	___fldiv@grs+3,7
  5344  03EC  2BEE               	goto	u2111
  5345  03ED  2BEF               	goto	u2110
  5346  03EE                     u2111:
  5347  03EE  2C0B               	goto	l1800
  5348  03EF                     u2110:
  5349  03EF                     l1794:
  5350  03EF  30FF               	movlw	255
  5351  03F0  054A               	andwf	___fldiv@grs,w
  5352  03F1  00BE               	movwf	??___fldiv
  5353  03F2  30FF               	movlw	255
  5354  03F3  054B               	andwf	___fldiv@grs+1,w
  5355  03F4  00BF               	movwf	??___fldiv+1
  5356  03F5  30FF               	movlw	255
  5357  03F6  054C               	andwf	___fldiv@grs+2,w
  5358  03F7  00C0               	movwf	??___fldiv+2
  5359  03F8  307F               	movlw	127
  5360  03F9  054D               	andwf	___fldiv@grs+3,w
  5361  03FA  00C1               	movwf	??___fldiv+3
  5362  03FB  0841               	movf	??___fldiv+3,w
  5363  03FC  0440               	iorwf	??___fldiv+2,w
  5364  03FD  043F               	iorwf	??___fldiv+1,w
  5365  03FE  043E               	iorwf	??___fldiv,w
  5366  03FF  1903               	skipnz
  5367  0400  2C02               	goto	u2121
  5368  0401  2C03               	goto	u2120
  5369  0402                     u2121:
  5370  0402  2C06               	goto	l665
  5371  0403                     u2120:
  5372  0403                     l1796:
  5373  0403  01CF               	clrf	___fldiv@aexp
  5374  0404  0ACF               	incf	___fldiv@aexp,f
  5375  0405  2C0B               	goto	l1800
  5376  0406                     l665:
  5377  0406  1C3A               	btfss	___fldiv@b,0
  5378  0407  2C09               	goto	u2131
  5379  0408  2C0A               	goto	u2130
  5380  0409                     u2131:
  5381  0409  2C0B               	goto	l1800
  5382  040A                     u2130:
  5383  040A  2C03               	goto	l1796
  5384  040B                     l1800:
  5385  040B  084F               	movf	___fldiv@aexp,w
  5386  040C  1903               	btfsc	3,2
  5387  040D  2C0F               	goto	u2141
  5388  040E  2C10               	goto	u2140
  5389  040F                     u2141:
  5390  040F  2C41               	goto	l1810
  5391  0410                     u2140:
  5392  0410                     l1802:
  5393  0410  3001               	movlw	1
  5394  0411  07BA               	addwf	___fldiv@b,f
  5395  0412  3000               	movlw	0
  5396  0413  1803               	skipnc
  5397  0414  3001               	movlw	1
  5398  0415  07BB               	addwf	___fldiv@b+1,f
  5399  0416  3000               	movlw	0
  5400  0417  1803               	skipnc
  5401  0418  3001               	movlw	1
  5402  0419  07BC               	addwf	___fldiv@b+2,f
  5403  041A  3000               	movlw	0
  5404  041B  1803               	skipnc
  5405  041C  3001               	movlw	1
  5406  041D  07BD               	addwf	___fldiv@b+3,f
  5407  041E                     l1804:
  5408  041E  1C3D               	btfss	___fldiv@b+3,0
  5409  041F  2C21               	goto	u2151
  5410  0420  2C22               	goto	u2150
  5411  0421                     u2151:
  5412  0421  2C41               	goto	l1810
  5413  0422                     u2150:
  5414  0422                     l1806:
  5415  0422  083A               	movf	___fldiv@b,w
  5416  0423  00BE               	movwf	??___fldiv
  5417  0424  083B               	movf	___fldiv@b+1,w
  5418  0425  00BF               	movwf	??___fldiv+1
  5419  0426  083C               	movf	___fldiv@b+2,w
  5420  0427  00C0               	movwf	??___fldiv+2
  5421  0428  083D               	movf	___fldiv@b+3,w
  5422  0429  00C1               	movwf	??___fldiv+3
  5423  042A  3001               	movlw	1
  5424  042B  00C2               	movwf	??___fldiv+4
  5425  042C                     u2165:
  5426  042C  0D41               	rlf	??___fldiv+3,w
  5427  042D  0CC1               	rrf	??___fldiv+3,f
  5428  042E  0CC0               	rrf	??___fldiv+2,f
  5429  042F  0CBF               	rrf	??___fldiv+1,f
  5430  0430  0CBE               	rrf	??___fldiv,f
  5431  0431                     u2160:
  5432  0431  0BC2               	decfsz	??___fldiv+4,f
  5433  0432  2C2C               	goto	u2165
  5434  0433  0841               	movf	??___fldiv+3,w
  5435  0434  00BD               	movwf	___fldiv@b+3
  5436  0435  0840               	movf	??___fldiv+2,w
  5437  0436  00BC               	movwf	___fldiv@b+2
  5438  0437  083F               	movf	??___fldiv+1,w
  5439  0438  00BB               	movwf	___fldiv@b+1
  5440  0439  083E               	movf	??___fldiv,w
  5441  043A  00BA               	movwf	___fldiv@b
  5442  043B                     l1808:
  5443  043B  3001               	movlw	1
  5444  043C  07C8               	addwf	___fldiv@new_exp,f
  5445  043D  1803               	skipnc
  5446  043E  0AC9               	incf	___fldiv@new_exp+1,f
  5447  043F  3000               	movlw	0
  5448  0440  07C9               	addwf	___fldiv@new_exp+1,f
  5449  0441                     l1810:
  5450  0441  0849               	movf	___fldiv@new_exp+1,w
  5451  0442  3A80               	xorlw	128
  5452  0443  00FF               	movwf	btemp+1
  5453  0444  3080               	movlw	128
  5454  0445  027F               	subwf	btemp+1,w
  5455  0446  1D03               	skipz
  5456  0447  2C4A               	goto	u2175
  5457  0448  30FF               	movlw	255
  5458  0449  0248               	subwf	___fldiv@new_exp,w
  5459  044A                     u2175:
  5460  044A  1C03               	skipc
  5461  044B  2C4D               	goto	u2171
  5462  044C  2C4E               	goto	u2170
  5463  044D                     u2171:
  5464  044D  2C5C               	goto	l1814
  5465  044E                     u2170:
  5466  044E                     l1812:
  5467  044E  30FF               	movlw	255
  5468  044F  1283               	bcf	3,5	;RP0=0, select bank0
  5469  0450  1303               	bcf	3,6	;RP1=0, select bank0
  5470  0451  00C8               	movwf	___fldiv@new_exp
  5471  0452  3000               	movlw	0
  5472  0453  00C9               	movwf	___fldiv@new_exp+1
  5473  0454  3000               	movlw	0
  5474  0455  00BD               	movwf	___fldiv@b+3
  5475  0456  3000               	movlw	0
  5476  0457  00BC               	movwf	___fldiv@b+2
  5477  0458  3000               	movlw	0
  5478  0459  00BB               	movwf	___fldiv@b+1
  5479  045A  3000               	movlw	0
  5480  045B  00BA               	movwf	___fldiv@b
  5481  045C                     l1814:
  5482  045C  1283               	bcf	3,5	;RP0=0, select bank0
  5483  045D  1303               	bcf	3,6	;RP1=0, select bank0
  5484  045E  0849               	movf	___fldiv@new_exp+1,w
  5485  045F  3A80               	xorlw	128
  5486  0460  00FF               	movwf	btemp+1
  5487  0461  3080               	movlw	128
  5488  0462  027F               	subwf	btemp+1,w
  5489  0463  1D03               	skipz
  5490  0464  2C67               	goto	u2185
  5491  0465  3001               	movlw	1
  5492  0466  0248               	subwf	___fldiv@new_exp,w
  5493  0467                     u2185:
  5494  0467  1803               	skipnc
  5495  0468  2C6A               	goto	u2181
  5496  0469  2C6B               	goto	u2180
  5497  046A                     u2181:
  5498  046A  2C78               	goto	l671
  5499  046B                     u2180:
  5500  046B                     l1816:
  5501  046B  1283               	bcf	3,5	;RP0=0, select bank0
  5502  046C  1303               	bcf	3,6	;RP1=0, select bank0
  5503  046D  01C8               	clrf	___fldiv@new_exp
  5504  046E  01C9               	clrf	___fldiv@new_exp+1
  5505  046F                     l1818:
  5506  046F  3000               	movlw	0
  5507  0470  00BD               	movwf	___fldiv@b+3
  5508  0471  3000               	movlw	0
  5509  0472  00BC               	movwf	___fldiv@b+2
  5510  0473  3000               	movlw	0
  5511  0474  00BB               	movwf	___fldiv@b+1
  5512  0475  3000               	movlw	0
  5513  0476  00BA               	movwf	___fldiv@b
  5514  0477                     l1820:
  5515  0477  01C7               	clrf	___fldiv@sign
  5516  0478                     l671:
  5517  0478  1283               	bcf	3,5	;RP0=0, select bank0
  5518  0479  1303               	bcf	3,6	;RP1=0, select bank0
  5519  047A  0848               	movf	___fldiv@new_exp,w
  5520  047B  00BE               	movwf	??___fldiv
  5521  047C  083E               	movf	??___fldiv,w
  5522  047D  00CE               	movwf	___fldiv@bexp
  5523  047E                     l1822:
  5524  047E  1C4E               	btfss	___fldiv@bexp,0
  5525  047F  2C81               	goto	u2191
  5526  0480  2C82               	goto	u2190
  5527  0481                     u2191:
  5528  0481  2C84               	goto	l1826
  5529  0482                     u2190:
  5530  0482                     l1824:
  5531  0482  17BC               	bsf	___fldiv@b+2,7
  5532  0483  2C88               	goto	l673
  5533  0484                     l1826:
  5534  0484  307F               	movlw	127
  5535  0485  00BE               	movwf	??___fldiv
  5536  0486  083E               	movf	??___fldiv,w
  5537  0487  05BC               	andwf	___fldiv@b+2,f
  5538  0488                     l673:
  5539  0488  084E               	movf	___fldiv@bexp,w
  5540  0489  00BE               	movwf	??___fldiv
  5541  048A  1003               	clrc
  5542  048B  0C3E               	rrf	??___fldiv,w
  5543  048C  00BF               	movwf	??___fldiv+1
  5544  048D  083F               	movf	??___fldiv+1,w
  5545  048E  00BD               	movwf	___fldiv@b+3
  5546  048F  0847               	movf	___fldiv@sign,w
  5547  0490  00BE               	movwf	??___fldiv
  5548  0491  083E               	movf	??___fldiv,w
  5549  0492  04BD               	iorwf	___fldiv@b+3,f
  5550  0493  2B2C               	goto	l1734
  5551  0494                     l651:
  5552  0494  0008               	return
  5553  0495                     __end_of___fldiv:
  5554                           
  5555                           	psect	text23
  5556  0B36                     __ptext23:	
  5557 ;; *************** function _PWM_Max_Duty *****************
  5558 ;; Defined at:
  5559 ;;		line 6 in file "./pwm.h"
  5560 ;; Parameters:    Size  Location     Type
  5561 ;;		None
  5562 ;; Auto vars:     Size  Location     Type
  5563 ;;		None
  5564 ;; Return value:  Size  Location     Type
  5565 ;;                  2    6[BANK0 ] int 
  5566 ;; Registers used:
  5567 ;;		wreg, status,2, status,0, pclath, cstack
  5568 ;; Tracked objects:
  5569 ;;		On entry : 0/0
  5570 ;;		On exit  : 0/0
  5571 ;;		Unchanged: 0/0
  5572 ;; Data sizes:     COMMON   BANK0   BANK1   BANK3   BANK2
  5573 ;;      Params:         0       2       0       0       0
  5574 ;;      Locals:         0       0       0       0       0
  5575 ;;      Temps:          4       0       0       0       0
  5576 ;;      Totals:         4       2       0       0       0
  5577 ;;Total ram usage:        6 bytes
  5578 ;; Hardware stack levels used: 1
  5579 ;; Hardware stack levels required when called: 1
  5580 ;; This function calls:
  5581 ;;		___aldiv
  5582 ;; This function is called by:
  5583 ;;		_PWM1_Duty
  5584 ;;		_PWM2_Duty
  5585 ;; This function uses a non-reentrant model
  5586 ;;
  5587                           
  5588                           
  5589                           ;psect for function _PWM_Max_Duty
  5590  0B36                     _PWM_Max_Duty:
  5591  0B36                     l1600:	
  5592                           ;incstack = 0
  5593                           ; Regs used in _PWM_Max_Duty: [wreg+status,2+status,0+pclath+cstack]
  5594                           
  5595                           
  5596                           ;./pwm.h: 8:   return(8000000/(freq*4));
  5597  0B36  1683               	bsf	3,5	;RP0=1, select bank1
  5598  0B37  1303               	bcf	3,6	;RP1=0, select bank1
  5599  0B38  0838               	movf	_freq^(0+128),w
  5600  0B39  00F9               	movwf	??_PWM_Max_Duty
  5601  0B3A  0839               	movf	(_freq+1)^(0+128),w
  5602  0B3B  00FA               	movwf	??_PWM_Max_Duty+1
  5603  0B3C  083A               	movf	(_freq+2)^(0+128),w
  5604  0B3D  00FB               	movwf	??_PWM_Max_Duty+2
  5605  0B3E  083B               	movf	(_freq+3)^(0+128),w
  5606  0B3F  00FC               	movwf	??_PWM_Max_Duty+3
  5607  0B40  3002               	movlw	2
  5608  0B41                     u1665:
  5609  0B41  1003               	clrc
  5610  0B42  0DF9               	rlf	??_PWM_Max_Duty,f
  5611  0B43  0DFA               	rlf	??_PWM_Max_Duty+1,f
  5612  0B44  0DFB               	rlf	??_PWM_Max_Duty+2,f
  5613  0B45  0DFC               	rlf	??_PWM_Max_Duty+3,f
  5614  0B46                     u1660:
  5615  0B46  3EFF               	addlw	-1
  5616  0B47  1D03               	skipz
  5617  0B48  2B41               	goto	u1665
  5618  0B49  087C               	movf	??_PWM_Max_Duty+3,w
  5619  0B4A  00F3               	movwf	___aldiv@divisor+3
  5620  0B4B  087B               	movf	??_PWM_Max_Duty+2,w
  5621  0B4C  00F2               	movwf	___aldiv@divisor+2
  5622  0B4D  087A               	movf	??_PWM_Max_Duty+1,w
  5623  0B4E  00F1               	movwf	___aldiv@divisor+1
  5624  0B4F  0879               	movf	??_PWM_Max_Duty,w
  5625  0B50  00F0               	movwf	___aldiv@divisor
  5626  0B51  3000               	movlw	0
  5627  0B52  00F7               	movwf	___aldiv@dividend+3
  5628  0B53  307A               	movlw	122
  5629  0B54  00F6               	movwf	___aldiv@dividend+2
  5630  0B55  3012               	movlw	18
  5631  0B56  00F5               	movwf	___aldiv@dividend+1
  5632  0B57  3000               	movlw	0
  5633  0B58  00F4               	movwf	___aldiv@dividend
  5634  0B59  120A  158A  2689  120A  158A  	fcall	___aldiv
  5635  0B5E  0871               	movf	?___aldiv+1,w
  5636  0B5F  1283               	bcf	3,5	;RP0=0, select bank0
  5637  0B60  1303               	bcf	3,6	;RP1=0, select bank0
  5638  0B61  00A7               	movwf	?_PWM_Max_Duty+1
  5639  0B62  0870               	movf	?___aldiv,w
  5640  0B63  00A6               	movwf	?_PWM_Max_Duty
  5641  0B64                     l118:
  5642  0B64  0008               	return
  5643  0B65                     __end_of_PWM_Max_Duty:
  5644                           
  5645                           	psect	text24
  5646  0E89                     __ptext24:	
  5647 ;; *************** function ___aldiv *****************
  5648 ;; Defined at:
  5649 ;;		line 5 in file "C:\Program Files\Microchip\xc8\v2.32\pic\sources\c90\common\aldiv.c"
  5650 ;; Parameters:    Size  Location     Type
  5651 ;;  divisor         4    0[COMMON] long 
  5652 ;;  dividend        4    4[COMMON] long 
  5653 ;; Auto vars:     Size  Location     Type
  5654 ;;  quotient        4    2[BANK0 ] long 
  5655 ;;  sign            1    1[BANK0 ] unsigned char 
  5656 ;;  counter         1    0[BANK0 ] unsigned char 
  5657 ;; Return value:  Size  Location     Type
  5658 ;;                  4    0[COMMON] long 
  5659 ;; Registers used:
  5660 ;;		wreg, status,2, status,0
  5661 ;; Tracked objects:
  5662 ;;		On entry : 0/0
  5663 ;;		On exit  : 0/0
  5664 ;;		Unchanged: 0/0
  5665 ;; Data sizes:     COMMON   BANK0   BANK1   BANK3   BANK2
  5666 ;;      Params:         8       0       0       0       0
  5667 ;;      Locals:         0       6       0       0       0
  5668 ;;      Temps:          1       0       0       0       0
  5669 ;;      Totals:         9       6       0       0       0
  5670 ;;Total ram usage:       15 bytes
  5671 ;; Hardware stack levels used: 1
  5672 ;; This function calls:
  5673 ;;		Nothing
  5674 ;; This function is called by:
  5675 ;;		_UART_Init
  5676 ;;		_PWM_Max_Duty
  5677 ;;		_PWM1_Init_Fre
  5678 ;;		_PWM2_Init_Fre
  5679 ;; This function uses a non-reentrant model
  5680 ;;
  5681                           
  5682                           
  5683                           ;psect for function ___aldiv
  5684  0E89                     ___aldiv:
  5685  0E89                     l1542:	
  5686                           ;incstack = 0
  5687                           ; Regs used in ___aldiv: [wreg+status,2+status,0]
  5688                           
  5689  0E89  1283               	bcf	3,5	;RP0=0, select bank0
  5690  0E8A  1303               	bcf	3,6	;RP1=0, select bank0
  5691  0E8B  01A1               	clrf	___aldiv@sign
  5692  0E8C                     l1544:
  5693  0E8C  1FF3               	btfss	___aldiv@divisor+3,7
  5694  0E8D  2E8F               	goto	u1521
  5695  0E8E  2E90               	goto	u1520
  5696  0E8F                     u1521:
  5697  0E8F  2E9D               	goto	l365
  5698  0E90                     u1520:
  5699  0E90                     l1546:
  5700  0E90  09F0               	comf	___aldiv@divisor,f
  5701  0E91  09F1               	comf	___aldiv@divisor+1,f
  5702  0E92  09F2               	comf	___aldiv@divisor+2,f
  5703  0E93  09F3               	comf	___aldiv@divisor+3,f
  5704  0E94  0AF0               	incf	___aldiv@divisor,f
  5705  0E95  1903               	skipnz
  5706  0E96  0AF1               	incf	___aldiv@divisor+1,f
  5707  0E97  1903               	skipnz
  5708  0E98  0AF2               	incf	___aldiv@divisor+2,f
  5709  0E99  1903               	skipnz
  5710  0E9A  0AF3               	incf	___aldiv@divisor+3,f
  5711  0E9B  01A1               	clrf	___aldiv@sign
  5712  0E9C  0AA1               	incf	___aldiv@sign,f
  5713  0E9D                     l365:
  5714  0E9D  1FF7               	btfss	___aldiv@dividend+3,7
  5715  0E9E  2EA0               	goto	u1531
  5716  0E9F  2EA1               	goto	u1530
  5717  0EA0                     u1531:
  5718  0EA0  2EB0               	goto	l1552
  5719  0EA1                     u1530:
  5720  0EA1                     l1548:
  5721  0EA1  09F4               	comf	___aldiv@dividend,f
  5722  0EA2  09F5               	comf	___aldiv@dividend+1,f
  5723  0EA3  09F6               	comf	___aldiv@dividend+2,f
  5724  0EA4  09F7               	comf	___aldiv@dividend+3,f
  5725  0EA5  0AF4               	incf	___aldiv@dividend,f
  5726  0EA6  1903               	skipnz
  5727  0EA7  0AF5               	incf	___aldiv@dividend+1,f
  5728  0EA8  1903               	skipnz
  5729  0EA9  0AF6               	incf	___aldiv@dividend+2,f
  5730  0EAA  1903               	skipnz
  5731  0EAB  0AF7               	incf	___aldiv@dividend+3,f
  5732  0EAC                     l1550:
  5733  0EAC  3001               	movlw	1
  5734  0EAD  00F8               	movwf	??___aldiv
  5735  0EAE  0878               	movf	??___aldiv,w
  5736  0EAF  06A1               	xorwf	___aldiv@sign,f
  5737  0EB0                     l1552:
  5738  0EB0  3000               	movlw	0
  5739  0EB1  00A5               	movwf	___aldiv@quotient+3
  5740  0EB2  3000               	movlw	0
  5741  0EB3  00A4               	movwf	___aldiv@quotient+2
  5742  0EB4  3000               	movlw	0
  5743  0EB5  00A3               	movwf	___aldiv@quotient+1
  5744  0EB6  3000               	movlw	0
  5745  0EB7  00A2               	movwf	___aldiv@quotient
  5746  0EB8                     l1554:
  5747  0EB8  0873               	movf	___aldiv@divisor+3,w
  5748  0EB9  0472               	iorwf	___aldiv@divisor+2,w
  5749  0EBA  0471               	iorwf	___aldiv@divisor+1,w
  5750  0EBB  0470               	iorwf	___aldiv@divisor,w
  5751  0EBC  1903               	skipnz
  5752  0EBD  2EBF               	goto	u1541
  5753  0EBE  2EC0               	goto	u1540
  5754  0EBF                     u1541:
  5755  0EBF  2F0D               	goto	l1574
  5756  0EC0                     u1540:
  5757  0EC0                     l1556:
  5758  0EC0  01A0               	clrf	___aldiv@counter
  5759  0EC1  0AA0               	incf	___aldiv@counter,f
  5760  0EC2  2ED0               	goto	l1560
  5761  0EC3                     l1558:
  5762  0EC3  3001               	movlw	1
  5763  0EC4  00F8               	movwf	??___aldiv
  5764  0EC5                     u1555:
  5765  0EC5  1003               	clrc
  5766  0EC6  0DF0               	rlf	___aldiv@divisor,f
  5767  0EC7  0DF1               	rlf	___aldiv@divisor+1,f
  5768  0EC8  0DF2               	rlf	___aldiv@divisor+2,f
  5769  0EC9  0DF3               	rlf	___aldiv@divisor+3,f
  5770  0ECA  0BF8               	decfsz	??___aldiv,f
  5771  0ECB  2EC5               	goto	u1555
  5772  0ECC  3001               	movlw	1
  5773  0ECD  00F8               	movwf	??___aldiv
  5774  0ECE  0878               	movf	??___aldiv,w
  5775  0ECF  07A0               	addwf	___aldiv@counter,f
  5776  0ED0                     l1560:
  5777  0ED0  1FF3               	btfss	___aldiv@divisor+3,7
  5778  0ED1  2ED3               	goto	u1561
  5779  0ED2  2ED4               	goto	u1560
  5780  0ED3                     u1561:
  5781  0ED3  2EC3               	goto	l1558
  5782  0ED4                     u1560:
  5783  0ED4                     l1562:
  5784  0ED4  3001               	movlw	1
  5785  0ED5  00F8               	movwf	??___aldiv
  5786  0ED6                     u1575:
  5787  0ED6  1003               	clrc
  5788  0ED7  0DA2               	rlf	___aldiv@quotient,f
  5789  0ED8  0DA3               	rlf	___aldiv@quotient+1,f
  5790  0ED9  0DA4               	rlf	___aldiv@quotient+2,f
  5791  0EDA  0DA5               	rlf	___aldiv@quotient+3,f
  5792  0EDB  0BF8               	decfsz	??___aldiv,f
  5793  0EDC  2ED6               	goto	u1575
  5794  0EDD                     l1564:
  5795  0EDD  0873               	movf	___aldiv@divisor+3,w
  5796  0EDE  0277               	subwf	___aldiv@dividend+3,w
  5797  0EDF  1D03               	skipz
  5798  0EE0  2EEB               	goto	u1585
  5799  0EE1  0872               	movf	___aldiv@divisor+2,w
  5800  0EE2  0276               	subwf	___aldiv@dividend+2,w
  5801  0EE3  1D03               	skipz
  5802  0EE4  2EEB               	goto	u1585
  5803  0EE5  0871               	movf	___aldiv@divisor+1,w
  5804  0EE6  0275               	subwf	___aldiv@dividend+1,w
  5805  0EE7  1D03               	skipz
  5806  0EE8  2EEB               	goto	u1585
  5807  0EE9  0870               	movf	___aldiv@divisor,w
  5808  0EEA  0274               	subwf	___aldiv@dividend,w
  5809  0EEB                     u1585:
  5810  0EEB  1C03               	skipc
  5811  0EEC  2EEE               	goto	u1581
  5812  0EED  2EEF               	goto	u1580
  5813  0EEE                     u1581:
  5814  0EEE  2EFE               	goto	l1570
  5815  0EEF                     u1580:
  5816  0EEF                     l1566:
  5817  0EEF  0870               	movf	___aldiv@divisor,w
  5818  0EF0  02F4               	subwf	___aldiv@dividend,f
  5819  0EF1  0871               	movf	___aldiv@divisor+1,w
  5820  0EF2  1C03               	skipc
  5821  0EF3  0F71               	incfsz	___aldiv@divisor+1,w
  5822  0EF4  02F5               	subwf	___aldiv@dividend+1,f
  5823  0EF5  0872               	movf	___aldiv@divisor+2,w
  5824  0EF6  1C03               	skipc
  5825  0EF7  0F72               	incfsz	___aldiv@divisor+2,w
  5826  0EF8  02F6               	subwf	___aldiv@dividend+2,f
  5827  0EF9  0873               	movf	___aldiv@divisor+3,w
  5828  0EFA  1C03               	skipc
  5829  0EFB  0F73               	incfsz	___aldiv@divisor+3,w
  5830  0EFC  02F7               	subwf	___aldiv@dividend+3,f
  5831  0EFD                     l1568:
  5832  0EFD  1422               	bsf	___aldiv@quotient,0
  5833  0EFE                     l1570:
  5834  0EFE  3001               	movlw	1
  5835  0EFF                     u1595:
  5836  0EFF  1003               	clrc
  5837  0F00  0CF3               	rrf	___aldiv@divisor+3,f
  5838  0F01  0CF2               	rrf	___aldiv@divisor+2,f
  5839  0F02  0CF1               	rrf	___aldiv@divisor+1,f
  5840  0F03  0CF0               	rrf	___aldiv@divisor,f
  5841  0F04  3EFF               	addlw	-1
  5842  0F05  1D03               	skipz
  5843  0F06  2EFF               	goto	u1595
  5844  0F07                     l1572:
  5845  0F07  3001               	movlw	1
  5846  0F08  02A0               	subwf	___aldiv@counter,f
  5847  0F09  1D03               	btfss	3,2
  5848  0F0A  2F0C               	goto	u1601
  5849  0F0B  2F0D               	goto	u1600
  5850  0F0C                     u1601:
  5851  0F0C  2ED4               	goto	l1562
  5852  0F0D                     u1600:
  5853  0F0D                     l1574:
  5854  0F0D  0821               	movf	___aldiv@sign,w
  5855  0F0E  1903               	btfsc	3,2
  5856  0F0F  2F11               	goto	u1611
  5857  0F10  2F12               	goto	u1610
  5858  0F11                     u1611:
  5859  0F11  2F1D               	goto	l1578
  5860  0F12                     u1610:
  5861  0F12                     l1576:
  5862  0F12  09A2               	comf	___aldiv@quotient,f
  5863  0F13  09A3               	comf	___aldiv@quotient+1,f
  5864  0F14  09A4               	comf	___aldiv@quotient+2,f
  5865  0F15  09A5               	comf	___aldiv@quotient+3,f
  5866  0F16  0AA2               	incf	___aldiv@quotient,f
  5867  0F17  1903               	skipnz
  5868  0F18  0AA3               	incf	___aldiv@quotient+1,f
  5869  0F19  1903               	skipnz
  5870  0F1A  0AA4               	incf	___aldiv@quotient+2,f
  5871  0F1B  1903               	skipnz
  5872  0F1C  0AA5               	incf	___aldiv@quotient+3,f
  5873  0F1D                     l1578:
  5874  0F1D  0825               	movf	___aldiv@quotient+3,w
  5875  0F1E  00F3               	movwf	?___aldiv+3
  5876  0F1F  0824               	movf	___aldiv@quotient+2,w
  5877  0F20  00F2               	movwf	?___aldiv+2
  5878  0F21  0823               	movf	___aldiv@quotient+1,w
  5879  0F22  00F1               	movwf	?___aldiv+1
  5880  0F23  0822               	movf	___aldiv@quotient,w
  5881  0F24  00F0               	movwf	?___aldiv
  5882  0F25                     l375:
  5883  0F25  0008               	return
  5884  0F26                     __end_of___aldiv:
  5885  007E                     btemp	set	126	;btemp
  5886  007E                     wtemp0	set	126
  5887                           
  5888                           	psect	config
  5889                           
  5890                           ;Config register CONFIG @ 0x2007
  5891                           ;	Oscillator Selection bits
  5892                           ;	FOSC = XT, XT oscillator
  5893                           ;	Watchdog Timer Enable bit
  5894                           ;	WDTE = OFF, WDT disabled
  5895                           ;	Power-up Timer Enable bit
  5896                           ;	PWRTE = OFF, PWRT disabled
  5897                           ;	Brown-out Reset Enable bit
  5898                           ;	BOREN = OFF, BOR disabled
  5899                           ;	Low-Voltage (Single-Supply) In-Circuit Serial Programming Enable bit
  5900                           ;	LVP = OFF, RB3 is digital I/O, HV on MCLR must be used for programming
  5901                           ;	Data EEPROM Memory Code Protection bit
  5902                           ;	CPD = OFF, Data EEPROM code protection off
  5903                           ;	Flash Program Memory Write Enable bits
  5904                           ;	WRT = OFF, Write protection off; all program memory may be written to by EECON control
  5905                           ;	In-Circuit Debugger Mode bit
  5906                           ;	DEBUG = 0x1, unprogrammed default
  5907                           ;	Flash Program Memory Code Protection bit
  5908                           ;	CP = OFF, Code protection off
  5909  2007                     	org	8199
  5910  2007  3F39               	dw	16185

Data Sizes:
    Strings     15
    Constant    10
    Data        0
    BSS         4
    Persistent  0
    Stack       0

Auto Spaces:
    Space          Size  Autos    Used
    COMMON           14     14      14
    BANK0            80     80      80
    BANK1            80     24      28
    BANK3            96      0       0
    BANK2            96      0       0

Pointer List with Targets:

    sprintf@f	PTR const unsigned char  size(1) Largest target is 4
		 -> STR_1(CODE[4]), 

    sprintf@sp	PTR unsigned char  size(1) Largest target is 10
		 -> main@out(BANK1[10]), 

    sprintf@ap	PTR void [1] size(1) Largest target is 2
		 -> ?_sprintf(BANK0[2]), 

    UART_Write_Text@text	PTR unsigned char  size(2) Largest target is 10
		 -> STR_3(CODE[3]), STR_2(CODE[8]), main@out(BANK1[10]), 


Critical Paths under _main in COMMON

    _sprintf->___lwmod
    ___lwmod->___lwdiv
    _UART_Write_Text->_UART_Write
    _UART_Init->___aldiv
    _PWM2_Init_Fre->___aldiv
    _PWM2_Duty->_PWM_Max_Duty
    _PWM1_Init_Fre->___aldiv
    _PWM1_Duty->_PWM_Max_Duty
    ___xxtofl->_PWM_Max_Duty
    ___fltol->_PWM_Max_Duty
    ___flmul->_PWM_Max_Duty
    _PWM_Max_Duty->___aldiv

Critical Paths under _main in BANK0

    _UART_Init->___aldiv
    _PWM2_Init_Fre->___aldiv
    _PWM2_Duty->___fltol
    _PWM1_Init_Fre->___aldiv
    _PWM1_Duty->___fltol
    ___xxtofl->_PWM_Max_Duty
    ___fltol->___flmul
    ___flmul->___fldiv
    ___fldiv->___xxtofl
    _PWM_Max_Duty->___aldiv

Critical Paths under _main in BANK1

    _main->_PWM1_Duty
    _main->_PWM2_Duty
    _PWM2_Duty->___fltol
    _PWM1_Duty->___fltol

Critical Paths under _main in BANK3

    None.

Critical Paths under _main in BANK2

    None.

Call Graph Tables:

 ---------------------------------------------------------------------------------
 (Depth) Function   	        Calls       Base Space   Used Autos Params    Refs
 ---------------------------------------------------------------------------------
 (0) _main                                                15    15      0   18026
                                              9 BANK1     15    15      0
                          _PWM1_Duty
                      _PWM1_Init_Fre
                         _PWM1_Start
                          _PWM2_Duty
                      _PWM2_Init_Fre
                         _PWM2_Start
                          _UART_Init
                    _UART_Write_Text
                       _spiDataReady
                            _spiInit
                            _spiRead
                           _spiWrite
                            _sprintf
 ---------------------------------------------------------------------------------
 (1) _sprintf                                             21    18      3    1211
                                              0 BANK0     13    10      3
                            ___lwdiv
                            ___lwmod
 ---------------------------------------------------------------------------------
 (2) ___lwmod                                              6     2      4     311
                                              8 COMMON     6     2      4
                            ___lwdiv (ARG)
 ---------------------------------------------------------------------------------
 (2) ___lwdiv                                              8     4      4     314
                                              0 COMMON     8     4      4
 ---------------------------------------------------------------------------------
 (1) _spiWrite                                             1     1      0      22
                                              0 COMMON     1     1      0
 ---------------------------------------------------------------------------------
 (1) _spiRead                                              0     0      0       0
                     _spiReceiveWait
 ---------------------------------------------------------------------------------
 (2) _spiReceiveWait                                       0     0      0       0
 ---------------------------------------------------------------------------------
 (1) _spiInit                                              4     1      3     360
                                              0 COMMON     4     1      3
 ---------------------------------------------------------------------------------
 (1) _spiDataReady                                         2     0      2       0
                                              0 COMMON     2     0      2
 ---------------------------------------------------------------------------------
 (1) _UART_Write_Text                                      7     5      2     340
                                              1 COMMON     7     5      2
                         _UART_Write
 ---------------------------------------------------------------------------------
 (2) _UART_Write                                           1     1      0      22
                                              0 COMMON     1     1      0
 ---------------------------------------------------------------------------------
 (1) _UART_Init                                           18    14      4    1292
                                              9 COMMON     2     2      0
                                              6 BANK0     16    12      4
                            ___aldiv
 ---------------------------------------------------------------------------------
 (1) _PWM2_Start                                           0     0      0       0
 ---------------------------------------------------------------------------------
 (1) _PWM2_Init_Fre                                        8     4      4    1158
                                              9 COMMON     4     4      0
                                              6 BANK0      4     0      4
                            ___aldiv
 ---------------------------------------------------------------------------------
 (1) _PWM2_Duty                                            4     2      2    6204
                                              5 BANK1      4     2      2
                       _PWM_Max_Duty
                            ___fldiv
                            ___flmul
                            ___fltol
                           ___xxtofl
 ---------------------------------------------------------------------------------
 (1) _PWM1_Start                                           0     0      0       0
 ---------------------------------------------------------------------------------
 (1) _PWM1_Init_Fre                                        8     4      4    1158
                                              9 COMMON     4     4      0
                                              6 BANK0      4     0      4
                            ___aldiv
 ---------------------------------------------------------------------------------
 (1) _PWM1_Duty                                            4     2      2    6204
                                              5 BANK1      4     2      2
                       _PWM_Max_Duty
                            ___fldiv
                            ___flmul
                            ___fltol
                           ___xxtofl
 ---------------------------------------------------------------------------------
 (2) ___xxtofl                                            14    10      4     626
                                              8 BANK0     14    10      4
                       _PWM_Max_Duty (ARG)
 ---------------------------------------------------------------------------------
 (2) ___fltol                                             11     7      4     381
                                             74 BANK0      6     2      4
                                              0 BANK1      5     5      0
                       _PWM_Max_Duty (ARG)
                            ___fldiv (ARG)
                            ___flmul (ARG)
                           ___xxtofl (ARG)
 ---------------------------------------------------------------------------------
 (2) ___flmul                                             26    18      8    2569
                                             48 BANK0     26    18      8
                       _PWM_Max_Duty (ARG)
                          __Umul8_16
                            ___fldiv (ARG)
                           ___xxtofl (ARG)
 ---------------------------------------------------------------------------------
 (3) __Umul8_16                                            9     7      2     799
                                              0 COMMON     9     7      2
 ---------------------------------------------------------------------------------
 (2) ___fldiv                                             26    18      8    1425
                                             22 BANK0     26    18      8
                           ___xxtofl (ARG)
 ---------------------------------------------------------------------------------
 (2) _PWM_Max_Duty                                         6     4      2    1060
                                              9 COMMON     4     4      0
                                              6 BANK0      2     0      2
                            ___aldiv
 ---------------------------------------------------------------------------------
 (2) ___aldiv                                             15     7      8    1060
                                              0 COMMON     9     1      8
                                              0 BANK0      6     6      0
 ---------------------------------------------------------------------------------
 Estimated maximum stack depth 3
 ---------------------------------------------------------------------------------

 Call Graph Graphs:

 _main (ROOT)
   _PWM1_Duty
     _PWM_Max_Duty
       ___aldiv
     ___fldiv
       ___xxtofl (ARG)
         _PWM_Max_Duty (ARG)
     ___flmul
       _PWM_Max_Duty (ARG)
       __Umul8_16 (ARG)
       ___fldiv (ARG)
       ___xxtofl (ARG)
     ___fltol
       _PWM_Max_Duty (ARG)
       ___fldiv (ARG)
       ___flmul (ARG)
       ___xxtofl (ARG)
     ___xxtofl
   _PWM1_Init_Fre
     ___aldiv
   _PWM1_Start
   _PWM2_Duty
     _PWM_Max_Duty
     ___fldiv
     ___flmul
     ___fltol
     ___xxtofl
   _PWM2_Init_Fre
     ___aldiv
   _PWM2_Start
   _UART_Init
     ___aldiv
   _UART_Write_Text
     _UART_Write
   _spiDataReady
   _spiInit
   _spiRead
     _spiReceiveWait
   _spiWrite
   _sprintf
     ___lwdiv
     ___lwmod
       ___lwdiv (ARG)

 Address spaces:
Name               Size   Autos  Total    Cost      Usage
BITCOMMON            E      0       0       0        0.0%
EEDATA             100      0       0       0        0.0%
NULL                 0      0       0       0        0.0%
CODE                 0      0       0       0        0.0%
COMMON               E      E       E       1      100.0%
BITSFR0              0      0       0       1        0.0%
SFR0                 0      0       0       1        0.0%
BITSFR1              0      0       0       2        0.0%
SFR1                 0      0       0       2        0.0%
STACK                0      0       0       2        0.0%
ABS                  0      0      7A       3        0.0%
BITBANK0            50      0       0       4        0.0%
BITSFR3              0      0       0       4        0.0%
SFR3                 0      0       0       4        0.0%
BANK0               50     50      50       5      100.0%
BITSFR2              0      0       0       5        0.0%
SFR2                 0      0       0       5        0.0%
BITBANK1            50      0       0       6        0.0%
BANK1               50     18      1C       7       35.0%
BITBANK3            60      0       0       8        0.0%
BANK3               60      0       0       9        0.0%
BITBANK2            60      0       0      10        0.0%
BANK2               60      0       0      11        0.0%
DATA                 0      0      7A      12        0.0%


Microchip Technology PIC Macro Assembler V2.32 build 20210201212658 
Symbol Table                                                                                   Sat Nov 27 21:56:00 2021

            ___fldiv@aexp 004F              ___fldiv@bexp 004E                         pc 0002  
            ___fldiv@sign 0047               _SSPSTATbits 0094                        l83 0FFF  
                      fsr 0004       __Umul8_16@word_mpld 0076                       l104 0AF6  
                     l121 0C73                       l113 0BE0                       l130 0DEC  
                     l107 0B00                       l124 0CC2                       l133 0AE9  
                     l118 0B64                       l127 0D57                       l136 0AF4  
                     l172 0003                       l182 0B0E                       l175 0009  
                     l168 001A                       l169 001F                       l186 0ADE  
                     l178 0AD5                       l365 0E9D                       l701 07E9  
                     l710 0B35                       l375 0F25                       l296 01C3  
                     l651 0494                       l708 0B23                       l572 0C24  
                     l493 0E73                       l733 0044                       l486 0E88  
                     l582 0B9E                       l671 0478                       l735 00DB  
                     l496 0E88                       l673 0488                       l665 0406  
                     l649 0314                       l746 00A5                       l747 00B1  
                     l739 0089                       l695 0761                       l689 07F5  
                     _GIE 005F                       _RD0 0040                       _PR2 0092  
                     fsr0 0004                       indf 0000              ___flmul@aexp 0062  
            ___flmul@bexp 0063              ___flmul@sign 005D              ___flmul@temp 0068  
            ___flmul@prod 0064              ___fltol@exp1 006F                      l2000 009F  
                    l2010 00D2                      l2002 00A9                      l2012 00D3  
                    l2004 00B3                      l2020 0F88                      l2100 0AD6  
                    l2006 00C9                      l2030 0FF2                      l2022 0FE1  
                    l2102 0ADB                      l2110 00EA                      l2008 00CE  
                    l2032 0FF5                      l2024 0FE4                      l2016 0F26  
                    l2120 0114                      l2112 00F1                      l2200 020F  
                    l2050 0C25                      l2034 0FF8                      l2026 0FED  
                    l2018 0F7F                      l2042 0B9F                      l2130 012D  
                    l2122 011C                      l2114 00F6                      l2106 00DF  
                    l2210 023A                      l2202 021A                      l2060 0D38  
                    l2052 0C5B                      l2036 0FF9                      l2028 0FF1  
                    l2044 0BA2                      l2140 014B                      l2124 0120  
                    l2108 00E4                      l2220 0272                      l2212 0247  
                    l2204 0225                      l2062 0D3B                      l2070 0DD0  
                    l2054 0C74                      l2038 0FFC                      l2046 0BBE  
                    l2150 016B                      l2142 0155                      l2126 0124  
                    l2118 00F7                      l2222 027B                      l2230 02A6  
                    l2214 025F                      l2206 022A                      l1600 0B36  
                    l2064 0D47                      l2072 0DDC                      l2056 0CAA  
                    l2048 0BC4                      l2080 0012                      l2152 0199  
                    l2144 015B                      l2136 012F                      l2128 0128  
                    l2160 01BF                      l2232 02A9                      l2224 0284  
                    l2216 0269                      l2208 022F                      l2058 0CC3  
                    l2074 0ADF                      l2066 0D58                      l2090 0B07  
                    l2082 0014                      l2154 01A0                      l2146 0162  
                    l2226 028F                      l2218 026C                      l2234 02AA  
                    l2170 01C4                      l1700 02CF                      l1620 0E37  
                    l1612 0E07                      l2068 0DCD                      l2076 0AEA  
                    l2084 0016                      l1604 0003                      l2156 01A4  
                    l2148 0166                      l2228 0298                      l2180 01D0  
                    l2172 01CA                      l1550 0EAC                      l1542 0E89  
                    l1710 02E7                      l1702 02D4                      l1622 0E3B  
                    l1630 0E59                      l1614 0E2C                      l1606 0DED  
                    l2086 0019                      l2078 000B                      l2158 01AD  
                    l2190 01FA                      l2182 01D2                      l2174 01CB  
                    l1560 0ED0                      l1552 0EB0                      l1544 0E8C  
                    l1800 040B                      l1720 02FC                      l1712 02EC  
                    l1704 02DC                      l1640 0E7D                      l1616 0E2D  
                    l1608 0DFE                      l2096 0B0C                      l2088 0B01  
                    l2168 0AD1                      l2256 0109                      l2192 0209  
                    l2184 01D3                      l2176 01CC                      l1570 0EFE  
                    l1562 0ED4                      l1554 0EB8                      l1546 0E90  
                    l1802 0410                      l1810 0441                      l1730 031C  
                    l1722 0301                      l1714 02F2                      l1706 02DD  
                    l1618 0E35                      l1650 0BF3                      l1642 0BE1  
                    l2194 020C                      l2186 01E2                      l2178 01CD  
                    l1572 0F07                      l1564 0EDD                      l1556 0EC0  
                    l1548 0EA1                      l1820 0477                      l1812 044E  
                    l1804 041E                      l1740 033A                      l1732 0328  
                    l1724 0309                      l1716 02F6                      l1708 02DF  
                    l1900 061F                      l1636 0E60                      l1628 0E43  
                    l1660 0C13                      l1652 0BF7                      l1644 0BE3  
                    l2196 020D                      l2188 01EB                      l1566 0EEF  
                    l1558 0EC3                      l1574 0F0D                      l1822 047E  
                    l1814 045C                      l1806 0422                      l1750 0365  
                    l1734 032C                      l1726 030A                      l1718 02F7  
                    l1590 0B2C                      l1582 0B10                      l1910 06BF  
                    l1902 0638                      l1638 0E78                      l1662 0C1A  
                    l1654 0BFB                      l1646 0BE9                      l1670 0B6B  
                    l2198 020E                      l1576 0F12                      l1568 0EFD  
                    l1824 0482                      l1816 046B                      l1808 043B  
                    l1760 038A                      l1752 036D                      l1744 0343  
                    l1728 030C                      l1592 0B31                      l1584 0B12  
                    l1920 072D                      l1912 06E5                      l1904 0655  
                    l1840 04A7                      l1832 0495                      l1656 0C0C  
                    l1648 0BEC                      l1664 0C20                      l1680 0B87  
                    l1672 0B6E                      l1578 0F1D                      l1826 0484  
                    l1818 046F                      l1770 03B5                      l1762 038B  
                    l1754 036F                      l1746 0355                      l1738 0335  
                    l1690 02B8                      l1586 0B19                      l1930 0745  
                    l1922 0731                      l1914 070D                      l1906 0682  
                    l1850 04C3                      l1842 04AC                      l1834 049C  
                    l1658 0C12                      l1682 0B8D                      l1674 0B75  
                    l1780 03D2                      l1756 0374                      l1764 0394  
                    l1772 03B9                      l1748 035D                      l1692 02BF  
                    l1588 0B1D                      l1940 0766                      l1932 0746  
                    l1924 0732                      l1916 0716                      l1908 0692  
                    l1860 04D8                      l1852 04C8                      l1844 04B1  
                    l1836 04A2                      l1596 0AF6                      l1684 0B94  
                    l1676 0B79                      l1668 0B65                      l1790 03EA  
                    l1782 03D6                      l1774 03BF                      l1766 03A6  
                    l1758 0386                      l1694 02C5                      l1942 076B  
                    l1950 079C                      l1934 074A                      l1926 073B  
                    l1918 0724                      l1870 04F4                      l1862 04DD  
                    l1854 04CE                      l1846 04B9                      l1838 04A6  
                    l1598 0AFC                      l1678 0B7D                      l1686 0B9A  
                    l1792 03EB                      l1784 03D7                      l1776 03C7  
                    l1768 03A7                      l1696 02C9                      l1960 07CF  
                    l1952 07A9                      l1944 0779                      l1936 075E  
                    l1928 0741                      l1880 051F                      l1872 04F9  
                    l1864 04E5                      l1856 04D2                      l1848 04BB  
                    l1794 03EF                      l1786 03E0                      l1778 03C9  
                    l1698 02CA                      l1962 07DD                      l1954 07B4  
                    l1946 077D                      l1890 05BC                      l1882 053C  
                    l1866 04E7                      l1858 04D3                      l1796 0403  
                    l1788 03E6                      l1964 07E1                      l1956 07C3  
                    l1948 0796                      l1892 05C5                      l1884 0558  
                    l1876 0502                      l1868 04EF                      l1980 004C  
                    l1972 0023                      l1966 07E2                      l1958 07CD  
                    l1894 05D5                      l1886 0584                      l1878 0512  
                    l1990 006E                      l1974 0028                      l1968 07ED  
                    l1896 05F2                      l1888 05A0                      l1992 0072  
                    l1984 0055                      l1976 002C                      l1898 0602  
                    l1994 0080                      l1986 005A                      l1978 003C  
                    l1996 0090                      l1988 0067                      l1998 009B  
                    STR_1 0822                      STR_2 081A                      STR_3 0826  
                    _BRGH 04C2                      _CREN 00C4                      u2100 03EA  
                    u2020 038A                      u2101 03E9                      u2021 0389  
                    u2005 0376                      u2110 03EF                      u2111 03EE  
                    u2015 037F                      u2120 0403                      u2040 03A6  
                    u2200 04A6                      u3000 0269                      u2121 0402  
                    u2041 03A5                      u2201 04A5                      u3001 0268  
                    u2130 040A                      u2050 03BF                      u2210 04AC  
                    u2131 0409                      u2051 03BE                      u2035 038D  
                    u2211 04AB                      u2140 0410                      u2060 03C7  
                    u2220 04B1                      u2141 040F                      u2061 03C6  
                    u2045 03A2                      u2301 0592                      u2221 04B0  
                    u2150 0422                      u2302 0599                      u2230 04D2  
                    u2151 0421                      u2311 05AE                      u2303 05A0  
                    u2231 04D1                      u1600 0F0D                      u1520 0E90  
                    u2160 0431                      u2080 03D6                      u2312 05B5  
                    u2240 04D8                      u1601 0F0C                      u1521 0E8F  
                    u2081 03D5                      u2401 06D7                      u2313 05BC  
                    u2241 04D7                      u3017 028A                      u1610 0F12  
                    u1530 0EA1                      u2170 044E                      u2410 06F3  
                    u2402 06DE                      u2250 04DD                      u1611 0F11  
                    u1531 0EA0                      u2171 044D                      u2075 03CB  
                    u2403 06E5                      u2331 05E4                      u2251 04DC  
                    u3027 02A0                      u1540 0EC0                      u2180 046B  
                    u1620 0B1D                      u2500 0765                      u2332 05EB  
                    u2260 04F4                      u1700 0E3B                      u1541 0EBF  
                    u2181 046A                      u2165 042C                      u1621 0B1C  
                    u2501 0764                      u2421 06FF                      u2341 0611  
                    u2333 05F2                      u2325 05BE                      u2261 04F3  
                    u1701 0E3A                      u3037 02B0                      u2190 0482  
                    u2510 076B                      u2422 0706                      u2342 0618  
                    u2270 04F9                      u1710 0E42                      u2191 0481  
                    u2175 044A                      u2095 03D9                      u2511 076A  
                    u2423 070D                      u2415 06EE                      u2343 061F  
                    u2271 04F8                      u1711 0E41                      u1560 0ED4  
                    u1640 0B31                      u2520 077D                      u1800 0BFB  
                    u1561 0ED3                      u2185 0467                      u1641 0B30  
                    u2521 077C                      u2361 0647                      u2281 054A  
                    u1801 0BFA                      u2530 078C                      u2450 0731  
                    u2362 064E                      u2282 0551                      u1730 0E58  
                    u2610 006D                      u1650 0AFC                      u1555 0EC5  
                    u1635 0B24                      u2451 0730                      u2435 070F  
                    u2371 0674                      u2363 0655                      u2355 0621  
                    u2291 0566                      u2283 0558                      u1731 0E57  
                    u2611 006C                      u1651 0AFB                      u1580 0EEF  
                    u1660 0B46                      u2540 07A9                      u2372 067B  
                    u2292 056D                      u1740 0E5F                      u2700 00D2  
                    u1820 0C0C                      u1900 0B9A                      u1581 0EEE  
                    u2541 07A8                      u2445 0726                      u2381 06A1  
                    u2373 0682                      u2293 0574                      u1741 0E5E  
                    u1725 0E44                      u2701 00D1                      u2605 005F  
                    u1821 0C0B                      u1901 0B99                      u1910 02C9  
                    u2550 07C3                      u2470 0745                      u2390 06CB  
                    u2382 06A8                      u2630 008F                      u2710 0F36  
                    u1670 0009                      u1575 0ED6                      u1911 02C8  
                    u2551 07C2                      u2535 0787                      u2471 0744  
                    u2383 06AF                      u2631 008E                      u1671 0008  
                    u1815 0BFC                      u1920 02CF                      u2560 07E1  
                    u2480 074A                      u1760 0E78                      u1680 0DFE  
                    u2720 0F4F                      u2800 0BCE                      u1840 0C20  
                    u1585 0EEB                      u1665 0B41                      u1921 02CE  
                    u2561 07E0                      u2545 07A5                      u2481 0749  
                    u2465 0734                      u1761 0E77                      u1681 0DFD  
                    u2625 0081                      u1841 0C1F                      u1825 0C08  
                    u1930 02D4                      u2490 075E                      u1770 0E7D  
                    u1690 0E23                      u2650 009F                      u2570 0028  
                    u2810 0BE0                      u1850 0B6B                      u1595 0EFF  
                    u1931 02D3                      u2555 07BF                      u2491 075D  
                    u2395 06C6                      u1771 0E7C                      u1755 0E64  
                    u2651 009E                      u2571 0027                      u2731 0F61  
                    u2715 0F31                      u2811 0BDF                      u1835 0C14  
                    u1851 0B6A                      u1940 02F6                      u2660 00A5  
                    u2580 002C                      u2820 0C35                      u2740 0F88  
                    u2732 0F62                      u2900 0012                      u1780 0BE9  
                    u1941 02F5                      u2661 00A4                      u2645 0094  
                    u2581 002B                      u2741 0F87                      u2733 0F67  
                    u2725 0F4A                      u2901 0011                      u1781 0BE8  
                    u1950 02FC                      u2670 00A9                      u2590 004C  
                    u2830 0C3E                      u2750 0F98                      u2734 0F68  
                    u2910 0B07                      u1870 0B7D                      u1951 02FB  
                    u1695 0E1E                      u2671 00A8                      u2591 004B  
                    u2735 0F6D                      u2911 0B06                      u1871 0B7C  
                    u1960 0301                      u2680 00BE                      u2840 0C84  
                    u2760 0FB1                      u2736 0F6E                      u1880 0B87  
                    u2920 00EA                      u1961 0300                      u2825 0C30  
                    u1881 0B86                      u1865 0B6F                      u2921 00E9  
                    u1970 031C                      u2690 00CE                      u2850 0C8D  
                    u2930 0124                      u1971 031B                      u2691 00CD  
                    u2835 0C39                      u2771 0FC3                      u2755 0F93  
                    u1795 0BED                      u2931 0123                      _PEIE 005E  
                    u1980 033A                      u2860 0D44                      u2780 0FED  
                    u2772 0FC4                      u2940 014A                      u1981 0339  
                    u2685 00B9                      u2861 0D40                      u2845 0C7F  
                    u2781 0FEC                      u2773 0FC9                      u2765 0FAC  
                    u1885 0B83                      u2941 0149                      u1990 0374  
                    u2774 0FCA                      u2790 0BAC                      u2950 0155  
                    u1991 0373                      u2855 0C88                      u2775 0FCF  
                    u1895 0B8E                      u2951 0154                      u2880 0DD9  
                    u2776 0FD0                      u2960 015B                      u2881 0DD5  
                    u2961 015A                      u2945 0146                      u2874 0D47  
                    u2970 01AD                      u2971 01AC                      u2980 01BF  
                    _RCIF 0065                      u2981 01BE                      u2894 0DDC  
                    u2990 023A                      u2991 0239              _PWM_Max_Duty 0B36  
                    _SPEN 00C7                      _TRMT 04C1                      _TXEN 04C5  
                    _SYNC 04C4                      _main 01C4                      _freq 00B8  
                    btemp 007E                      start 0000           ___fldiv@new_exp 0048  
 __end_of_UART_Write_Text 0BE1             ___fltol@sign1 006E           __end_of___aldiv 0F26  
                   ?_main 0070                     _CCP1X 00BD           __end_of___fldiv 0495  
                   _CCP1Y 00BC                     _CCP2X 00ED                     _CCP2Y 00EC  
         __end_of___flmul 07F6           __end_of___fltol 0E89           __end_of___lwdiv 0C25  
         __end_of___lwmod 0B9F                     _RCREG 001A                     _SPBRG 0099  
                   _PORTD 0008                     _TRISD 0088                     _SSPIE 0463  
                   _SSPIF 0063                     _TXREG 0019               ?_UART_Write 0070  
      __size_of_UART_Init 00DA        __size_of_PWM1_Duty 0095               ?_PWM1_Start 0070  
      __size_of_PWM2_Duty 0095               ?_PWM2_Start 0070           __end_of_dpowers 081A  
                   pclath 000A           __end_of_spiInit 0020           __end_of_spiRead 0ADF  
                   status 0003                     wtemp0 007E           __end_of_sprintf 01C4  
         __initialization 07F6              __end_of_main 02B8                    ??_main 00A9  
                  _ADCON1 009F                    _CCPR1L 0015                    _CCPR2L 001B  
                  _TRISA5 042D                    _TRISC3 043B                    _TRISC5 043D  
                  _TRISC6 043E                    _TRISC7 043F                    _SSPCON 0014  
                  _SSPBUF 0013          __end_of___xxtofl 00DC         __end_of_UART_Init 1000  
       __end_of_PWM1_Duty 0D58         __end_of_PWM2_Duty 0DED       __size_of_UART_Write 000C  
               ??___aldiv 0078                 ??___fldiv 003E       __size_of_PWM1_Start 000B  
               ??___flmul 0058          ?_UART_Write_Text 0071                 ??___fltol 00A0  
     __size_of_PWM2_Start 000B                 ??___lwdiv 0074                 ??___lwmod 007C  
      __size_of__Umul8_16 0027          __end_of_spiWrite 0AD6                 ??_spiInit 0073  
               ??_spiRead 0070                 ??_sprintf 0023              ___xxtofl@arg 0032  
            ___xxtofl@exp 0031              ___xxtofl@val 0028   __end_of__initialization 07FC  
   __end_of_PWM1_Init_Fre 0C74                ___fltol@f1 006A     __end_of_PWM2_Init_Fre 0CC3  
          __pcstackCOMMON 0070                __pbssBANK1 00B8         __end_of__Umul8_16 0B36  
              __pmaintext 01C4   __size_of_spiReceiveWait 0007             ?_spiDataReady 0070  
               ?___xxtofl 0028              ??_UART_Write 0070              ??_PWM1_Start 0070  
            ??_PWM2_Start 0070                   _SSPSTAT 0094                __stringtab 0800  
               ?_spiWrite 0070                   ___aldiv 0E89                   ___fldiv 02B8  
                 ___flmul 0495                   ___fltol 0DED        __end_of_UART_Write 0B01  
                 ___lwdiv 0BE1                   ___lwmod 0B65        __end_of_PWM1_Start 0AEA  
      __end_of_PWM2_Start 0AF5                   __ptext1 00DC                   __ptext2 0B65  
                 __ptext3 0BE1                   __ptext4 0AD0                   __ptext5 0AD6  
                 __ptext6 0003                   __ptext7 000A                   __ptext8 0B01  
                 __ptext9 0B9F            ??_spiDataReady 0072                   _dpowers 0810  
               _T2CONbits 0012                ??___xxtofl 002C          ___aldiv@dividend 0074  
                 _spiInit 000A                   _spiRead 0AD6                   _sprintf 00DC  
                 main@num 00B6                   main@out 00AC      end_of_initialization 07FC  
        ___aldiv@quotient 0022                ??_spiWrite 0070                 _UART_Init 0F26  
               _PWM1_Duty 0CC3                 _PWM2_Duty 0D58                 _PORTDbits 0008  
          UART_Write@data 0070             ___xxtofl@sign 0030                 _TRISCbits 0087  
             ___fldiv@grs 004A               ___fldiv@rem 0043               spiWrite@dat 0070  
             ___flmul@grs 005E               _CCP1CONbits 0017               _CCP2CONbits 001D  
          _spiReceiveWait 0003                ?_UART_Init 0026                ?_PWM1_Duty 00A5  
              ?_PWM2_Duty 00A5  __size_of_UART_Write_Text 0042       start_initialization 07F6  
           ?_PWM_Max_Duty 0026      __end_of_spiDataReady 0B0F    __end_of_spiReceiveWait 000A  
               __Umul8_16 0B0F                 ___fldiv@a 0036                 ___fldiv@b 003A  
               ___flmul@a 0054                 ___flmul@b 0050    __size_of_PWM1_Init_Fre 004F  
               ___latbits 0002             __pcstackBANK0 0020             __pcstackBANK1 00A0  
       __size_of___xxtofl 00BC    __size_of_PWM2_Init_Fre 004F            ??_PWM_Max_Duty 0079  
             sprintf@flag 0027               sprintf@prec 0028          ___lwdiv@dividend 0072  
         ?_spiReceiveWait 0070                  ?___aldiv 0070                  ?___fldiv 0036  
                ?___flmul 0050                  ?___fltol 006A                ?__Umul8_16 0070  
                ?___lwdiv 0070                  ?___lwmod 0078               ??_UART_Init 002A  
       __size_of_spiWrite 0006               ??_PWM1_Duty 00A7               ??_PWM2_Duty 00A7  
               __pstrings 0800                  ?_spiInit 0070                  ?_spiRead 0070  
        ___lwdiv@quotient 0075                  ?_sprintf 0020                UART_Init@x 0079  
       ??_UART_Write_Text 0073           ___aldiv@divisor 0070      spiInit@sTransmitEdge 0072  
         ___aldiv@counter 0020             _PWM1_Init_Fre 0C25        spiInit@sDataSample 0070  
           PWM1_Duty@duty 00A5             _PWM2_Init_Fre 0C74         UART_Init@baudrate 0026  
           PWM2_Duty@duty 00A5               __stringbase 080F     __size_of_spiDataReady 000E  
          ?_PWM1_Init_Fre 0026            ?_PWM2_Init_Fre 0026               ??__Umul8_16 0072  
        __size_of___aldiv 009D      __end_of_PWM_Max_Duty 0B65          __size_of___fldiv 01DD  
        __size_of___flmul 0361          __size_of___fltol 009C          __size_of___lwdiv 0044  
        __size_of___lwmod 003A          PWM1_Init_Fre@fre 0026        __end_of__stringtab 0810  
            _spiDataReady 0B01                sprintf@val 0029                  ___xxtofl 0020  
         ___lwdiv@divisor 0070           ___lwdiv@counter 0077                  __ptext10 0AF5  
                __ptext11 0F26                  __ptext20 0495                  __ptext12 0AEA  
                __ptext21 0B0F                  __ptext13 0C74                  __ptext22 02B8  
                __ptext14 0D58                  __ptext23 0B36                  __ptext15 0ADF  
                __ptext24 0E89                  __ptext16 0C25                  __ptext17 0CC3  
                __ptext18 0020                  __ptext19 0DED          __size_of_spiInit 0016  
        __size_of_spiRead 0009          __size_of_sprintf 00E8       UART_Write_Text@text 0071  
           __size_of_main 00F4                  _spiWrite 0AD0              spiInit@sType 0073  
       spiInit@sClockIdle 0071                 sprintf@ap 0026                 sprintf@sp 002B  
         ??_PWM1_Init_Fre 0079          ___lwmod@dividend 007A          ??_spiReceiveWait 0070  
         ??_PWM2_Init_Fre 0079                 stringcode 080A          PWM2_Init_Fre@fre 0026  
  __Umul8_16@multiplicand 0070           _UART_Write_Text 0B9F                  sprintf@c 002C  
                sprintf@f 0020           ___lwmod@divisor 0078           ___lwmod@counter 007D  
                stringdir 080A                  stringtab 0800              ___aldiv@sign 0021  
              _UART_Write 0AF5                _PWM1_Start 0ADF                _PWM2_Start 0AEA  
        UART_Write_Text@i 0076      __Umul8_16@multiplier 0078     __size_of_PWM_Max_Duty 002F  
       __Umul8_16@product 0074  
