

Microchip MPLAB XC8 Assembler V2.32 build 20210201212658 
                                                                                               Mon Nov 29 11:45:10 2021

Microchip MPLAB XC8 C Compiler v2.32 (Free license) build 20210201212658 Og1 
     1                           	processor	16F877A
     2                           	pagewidth 120
     3                           	opt	flic
     4                           	psect	strings,global,class=STRING,delta=2,noexec
     5                           	psect	cinit,global,class=CODE,merge=1,delta=2
     6                           	psect	bssBANK1,global,class=BANK1,space=1,delta=1,noexec
     7                           	psect	cstackBANK1,global,class=BANK1,space=1,delta=1,noexec
     8                           	psect	cstackCOMMON,global,class=COMMON,space=1,delta=1,noexec
     9                           	psect	cstackBANK0,global,class=BANK0,space=1,delta=1,noexec
    10                           	psect	maintext,global,class=CODE,split=1,delta=2
    11                           	psect	text1,local,class=CODE,merge=1,delta=2,group=1
    12                           	psect	text2,local,class=CODE,merge=1,delta=2,group=2
    13                           	psect	text3,local,class=CODE,merge=1,delta=2,group=2
    14                           	psect	text4,local,class=CODE,merge=1,delta=2
    15                           	psect	text5,local,class=CODE,merge=1,delta=2
    16                           	psect	text6,local,class=CODE,merge=1,delta=2
    17                           	psect	text7,local,class=CODE,merge=1,delta=2
    18                           	psect	text8,local,class=CODE,merge=1,delta=2
    19                           	psect	text9,local,class=CODE,merge=1,delta=2
    20                           	psect	text10,local,class=CODE,merge=1,delta=2
    21                           	psect	text11,local,class=CODE,merge=1,delta=2
    22                           	psect	text12,local,class=CODE,merge=1,delta=2
    23                           	psect	text13,local,class=CODE,merge=1,delta=2
    24                           	psect	text14,local,class=CODE,merge=1,delta=2
    25                           	psect	text15,local,class=CODE,merge=1,delta=2
    26                           	psect	text16,local,class=CODE,merge=1,delta=2
    27                           	psect	text17,local,class=CODE,merge=1,delta=2,group=2
    28                           	psect	text18,local,class=CODE,merge=1,delta=2,group=2
    29                           	psect	text19,local,class=CODE,merge=1,delta=2,group=2
    30                           	psect	text20,local,class=CODE,merge=1,delta=2,group=2
    31                           	psect	text21,local,class=CODE,merge=1,delta=2,group=2
    32                           	psect	text22,local,class=CODE,merge=1,delta=2
    33                           	psect	text23,local,class=CODE,merge=1,delta=2,group=2
    34                           	psect	config,global,abs,ovrld,class=CONFIG,space=4,delta=2,noexec
    35                           	dabs	1,0x7E,2
    36  0000                     
    37                           ; Version 2.20
    38                           ; Generated 12/02/2020 GMT
    39                           ; 
    40                           ; Copyright © 2020, Microchip Technology Inc. and its subsidiaries ("Microchip")
    41                           ; All rights reserved.
    42                           ; 
    43                           ; This software is developed by Microchip Technology Inc. and its subsidiaries ("Microch
      +                          ip").
    44                           ; 
    45                           ; Redistribution and use in source and binary forms, with or without modification, are
    46                           ; permitted provided that the following conditions are met:
    47                           ; 
    48                           ;     1. Redistributions of source code must retain the above copyright notice, this lis
      +                          t of
    49                           ;        conditions and the following disclaimer.
    50                           ; 
    51                           ;     2. Redistributions in binary form must reproduce the above copyright notice, this 
      +                          list
    52                           ;        of conditions and the following disclaimer in the documentation and/or other
    53                           ;        materials provided with the distribution.
    54                           ; 
    55                           ;     3. Microchip's name may not be used to endorse or promote products derived from th
      +                          is
    56                           ;        software without specific prior written permission.
    57                           ; 
    58                           ; THIS SOFTWARE IS PROVIDED BY MICROCHIP "AS IS" AND ANY EXPRESS OR IMPLIED WARRANTIES,
    59                           ; INCLUDING, BUT NOT LIMITED TO, THE IMPLIED WARRANTIES OF MERCHANTABILITY AND FITNESS F
      +                          OR
    60                           ; PURPOSE ARE DISCLAIMED.  IN NO EVENT SHALL MICROCHIP BE LIABLE FOR ANY DIRECT, INDIREC
      +                          T,
    61                           ; INCIDENTAL, SPECIAL, EXEMPLARY, OR CONSEQUENTIAL DAMAGES (INCLUDING BUT NOT LIMITED TO
    62                           ; PROCUREMENT OF SUBSTITUTE GOODS OR SERVICES; LOSS OF USE, DATA OR PROFITS; OR BUSINESS
    63                           ; INTERRUPTION) HOWSOEVER CAUSED AND ON ANY THEORY OF LIABILITY, WHETHER IN CONTRACT, ST
      +                          RICT
    64                           ; LIABILITY, OR TORT (INCLUDING NEGLIGENCE OR OTHERWISE) ARISING IN ANY WAY OUT OF THE U
      +                          SE OF
    65                           ; THIS SOFTWARE, EVEN IF ADVISED OF THE POSSIBILITY OF SUCH DAMAGE.
    66                           ; 
    67                           ; 
    68                           ; Code-generator required, PIC16F877A Definitions
    69                           ; 
    70                           ; SFR Addresses
    71  0000                     	;# 
    72  0001                     	;# 
    73  0002                     	;# 
    74  0003                     	;# 
    75  0004                     	;# 
    76  0005                     	;# 
    77  0006                     	;# 
    78  0007                     	;# 
    79  0008                     	;# 
    80  0009                     	;# 
    81  000A                     	;# 
    82  000B                     	;# 
    83  000C                     	;# 
    84  000D                     	;# 
    85  000E                     	;# 
    86  000E                     	;# 
    87  000F                     	;# 
    88  0010                     	;# 
    89  0011                     	;# 
    90  0012                     	;# 
    91  0013                     	;# 
    92  0014                     	;# 
    93  0015                     	;# 
    94  0015                     	;# 
    95  0016                     	;# 
    96  0017                     	;# 
    97  0018                     	;# 
    98  0019                     	;# 
    99  001A                     	;# 
   100  001B                     	;# 
   101  001B                     	;# 
   102  001C                     	;# 
   103  001D                     	;# 
   104  001E                     	;# 
   105  001F                     	;# 
   106  0081                     	;# 
   107  0085                     	;# 
   108  0086                     	;# 
   109  0087                     	;# 
   110  0088                     	;# 
   111  0089                     	;# 
   112  008C                     	;# 
   113  008D                     	;# 
   114  008E                     	;# 
   115  0091                     	;# 
   116  0092                     	;# 
   117  0093                     	;# 
   118  0094                     	;# 
   119  0098                     	;# 
   120  0099                     	;# 
   121  009C                     	;# 
   122  009D                     	;# 
   123  009E                     	;# 
   124  009F                     	;# 
   125  010C                     	;# 
   126  010D                     	;# 
   127  010E                     	;# 
   128  010F                     	;# 
   129  018C                     	;# 
   130  018D                     	;# 
   131  0000                     	;# 
   132  0001                     	;# 
   133  0002                     	;# 
   134  0003                     	;# 
   135  0004                     	;# 
   136  0005                     	;# 
   137  0006                     	;# 
   138  0007                     	;# 
   139  0008                     	;# 
   140  0009                     	;# 
   141  000A                     	;# 
   142  000B                     	;# 
   143  000C                     	;# 
   144  000D                     	;# 
   145  000E                     	;# 
   146  000E                     	;# 
   147  000F                     	;# 
   148  0010                     	;# 
   149  0011                     	;# 
   150  0012                     	;# 
   151  0013                     	;# 
   152  0014                     	;# 
   153  0015                     	;# 
   154  0015                     	;# 
   155  0016                     	;# 
   156  0017                     	;# 
   157  0018                     	;# 
   158  0019                     	;# 
   159  001A                     	;# 
   160  001B                     	;# 
   161  001B                     	;# 
   162  001C                     	;# 
   163  001D                     	;# 
   164  001E                     	;# 
   165  001F                     	;# 
   166  0081                     	;# 
   167  0085                     	;# 
   168  0086                     	;# 
   169  0087                     	;# 
   170  0088                     	;# 
   171  0089                     	;# 
   172  008C                     	;# 
   173  008D                     	;# 
   174  008E                     	;# 
   175  0091                     	;# 
   176  0092                     	;# 
   177  0093                     	;# 
   178  0094                     	;# 
   179  0098                     	;# 
   180  0099                     	;# 
   181  009C                     	;# 
   182  009D                     	;# 
   183  009E                     	;# 
   184  009F                     	;# 
   185  010C                     	;# 
   186  010D                     	;# 
   187  010E                     	;# 
   188  010F                     	;# 
   189  018C                     	;# 
   190  018D                     	;# 
   191  0000                     	;# 
   192  0001                     	;# 
   193  0002                     	;# 
   194  0003                     	;# 
   195  0004                     	;# 
   196  0005                     	;# 
   197  0006                     	;# 
   198  0007                     	;# 
   199  0008                     	;# 
   200  0009                     	;# 
   201  000A                     	;# 
   202  000B                     	;# 
   203  000C                     	;# 
   204  000D                     	;# 
   205  000E                     	;# 
   206  000E                     	;# 
   207  000F                     	;# 
   208  0010                     	;# 
   209  0011                     	;# 
   210  0012                     	;# 
   211  0013                     	;# 
   212  0014                     	;# 
   213  0015                     	;# 
   214  0015                     	;# 
   215  0016                     	;# 
   216  0017                     	;# 
   217  0018                     	;# 
   218  0019                     	;# 
   219  001A                     	;# 
   220  001B                     	;# 
   221  001B                     	;# 
   222  001C                     	;# 
   223  001D                     	;# 
   224  001E                     	;# 
   225  001F                     	;# 
   226  0081                     	;# 
   227  0085                     	;# 
   228  0086                     	;# 
   229  0087                     	;# 
   230  0088                     	;# 
   231  0089                     	;# 
   232  008C                     	;# 
   233  008D                     	;# 
   234  008E                     	;# 
   235  0091                     	;# 
   236  0092                     	;# 
   237  0093                     	;# 
   238  0094                     	;# 
   239  0098                     	;# 
   240  0099                     	;# 
   241  009C                     	;# 
   242  009D                     	;# 
   243  009E                     	;# 
   244  009F                     	;# 
   245  010C                     	;# 
   246  010D                     	;# 
   247  010E                     	;# 
   248  010F                     	;# 
   249  018C                     	;# 
   250  018D                     	;# 
   251                           
   252                           	psect	strings
   253  0800                     __pstrings:
   254  0800                     stringtab:
   255  0800                     __stringtab:
   256  0800                     stringcode:	
   257                           ;	String table - string pointers are 1 byte each
   258                           
   259  0800                     stringdir:
   260  0800  3008               	movlw	high stringdir
   261  0801  008A               	movwf	10
   262  0802  0804               	movf	4,w
   263  0803  0A84               	incf	4,f
   264  0804  0782               	addwf	2,f
   265  0805                     __stringbase:
   266  0805  3400               	retlw	0
   267  0806                     __end_of__stringtab:
   268  0806                     _dpowers:
   269  0806  3401               	retlw	1
   270  0807  3400               	retlw	0
   271  0808  340A               	retlw	10
   272  0809  3400               	retlw	0
   273  080A  3464               	retlw	100
   274  080B  3400               	retlw	0
   275  080C  34E8               	retlw	232
   276  080D  3403               	retlw	3
   277  080E  3410               	retlw	16
   278  080F  3427               	retlw	39
   279  0810                     __end_of_dpowers:
   280  0014                     _SSPCON	set	20
   281  0013                     _SSPBUF	set	19
   282  0008                     _PORTDbits	set	8
   283  0008                     _PORTD	set	8
   284  001D                     _CCP2CONbits	set	29
   285  0012                     _T2CONbits	set	18
   286  0017                     _CCP1CONbits	set	23
   287  001B                     _CCPR2L	set	27
   288  0015                     _CCPR1L	set	21
   289  0019                     _TXREG	set	25
   290  001A                     _RCREG	set	26
   291  0040                     _RD0	set	64
   292  0063                     _SSPIF	set	99
   293  005E                     _PEIE	set	94
   294  005F                     _GIE	set	95
   295  00EC                     _CCP2Y	set	236
   296  00ED                     _CCP2X	set	237
   297  00BC                     _CCP1Y	set	188
   298  00BD                     _CCP1X	set	189
   299  0065                     _RCIF	set	101
   300  00C4                     _CREN	set	196
   301  00C7                     _SPEN	set	199
   302  0094                     _SSPSTATbits	set	148
   303  0094                     _SSPSTAT	set	148
   304  009F                     _ADCON1	set	159
   305  0088                     _TRISD	set	136
   306  0087                     _TRISCbits	set	135
   307  0092                     _PR2	set	146
   308  0099                     _SPBRG	set	153
   309  043B                     _TRISC3	set	1083
   310  043D                     _TRISC5	set	1085
   311  042D                     _TRISA5	set	1069
   312  0463                     _SSPIE	set	1123
   313  04C1                     _TRMT	set	1217
   314  04C5                     _TXEN	set	1221
   315  043E                     _TRISC6	set	1086
   316  043F                     _TRISC7	set	1087
   317  04C4                     _SYNC	set	1220
   318  04C2                     _BRGH	set	1218
   319  0810                     STR_2:
   320  0810  3476               	retlw	118	;'v'
   321  0811  345F               	retlw	95	;'_'
   322  0812  3472               	retlw	114	;'r'
   323  0813  3469               	retlw	105	;'i'
   324  0814  3467               	retlw	103	;'g'
   325  0815  3468               	retlw	104	;'h'
   326  0816  3474               	retlw	116	;'t'
   327  0817  3420               	retlw	32	;' '
   328  0818  343D               	retlw	61	;'='
   329  0819  3420               	retlw	32	;' '
   330  081A  3425               	retlw	37	;'%'
   331  081B  3464               	retlw	100	;'d'
   332  081C  340A               	retlw	10
   333  081D  340D               	retlw	13
   334  081E  3400               	retlw	0
   335  081F                     STR_1:
   336  081F  3476               	retlw	118	;'v'
   337  0820  345F               	retlw	95	;'_'
   338  0821  346C               	retlw	108	;'l'
   339  0822  3465               	retlw	101	;'e'
   340  0823  3466               	retlw	102	;'f'
   341  0824  3474               	retlw	116	;'t'
   342  0825  3420               	retlw	32	;' '
   343  0826  343D               	retlw	61	;'='
   344  0827  3420               	retlw	32	;' '
   345  0828  3425               	retlw	37	;'%'
   346  0829  3464               	retlw	100	;'d'
   347  082A  340A               	retlw	10
   348  082B  340D               	retlw	13
   349  082C  3400               	retlw	0
   350                           
   351                           	psect	cinit
   352  07F6                     start_initialization:	
   353                           ; #config settings
   354                           
   355  07F6                     __initialization:
   356                           
   357                           ; Clear objects allocated to BANK1
   358  07F6  1683               	bsf	3,5	;RP0=1, select bank1
   359  07F7  1303               	bcf	3,6	;RP1=0, select bank1
   360  07F8  01C6               	clrf	__pbssBANK1& (0+127)
   361  07F9  01C7               	clrf	(__pbssBANK1+1)& (0+127)
   362  07FA  01C8               	clrf	(__pbssBANK1+2)& (0+127)
   363  07FB  01C9               	clrf	(__pbssBANK1+3)& (0+127)
   364  07FC                     end_of_initialization:	
   365                           ;End of C runtime variable initialization code
   366                           
   367  07FC                     __end_of__initialization:
   368  07FC  0183               	clrf	3
   369  07FD  120A  118A  2975   	ljmp	_main	;jump to C main() function
   370                           
   371                           	psect	bssBANK1
   372  00C6                     __pbssBANK1:
   373  00C6                     _freq:
   374  00C6                     	ds	4
   375                           
   376                           	psect	cstackBANK1
   377  00A0                     __pcstackBANK1:
   378  00A0                     ??___fltol:
   379                           
   380                           ; 1 bytes @ 0x0
   381  00A0                     	ds	5
   382  00A5                     ?_PWM1_Duty:
   383  00A5                     ?_PWM2_Duty:	
   384                           ; 2 bytes @ 0x5
   385                           
   386  00A5                     PWM1_Duty@duty:	
   387                           ; 2 bytes @ 0x5
   388                           
   389  00A5                     PWM2_Duty@duty:	
   390                           ; 2 bytes @ 0x5
   391                           
   392                           
   393                           ; 2 bytes @ 0x5
   394  00A5                     	ds	2
   395  00A7                     ??_PWM1_Duty:
   396  00A7                     ??_PWM2_Duty:	
   397                           ; 1 bytes @ 0x7
   398                           
   399                           
   400                           ; 1 bytes @ 0x7
   401  00A7                     	ds	2
   402  00A9                     ??_main:
   403                           
   404                           ; 1 bytes @ 0x9
   405  00A9                     	ds	3
   406  00AC                     main@uart_logs:
   407                           
   408                           ; 20 bytes @ 0xC
   409  00AC                     	ds	20
   410  00C0                     main@v_l:
   411                           
   412                           ; 2 bytes @ 0x20
   413  00C0                     	ds	2
   414  00C2                     main@v_r:
   415                           
   416                           ; 2 bytes @ 0x22
   417  00C2                     	ds	2
   418  00C4                     main@out:
   419                           
   420                           ; 2 bytes @ 0x24
   421  00C4                     	ds	2
   422                           
   423                           	psect	cstackCOMMON
   424  0070                     __pcstackCOMMON:
   425  0070                     ?_spiInit:
   426  0070                     ?_spiRead:	
   427                           ; 1 bytes @ 0x0
   428                           
   429  0070                     ??_spiRead:	
   430                           ; 1 bytes @ 0x0
   431                           
   432  0070                     ?_spiWrite:	
   433                           ; 1 bytes @ 0x0
   434                           
   435  0070                     ??_spiWrite:	
   436                           ; 1 bytes @ 0x0
   437                           
   438  0070                     ?_UART_Write:	
   439                           ; 1 bytes @ 0x0
   440                           
   441  0070                     ??_UART_Write:	
   442                           ; 1 bytes @ 0x0
   443                           
   444  0070                     ?_UART_Write_Text:	
   445                           ; 1 bytes @ 0x0
   446                           
   447  0070                     ??_PWM1_Start:	
   448                           ; 1 bytes @ 0x0
   449                           
   450  0070                     ??_PWM2_Start:	
   451                           ; 1 bytes @ 0x0
   452                           
   453  0070                     ?_main:	
   454                           ; 1 bytes @ 0x0
   455                           
   456  0070                     ?_spiReceiveWait:	
   457                           ; 1 bytes @ 0x0
   458                           
   459  0070                     ??_spiReceiveWait:	
   460                           ; 1 bytes @ 0x0
   461                           
   462  0070                     ?__Umul8_16:	
   463                           ; 1 bytes @ 0x0
   464                           
   465  0070                     ?_PWM1_Start:	
   466                           ; 2 bytes @ 0x0
   467                           
   468  0070                     ?_PWM2_Start:	
   469                           ; 2 bytes @ 0x0
   470                           
   471  0070                     ?___lwdiv:	
   472                           ; 2 bytes @ 0x0
   473                           
   474  0070                     ?___aldiv:	
   475                           ; 2 bytes @ 0x0
   476                           
   477  0070                     UART_Write@data:	
   478                           ; 4 bytes @ 0x0
   479                           
   480  0070                     spiInit@sDataSample:	
   481                           ; 1 bytes @ 0x0
   482                           
   483  0070                     spiWrite@dat:	
   484                           ; 1 bytes @ 0x0
   485                           
   486  0070                     __Umul8_16@multiplicand:	
   487                           ; 1 bytes @ 0x0
   488                           
   489  0070                     ___lwdiv@divisor:	
   490                           ; 1 bytes @ 0x0
   491                           
   492  0070                     ___aldiv@divisor:	
   493                           ; 2 bytes @ 0x0
   494                           
   495                           
   496                           ; 4 bytes @ 0x0
   497  0070                     	ds	1
   498  0071                     ??_UART_Write_Text:
   499  0071                     spiInit@sClockIdle:	
   500                           ; 1 bytes @ 0x1
   501                           
   502                           
   503                           ; 1 bytes @ 0x1
   504  0071                     	ds	1
   505  0072                     ??__Umul8_16:
   506  0072                     spiInit@sTransmitEdge:	
   507                           ; 1 bytes @ 0x2
   508                           
   509  0072                     UART_Write_Text@i:	
   510                           ; 1 bytes @ 0x2
   511                           
   512  0072                     ___lwdiv@dividend:	
   513                           ; 2 bytes @ 0x2
   514                           
   515                           
   516                           ; 2 bytes @ 0x2
   517  0072                     	ds	1
   518  0073                     ??_spiInit:
   519  0073                     spiInit@sType:	
   520                           ; 1 bytes @ 0x3
   521                           
   522                           
   523                           ; 1 bytes @ 0x3
   524  0073                     	ds	1
   525  0074                     ??___lwdiv:
   526  0074                     UART_Write_Text@text:	
   527                           ; 1 bytes @ 0x4
   528                           
   529  0074                     __Umul8_16@product:	
   530                           ; 1 bytes @ 0x4
   531                           
   532  0074                     ___aldiv@dividend:	
   533                           ; 2 bytes @ 0x4
   534                           
   535                           
   536                           ; 4 bytes @ 0x4
   537  0074                     	ds	1
   538  0075                     ___lwdiv@quotient:
   539                           
   540                           ; 2 bytes @ 0x5
   541  0075                     	ds	1
   542  0076                     __Umul8_16@word_mpld:
   543                           
   544                           ; 2 bytes @ 0x6
   545  0076                     	ds	1
   546  0077                     ___lwdiv@counter:
   547                           
   548                           ; 1 bytes @ 0x7
   549  0077                     	ds	1
   550  0078                     ??___aldiv:
   551  0078                     ?___lwmod:	
   552                           ; 1 bytes @ 0x8
   553                           
   554  0078                     __Umul8_16@multiplier:	
   555                           ; 2 bytes @ 0x8
   556                           
   557  0078                     ___lwmod@divisor:	
   558                           ; 1 bytes @ 0x8
   559                           
   560                           
   561                           ; 2 bytes @ 0x8
   562  0078                     	ds	1
   563  0079                     ??_PWM_Max_Duty:
   564  0079                     ??_PWM1_Init_Fre:	
   565                           ; 1 bytes @ 0x9
   566                           
   567  0079                     ??_PWM2_Init_Fre:	
   568                           ; 1 bytes @ 0x9
   569                           
   570  0079                     UART_Init@x:	
   571                           ; 1 bytes @ 0x9
   572                           
   573                           
   574                           ; 2 bytes @ 0x9
   575  0079                     	ds	1
   576  007A                     ___lwmod@dividend:
   577                           
   578                           ; 2 bytes @ 0xA
   579  007A                     	ds	2
   580  007C                     ??___lwmod:
   581                           
   582                           ; 1 bytes @ 0xC
   583  007C                     	ds	1
   584  007D                     ___lwmod@counter:
   585                           
   586                           ; 1 bytes @ 0xD
   587  007D                     	ds	1
   588                           
   589                           	psect	cstackBANK0
   590  0020                     __pcstackBANK0:
   591  0020                     ?_sprintf:
   592  0020                     sprintf@f:	
   593                           ; 2 bytes @ 0x0
   594                           
   595  0020                     ___aldiv@counter:	
   596                           ; 1 bytes @ 0x0
   597                           
   598                           
   599                           ; 1 bytes @ 0x0
   600  0020                     	ds	1
   601  0021                     ___aldiv@sign:
   602                           
   603                           ; 1 bytes @ 0x1
   604  0021                     	ds	1
   605  0022                     ___aldiv@quotient:
   606                           
   607                           ; 4 bytes @ 0x2
   608  0022                     	ds	1
   609  0023                     ??_sprintf:
   610                           
   611                           ; 1 bytes @ 0x3
   612  0023                     	ds	3
   613  0026                     ?_UART_Init:
   614  0026                     ?_PWM_Max_Duty:	
   615                           ; 1 bytes @ 0x6
   616                           
   617  0026                     ?_PWM1_Init_Fre:	
   618                           ; 2 bytes @ 0x6
   619                           
   620  0026                     ?_PWM2_Init_Fre:	
   621                           ; 2 bytes @ 0x6
   622                           
   623  0026                     sprintf@ap:	
   624                           ; 2 bytes @ 0x6
   625                           
   626  0026                     UART_Init@baudrate:	
   627                           ; 1 bytes @ 0x6
   628                           
   629  0026                     PWM1_Init_Fre@fre:	
   630                           ; 4 bytes @ 0x6
   631                           
   632  0026                     PWM2_Init_Fre@fre:	
   633                           ; 4 bytes @ 0x6
   634                           
   635                           
   636                           ; 4 bytes @ 0x6
   637  0026                     	ds	1
   638  0027                     sprintf@flag:
   639                           
   640                           ; 1 bytes @ 0x7
   641  0027                     	ds	1
   642  0028                     ?___xxtofl:
   643  0028                     sprintf@prec:	
   644                           ; 4 bytes @ 0x8
   645                           
   646  0028                     ___xxtofl@val:	
   647                           ; 1 bytes @ 0x8
   648                           
   649                           
   650                           ; 4 bytes @ 0x8
   651  0028                     	ds	1
   652  0029                     sprintf@val:
   653                           
   654                           ; 2 bytes @ 0x9
   655  0029                     	ds	1
   656  002A                     ??_UART_Init:
   657                           
   658                           ; 1 bytes @ 0xA
   659  002A                     	ds	1
   660  002B                     sprintf@sp:
   661                           
   662                           ; 1 bytes @ 0xB
   663  002B                     	ds	1
   664  002C                     ??___xxtofl:
   665  002C                     sprintf@c:	
   666                           ; 1 bytes @ 0xC
   667                           
   668                           
   669                           ; 1 bytes @ 0xC
   670  002C                     	ds	4
   671  0030                     ___xxtofl@sign:
   672                           
   673                           ; 1 bytes @ 0x10
   674  0030                     	ds	1
   675  0031                     ___xxtofl@exp:
   676                           
   677                           ; 1 bytes @ 0x11
   678  0031                     	ds	1
   679  0032                     ___xxtofl@arg:
   680                           
   681                           ; 4 bytes @ 0x12
   682  0032                     	ds	4
   683  0036                     ?___fldiv:
   684  0036                     ___fldiv@a:	
   685                           ; 4 bytes @ 0x16
   686                           
   687                           
   688                           ; 4 bytes @ 0x16
   689  0036                     	ds	4
   690  003A                     ___fldiv@b:
   691                           
   692                           ; 4 bytes @ 0x1A
   693  003A                     	ds	4
   694  003E                     ??___fldiv:
   695                           
   696                           ; 1 bytes @ 0x1E
   697  003E                     	ds	5
   698  0043                     ___fldiv@rem:
   699                           
   700                           ; 4 bytes @ 0x23
   701  0043                     	ds	4
   702  0047                     ___fldiv@sign:
   703                           
   704                           ; 1 bytes @ 0x27
   705  0047                     	ds	1
   706  0048                     ___fldiv@new_exp:
   707                           
   708                           ; 2 bytes @ 0x28
   709  0048                     	ds	2
   710  004A                     ___fldiv@grs:
   711                           
   712                           ; 4 bytes @ 0x2A
   713  004A                     	ds	4
   714  004E                     ___fldiv@bexp:
   715                           
   716                           ; 1 bytes @ 0x2E
   717  004E                     	ds	1
   718  004F                     ___fldiv@aexp:
   719                           
   720                           ; 1 bytes @ 0x2F
   721  004F                     	ds	1
   722  0050                     ?___flmul:
   723  0050                     ___flmul@b:	
   724                           ; 4 bytes @ 0x30
   725                           
   726                           
   727                           ; 4 bytes @ 0x30
   728  0050                     	ds	4
   729  0054                     ___flmul@a:
   730                           
   731                           ; 4 bytes @ 0x34
   732  0054                     	ds	4
   733  0058                     ??___flmul:
   734                           
   735                           ; 1 bytes @ 0x38
   736  0058                     	ds	5
   737  005D                     ___flmul@sign:
   738                           
   739                           ; 1 bytes @ 0x3D
   740  005D                     	ds	1
   741  005E                     ___flmul@grs:
   742                           
   743                           ; 4 bytes @ 0x3E
   744  005E                     	ds	4
   745  0062                     ___flmul@aexp:
   746                           
   747                           ; 1 bytes @ 0x42
   748  0062                     	ds	1
   749  0063                     ___flmul@bexp:
   750                           
   751                           ; 1 bytes @ 0x43
   752  0063                     	ds	1
   753  0064                     ___flmul@prod:
   754                           
   755                           ; 4 bytes @ 0x44
   756  0064                     	ds	4
   757  0068                     ___flmul@temp:
   758                           
   759                           ; 2 bytes @ 0x48
   760  0068                     	ds	2
   761  006A                     ?___fltol:
   762  006A                     ___fltol@f1:	
   763                           ; 4 bytes @ 0x4A
   764                           
   765                           
   766                           ; 4 bytes @ 0x4A
   767  006A                     	ds	4
   768  006E                     ___fltol@sign1:
   769                           
   770                           ; 1 bytes @ 0x4E
   771  006E                     	ds	1
   772  006F                     ___fltol@exp1:
   773                           
   774                           ; 1 bytes @ 0x4F
   775  006F                     	ds	1
   776                           
   777                           	psect	maintext
   778  0175                     __pmaintext:	
   779 ;;
   780 ;;Main: autosize = 0, tempsize = 3, incstack = 0, save=0
   781 ;;
   782 ;; *************** function _main *****************
   783 ;; Defined at:
   784 ;;		line 30 in file "newmain.c"
   785 ;; Parameters:    Size  Location     Type
   786 ;;		None
   787 ;; Auto vars:     Size  Location     Type
   788 ;;  uart_logs      20   12[BANK1 ] unsigned char [20]
   789 ;;  out             2   36[BANK1 ] int 
   790 ;;  v_r             2   34[BANK1 ] int 
   791 ;;  v_l             2   32[BANK1 ] int 
   792 ;; Return value:  Size  Location     Type
   793 ;;                  1    wreg      void 
   794 ;; Registers used:
   795 ;;		wreg, fsr0l, fsr0h, status,2, status,0, btemp+1, pclath, cstack
   796 ;; Tracked objects:
   797 ;;		On entry : B00/0
   798 ;;		On exit  : 0/0
   799 ;;		Unchanged: 0/0
   800 ;; Data sizes:     COMMON   BANK0   BANK1   BANK3   BANK2
   801 ;;      Params:         0       0       0       0       0
   802 ;;      Locals:         0       0      26       0       0
   803 ;;      Temps:          0       0       3       0       0
   804 ;;      Totals:         0       0      29       0       0
   805 ;;Total ram usage:       29 bytes
   806 ;; Hardware stack levels required when called: 3
   807 ;; This function calls:
   808 ;;		_PWM1_Duty
   809 ;;		_PWM1_Init_Fre
   810 ;;		_PWM1_Start
   811 ;;		_PWM2_Duty
   812 ;;		_PWM2_Init_Fre
   813 ;;		_PWM2_Start
   814 ;;		_UART_Init
   815 ;;		_UART_Write_Text
   816 ;;		_spiInit
   817 ;;		_spiRead
   818 ;;		_spiWrite
   819 ;;		_sprintf
   820 ;; This function is called by:
   821 ;;		Startup code after reset
   822 ;; This function uses a non-reentrant model
   823 ;;
   824                           
   825                           
   826                           ;psect for function _main
   827  0175                     _main:
   828  0175                     l2168:	
   829                           ;incstack = 0
   830                           ; Regs used in _main: [wreg-fsr0h+status,2+status,0+btemp+1+pclath+cstack]
   831                           
   832                           
   833                           ;newmain.c: 32:     TRISD = 0;
   834  0175  1683               	bsf	3,5	;RP0=1, select bank1
   835  0176  1303               	bcf	3,6	;RP1=0, select bank1
   836  0177  0188               	clrf	8	;volatile
   837                           
   838                           ;newmain.c: 33:     PORTD = 0;
   839  0178  1283               	bcf	3,5	;RP0=0, select bank0
   840  0179  1303               	bcf	3,6	;RP1=0, select bank0
   841  017A  0188               	clrf	8	;volatile
   842  017B                     l2170:
   843                           
   844                           ;newmain.c: 35:     GIE = 1;
   845  017B  178B               	bsf	11,7	;volatile
   846  017C                     l2172:
   847                           
   848                           ;newmain.c: 36:     PEIE = 1;
   849  017C  170B               	bsf	11,6	;volatile
   850  017D                     l2174:
   851                           
   852                           ;newmain.c: 37:     SSPIF = 0;
   853  017D  118C               	bcf	12,3	;volatile
   854  017E                     l2176:
   855                           
   856                           ;newmain.c: 38:     SSPIE = 1;
   857  017E  1683               	bsf	3,5	;RP0=1, select bank1
   858  017F  1303               	bcf	3,6	;RP1=0, select bank1
   859  0180  158C               	bsf	12,3	;volatile
   860  0181                     l2178:
   861                           
   862                           ;newmain.c: 39:     ADCON1 = 0x07;
   863  0181  3007               	movlw	7
   864  0182  009F               	movwf	31	;volatile
   865  0183                     l2180:
   866                           
   867                           ;newmain.c: 40:     TRISA5 = 1;
   868  0183  1685               	bsf	5,5	;volatile
   869  0184                     l2182:
   870                           
   871                           ;newmain.c: 41:     UART_Init(9600);
   872  0184  3000               	movlw	0
   873  0185  1283               	bcf	3,5	;RP0=0, select bank0
   874  0186  1303               	bcf	3,6	;RP1=0, select bank0
   875  0187  00A9               	movwf	UART_Init@baudrate+3
   876  0188  3000               	movlw	0
   877  0189  00A8               	movwf	UART_Init@baudrate+2
   878  018A  3025               	movlw	37
   879  018B  00A7               	movwf	UART_Init@baudrate+1
   880  018C  3080               	movlw	128
   881  018D  00A6               	movwf	UART_Init@baudrate
   882  018E  120A  158A  2726  120A  118A  	fcall	_UART_Init
   883  0193                     l2184:
   884                           
   885                           ;newmain.c: 42:     spiInit(SPI_SLAVE_SS_EN, SPI_DATA_SAMPLE_MIDDLE, SPI_CLOCK_IDLE_LOW,
      +                           SPI_IDLE_2_ACTIVE);
   886  0193  01F0               	clrf	spiInit@sDataSample
   887  0194  01F1               	clrf	spiInit@sClockIdle
   888  0195  01F2               	clrf	spiInit@sTransmitEdge
   889  0196  3024               	movlw	36
   890  0197  120A  158A  22E7  120A  118A  	fcall	_spiInit
   891  019C                     l2186:
   892                           
   893                           ;newmain.c: 43:     PWM2_Init_Fre(1000);
   894  019C  3000               	movlw	0
   895  019D  1283               	bcf	3,5	;RP0=0, select bank0
   896  019E  1303               	bcf	3,6	;RP1=0, select bank0
   897  019F  00A9               	movwf	PWM2_Init_Fre@fre+3
   898  01A0  3000               	movlw	0
   899  01A1  00A8               	movwf	PWM2_Init_Fre@fre+2
   900  01A2  3003               	movlw	3
   901  01A3  00A7               	movwf	PWM2_Init_Fre@fre+1
   902  01A4  30E8               	movlw	232
   903  01A5  00A6               	movwf	PWM2_Init_Fre@fre
   904  01A6  120A  118A  203E  120A  118A  	fcall	_PWM2_Init_Fre
   905  01AB                     l2188:
   906                           
   907                           ;newmain.c: 44:     PWM1_Init_Fre(1000);
   908  01AB  3000               	movlw	0
   909  01AC  1283               	bcf	3,5	;RP0=0, select bank0
   910  01AD  1303               	bcf	3,6	;RP1=0, select bank0
   911  01AE  00A9               	movwf	PWM1_Init_Fre@fre+3
   912  01AF  3000               	movlw	0
   913  01B0  00A8               	movwf	PWM1_Init_Fre@fre+2
   914  01B1  3003               	movlw	3
   915  01B2  00A7               	movwf	PWM1_Init_Fre@fre+1
   916  01B3  30E8               	movlw	232
   917  01B4  00A6               	movwf	PWM1_Init_Fre@fre
   918  01B5  120A  158A  23B8  120A  118A  	fcall	_PWM1_Init_Fre
   919  01BA                     l2190:
   920                           
   921                           ;newmain.c: 45:     PORTDbits.RD1 = 0;
   922  01BA  1283               	bcf	3,5	;RP0=0, select bank0
   923  01BB  1303               	bcf	3,6	;RP1=0, select bank0
   924  01BC  1088               	bcf	8,1	;volatile
   925  01BD                     l2192:
   926                           
   927                           ;newmain.c: 46:     PORTDbits.RD2 = 1;
   928  01BD  1508               	bsf	8,2	;volatile
   929  01BE                     l2194:
   930                           
   931                           ;newmain.c: 47:     PORTDbits.RD3 = 0;
   932  01BE  1188               	bcf	8,3	;volatile
   933  01BF                     l2196:
   934                           
   935                           ;newmain.c: 48:     PORTDbits.RD4 = 1;
   936  01BF  1608               	bsf	8,4	;volatile
   937  01C0                     l2198:
   938                           
   939                           ;newmain.c: 50:     {;newmain.c: 51:         PWM2_Duty(255);
   940  01C0  30FF               	movlw	255
   941  01C1  1683               	bsf	3,5	;RP0=1, select bank1
   942  01C2  1303               	bcf	3,6	;RP1=0, select bank1
   943  01C3  00A5               	movwf	PWM2_Duty@duty^(0+128)
   944  01C4  3000               	movlw	0
   945  01C5  00A6               	movwf	(PWM2_Duty@duty^(0+128)+1)
   946  01C6  120A  158A  249C  120A  118A  	fcall	_PWM2_Duty
   947  01CB                     l2200:
   948                           
   949                           ;newmain.c: 52:         PWM1_Duty(50);
   950  01CB  3032               	movlw	50
   951  01CC  1683               	bsf	3,5	;RP0=1, select bank1
   952  01CD  1303               	bcf	3,6	;RP1=0, select bank1
   953  01CE  00A5               	movwf	PWM1_Duty@duty^(0+128)
   954  01CF  3000               	movlw	0
   955  01D0  00A6               	movwf	(PWM1_Duty@duty^(0+128)+1)
   956  01D1  120A  158A  2407  120A  118A  	fcall	_PWM1_Duty
   957  01D6                     l2202:
   958                           
   959                           ;newmain.c: 53:         PWM2_Start();
   960  01D6  120A  158A  22D0  120A  118A  	fcall	_PWM2_Start
   961  01DB                     l2204:
   962                           
   963                           ;newmain.c: 54:         PWM1_Start();
   964  01DB  120A  158A  22C5  120A  118A  	fcall	_PWM1_Start
   965  01E0                     l2206:
   966                           
   967                           ;newmain.c: 56:         if(SSPIF == 1)
   968  01E0  1283               	bcf	3,5	;RP0=0, select bank0
   969  01E1  1303               	bcf	3,6	;RP1=0, select bank0
   970  01E2  1D8C               	btfss	12,3	;volatile
   971  01E3  29E5               	goto	u2931
   972  01E4  29E6               	goto	u2930
   973  01E5                     u2931:
   974  01E5  2AAA               	goto	l2248
   975  01E6                     u2930:
   976  01E6                     l2208:
   977  01E6                     l2210:
   978                           
   979                           ;newmain.c: 60:             out = spiRead ();
   980  01E6  120A  158A  22BC  120A  118A  	fcall	_spiRead
   981  01EB  1683               	bsf	3,5	;RP0=1, select bank1
   982  01EC  1303               	bcf	3,6	;RP1=0, select bank1
   983  01ED  00A9               	movwf	??_main^(0+128)
   984  01EE  01AA               	clrf	(??_main^(0+128)+1)
   985  01EF  0829               	movf	??_main^(0+128),w
   986  01F0  00C4               	movwf	main@out^(0+128)
   987  01F1  082A               	movf	(??_main+1)^(0+128),w
   988  01F2  00C5               	movwf	(main@out+1)^(0+128)
   989  01F3                     l2212:
   990                           
   991                           ;newmain.c: 61:             if (out == 1)
   992  01F3  0344               	decf	main@out^(0+128),w
   993  01F4  0445               	iorwf	(main@out+1)^(0+128),w
   994  01F5  1D03               	btfss	3,2
   995  01F6  29F8               	goto	u2941
   996  01F7  29F9               	goto	u2940
   997  01F8                     u2941:
   998  01F8  2AA6               	goto	l2244
   999  01F9                     u2940:
  1000  01F9                     l2214:
  1001                           
  1002                           ;newmain.c: 62:             {;newmain.c: 63:                 RD0 = 1;
  1003  01F9  1283               	bcf	3,5	;RP0=0, select bank0
  1004  01FA  1303               	bcf	3,6	;RP1=0, select bank0
  1005  01FB  1408               	bsf	8,0	;volatile
  1006  01FC                     l2216:
  1007                           
  1008                           ;newmain.c: 64:                 _delay((unsigned long)((300)*(8000000/4000.0)));
  1009  01FC  3004               	movlw	4
  1010  01FD  1683               	bsf	3,5	;RP0=1, select bank1
  1011  01FE  1303               	bcf	3,6	;RP1=0, select bank1
  1012  01FF  00AB               	movwf	(??_main^(0+128)+2)
  1013  0200  300C               	movlw	12
  1014  0201  00AA               	movwf	(??_main^(0+128)+1)
  1015  0202  3033               	movlw	51
  1016  0203  00A9               	movwf	??_main^(0+128)
  1017  0204                     u2957:
  1018  0204  0BA9               	decfsz	??_main^(0+128),f
  1019  0205  2A04               	goto	u2957
  1020  0206  0BAA               	decfsz	(??_main^(0+128)+1),f
  1021  0207  2A04               	goto	u2957
  1022  0208  0BAB               	decfsz	(??_main^(0+128)+2),f
  1023  0209  2A04               	goto	u2957
  1024  020A                     l2218:
  1025                           
  1026                           ;newmain.c: 65:                 spiWrite (1);
  1027  020A  3001               	movlw	1
  1028  020B  120A  158A  22AF  120A  118A  	fcall	_spiWrite
  1029  0210                     l2220:
  1030                           
  1031                           ;newmain.c: 66:                 SSPBUF = 0;
  1032  0210  1283               	bcf	3,5	;RP0=0, select bank0
  1033  0211  1303               	bcf	3,6	;RP1=0, select bank0
  1034  0212  0193               	clrf	19	;volatile
  1035  0213                     l2222:
  1036                           
  1037                           ;newmain.c: 67:                 _delay((unsigned long)((5)*(8000000/4000.0)));
  1038  0213  300D               	movlw	13
  1039  0214  1683               	bsf	3,5	;RP0=1, select bank1
  1040  0215  1303               	bcf	3,6	;RP1=0, select bank1
  1041  0216  00AA               	movwf	(??_main^(0+128)+1)
  1042  0217  30FB               	movlw	251
  1043  0218  00A9               	movwf	??_main^(0+128)
  1044  0219                     u2967:
  1045  0219  0BA9               	decfsz	??_main^(0+128),f
  1046  021A  2A19               	goto	u2967
  1047  021B  0BAA               	decfsz	(??_main^(0+128)+1),f
  1048  021C  2A19               	goto	u2967
  1049  021D                     l2224:
  1050                           
  1051                           ;newmain.c: 68:                 v_l = spiRead ();
  1052  021D  120A  158A  22BC  120A  118A  	fcall	_spiRead
  1053  0222  1683               	bsf	3,5	;RP0=1, select bank1
  1054  0223  1303               	bcf	3,6	;RP1=0, select bank1
  1055  0224  00A9               	movwf	??_main^(0+128)
  1056  0225  01AA               	clrf	(??_main^(0+128)+1)
  1057  0226  0829               	movf	??_main^(0+128),w
  1058  0227  00C0               	movwf	main@v_l^(0+128)
  1059  0228  082A               	movf	(??_main+1)^(0+128),w
  1060  0229  00C1               	movwf	(main@v_l+1)^(0+128)
  1061                           
  1062                           ;newmain.c: 69:                 SSPBUF = 0;
  1063  022A  1283               	bcf	3,5	;RP0=0, select bank0
  1064  022B  1303               	bcf	3,6	;RP1=0, select bank0
  1065  022C  0193               	clrf	19	;volatile
  1066  022D                     l2226:
  1067                           
  1068                           ;newmain.c: 70:                 _delay((unsigned long)((10)*(8000000/4000.0)));
  1069  022D  301A               	movlw	26
  1070  022E  1683               	bsf	3,5	;RP0=1, select bank1
  1071  022F  1303               	bcf	3,6	;RP1=0, select bank1
  1072  0230  00AA               	movwf	(??_main^(0+128)+1)
  1073  0231  30F7               	movlw	247
  1074  0232  00A9               	movwf	??_main^(0+128)
  1075  0233                     u2977:
  1076  0233  0BA9               	decfsz	??_main^(0+128),f
  1077  0234  2A33               	goto	u2977
  1078  0235  0BAA               	decfsz	(??_main^(0+128)+1),f
  1079  0236  2A33               	goto	u2977
  1080  0237  2A38               	nop2
  1081  0238                     l2228:
  1082                           
  1083                           ;newmain.c: 71:                 v_r = spiRead ();
  1084  0238  120A  158A  22BC  120A  118A  	fcall	_spiRead
  1085  023D  1683               	bsf	3,5	;RP0=1, select bank1
  1086  023E  1303               	bcf	3,6	;RP1=0, select bank1
  1087  023F  00A9               	movwf	??_main^(0+128)
  1088  0240  01AA               	clrf	(??_main^(0+128)+1)
  1089  0241  0829               	movf	??_main^(0+128),w
  1090  0242  00C2               	movwf	main@v_r^(0+128)
  1091  0243  082A               	movf	(??_main+1)^(0+128),w
  1092  0244  00C3               	movwf	(main@v_r+1)^(0+128)
  1093  0245                     l2230:
  1094                           
  1095                           ;newmain.c: 73:                 sprintf(uart_logs, "v_left = %d\n\r", v_l);
  1096  0245  301A               	movlw	(low ((STR_1-__stringbase)| (0+32768)))& (0+255)
  1097  0246  00A9               	movwf	??_main^(0+128)
  1098  0247  0829               	movf	??_main^(0+128),w
  1099  0248  1283               	bcf	3,5	;RP0=0, select bank0
  1100  0249  1303               	bcf	3,6	;RP1=0, select bank0
  1101  024A  00A0               	movwf	sprintf@f
  1102  024B  1683               	bsf	3,5	;RP0=1, select bank1
  1103  024C  1303               	bcf	3,6	;RP1=0, select bank1
  1104  024D  0841               	movf	(main@v_l+1)^(0+128),w
  1105  024E  1283               	bcf	3,5	;RP0=0, select bank0
  1106  024F  1303               	bcf	3,6	;RP1=0, select bank0
  1107  0250  00A2               	movwf	?_sprintf+2
  1108  0251  1683               	bsf	3,5	;RP0=1, select bank1
  1109  0252  1303               	bcf	3,6	;RP1=0, select bank1
  1110  0253  0840               	movf	main@v_l^(0+128),w
  1111  0254  1283               	bcf	3,5	;RP0=0, select bank0
  1112  0255  1303               	bcf	3,6	;RP1=0, select bank0
  1113  0256  00A1               	movwf	?_sprintf+1
  1114  0257  30AC               	movlw	(low (main@uart_logs| 0))& (0+255)
  1115  0258  120A  118A  208D  120A  118A  	fcall	_sprintf
  1116  025D                     l2232:
  1117                           
  1118                           ;newmain.c: 74:                 _delay((unsigned long)((1)*(8000000/4000.0)));
  1119  025D  3003               	movlw	3
  1120  025E  1683               	bsf	3,5	;RP0=1, select bank1
  1121  025F  1303               	bcf	3,6	;RP1=0, select bank1
  1122  0260  00AA               	movwf	(??_main^(0+128)+1)
  1123  0261  3097               	movlw	151
  1124  0262  00A9               	movwf	??_main^(0+128)
  1125  0263                     u2987:
  1126  0263  0BA9               	decfsz	??_main^(0+128),f
  1127  0264  2A63               	goto	u2987
  1128  0265  0BAA               	decfsz	(??_main^(0+128)+1),f
  1129  0266  2A63               	goto	u2987
  1130  0267                     l2234:
  1131                           
  1132                           ;newmain.c: 75:                 UART_Write_Text(uart_logs);
  1133  0267  30AC               	movlw	(low (main@uart_logs| 0))& (0+255)
  1134  0268  120A  158A  22FD  120A  118A  	fcall	_UART_Write_Text
  1135  026D                     l2236:
  1136                           
  1137                           ;newmain.c: 76:                 sprintf(uart_logs, "v_right = %d\n\r", v_r);
  1138  026D  300B               	movlw	(low ((STR_2-__stringbase)| (0+32768)))& (0+255)
  1139  026E  1683               	bsf	3,5	;RP0=1, select bank1
  1140  026F  1303               	bcf	3,6	;RP1=0, select bank1
  1141  0270  00A9               	movwf	??_main^(0+128)
  1142  0271  0829               	movf	??_main^(0+128),w
  1143  0272  1283               	bcf	3,5	;RP0=0, select bank0
  1144  0273  1303               	bcf	3,6	;RP1=0, select bank0
  1145  0274  00A0               	movwf	sprintf@f
  1146  0275  1683               	bsf	3,5	;RP0=1, select bank1
  1147  0276  1303               	bcf	3,6	;RP1=0, select bank1
  1148  0277  0843               	movf	(main@v_r+1)^(0+128),w
  1149  0278  1283               	bcf	3,5	;RP0=0, select bank0
  1150  0279  1303               	bcf	3,6	;RP1=0, select bank0
  1151  027A  00A2               	movwf	?_sprintf+2
  1152  027B  1683               	bsf	3,5	;RP0=1, select bank1
  1153  027C  1303               	bcf	3,6	;RP1=0, select bank1
  1154  027D  0842               	movf	main@v_r^(0+128),w
  1155  027E  1283               	bcf	3,5	;RP0=0, select bank0
  1156  027F  1303               	bcf	3,6	;RP1=0, select bank0
  1157  0280  00A1               	movwf	?_sprintf+1
  1158  0281  30AC               	movlw	(low (main@uart_logs| 0))& (0+255)
  1159  0282  120A  118A  208D  120A  118A  	fcall	_sprintf
  1160  0287                     l2238:
  1161                           
  1162                           ;newmain.c: 77:                 _delay((unsigned long)((1)*(8000000/4000.0)));
  1163  0287  3003               	movlw	3
  1164  0288  1683               	bsf	3,5	;RP0=1, select bank1
  1165  0289  1303               	bcf	3,6	;RP1=0, select bank1
  1166  028A  00AA               	movwf	(??_main^(0+128)+1)
  1167  028B  3097               	movlw	151
  1168  028C  00A9               	movwf	??_main^(0+128)
  1169  028D                     u2997:
  1170  028D  0BA9               	decfsz	??_main^(0+128),f
  1171  028E  2A8D               	goto	u2997
  1172  028F  0BAA               	decfsz	(??_main^(0+128)+1),f
  1173  0290  2A8D               	goto	u2997
  1174  0291                     l2240:
  1175                           
  1176                           ;newmain.c: 78:                 UART_Write_Text(uart_logs);
  1177  0291  30AC               	movlw	(low (main@uart_logs| 0))& (0+255)
  1178  0292  120A  158A  22FD  120A  118A  	fcall	_UART_Write_Text
  1179  0297                     l2242:
  1180                           
  1181                           ;newmain.c: 79:                 _delay((unsigned long)((100)*(8000000/4000.0)));
  1182  0297  3002               	movlw	2
  1183  0298  1683               	bsf	3,5	;RP0=1, select bank1
  1184  0299  1303               	bcf	3,6	;RP1=0, select bank1
  1185  029A  00AB               	movwf	(??_main^(0+128)+2)
  1186  029B  3004               	movlw	4
  1187  029C  00AA               	movwf	(??_main^(0+128)+1)
  1188  029D  30B9               	movlw	185
  1189  029E  00A9               	movwf	??_main^(0+128)
  1190  029F                     u3007:
  1191  029F  0BA9               	decfsz	??_main^(0+128),f
  1192  02A0  2A9F               	goto	u3007
  1193  02A1  0BAA               	decfsz	(??_main^(0+128)+1),f
  1194  02A2  2A9F               	goto	u3007
  1195  02A3  0BAB               	decfsz	(??_main^(0+128)+2),f
  1196  02A4  2A9F               	goto	u3007
  1197  02A5  2AA6               	nop2
  1198  02A6                     l2244:
  1199                           
  1200                           ;newmain.c: 81:             RD0 = 0;
  1201  02A6  1283               	bcf	3,5	;RP0=0, select bank0
  1202  02A7  1303               	bcf	3,6	;RP1=0, select bank0
  1203  02A8  1008               	bcf	8,0	;volatile
  1204  02A9                     l2246:
  1205                           
  1206                           ;newmain.c: 82:             SSPIF = 0;
  1207  02A9  118C               	bcf	12,3	;volatile
  1208  02AA                     l2248:
  1209                           
  1210                           ;newmain.c: 84:         _delay((unsigned long)((5)*(8000000/4000.0)));
  1211  02AA  300D               	movlw	13
  1212  02AB  1683               	bsf	3,5	;RP0=1, select bank1
  1213  02AC  1303               	bcf	3,6	;RP1=0, select bank1
  1214  02AD  00AA               	movwf	(??_main^(0+128)+1)
  1215  02AE  30FB               	movlw	251
  1216  02AF  00A9               	movwf	??_main^(0+128)
  1217  02B0                     u3017:
  1218  02B0  0BA9               	decfsz	??_main^(0+128),f
  1219  02B1  2AB0               	goto	u3017
  1220  02B2  0BAA               	decfsz	(??_main^(0+128)+1),f
  1221  02B3  2AB0               	goto	u3017
  1222  02B4  29C0               	goto	l2198
  1223  02B5  120A  118A  2800   	ljmp	start
  1224  02B8                     __end_of_main:
  1225                           
  1226                           	psect	text1
  1227  008D                     __ptext1:	
  1228 ;; *************** function _sprintf *****************
  1229 ;; Defined at:
  1230 ;;		line 505 in file "C:\Program Files\Microchip\xc8\v2.32\pic\sources\c90\common\doprnt.c"
  1231 ;; Parameters:    Size  Location     Type
  1232 ;;  sp              1    wreg     PTR unsigned char 
  1233 ;;		 -> main@uart_logs(20), 
  1234 ;;  f               1    0[BANK0 ] PTR const unsigned char 
  1235 ;;		 -> STR_2(15), STR_1(14), 
  1236 ;; Auto vars:     Size  Location     Type
  1237 ;;  sp              1   11[BANK0 ] PTR unsigned char 
  1238 ;;		 -> main@uart_logs(20), 
  1239 ;;  tmpval          4    0        struct .
  1240 ;;  val             2    9[BANK0 ] unsigned int 
  1241 ;;  cp              2    0        PTR const unsigned char 
  1242 ;;  len             2    0        unsigned int 
  1243 ;;  c               1   12[BANK0 ] unsigned char 
  1244 ;;  prec            1    8[BANK0 ] char 
  1245 ;;  flag            1    7[BANK0 ] unsigned char 
  1246 ;;  ap              1    6[BANK0 ] PTR void [1]
  1247 ;;		 -> ?_sprintf(2), 
  1248 ;; Return value:  Size  Location     Type
  1249 ;;                  2    0[BANK0 ] int 
  1250 ;; Registers used:
  1251 ;;		wreg, fsr0l, fsr0h, status,2, status,0, btemp+1, pclath, cstack
  1252 ;; Tracked objects:
  1253 ;;		On entry : 0/0
  1254 ;;		On exit  : 0/0
  1255 ;;		Unchanged: 0/0
  1256 ;; Data sizes:     COMMON   BANK0   BANK1   BANK3   BANK2
  1257 ;;      Params:         0       3       0       0       0
  1258 ;;      Locals:         0       7       0       0       0
  1259 ;;      Temps:          0       3       0       0       0
  1260 ;;      Totals:         0      13       0       0       0
  1261 ;;Total ram usage:       13 bytes
  1262 ;; Hardware stack levels used: 1
  1263 ;; Hardware stack levels required when called: 1
  1264 ;; This function calls:
  1265 ;;		___lwdiv
  1266 ;;		___lwmod
  1267 ;; This function is called by:
  1268 ;;		_main
  1269 ;; This function uses a non-reentrant model
  1270 ;;
  1271                           
  1272                           
  1273                           ;psect for function _sprintf
  1274  008D                     _sprintf:
  1275                           
  1276                           ;incstack = 0
  1277                           ; Regs used in _sprintf: [wreg-fsr0h+status,2+status,0+btemp+1+pclath+cstack]
  1278                           ;sprintf@sp stored from wreg
  1279  008D  1283               	bcf	3,5	;RP0=0, select bank0
  1280  008E  1303               	bcf	3,6	;RP1=0, select bank0
  1281  008F  00AB               	movwf	sprintf@sp
  1282  0090                     l2106:
  1283                           
  1284                           ;C:\Program Files\Microchip\xc8\v2.32\pic\sources\c90\common\doprnt.c: 505: sprintf(char
      +                           * sp, const char * f, ...);C:\Program Files\Microchip\xc8\v2.32\pic\sources\c90\common\
      +                          doprnt.c: 506: {;C:\Program Files\Microchip\xc8\v2.32\pic\sources\c90\common\doprnt.c: 5
      +                          07:  va_list ap;;C:\Program Files\Microchip\xc8\v2.32\pic\sources\c90\common\doprnt.c: 5
      +                          12:  char c;;C:\Program Files\Microchip\xc8\v2.32\pic\sources\c90\common\doprnt.c: 521: 
      +                           signed char prec;;C:\Program Files\Microchip\xc8\v2.32\pic\sources\c90\common\doprnt.c:
      +                           525:  unsigned char flag;
  1285  0090  3021               	movlw	(low ((?_sprintf| 0+1)))& (0+255)
  1286  0091  00A3               	movwf	??_sprintf
  1287  0092  0823               	movf	??_sprintf,w
  1288  0093  00A6               	movwf	sprintf@ap
  1289                           
  1290                           ;C:\Program Files\Microchip\xc8\v2.32\pic\sources\c90\common\doprnt.c: 553:  while((c = 
      +                          *f++)) {
  1291  0094  295E               	goto	l2158
  1292  0095                     l2108:
  1293                           
  1294                           ;C:\Program Files\Microchip\xc8\v2.32\pic\sources\c90\common\doprnt.c: 555:   if(c != '%
      +                          ')
  1295  0095  3025               	movlw	37
  1296  0096  062C               	xorwf	sprintf@c,w
  1297  0097  1903               	btfsc	3,2
  1298  0098  289A               	goto	u2861
  1299  0099  289B               	goto	u2860
  1300  009A                     u2861:
  1301  009A  28A7               	goto	l2114
  1302  009B                     u2860:
  1303  009B                     l2110:
  1304                           
  1305                           ;C:\Program Files\Microchip\xc8\v2.32\pic\sources\c90\common\doprnt.c: 557:   {;C:\Progr
      +                          am Files\Microchip\xc8\v2.32\pic\sources\c90\common\doprnt.c: 558:    ((*sp++ = (c)));
  1306  009B  082C               	movf	sprintf@c,w
  1307  009C  00A3               	movwf	??_sprintf
  1308  009D  082B               	movf	sprintf@sp,w
  1309  009E  0084               	movwf	4
  1310  009F  0823               	movf	??_sprintf,w
  1311  00A0  1383               	bcf	3,7	;select IRP bank0
  1312  00A1  0080               	movwf	0
  1313  00A2                     l2112:
  1314  00A2  3001               	movlw	1
  1315  00A3  00A3               	movwf	??_sprintf
  1316  00A4  0823               	movf	??_sprintf,w
  1317  00A5  07AB               	addwf	sprintf@sp,f
  1318                           
  1319                           ;C:\Program Files\Microchip\xc8\v2.32\pic\sources\c90\common\doprnt.c: 559:    continue;
  1320  00A6  295E               	goto	l2158
  1321  00A7                     l2114:
  1322                           
  1323                           ;C:\Program Files\Microchip\xc8\v2.32\pic\sources\c90\common\doprnt.c: 565:   flag = 0;
  1324  00A7  01A7               	clrf	sprintf@flag
  1325  00A8                     l2118:	
  1326                           ;C:\Program Files\Microchip\xc8\v2.32\pic\sources\c90\common\doprnt.c: 661:   switch(c =
      +                           *f++) {
  1327                           
  1328  00A8  3001               	movlw	1
  1329  00A9  07A0               	addwf	sprintf@f,f
  1330  00AA  30FF               	movlw	-1
  1331  00AB  0720               	addwf	sprintf@f,w
  1332  00AC  0084               	movwf	4
  1333  00AD  120A  158A  2000  120A  118A  	fcall	stringdir
  1334  00B2  00AC               	movwf	sprintf@c
  1335  00B3  00A3               	movwf	??_sprintf
  1336  00B4  01A4               	clrf	??_sprintf+1
  1337                           
  1338                           ; Switch on 2 bytes has been partitioned into a top level switch of size 1, and 1 sub-sw
      +                          itches
  1339                           ; Switch size 1, requested type "simple"
  1340                           ; Number of cases is 1, Range of values is 0 to 0
  1341                           ; switch strategies available:
  1342                           ; Name         Instructions Cycles
  1343                           ; simple_byte            4     3 (average)
  1344                           ; direct_byte           11     8 (fixed)
  1345                           ; jumptable            260     6 (fixed)
  1346                           ;	Chosen strategy is simple_byte
  1347  00B5  0824               	movf	??_sprintf+1,w
  1348  00B6  3A00               	xorlw	0	; case 0
  1349  00B7  1903               	skipnz
  1350  00B8  28BA               	goto	l2270
  1351  00B9  295E               	goto	l2158
  1352  00BA                     l2270:
  1353                           
  1354                           ; Switch size 1, requested type "simple"
  1355                           ; Number of cases is 3, Range of values is 0 to 105
  1356                           ; switch strategies available:
  1357                           ; Name         Instructions Cycles
  1358                           ; simple_byte           10     6 (average)
  1359                           ; jumptable            260     6 (fixed)
  1360                           ;	Chosen strategy is simple_byte
  1361  00BA  0823               	movf	??_sprintf,w
  1362  00BB  3A00               	xorlw	0	; case 0
  1363  00BC  1903               	skipnz
  1364  00BD  2970               	goto	l2160
  1365  00BE  3A64               	xorlw	100	; case 100
  1366  00BF  1903               	skipnz
  1367  00C0  28C5               	goto	l2120
  1368  00C1  3A0D               	xorlw	13	; case 105
  1369  00C2  1903               	skipnz
  1370  00C3  28C5               	goto	l2120
  1371  00C4  295E               	goto	l2158
  1372  00C5                     l2120:
  1373                           
  1374                           ;C:\Program Files\Microchip\xc8\v2.32\pic\sources\c90\common\doprnt.c: 1279:   {;C:\Prog
      +                          ram Files\Microchip\xc8\v2.32\pic\sources\c90\common\doprnt.c: 1285:     val = (unsigned
      +                           int)(*(int *)__va_arg((*(int **)ap), (int)0));
  1375  00C5  0826               	movf	sprintf@ap,w
  1376  00C6  0084               	movwf	4
  1377  00C7  1383               	bcf	3,7	;select IRP bank0
  1378  00C8  0800               	movf	0,w
  1379  00C9  00A9               	movwf	sprintf@val
  1380  00CA  0A84               	incf	4,f
  1381  00CB  0800               	movf	0,w
  1382  00CC  00AA               	movwf	sprintf@val+1
  1383  00CD                     l2122:
  1384  00CD  3002               	movlw	2
  1385  00CE  00A3               	movwf	??_sprintf
  1386  00CF  0823               	movf	??_sprintf,w
  1387  00D0  07A6               	addwf	sprintf@ap,f
  1388  00D1                     l2124:
  1389                           
  1390                           ;C:\Program Files\Microchip\xc8\v2.32\pic\sources\c90\common\doprnt.c: 1287:    if((int)
      +                          val < 0) {
  1391  00D1  1FAA               	btfss	sprintf@val+1,7
  1392  00D2  28D4               	goto	u2871
  1393  00D3  28D5               	goto	u2870
  1394  00D4                     u2871:
  1395  00D4  28DE               	goto	l2130
  1396  00D5                     u2870:
  1397  00D5                     l2126:
  1398                           
  1399                           ;C:\Program Files\Microchip\xc8\v2.32\pic\sources\c90\common\doprnt.c: 1288:     flag |=
      +                           0x03;
  1400  00D5  3003               	movlw	3
  1401  00D6  00A3               	movwf	??_sprintf
  1402  00D7  0823               	movf	??_sprintf,w
  1403  00D8  04A7               	iorwf	sprintf@flag,f
  1404  00D9                     l2128:
  1405                           
  1406                           ;C:\Program Files\Microchip\xc8\v2.32\pic\sources\c90\common\doprnt.c: 1289:     val = -
      +                          val;
  1407  00D9  09A9               	comf	sprintf@val,f
  1408  00DA  09AA               	comf	sprintf@val+1,f
  1409  00DB  0AA9               	incf	sprintf@val,f
  1410  00DC  1903               	skipnz
  1411  00DD  0AAA               	incf	sprintf@val+1,f
  1412  00DE                     l2130:
  1413                           
  1414                           ;C:\Program Files\Microchip\xc8\v2.32\pic\sources\c90\common\doprnt.c: 1292:   };C:\Prog
      +                          ram Files\Microchip\xc8\v2.32\pic\sources\c90\common\doprnt.c: 1331:    for(c = 1 ; c !=
      +                           sizeof dpowers/sizeof dpowers[0] ; c++)
  1415  00DE  01AC               	clrf	sprintf@c
  1416  00DF  0AAC               	incf	sprintf@c,f
  1417  00E0                     l2136:
  1418                           
  1419                           ;C:\Program Files\Microchip\xc8\v2.32\pic\sources\c90\common\doprnt.c: 1332:     if(val 
      +                          < dpowers[c])
  1420  00E0  082C               	movf	sprintf@c,w
  1421  00E1  00A3               	movwf	??_sprintf
  1422  00E2  0723               	addwf	??_sprintf,w
  1423  00E3  3E01               	addlw	low ((_dpowers-__stringbase)| (0+32768))
  1424  00E4  0084               	movwf	4
  1425  00E5  120A  158A  2000  120A  118A  	fcall	stringdir
  1426  00EA  00A4               	movwf	??_sprintf+1
  1427  00EB  120A  158A  2000  120A  118A  	fcall	stringdir
  1428  00F0  00A5               	movwf	??_sprintf+2
  1429  00F1  0825               	movf	??_sprintf+2,w
  1430  00F2  022A               	subwf	sprintf@val+1,w
  1431  00F3  1D03               	skipz
  1432  00F4  28F7               	goto	u2885
  1433  00F5  0824               	movf	??_sprintf+1,w
  1434  00F6  0229               	subwf	sprintf@val,w
  1435  00F7                     u2885:
  1436  00F7  1803               	skipnc
  1437  00F8  28FA               	goto	u2881
  1438  00F9  28FB               	goto	u2880
  1439  00FA                     u2881:
  1440  00FA  28FC               	goto	l2140
  1441  00FB                     u2880:
  1442  00FB  2906               	goto	l2142
  1443  00FC                     l2140:
  1444  00FC  3001               	movlw	1
  1445  00FD  00A3               	movwf	??_sprintf
  1446  00FE  0823               	movf	??_sprintf,w
  1447  00FF  07AC               	addwf	sprintf@c,f
  1448  0100  3005               	movlw	5
  1449  0101  062C               	xorwf	sprintf@c,w
  1450  0102  1D03               	btfss	3,2
  1451  0103  2905               	goto	u2891
  1452  0104  2906               	goto	u2890
  1453  0105                     u2891:
  1454  0105  28E0               	goto	l2136
  1455  0106                     u2890:
  1456  0106                     l2142:
  1457                           
  1458                           ;C:\Program Files\Microchip\xc8\v2.32\pic\sources\c90\common\doprnt.c: 1448:   {;C:\Prog
      +                          ram Files\Microchip\xc8\v2.32\pic\sources\c90\common\doprnt.c: 1464:    if(flag & 0x03)
  1459  0106  0827               	movf	sprintf@flag,w
  1460  0107  3903               	andlw	3
  1461  0108  1903               	btfsc	3,2
  1462  0109  290B               	goto	u2901
  1463  010A  290C               	goto	u2900
  1464  010B                     u2901:
  1465  010B  2917               	goto	l2148
  1466  010C                     u2900:
  1467  010C                     l2144:
  1468                           
  1469                           ;C:\Program Files\Microchip\xc8\v2.32\pic\sources\c90\common\doprnt.c: 1465:     ((*sp++
      +                           = ('-')));
  1470  010C  302D               	movlw	45
  1471  010D  00A3               	movwf	??_sprintf
  1472  010E  082B               	movf	sprintf@sp,w
  1473  010F  0084               	movwf	4
  1474  0110  0823               	movf	??_sprintf,w
  1475  0111  1383               	bcf	3,7	;select IRP bank0
  1476  0112  0080               	movwf	0
  1477  0113                     l2146:
  1478  0113  3001               	movlw	1
  1479  0114  00A3               	movwf	??_sprintf
  1480  0115  0823               	movf	??_sprintf,w
  1481  0116  07AB               	addwf	sprintf@sp,f
  1482  0117                     l2148:
  1483                           
  1484                           ;C:\Program Files\Microchip\xc8\v2.32\pic\sources\c90\common\doprnt.c: 1495:   };C:\Prog
      +                          ram Files\Microchip\xc8\v2.32\pic\sources\c90\common\doprnt.c: 1498:   prec = c;
  1485  0117  082C               	movf	sprintf@c,w
  1486  0118  00A3               	movwf	??_sprintf
  1487  0119  0823               	movf	??_sprintf,w
  1488  011A  00A8               	movwf	sprintf@prec
  1489                           
  1490                           ;C:\Program Files\Microchip\xc8\v2.32\pic\sources\c90\common\doprnt.c: 1500:   while(pre
      +                          c--) {
  1491  011B  2955               	goto	l2156
  1492  011C                     l2150:
  1493                           
  1494                           ;C:\Program Files\Microchip\xc8\v2.32\pic\sources\c90\common\doprnt.c: 1504:    {;C:\Pro
      +                          gram Files\Microchip\xc8\v2.32\pic\sources\c90\common\doprnt.c: 1515:     c = (val / dpo
      +                          wers[(unsigned char)prec]) % 10 + '0';
  1495  011C  300A               	movlw	10
  1496  011D  00F8               	movwf	___lwmod@divisor
  1497  011E  3000               	movlw	0
  1498  011F  00F9               	movwf	___lwmod@divisor+1
  1499  0120  0828               	movf	sprintf@prec,w
  1500  0121  00A3               	movwf	??_sprintf
  1501  0122  0723               	addwf	??_sprintf,w
  1502  0123  3E01               	addlw	low ((_dpowers-__stringbase)| (0+32768))
  1503  0124  0084               	movwf	4
  1504  0125  120A  158A  2000  120A  118A  	fcall	stringdir
  1505  012A  00F0               	movwf	___lwdiv@divisor
  1506  012B  120A  158A  2000  120A  118A  	fcall	stringdir
  1507  0130  00F1               	movwf	___lwdiv@divisor+1
  1508  0131  082A               	movf	sprintf@val+1,w
  1509  0132  00F3               	movwf	___lwdiv@dividend+1
  1510  0133  0829               	movf	sprintf@val,w
  1511  0134  00F2               	movwf	___lwdiv@dividend
  1512  0135  120A  158A  2374  120A  118A  	fcall	___lwdiv
  1513  013A  0871               	movf	?___lwdiv+1,w
  1514  013B  00FB               	movwf	___lwmod@dividend+1
  1515  013C  0870               	movf	?___lwdiv,w
  1516  013D  00FA               	movwf	___lwmod@dividend
  1517  013E  120A  118A  2004  120A  118A  	fcall	___lwmod
  1518  0143  0878               	movf	?___lwmod,w
  1519  0144  3E30               	addlw	48
  1520  0145  1283               	bcf	3,5	;RP0=0, select bank0
  1521  0146  1303               	bcf	3,6	;RP1=0, select bank0
  1522  0147  00A4               	movwf	??_sprintf+1
  1523  0148  0824               	movf	??_sprintf+1,w
  1524  0149  00AC               	movwf	sprintf@c
  1525  014A                     l2152:
  1526                           
  1527                           ;C:\Program Files\Microchip\xc8\v2.32\pic\sources\c90\common\doprnt.c: 1549:    };C:\Pro
      +                          gram Files\Microchip\xc8\v2.32\pic\sources\c90\common\doprnt.c: 1550:    ((*sp++ = (c)))
      +                          ;
  1528  014A  082C               	movf	sprintf@c,w
  1529  014B  00A3               	movwf	??_sprintf
  1530  014C  082B               	movf	sprintf@sp,w
  1531  014D  0084               	movwf	4
  1532  014E  0823               	movf	??_sprintf,w
  1533  014F  1383               	bcf	3,7	;select IRP bank0
  1534  0150  0080               	movwf	0
  1535  0151                     l2154:
  1536  0151  3001               	movlw	1
  1537  0152  00A3               	movwf	??_sprintf
  1538  0153  0823               	movf	??_sprintf,w
  1539  0154  07AB               	addwf	sprintf@sp,f
  1540  0155                     l2156:
  1541                           
  1542                           ;C:\Program Files\Microchip\xc8\v2.32\pic\sources\c90\common\doprnt.c: 1500:   while(pre
      +                          c--) {
  1543  0155  30FF               	movlw	255
  1544  0156  00A3               	movwf	??_sprintf
  1545  0157  0823               	movf	??_sprintf,w
  1546  0158  07A8               	addwf	sprintf@prec,f
  1547  0159  0A28               	incf	sprintf@prec,w
  1548  015A  1D03               	btfss	3,2
  1549  015B  295D               	goto	u2911
  1550  015C  295E               	goto	u2910
  1551  015D                     u2911:
  1552  015D  291C               	goto	l2150
  1553  015E                     u2910:
  1554  015E                     l2158:
  1555                           
  1556                           ;C:\Program Files\Microchip\xc8\v2.32\pic\sources\c90\common\doprnt.c: 553:  while((c = 
      +                          *f++)) {
  1557  015E  3001               	movlw	1
  1558  015F  07A0               	addwf	sprintf@f,f
  1559  0160  30FF               	movlw	-1
  1560  0161  0720               	addwf	sprintf@f,w
  1561  0162  0084               	movwf	4
  1562  0163  120A  158A  2000  120A  118A  	fcall	stringdir
  1563  0168  00A3               	movwf	??_sprintf
  1564  0169  0823               	movf	??_sprintf,w
  1565  016A  00AC               	movwf	sprintf@c
  1566  016B  082C               	movf	sprintf@c,w
  1567  016C  1D03               	btfss	3,2
  1568  016D  296F               	goto	u2921
  1569  016E  2970               	goto	u2920
  1570  016F                     u2921:
  1571  016F  2895               	goto	l2108
  1572  0170                     u2920:
  1573  0170                     l2160:
  1574                           
  1575                           ;C:\Program Files\Microchip\xc8\v2.32\pic\sources\c90\common\doprnt.c: 1564:  *sp = 0;
  1576  0170  082B               	movf	sprintf@sp,w
  1577  0171  0084               	movwf	4
  1578  0172  1383               	bcf	3,7	;select IRP bank0
  1579  0173  0180               	clrf	0
  1580  0174                     l296:
  1581  0174  0008               	return
  1582  0175                     __end_of_sprintf:
  1583                           
  1584                           	psect	text2
  1585  0004                     __ptext2:	
  1586 ;; *************** function ___lwmod *****************
  1587 ;; Defined at:
  1588 ;;		line 5 in file "C:\Program Files\Microchip\xc8\v2.32\pic\sources\c90\common\lwmod.c"
  1589 ;; Parameters:    Size  Location     Type
  1590 ;;  divisor         2    8[COMMON] unsigned int 
  1591 ;;  dividend        2   10[COMMON] unsigned int 
  1592 ;; Auto vars:     Size  Location     Type
  1593 ;;  counter         1   13[COMMON] unsigned char 
  1594 ;; Return value:  Size  Location     Type
  1595 ;;                  2    8[COMMON] unsigned int 
  1596 ;; Registers used:
  1597 ;;		wreg, status,2, status,0
  1598 ;; Tracked objects:
  1599 ;;		On entry : 0/0
  1600 ;;		On exit  : 0/0
  1601 ;;		Unchanged: 0/0
  1602 ;; Data sizes:     COMMON   BANK0   BANK1   BANK3   BANK2
  1603 ;;      Params:         4       0       0       0       0
  1604 ;;      Locals:         1       0       0       0       0
  1605 ;;      Temps:          1       0       0       0       0
  1606 ;;      Totals:         6       0       0       0       0
  1607 ;;Total ram usage:        6 bytes
  1608 ;; Hardware stack levels used: 1
  1609 ;; This function calls:
  1610 ;;		Nothing
  1611 ;; This function is called by:
  1612 ;;		_sprintf
  1613 ;; This function uses a non-reentrant model
  1614 ;;
  1615                           
  1616                           
  1617                           ;psect for function ___lwmod
  1618  0004                     ___lwmod:
  1619  0004                     l1678:	
  1620                           ;incstack = 0
  1621                           ; Regs used in ___lwmod: [wreg+status,2+status,0]
  1622                           
  1623  0004  0878               	movf	___lwmod@divisor,w
  1624  0005  0479               	iorwf	___lwmod@divisor+1,w
  1625  0006  1903               	btfsc	3,2
  1626  0007  2809               	goto	u1821
  1627  0008  280A               	goto	u1820
  1628  0009                     u1821:
  1629  0009  2839               	goto	l1696
  1630  000A                     u1820:
  1631  000A                     l1680:
  1632  000A  01FD               	clrf	___lwmod@counter
  1633  000B  0AFD               	incf	___lwmod@counter,f
  1634  000C  2818               	goto	l1686
  1635  000D                     l1682:
  1636  000D  3001               	movlw	1
  1637  000E                     u1835:
  1638  000E  1003               	clrc
  1639  000F  0DF8               	rlf	___lwmod@divisor,f
  1640  0010  0DF9               	rlf	___lwmod@divisor+1,f
  1641  0011  3EFF               	addlw	-1
  1642  0012  1D03               	skipz
  1643  0013  280E               	goto	u1835
  1644  0014                     l1684:
  1645  0014  3001               	movlw	1
  1646  0015  00FC               	movwf	??___lwmod
  1647  0016  087C               	movf	??___lwmod,w
  1648  0017  07FD               	addwf	___lwmod@counter,f
  1649  0018                     l1686:
  1650  0018  1FF9               	btfss	___lwmod@divisor+1,7
  1651  0019  281B               	goto	u1841
  1652  001A  281C               	goto	u1840
  1653  001B                     u1841:
  1654  001B  280D               	goto	l1682
  1655  001C                     u1840:
  1656  001C                     l1688:
  1657  001C  0879               	movf	___lwmod@divisor+1,w
  1658  001D  027B               	subwf	___lwmod@dividend+1,w
  1659  001E  1D03               	skipz
  1660  001F  2822               	goto	u1855
  1661  0020  0878               	movf	___lwmod@divisor,w
  1662  0021  027A               	subwf	___lwmod@dividend,w
  1663  0022                     u1855:
  1664  0022  1C03               	skipc
  1665  0023  2825               	goto	u1851
  1666  0024  2826               	goto	u1850
  1667  0025                     u1851:
  1668  0025  282C               	goto	l1692
  1669  0026                     u1850:
  1670  0026                     l1690:
  1671  0026  0878               	movf	___lwmod@divisor,w
  1672  0027  02FA               	subwf	___lwmod@dividend,f
  1673  0028  0879               	movf	___lwmod@divisor+1,w
  1674  0029  1C03               	skipc
  1675  002A  03FB               	decf	___lwmod@dividend+1,f
  1676  002B  02FB               	subwf	___lwmod@dividend+1,f
  1677  002C                     l1692:
  1678  002C  3001               	movlw	1
  1679  002D                     u1865:
  1680  002D  1003               	clrc
  1681  002E  0CF9               	rrf	___lwmod@divisor+1,f
  1682  002F  0CF8               	rrf	___lwmod@divisor,f
  1683  0030  3EFF               	addlw	-1
  1684  0031  1D03               	skipz
  1685  0032  282D               	goto	u1865
  1686  0033                     l1694:
  1687  0033  3001               	movlw	1
  1688  0034  02FD               	subwf	___lwmod@counter,f
  1689  0035  1D03               	btfss	3,2
  1690  0036  2838               	goto	u1871
  1691  0037  2839               	goto	u1870
  1692  0038                     u1871:
  1693  0038  281C               	goto	l1688
  1694  0039                     u1870:
  1695  0039                     l1696:
  1696  0039  087B               	movf	___lwmod@dividend+1,w
  1697  003A  00F9               	movwf	?___lwmod+1
  1698  003B  087A               	movf	___lwmod@dividend,w
  1699  003C  00F8               	movwf	?___lwmod
  1700  003D                     l582:
  1701  003D  0008               	return
  1702  003E                     __end_of___lwmod:
  1703                           
  1704                           	psect	text3
  1705  0B74                     __ptext3:	
  1706 ;; *************** function ___lwdiv *****************
  1707 ;; Defined at:
  1708 ;;		line 5 in file "C:\Program Files\Microchip\xc8\v2.32\pic\sources\c90\common\lwdiv.c"
  1709 ;; Parameters:    Size  Location     Type
  1710 ;;  divisor         2    0[COMMON] unsigned int 
  1711 ;;  dividend        2    2[COMMON] unsigned int 
  1712 ;; Auto vars:     Size  Location     Type
  1713 ;;  quotient        2    5[COMMON] unsigned int 
  1714 ;;  counter         1    7[COMMON] unsigned char 
  1715 ;; Return value:  Size  Location     Type
  1716 ;;                  2    0[COMMON] unsigned int 
  1717 ;; Registers used:
  1718 ;;		wreg, status,2, status,0
  1719 ;; Tracked objects:
  1720 ;;		On entry : 0/0
  1721 ;;		On exit  : 0/0
  1722 ;;		Unchanged: 0/0
  1723 ;; Data sizes:     COMMON   BANK0   BANK1   BANK3   BANK2
  1724 ;;      Params:         4       0       0       0       0
  1725 ;;      Locals:         3       0       0       0       0
  1726 ;;      Temps:          1       0       0       0       0
  1727 ;;      Totals:         8       0       0       0       0
  1728 ;;Total ram usage:        8 bytes
  1729 ;; Hardware stack levels used: 1
  1730 ;; This function calls:
  1731 ;;		Nothing
  1732 ;; This function is called by:
  1733 ;;		_sprintf
  1734 ;; This function uses a non-reentrant model
  1735 ;;
  1736                           
  1737                           
  1738                           ;psect for function ___lwdiv
  1739  0B74                     ___lwdiv:
  1740  0B74                     l1652:	
  1741                           ;incstack = 0
  1742                           ; Regs used in ___lwdiv: [wreg+status,2+status,0]
  1743                           
  1744  0B74  01F5               	clrf	___lwdiv@quotient
  1745  0B75  01F6               	clrf	___lwdiv@quotient+1
  1746  0B76                     l1654:
  1747  0B76  0870               	movf	___lwdiv@divisor,w
  1748  0B77  0471               	iorwf	___lwdiv@divisor+1,w
  1749  0B78  1903               	btfsc	3,2
  1750  0B79  2B7B               	goto	u1751
  1751  0B7A  2B7C               	goto	u1750
  1752  0B7B                     u1751:
  1753  0B7B  2BB3               	goto	l1674
  1754  0B7C                     u1750:
  1755  0B7C                     l1656:
  1756  0B7C  01F7               	clrf	___lwdiv@counter
  1757  0B7D  0AF7               	incf	___lwdiv@counter,f
  1758  0B7E  2B8A               	goto	l1662
  1759  0B7F                     l1658:
  1760  0B7F  3001               	movlw	1
  1761  0B80                     u1765:
  1762  0B80  1003               	clrc
  1763  0B81  0DF0               	rlf	___lwdiv@divisor,f
  1764  0B82  0DF1               	rlf	___lwdiv@divisor+1,f
  1765  0B83  3EFF               	addlw	-1
  1766  0B84  1D03               	skipz
  1767  0B85  2B80               	goto	u1765
  1768  0B86                     l1660:
  1769  0B86  3001               	movlw	1
  1770  0B87  00F4               	movwf	??___lwdiv
  1771  0B88  0874               	movf	??___lwdiv,w
  1772  0B89  07F7               	addwf	___lwdiv@counter,f
  1773  0B8A                     l1662:
  1774  0B8A  1FF1               	btfss	___lwdiv@divisor+1,7
  1775  0B8B  2B8D               	goto	u1771
  1776  0B8C  2B8E               	goto	u1770
  1777  0B8D                     u1771:
  1778  0B8D  2B7F               	goto	l1658
  1779  0B8E                     u1770:
  1780  0B8E                     l1664:
  1781  0B8E  3001               	movlw	1
  1782  0B8F                     u1785:
  1783  0B8F  1003               	clrc
  1784  0B90  0DF5               	rlf	___lwdiv@quotient,f
  1785  0B91  0DF6               	rlf	___lwdiv@quotient+1,f
  1786  0B92  3EFF               	addlw	-1
  1787  0B93  1D03               	skipz
  1788  0B94  2B8F               	goto	u1785
  1789  0B95  0871               	movf	___lwdiv@divisor+1,w
  1790  0B96  0273               	subwf	___lwdiv@dividend+1,w
  1791  0B97  1D03               	skipz
  1792  0B98  2B9B               	goto	u1795
  1793  0B99  0870               	movf	___lwdiv@divisor,w
  1794  0B9A  0272               	subwf	___lwdiv@dividend,w
  1795  0B9B                     u1795:
  1796  0B9B  1C03               	skipc
  1797  0B9C  2B9E               	goto	u1791
  1798  0B9D  2B9F               	goto	u1790
  1799  0B9E                     u1791:
  1800  0B9E  2BA6               	goto	l1670
  1801  0B9F                     u1790:
  1802  0B9F                     l1666:
  1803  0B9F  0870               	movf	___lwdiv@divisor,w
  1804  0BA0  02F2               	subwf	___lwdiv@dividend,f
  1805  0BA1  0871               	movf	___lwdiv@divisor+1,w
  1806  0BA2  1C03               	skipc
  1807  0BA3  03F3               	decf	___lwdiv@dividend+1,f
  1808  0BA4  02F3               	subwf	___lwdiv@dividend+1,f
  1809  0BA5                     l1668:
  1810  0BA5  1475               	bsf	___lwdiv@quotient,0
  1811  0BA6                     l1670:
  1812  0BA6  3001               	movlw	1
  1813  0BA7                     u1805:
  1814  0BA7  1003               	clrc
  1815  0BA8  0CF1               	rrf	___lwdiv@divisor+1,f
  1816  0BA9  0CF0               	rrf	___lwdiv@divisor,f
  1817  0BAA  3EFF               	addlw	-1
  1818  0BAB  1D03               	skipz
  1819  0BAC  2BA7               	goto	u1805
  1820  0BAD                     l1672:
  1821  0BAD  3001               	movlw	1
  1822  0BAE  02F7               	subwf	___lwdiv@counter,f
  1823  0BAF  1D03               	btfss	3,2
  1824  0BB0  2BB2               	goto	u1811
  1825  0BB1  2BB3               	goto	u1810
  1826  0BB2                     u1811:
  1827  0BB2  2B8E               	goto	l1664
  1828  0BB3                     u1810:
  1829  0BB3                     l1674:
  1830  0BB3  0876               	movf	___lwdiv@quotient+1,w
  1831  0BB4  00F1               	movwf	?___lwdiv+1
  1832  0BB5  0875               	movf	___lwdiv@quotient,w
  1833  0BB6  00F0               	movwf	?___lwdiv
  1834  0BB7                     l572:
  1835  0BB7  0008               	return
  1836  0BB8                     __end_of___lwdiv:
  1837                           
  1838                           	psect	text4
  1839  0AAF                     __ptext4:	
  1840 ;; *************** function _spiWrite *****************
  1841 ;; Defined at:
  1842 ;;		line 34 in file "spi.c"
  1843 ;; Parameters:    Size  Location     Type
  1844 ;;  dat             1    wreg     unsigned char 
  1845 ;; Auto vars:     Size  Location     Type
  1846 ;;  dat             1    0[COMMON] unsigned char 
  1847 ;; Return value:  Size  Location     Type
  1848 ;;                  1    wreg      void 
  1849 ;; Registers used:
  1850 ;;		wreg
  1851 ;; Tracked objects:
  1852 ;;		On entry : 0/0
  1853 ;;		On exit  : 0/0
  1854 ;;		Unchanged: 0/0
  1855 ;; Data sizes:     COMMON   BANK0   BANK1   BANK3   BANK2
  1856 ;;      Params:         0       0       0       0       0
  1857 ;;      Locals:         1       0       0       0       0
  1858 ;;      Temps:          0       0       0       0       0
  1859 ;;      Totals:         1       0       0       0       0
  1860 ;;Total ram usage:        1 bytes
  1861 ;; Hardware stack levels used: 1
  1862 ;; This function calls:
  1863 ;;		Nothing
  1864 ;; This function is called by:
  1865 ;;		_main
  1866 ;; This function uses a non-reentrant model
  1867 ;;
  1868                           
  1869                           
  1870                           ;psect for function _spiWrite
  1871  0AAF                     _spiWrite:
  1872                           
  1873                           ;incstack = 0
  1874                           ; Regs used in _spiWrite: [wreg]
  1875                           ;spiWrite@dat stored from wreg
  1876  0AAF  00F0               	movwf	spiWrite@dat
  1877  0AB0                     l2104:
  1878                           
  1879                           ;spi.c: 34: void spiWrite(char dat);spi.c: 35: {;spi.c: 36:     SSPBUF = dat;
  1880  0AB0  0870               	movf	spiWrite@dat,w
  1881  0AB1  1283               	bcf	3,5	;RP0=0, select bank0
  1882  0AB2  1303               	bcf	3,6	;RP1=0, select bank0
  1883  0AB3  0093               	movwf	19	;volatile
  1884  0AB4                     l178:
  1885  0AB4  0008               	return
  1886  0AB5                     __end_of_spiWrite:
  1887                           
  1888                           	psect	text5
  1889  0ABC                     __ptext5:	
  1890 ;; *************** function _spiRead *****************
  1891 ;; Defined at:
  1892 ;;		line 47 in file "spi.c"
  1893 ;; Parameters:    Size  Location     Type
  1894 ;;		None
  1895 ;; Auto vars:     Size  Location     Type
  1896 ;;		None
  1897 ;; Return value:  Size  Location     Type
  1898 ;;                  1    wreg      unsigned char 
  1899 ;; Registers used:
  1900 ;;		wreg, status,2, status,0, pclath, cstack
  1901 ;; Tracked objects:
  1902 ;;		On entry : 0/0
  1903 ;;		On exit  : 0/0
  1904 ;;		Unchanged: 0/0
  1905 ;; Data sizes:     COMMON   BANK0   BANK1   BANK3   BANK2
  1906 ;;      Params:         0       0       0       0       0
  1907 ;;      Locals:         0       0       0       0       0
  1908 ;;      Temps:          0       0       0       0       0
  1909 ;;      Totals:         0       0       0       0       0
  1910 ;;Total ram usage:        0 bytes
  1911 ;; Hardware stack levels used: 1
  1912 ;; Hardware stack levels required when called: 1
  1913 ;; This function calls:
  1914 ;;		_spiReceiveWait
  1915 ;; This function is called by:
  1916 ;;		_main
  1917 ;; This function uses a non-reentrant model
  1918 ;;
  1919                           
  1920                           
  1921                           ;psect for function _spiRead
  1922  0ABC                     _spiRead:
  1923  0ABC                     l2098:	
  1924                           ;incstack = 0
  1925                           ; Regs used in _spiRead: [wreg+status,2+status,0+pclath+cstack]
  1926                           
  1927                           
  1928                           ;spi.c: 49:     spiReceiveWait();
  1929  0ABC  120A  158A  22B5  120A  158A  	fcall	_spiReceiveWait
  1930  0AC1                     l2100:
  1931                           
  1932                           ;spi.c: 50:     return(SSPBUF);
  1933  0AC1  1283               	bcf	3,5	;RP0=0, select bank0
  1934  0AC2  1303               	bcf	3,6	;RP1=0, select bank0
  1935  0AC3  0813               	movf	19,w	;volatile
  1936  0AC4                     l186:
  1937  0AC4  0008               	return
  1938  0AC5                     __end_of_spiRead:
  1939                           
  1940                           	psect	text6
  1941  0AB5                     __ptext6:	
  1942 ;; *************** function _spiReceiveWait *****************
  1943 ;; Defined at:
  1944 ;;		line 29 in file "spi.c"
  1945 ;; Parameters:    Size  Location     Type
  1946 ;;		None
  1947 ;; Auto vars:     Size  Location     Type
  1948 ;;		None
  1949 ;; Return value:  Size  Location     Type
  1950 ;;                  1    wreg      void 
  1951 ;; Registers used:
  1952 ;;		None
  1953 ;; Tracked objects:
  1954 ;;		On entry : 0/0
  1955 ;;		On exit  : 0/0
  1956 ;;		Unchanged: 0/0
  1957 ;; Data sizes:     COMMON   BANK0   BANK1   BANK3   BANK2
  1958 ;;      Params:         0       0       0       0       0
  1959 ;;      Locals:         0       0       0       0       0
  1960 ;;      Temps:          0       0       0       0       0
  1961 ;;      Totals:         0       0       0       0       0
  1962 ;;Total ram usage:        0 bytes
  1963 ;; Hardware stack levels used: 1
  1964 ;; This function calls:
  1965 ;;		Nothing
  1966 ;; This function is called by:
  1967 ;;		_spiRead
  1968 ;; This function uses a non-reentrant model
  1969 ;;
  1970                           
  1971                           
  1972                           ;psect for function _spiReceiveWait
  1973  0AB5                     _spiReceiveWait:
  1974  0AB5                     l1614:	
  1975                           ;incstack = 0
  1976                           ; Regs used in _spiReceiveWait: []
  1977                           
  1978  0AB5                     l172:	
  1979                           ;spi.c: 31:     while ( !SSPSTATbits.BF );
  1980                           
  1981  0AB5  1683               	bsf	3,5	;RP0=1, select bank1
  1982  0AB6  1303               	bcf	3,6	;RP1=0, select bank1
  1983  0AB7  1C14               	btfss	20,0	;volatile
  1984  0AB8  2ABA               	goto	u1641
  1985  0AB9  2ABB               	goto	u1640
  1986  0ABA                     u1641:
  1987  0ABA  2AB5               	goto	l172
  1988  0ABB                     u1640:
  1989  0ABB                     l175:
  1990  0ABB  0008               	return
  1991  0ABC                     __end_of_spiReceiveWait:
  1992                           
  1993                           	psect	text7
  1994  0AE7                     __ptext7:	
  1995 ;; *************** function _spiInit *****************
  1996 ;; Defined at:
  1997 ;;		line 12 in file "spi.c"
  1998 ;; Parameters:    Size  Location     Type
  1999 ;;  sType           1    wreg     enum E850
  2000 ;;  sDataSample     1    0[COMMON] enum E858
  2001 ;;  sClockIdle      1    1[COMMON] enum E862
  2002 ;;  sTransmitEdg    1    2[COMMON] enum E866
  2003 ;; Auto vars:     Size  Location     Type
  2004 ;;  sType           1    3[COMMON] enum E850
  2005 ;; Return value:  Size  Location     Type
  2006 ;;                  1    wreg      void 
  2007 ;; Registers used:
  2008 ;;		wreg, status,2, status,0
  2009 ;; Tracked objects:
  2010 ;;		On entry : 0/0
  2011 ;;		On exit  : 0/0
  2012 ;;		Unchanged: 0/0
  2013 ;; Data sizes:     COMMON   BANK0   BANK1   BANK3   BANK2
  2014 ;;      Params:         3       0       0       0       0
  2015 ;;      Locals:         1       0       0       0       0
  2016 ;;      Temps:          0       0       0       0       0
  2017 ;;      Totals:         4       0       0       0       0
  2018 ;;Total ram usage:        4 bytes
  2019 ;; Hardware stack levels used: 1
  2020 ;; This function calls:
  2021 ;;		Nothing
  2022 ;; This function is called by:
  2023 ;;		_main
  2024 ;; This function uses a non-reentrant model
  2025 ;;
  2026                           
  2027                           
  2028                           ;psect for function _spiInit
  2029  0AE7                     _spiInit:
  2030                           
  2031                           ;incstack = 0
  2032                           ; Regs used in _spiInit: [wreg+status,2+status,0]
  2033                           ;spiInit@sType stored from wreg
  2034  0AE7  00F3               	movwf	spiInit@sType
  2035  0AE8                     l2088:
  2036                           
  2037                           ;spi.c: 12: void spiInit(Spi_Type sType, Spi_Data_Sample sDataSample, Spi_Clock_Idle sCl
      +                          ockIdle, Spi_Transmit_Edge sTransmitEdge);spi.c: 13: {;spi.c: 14:     TRISC5 = 0;
  2038  0AE8  1683               	bsf	3,5	;RP0=1, select bank1
  2039  0AE9  1303               	bcf	3,6	;RP1=0, select bank1
  2040  0AEA  1287               	bcf	7,5	;volatile
  2041                           
  2042                           ;spi.c: 15:     if(sType & 0b00000100)
  2043  0AEB  1D73               	btfss	spiInit@sType,2
  2044  0AEC  2AEE               	goto	u2851
  2045  0AED  2AEF               	goto	u2850
  2046  0AEE                     u2851:
  2047  0AEE  2AF3               	goto	l2094
  2048  0AEF                     u2850:
  2049  0AEF                     l2090:
  2050                           
  2051                           ;spi.c: 16:     {;spi.c: 17:         SSPSTAT = sTransmitEdge;
  2052  0AEF  0872               	movf	spiInit@sTransmitEdge,w
  2053  0AF0  0094               	movwf	20	;volatile
  2054  0AF1                     l2092:
  2055                           
  2056                           ;spi.c: 18:         TRISC3 = 1;
  2057  0AF1  1587               	bsf	7,3	;volatile
  2058                           
  2059                           ;spi.c: 19:     }
  2060  0AF2  2AF7               	goto	l168
  2061  0AF3                     l2094:
  2062                           
  2063                           ;spi.c: 21:     {;spi.c: 22:         SSPSTAT = sDataSample | sTransmitEdge;
  2064  0AF3  0870               	movf	spiInit@sDataSample,w
  2065  0AF4  0472               	iorwf	spiInit@sTransmitEdge,w
  2066  0AF5  0094               	movwf	20	;volatile
  2067  0AF6                     l2096:
  2068                           
  2069                           ;spi.c: 23:         TRISC3 = 0;
  2070  0AF6  1187               	bcf	7,3	;volatile
  2071  0AF7                     l168:	
  2072                           ;spi.c: 24:     }
  2073                           
  2074                           
  2075                           ;spi.c: 26:     SSPCON = sType | sClockIdle;
  2076  0AF7  0873               	movf	spiInit@sType,w
  2077  0AF8  0471               	iorwf	spiInit@sClockIdle,w
  2078  0AF9  1283               	bcf	3,5	;RP0=0, select bank0
  2079  0AFA  1303               	bcf	3,6	;RP1=0, select bank0
  2080  0AFB  0094               	movwf	20	;volatile
  2081  0AFC                     l169:
  2082  0AFC  0008               	return
  2083  0AFD                     __end_of_spiInit:
  2084                           
  2085                           	psect	text8
  2086  0AFD                     __ptext8:	
  2087 ;; *************** function _UART_Write_Text *****************
  2088 ;; Defined at:
  2089 ;;		line 53 in file "./uart.h"
  2090 ;; Parameters:    Size  Location     Type
  2091 ;;  text            1    wreg     PTR unsigned char 
  2092 ;;		 -> main@uart_logs(20), 
  2093 ;; Auto vars:     Size  Location     Type
  2094 ;;  text            1    4[COMMON] PTR unsigned char 
  2095 ;;		 -> main@uart_logs(20), 
  2096 ;;  i               2    2[COMMON] int 
  2097 ;; Return value:  Size  Location     Type
  2098 ;;                  1    wreg      void 
  2099 ;; Registers used:
  2100 ;;		wreg, fsr0l, fsr0h, status,2, status,0, pclath, cstack
  2101 ;; Tracked objects:
  2102 ;;		On entry : 0/0
  2103 ;;		On exit  : 0/0
  2104 ;;		Unchanged: 0/0
  2105 ;; Data sizes:     COMMON   BANK0   BANK1   BANK3   BANK2
  2106 ;;      Params:         0       0       0       0       0
  2107 ;;      Locals:         3       0       0       0       0
  2108 ;;      Temps:          1       0       0       0       0
  2109 ;;      Totals:         4       0       0       0       0
  2110 ;;Total ram usage:        4 bytes
  2111 ;; Hardware stack levels used: 1
  2112 ;; Hardware stack levels required when called: 1
  2113 ;; This function calls:
  2114 ;;		_UART_Write
  2115 ;; This function is called by:
  2116 ;;		_main
  2117 ;; This function uses a non-reentrant model
  2118 ;;
  2119                           
  2120                           
  2121                           ;psect for function _UART_Write_Text
  2122  0AFD                     _UART_Write_Text:
  2123                           
  2124                           ;incstack = 0
  2125                           ; Regs used in _UART_Write_Text: [wreg-fsr0h+status,2+status,0+pclath+cstack]
  2126                           ;UART_Write_Text@text stored from wreg
  2127  0AFD  00F4               	movwf	UART_Write_Text@text
  2128  0AFE                     l2052:
  2129                           
  2130                           ;./uart.h: 53: void UART_Write_Text(char *text);./uart.h: 54: {;./uart.h: 55:   int i;;.
      +                          /uart.h: 56:   for(i=0;text[i]!='\0';i++)
  2131  0AFE  01F2               	clrf	UART_Write_Text@i
  2132  0AFF  01F3               	clrf	UART_Write_Text@i+1
  2133  0B00  2B12               	goto	l2058
  2134  0B01                     l2054:
  2135                           
  2136                           ;./uart.h: 57:    UART_Write(text[i]);
  2137  0B01  0872               	movf	UART_Write_Text@i,w
  2138  0B02  0774               	addwf	UART_Write_Text@text,w
  2139  0B03  00F1               	movwf	??_UART_Write_Text
  2140  0B04  0871               	movf	??_UART_Write_Text,w
  2141  0B05  0084               	movwf	4
  2142  0B06  0800               	movf	0,w
  2143  0B07  120A  158A  22DB  120A  158A  	fcall	_UART_Write
  2144  0B0C                     l2056:
  2145  0B0C  3001               	movlw	1
  2146  0B0D  07F2               	addwf	UART_Write_Text@i,f
  2147  0B0E  1803               	skipnc
  2148  0B0F  0AF3               	incf	UART_Write_Text@i+1,f
  2149  0B10  3000               	movlw	0
  2150  0B11  07F3               	addwf	UART_Write_Text@i+1,f
  2151  0B12                     l2058:
  2152  0B12  0872               	movf	UART_Write_Text@i,w
  2153  0B13  0774               	addwf	UART_Write_Text@text,w
  2154  0B14  00F1               	movwf	??_UART_Write_Text
  2155  0B15  0871               	movf	??_UART_Write_Text,w
  2156  0B16  0084               	movwf	4
  2157  0B17  1383               	bcf	3,7	;select IRP bank0
  2158  0B18  0800               	movf	0,w
  2159  0B19  1D03               	btfss	3,2
  2160  0B1A  2B1C               	goto	u2761
  2161  0B1B  2B1D               	goto	u2760
  2162  0B1C                     u2761:
  2163  0B1C  2B01               	goto	l2054
  2164  0B1D                     u2760:
  2165  0B1D                     l113:
  2166  0B1D  0008               	return
  2167  0B1E                     __end_of_UART_Write_Text:
  2168                           
  2169                           	psect	text9
  2170  0ADB                     __ptext9:	
  2171 ;; *************** function _UART_Write *****************
  2172 ;; Defined at:
  2173 ;;		line 47 in file "./uart.h"
  2174 ;; Parameters:    Size  Location     Type
  2175 ;;  data            1    wreg     unsigned char 
  2176 ;; Auto vars:     Size  Location     Type
  2177 ;;  data            1    0[COMMON] unsigned char 
  2178 ;; Return value:  Size  Location     Type
  2179 ;;                  1    wreg      void 
  2180 ;; Registers used:
  2181 ;;		wreg
  2182 ;; Tracked objects:
  2183 ;;		On entry : 0/0
  2184 ;;		On exit  : 0/0
  2185 ;;		Unchanged: 0/0
  2186 ;; Data sizes:     COMMON   BANK0   BANK1   BANK3   BANK2
  2187 ;;      Params:         0       0       0       0       0
  2188 ;;      Locals:         1       0       0       0       0
  2189 ;;      Temps:          0       0       0       0       0
  2190 ;;      Totals:         1       0       0       0       0
  2191 ;;Total ram usage:        1 bytes
  2192 ;; Hardware stack levels used: 1
  2193 ;; This function calls:
  2194 ;;		Nothing
  2195 ;; This function is called by:
  2196 ;;		_UART_Write_Text
  2197 ;; This function uses a non-reentrant model
  2198 ;;
  2199                           
  2200                           
  2201                           ;psect for function _UART_Write
  2202  0ADB                     _UART_Write:
  2203                           
  2204                           ;incstack = 0
  2205                           ; Regs used in _UART_Write: [wreg]
  2206                           ;UART_Write@data stored from wreg
  2207  0ADB  00F0               	movwf	UART_Write@data
  2208  0ADC                     l1606:
  2209  0ADC                     l104:	
  2210                           ;./uart.h: 47: void UART_Write(char data);./uart.h: 48: {;./uart.h: 49:   while(!TRMT);
  2211                           
  2212  0ADC  1683               	bsf	3,5	;RP0=1, select bank1
  2213  0ADD  1303               	bcf	3,6	;RP1=0, select bank1
  2214  0ADE  1C98               	btfss	24,1	;volatile
  2215  0ADF  2AE1               	goto	u1621
  2216  0AE0  2AE2               	goto	u1620
  2217  0AE1                     u1621:
  2218  0AE1  2ADC               	goto	l104
  2219  0AE2                     u1620:
  2220  0AE2                     l1608:
  2221                           
  2222                           ;./uart.h: 50:   TXREG = data;
  2223  0AE2  0870               	movf	UART_Write@data,w
  2224  0AE3  1283               	bcf	3,5	;RP0=0, select bank0
  2225  0AE4  1303               	bcf	3,6	;RP1=0, select bank0
  2226  0AE5  0099               	movwf	25	;volatile
  2227  0AE6                     l107:
  2228  0AE6  0008               	return
  2229  0AE7                     __end_of_UART_Write:
  2230                           
  2231                           	psect	text10
  2232  0F26                     __ptext10:	
  2233 ;; *************** function _UART_Init *****************
  2234 ;; Defined at:
  2235 ;;		line 1 in file "./uart.h"
  2236 ;; Parameters:    Size  Location     Type
  2237 ;;  baudrate        4    6[BANK0 ] const long 
  2238 ;; Auto vars:     Size  Location     Type
  2239 ;;  x               2    9[COMMON] unsigned int 
  2240 ;; Return value:  Size  Location     Type
  2241 ;;                  1    wreg      unsigned char 
  2242 ;; Registers used:
  2243 ;;		wreg, status,2, status,0, pclath, cstack
  2244 ;; Tracked objects:
  2245 ;;		On entry : 0/0
  2246 ;;		On exit  : 0/0
  2247 ;;		Unchanged: 0/0
  2248 ;; Data sizes:     COMMON   BANK0   BANK1   BANK3   BANK2
  2249 ;;      Params:         0       4       0       0       0
  2250 ;;      Locals:         2       0       0       0       0
  2251 ;;      Temps:          0      12       0       0       0
  2252 ;;      Totals:         2      16       0       0       0
  2253 ;;Total ram usage:       18 bytes
  2254 ;; Hardware stack levels used: 1
  2255 ;; Hardware stack levels required when called: 1
  2256 ;; This function calls:
  2257 ;;		___aldiv
  2258 ;; This function is called by:
  2259 ;;		_main
  2260 ;; This function uses a non-reentrant model
  2261 ;;
  2262                           
  2263                           
  2264                           ;psect for function _UART_Init
  2265  0F26                     _UART_Init:
  2266  0F26                     l2026:	
  2267                           ;incstack = 0
  2268                           ; Regs used in _UART_Init: [wreg+status,2+status,0+pclath+cstack]
  2269                           
  2270                           
  2271                           ;./uart.h: 1: char UART_Init(const long int baudrate);./uart.h: 2: {;./uart.h: 3:  unsig
      +                          ned int x;;./uart.h: 4:  x = (8000000 - baudrate*64)/(baudrate*64);
  2272  0F26  1283               	bcf	3,5	;RP0=0, select bank0
  2273  0F27  1303               	bcf	3,6	;RP1=0, select bank0
  2274  0F28  0826               	movf	UART_Init@baudrate,w
  2275  0F29  00AA               	movwf	??_UART_Init
  2276  0F2A  0827               	movf	UART_Init@baudrate+1,w
  2277  0F2B  00AB               	movwf	??_UART_Init+1
  2278  0F2C  0828               	movf	UART_Init@baudrate+2,w
  2279  0F2D  00AC               	movwf	??_UART_Init+2
  2280  0F2E  0829               	movf	UART_Init@baudrate+3,w
  2281  0F2F  00AD               	movwf	??_UART_Init+3
  2282  0F30  3006               	movlw	6
  2283  0F31                     u2685:
  2284  0F31  1003               	clrc
  2285  0F32  0DAA               	rlf	??_UART_Init,f
  2286  0F33  0DAB               	rlf	??_UART_Init+1,f
  2287  0F34  0DAC               	rlf	??_UART_Init+2,f
  2288  0F35  0DAD               	rlf	??_UART_Init+3,f
  2289  0F36                     u2680:
  2290  0F36  3EFF               	addlw	-1
  2291  0F37  1D03               	skipz
  2292  0F38  2F31               	goto	u2685
  2293  0F39  082D               	movf	??_UART_Init+3,w
  2294  0F3A  00F3               	movwf	___aldiv@divisor+3
  2295  0F3B  082C               	movf	??_UART_Init+2,w
  2296  0F3C  00F2               	movwf	___aldiv@divisor+2
  2297  0F3D  082B               	movf	??_UART_Init+1,w
  2298  0F3E  00F1               	movwf	___aldiv@divisor+1
  2299  0F3F  082A               	movf	??_UART_Init,w
  2300  0F40  00F0               	movwf	___aldiv@divisor
  2301  0F41  0826               	movf	UART_Init@baudrate,w
  2302  0F42  00AE               	movwf	??_UART_Init+4
  2303  0F43  0827               	movf	UART_Init@baudrate+1,w
  2304  0F44  00AF               	movwf	??_UART_Init+5
  2305  0F45  0828               	movf	UART_Init@baudrate+2,w
  2306  0F46  00B0               	movwf	??_UART_Init+6
  2307  0F47  0829               	movf	UART_Init@baudrate+3,w
  2308  0F48  00B1               	movwf	??_UART_Init+7
  2309  0F49  3006               	movlw	6
  2310  0F4A                     u2695:
  2311  0F4A  1003               	clrc
  2312  0F4B  0DAE               	rlf	??_UART_Init+4,f
  2313  0F4C  0DAF               	rlf	??_UART_Init+5,f
  2314  0F4D  0DB0               	rlf	??_UART_Init+6,f
  2315  0F4E  0DB1               	rlf	??_UART_Init+7,f
  2316  0F4F                     u2690:
  2317  0F4F  3EFF               	addlw	-1
  2318  0F50  1D03               	skipz
  2319  0F51  2F4A               	goto	u2695
  2320  0F52  3000               	movlw	0
  2321  0F53  00B2               	movwf	??_UART_Init+8
  2322  0F54  3012               	movlw	18
  2323  0F55  00B3               	movwf	??_UART_Init+9
  2324  0F56  307A               	movlw	122
  2325  0F57  00B4               	movwf	??_UART_Init+10
  2326  0F58  3000               	movlw	0
  2327  0F59  00B5               	movwf	??_UART_Init+11
  2328  0F5A  082E               	movf	??_UART_Init+4,w
  2329  0F5B  02B2               	subwf	??_UART_Init+8,f
  2330  0F5C  082F               	movf	??_UART_Init+5,w
  2331  0F5D  1C03               	skipc
  2332  0F5E  0F2F               	incfsz	??_UART_Init+5,w
  2333  0F5F  2F61               	goto	u2701
  2334  0F60  2F62               	goto	u2702
  2335  0F61                     u2701:
  2336  0F61  02B3               	subwf	??_UART_Init+9,f
  2337  0F62                     u2702:
  2338  0F62  0830               	movf	??_UART_Init+6,w
  2339  0F63  1C03               	skipc
  2340  0F64  0F30               	incfsz	??_UART_Init+6,w
  2341  0F65  2F67               	goto	u2703
  2342  0F66  2F68               	goto	u2704
  2343  0F67                     u2703:
  2344  0F67  02B4               	subwf	??_UART_Init+10,f
  2345  0F68                     u2704:
  2346  0F68  0831               	movf	??_UART_Init+7,w
  2347  0F69  1C03               	skipc
  2348  0F6A  0F31               	incfsz	??_UART_Init+7,w
  2349  0F6B  2F6D               	goto	u2705
  2350  0F6C  2F6E               	goto	u2706
  2351  0F6D                     u2705:
  2352  0F6D  02B5               	subwf	??_UART_Init+11,f
  2353  0F6E                     u2706:
  2354  0F6E  0835               	movf	??_UART_Init+11,w
  2355  0F6F  00F7               	movwf	___aldiv@dividend+3
  2356  0F70  0834               	movf	??_UART_Init+10,w
  2357  0F71  00F6               	movwf	___aldiv@dividend+2
  2358  0F72  0833               	movf	??_UART_Init+9,w
  2359  0F73  00F5               	movwf	___aldiv@dividend+1
  2360  0F74  0832               	movf	??_UART_Init+8,w
  2361  0F75  00F4               	movwf	___aldiv@dividend
  2362  0F76  120A  158A  25CD  120A  158A  	fcall	___aldiv
  2363  0F7B  0871               	movf	?___aldiv+1,w
  2364  0F7C  00FA               	movwf	UART_Init@x+1
  2365  0F7D  0870               	movf	?___aldiv,w
  2366  0F7E  00F9               	movwf	UART_Init@x
  2367  0F7F                     l2028:
  2368                           
  2369                           ;./uart.h: 5:  if(x>255)
  2370  0F7F  3001               	movlw	1
  2371  0F80  027A               	subwf	UART_Init@x+1,w
  2372  0F81  3000               	movlw	0
  2373  0F82  1903               	skipnz
  2374  0F83  0279               	subwf	UART_Init@x,w
  2375  0F84  1C03               	skipc
  2376  0F85  2F87               	goto	u2711
  2377  0F86  2F88               	goto	u2710
  2378  0F87                     u2711:
  2379  0F87  2FE4               	goto	l2034
  2380  0F88                     u2710:
  2381  0F88                     l2030:
  2382                           
  2383                           ;./uart.h: 6:  {;./uart.h: 7:   x = (8000000 - baudrate*16)/(baudrate*16);
  2384  0F88  1283               	bcf	3,5	;RP0=0, select bank0
  2385  0F89  1303               	bcf	3,6	;RP1=0, select bank0
  2386  0F8A  0826               	movf	UART_Init@baudrate,w
  2387  0F8B  00AA               	movwf	??_UART_Init
  2388  0F8C  0827               	movf	UART_Init@baudrate+1,w
  2389  0F8D  00AB               	movwf	??_UART_Init+1
  2390  0F8E  0828               	movf	UART_Init@baudrate+2,w
  2391  0F8F  00AC               	movwf	??_UART_Init+2
  2392  0F90  0829               	movf	UART_Init@baudrate+3,w
  2393  0F91  00AD               	movwf	??_UART_Init+3
  2394  0F92  3004               	movlw	4
  2395  0F93                     u2725:
  2396  0F93  1003               	clrc
  2397  0F94  0DAA               	rlf	??_UART_Init,f
  2398  0F95  0DAB               	rlf	??_UART_Init+1,f
  2399  0F96  0DAC               	rlf	??_UART_Init+2,f
  2400  0F97  0DAD               	rlf	??_UART_Init+3,f
  2401  0F98                     u2720:
  2402  0F98  3EFF               	addlw	-1
  2403  0F99  1D03               	skipz
  2404  0F9A  2F93               	goto	u2725
  2405  0F9B  082D               	movf	??_UART_Init+3,w
  2406  0F9C  00F3               	movwf	___aldiv@divisor+3
  2407  0F9D  082C               	movf	??_UART_Init+2,w
  2408  0F9E  00F2               	movwf	___aldiv@divisor+2
  2409  0F9F  082B               	movf	??_UART_Init+1,w
  2410  0FA0  00F1               	movwf	___aldiv@divisor+1
  2411  0FA1  082A               	movf	??_UART_Init,w
  2412  0FA2  00F0               	movwf	___aldiv@divisor
  2413  0FA3  0826               	movf	UART_Init@baudrate,w
  2414  0FA4  00AE               	movwf	??_UART_Init+4
  2415  0FA5  0827               	movf	UART_Init@baudrate+1,w
  2416  0FA6  00AF               	movwf	??_UART_Init+5
  2417  0FA7  0828               	movf	UART_Init@baudrate+2,w
  2418  0FA8  00B0               	movwf	??_UART_Init+6
  2419  0FA9  0829               	movf	UART_Init@baudrate+3,w
  2420  0FAA  00B1               	movwf	??_UART_Init+7
  2421  0FAB  3004               	movlw	4
  2422  0FAC                     u2735:
  2423  0FAC  1003               	clrc
  2424  0FAD  0DAE               	rlf	??_UART_Init+4,f
  2425  0FAE  0DAF               	rlf	??_UART_Init+5,f
  2426  0FAF  0DB0               	rlf	??_UART_Init+6,f
  2427  0FB0  0DB1               	rlf	??_UART_Init+7,f
  2428  0FB1                     u2730:
  2429  0FB1  3EFF               	addlw	-1
  2430  0FB2  1D03               	skipz
  2431  0FB3  2FAC               	goto	u2735
  2432  0FB4  3000               	movlw	0
  2433  0FB5  00B2               	movwf	??_UART_Init+8
  2434  0FB6  3012               	movlw	18
  2435  0FB7  00B3               	movwf	??_UART_Init+9
  2436  0FB8  307A               	movlw	122
  2437  0FB9  00B4               	movwf	??_UART_Init+10
  2438  0FBA  3000               	movlw	0
  2439  0FBB  00B5               	movwf	??_UART_Init+11
  2440  0FBC  082E               	movf	??_UART_Init+4,w
  2441  0FBD  02B2               	subwf	??_UART_Init+8,f
  2442  0FBE  082F               	movf	??_UART_Init+5,w
  2443  0FBF  1C03               	skipc
  2444  0FC0  0F2F               	incfsz	??_UART_Init+5,w
  2445  0FC1  2FC3               	goto	u2741
  2446  0FC2  2FC4               	goto	u2742
  2447  0FC3                     u2741:
  2448  0FC3  02B3               	subwf	??_UART_Init+9,f
  2449  0FC4                     u2742:
  2450  0FC4  0830               	movf	??_UART_Init+6,w
  2451  0FC5  1C03               	skipc
  2452  0FC6  0F30               	incfsz	??_UART_Init+6,w
  2453  0FC7  2FC9               	goto	u2743
  2454  0FC8  2FCA               	goto	u2744
  2455  0FC9                     u2743:
  2456  0FC9  02B4               	subwf	??_UART_Init+10,f
  2457  0FCA                     u2744:
  2458  0FCA  0831               	movf	??_UART_Init+7,w
  2459  0FCB  1C03               	skipc
  2460  0FCC  0F31               	incfsz	??_UART_Init+7,w
  2461  0FCD  2FCF               	goto	u2745
  2462  0FCE  2FD0               	goto	u2746
  2463  0FCF                     u2745:
  2464  0FCF  02B5               	subwf	??_UART_Init+11,f
  2465  0FD0                     u2746:
  2466  0FD0  0835               	movf	??_UART_Init+11,w
  2467  0FD1  00F7               	movwf	___aldiv@dividend+3
  2468  0FD2  0834               	movf	??_UART_Init+10,w
  2469  0FD3  00F6               	movwf	___aldiv@dividend+2
  2470  0FD4  0833               	movf	??_UART_Init+9,w
  2471  0FD5  00F5               	movwf	___aldiv@dividend+1
  2472  0FD6  0832               	movf	??_UART_Init+8,w
  2473  0FD7  00F4               	movwf	___aldiv@dividend
  2474  0FD8  120A  158A  25CD  120A  158A  	fcall	___aldiv
  2475  0FDD  0871               	movf	?___aldiv+1,w
  2476  0FDE  00FA               	movwf	UART_Init@x+1
  2477  0FDF  0870               	movf	?___aldiv,w
  2478  0FE0  00F9               	movwf	UART_Init@x
  2479  0FE1                     l2032:
  2480                           
  2481                           ;./uart.h: 8:   BRGH = 1;
  2482  0FE1  1683               	bsf	3,5	;RP0=1, select bank1
  2483  0FE2  1303               	bcf	3,6	;RP1=0, select bank1
  2484  0FE3  1518               	bsf	24,2	;volatile
  2485  0FE4                     l2034:
  2486                           
  2487                           ;./uart.h: 10:  if(x<256)
  2488  0FE4  3001               	movlw	1
  2489  0FE5  027A               	subwf	UART_Init@x+1,w
  2490  0FE6  3000               	movlw	0
  2491  0FE7  1903               	skipnz
  2492  0FE8  0279               	subwf	UART_Init@x,w
  2493  0FE9  1803               	skipnc
  2494  0FEA  2FEC               	goto	u2751
  2495  0FEB  2FED               	goto	u2750
  2496  0FEC                     u2751:
  2497  0FEC  2FFF               	goto	l83
  2498  0FED                     u2750:
  2499  0FED                     l2036:
  2500                           
  2501                           ;./uart.h: 11:  {;./uart.h: 12:    SPBRG = x;
  2502  0FED  0879               	movf	UART_Init@x,w
  2503  0FEE  1683               	bsf	3,5	;RP0=1, select bank1
  2504  0FEF  1303               	bcf	3,6	;RP1=0, select bank1
  2505  0FF0  0099               	movwf	25	;volatile
  2506  0FF1                     l2038:
  2507                           
  2508                           ;./uart.h: 13:    SYNC = 0;
  2509  0FF1  1218               	bcf	24,4	;volatile
  2510  0FF2                     l2040:
  2511                           
  2512                           ;./uart.h: 14:    SPEN = 1;
  2513  0FF2  1283               	bcf	3,5	;RP0=0, select bank0
  2514  0FF3  1303               	bcf	3,6	;RP1=0, select bank0
  2515  0FF4  1798               	bsf	24,7	;volatile
  2516  0FF5                     l2042:
  2517                           
  2518                           ;./uart.h: 15:           TRISC7 = 1;
  2519  0FF5  1683               	bsf	3,5	;RP0=1, select bank1
  2520  0FF6  1303               	bcf	3,6	;RP1=0, select bank1
  2521  0FF7  1787               	bsf	7,7	;volatile
  2522  0FF8                     l2044:
  2523                           
  2524                           ;./uart.h: 16:           TRISC6 = 1;
  2525  0FF8  1707               	bsf	7,6	;volatile
  2526  0FF9                     l2046:
  2527                           
  2528                           ;./uart.h: 17:           CREN = 1;
  2529  0FF9  1283               	bcf	3,5	;RP0=0, select bank0
  2530  0FFA  1303               	bcf	3,6	;RP1=0, select bank0
  2531  0FFB  1618               	bsf	24,4	;volatile
  2532  0FFC                     l2048:
  2533                           
  2534                           ;./uart.h: 18:           TXEN = 1;
  2535  0FFC  1683               	bsf	3,5	;RP0=1, select bank1
  2536  0FFD  1303               	bcf	3,6	;RP1=0, select bank1
  2537  0FFE  1698               	bsf	24,5	;volatile
  2538  0FFF                     l83:
  2539  0FFF  0008               	return
  2540  1000                     __end_of_UART_Init:
  2541                           
  2542                           	psect	text11
  2543  0AD0                     __ptext11:	
  2544 ;; *************** function _PWM2_Start *****************
  2545 ;; Defined at:
  2546 ;;		line 54 in file "./pwm.h"
  2547 ;; Parameters:    Size  Location     Type
  2548 ;;		None
  2549 ;; Auto vars:     Size  Location     Type
  2550 ;;		None
  2551 ;; Return value:  Size  Location     Type
  2552 ;;                  2  135[None  ] int 
  2553 ;; Registers used:
  2554 ;;		None
  2555 ;; Tracked objects:
  2556 ;;		On entry : 0/0
  2557 ;;		On exit  : 0/0
  2558 ;;		Unchanged: 0/0
  2559 ;; Data sizes:     COMMON   BANK0   BANK1   BANK3   BANK2
  2560 ;;      Params:         0       0       0       0       0
  2561 ;;      Locals:         0       0       0       0       0
  2562 ;;      Temps:          0       0       0       0       0
  2563 ;;      Totals:         0       0       0       0       0
  2564 ;;Total ram usage:        0 bytes
  2565 ;; Hardware stack levels used: 1
  2566 ;; This function calls:
  2567 ;;		Nothing
  2568 ;; This function is called by:
  2569 ;;		_main
  2570 ;; This function uses a non-reentrant model
  2571 ;;
  2572                           
  2573                           
  2574                           ;psect for function _PWM2_Start
  2575  0AD0                     _PWM2_Start:
  2576  0AD0                     l2086:	
  2577                           ;incstack = 0
  2578                           ; Regs used in _PWM2_Start: []
  2579                           
  2580                           
  2581                           ;./pwm.h: 56:   CCP2CONbits.CCP2M3 = 1;
  2582  0AD0  1283               	bcf	3,5	;RP0=0, select bank0
  2583  0AD1  1303               	bcf	3,6	;RP1=0, select bank0
  2584  0AD2  159D               	bsf	29,3	;volatile
  2585                           
  2586                           ;./pwm.h: 57:   CCP2CONbits.CCP2M2 = 1;
  2587  0AD3  151D               	bsf	29,2	;volatile
  2588                           
  2589                           ;./pwm.h: 62:     T2CONbits.T2CKPS0 = 1;
  2590  0AD4  1412               	bsf	18,0	;volatile
  2591                           
  2592                           ;./pwm.h: 63:     T2CONbits.T2CKPS1 = 0;
  2593  0AD5  1092               	bcf	18,1	;volatile
  2594                           
  2595                           ;./pwm.h: 68:     T2CONbits.TMR2ON = 1;
  2596  0AD6  1512               	bsf	18,2	;volatile
  2597                           
  2598                           ;./pwm.h: 69:     TRISCbits.TRISC1 = 0;
  2599  0AD7  1683               	bsf	3,5	;RP0=1, select bank1
  2600  0AD8  1303               	bcf	3,6	;RP1=0, select bank1
  2601  0AD9  1087               	bcf	7,1	;volatile
  2602  0ADA                     l136:
  2603  0ADA  0008               	return
  2604  0ADB                     __end_of_PWM2_Start:
  2605                           
  2606                           	psect	text12
  2607  003E                     __ptext12:	
  2608 ;; *************** function _PWM2_Init_Fre *****************
  2609 ;; Defined at:
  2610 ;;		line 16 in file "./pwm.h"
  2611 ;; Parameters:    Size  Location     Type
  2612 ;;  fre             4    6[BANK0 ] long 
  2613 ;; Auto vars:     Size  Location     Type
  2614 ;;		None
  2615 ;; Return value:  Size  Location     Type
  2616 ;;                  2    6[BANK0 ] int 
  2617 ;; Registers used:
  2618 ;;		wreg, status,2, status,0, pclath, cstack
  2619 ;; Tracked objects:
  2620 ;;		On entry : 0/0
  2621 ;;		On exit  : 0/0
  2622 ;;		Unchanged: 0/0
  2623 ;; Data sizes:     COMMON   BANK0   BANK1   BANK3   BANK2
  2624 ;;      Params:         0       4       0       0       0
  2625 ;;      Locals:         0       0       0       0       0
  2626 ;;      Temps:          4       0       0       0       0
  2627 ;;      Totals:         4       4       0       0       0
  2628 ;;Total ram usage:        8 bytes
  2629 ;; Hardware stack levels used: 1
  2630 ;; Hardware stack levels required when called: 1
  2631 ;; This function calls:
  2632 ;;		___aldiv
  2633 ;; This function is called by:
  2634 ;;		_main
  2635 ;; This function uses a non-reentrant model
  2636 ;;
  2637                           
  2638                           
  2639                           ;psect for function _PWM2_Init_Fre
  2640  003E                     _PWM2_Init_Fre:
  2641  003E                     l2064:	
  2642                           ;incstack = 0
  2643                           ; Regs used in _PWM2_Init_Fre: [wreg+status,2+status,0+pclath+cstack]
  2644                           
  2645                           
  2646                           ;./pwm.h: 16: PWM2_Init_Fre(long fre);./pwm.h: 17: {;./pwm.h: 18:   PR2 = (8000000/(freq
      +                          *4*4)) - 1;
  2647  003E  1683               	bsf	3,5	;RP0=1, select bank1
  2648  003F  1303               	bcf	3,6	;RP1=0, select bank1
  2649  0040  0846               	movf	_freq^(0+128),w
  2650  0041  00F9               	movwf	??_PWM2_Init_Fre
  2651  0042  0847               	movf	(_freq+1)^(0+128),w
  2652  0043  00FA               	movwf	??_PWM2_Init_Fre+1
  2653  0044  0848               	movf	(_freq+2)^(0+128),w
  2654  0045  00FB               	movwf	??_PWM2_Init_Fre+2
  2655  0046  0849               	movf	(_freq+3)^(0+128),w
  2656  0047  00FC               	movwf	??_PWM2_Init_Fre+3
  2657  0048  3002               	movlw	2
  2658  0049                     u2795:
  2659  0049  1003               	clrc
  2660  004A  0DF9               	rlf	??_PWM2_Init_Fre,f
  2661  004B  0DFA               	rlf	??_PWM2_Init_Fre+1,f
  2662  004C  0DFB               	rlf	??_PWM2_Init_Fre+2,f
  2663  004D  0DFC               	rlf	??_PWM2_Init_Fre+3,f
  2664  004E                     u2790:
  2665  004E  3EFF               	addlw	-1
  2666  004F  1D03               	skipz
  2667  0050  2849               	goto	u2795
  2668  0051  3002               	movlw	2
  2669  0052                     u2805:
  2670  0052  1003               	clrc
  2671  0053  0DF9               	rlf	??_PWM2_Init_Fre,f
  2672  0054  0DFA               	rlf	??_PWM2_Init_Fre+1,f
  2673  0055  0DFB               	rlf	??_PWM2_Init_Fre+2,f
  2674  0056  0DFC               	rlf	??_PWM2_Init_Fre+3,f
  2675  0057                     u2800:
  2676  0057  3EFF               	addlw	-1
  2677  0058  1D03               	skipz
  2678  0059  2852               	goto	u2805
  2679  005A  087C               	movf	??_PWM2_Init_Fre+3,w
  2680  005B  00F3               	movwf	___aldiv@divisor+3
  2681  005C  087B               	movf	??_PWM2_Init_Fre+2,w
  2682  005D  00F2               	movwf	___aldiv@divisor+2
  2683  005E  087A               	movf	??_PWM2_Init_Fre+1,w
  2684  005F  00F1               	movwf	___aldiv@divisor+1
  2685  0060  0879               	movf	??_PWM2_Init_Fre,w
  2686  0061  00F0               	movwf	___aldiv@divisor
  2687  0062  3000               	movlw	0
  2688  0063  00F7               	movwf	___aldiv@dividend+3
  2689  0064  307A               	movlw	122
  2690  0065  00F6               	movwf	___aldiv@dividend+2
  2691  0066  3012               	movlw	18
  2692  0067  00F5               	movwf	___aldiv@dividend+1
  2693  0068  3000               	movlw	0
  2694  0069  00F4               	movwf	___aldiv@dividend
  2695  006A  120A  158A  25CD  120A  118A  	fcall	___aldiv
  2696  006F  0870               	movf	?___aldiv,w
  2697  0070  3EFF               	addlw	255
  2698  0071  1683               	bsf	3,5	;RP0=1, select bank1
  2699  0072  1303               	bcf	3,6	;RP1=0, select bank1
  2700  0073  0092               	movwf	18	;volatile
  2701  0074                     l2066:
  2702                           
  2703                           ;./pwm.h: 19:   freq = fre;
  2704  0074  1283               	bcf	3,5	;RP0=0, select bank0
  2705  0075  1303               	bcf	3,6	;RP1=0, select bank0
  2706  0076  0829               	movf	PWM2_Init_Fre@fre+3,w
  2707  0077  1683               	bsf	3,5	;RP0=1, select bank1
  2708  0078  1303               	bcf	3,6	;RP1=0, select bank1
  2709  0079  00C9               	movwf	(_freq+3)^(0+128)
  2710  007A  1283               	bcf	3,5	;RP0=0, select bank0
  2711  007B  1303               	bcf	3,6	;RP1=0, select bank0
  2712  007C  0828               	movf	PWM2_Init_Fre@fre+2,w
  2713  007D  1683               	bsf	3,5	;RP0=1, select bank1
  2714  007E  1303               	bcf	3,6	;RP1=0, select bank1
  2715  007F  00C8               	movwf	(_freq+2)^(0+128)
  2716  0080  1283               	bcf	3,5	;RP0=0, select bank0
  2717  0081  1303               	bcf	3,6	;RP1=0, select bank0
  2718  0082  0827               	movf	PWM2_Init_Fre@fre+1,w
  2719  0083  1683               	bsf	3,5	;RP0=1, select bank1
  2720  0084  1303               	bcf	3,6	;RP1=0, select bank1
  2721  0085  00C7               	movwf	(_freq+1)^(0+128)
  2722  0086  1283               	bcf	3,5	;RP0=0, select bank0
  2723  0087  1303               	bcf	3,6	;RP1=0, select bank0
  2724  0088  0826               	movf	PWM2_Init_Fre@fre,w
  2725  0089  1683               	bsf	3,5	;RP0=1, select bank1
  2726  008A  1303               	bcf	3,6	;RP1=0, select bank1
  2727  008B  00C6               	movwf	_freq^(0+128)
  2728  008C                     l124:
  2729  008C  0008               	return
  2730  008D                     __end_of_PWM2_Init_Fre:
  2731                           
  2732                           	psect	text13
  2733  0C9C                     __ptext13:	
  2734 ;; *************** function _PWM2_Duty *****************
  2735 ;; Defined at:
  2736 ;;		line 29 in file "./pwm.h"
  2737 ;; Parameters:    Size  Location     Type
  2738 ;;  duty            2    5[BANK1 ] unsigned int 
  2739 ;; Auto vars:     Size  Location     Type
  2740 ;;		None
  2741 ;; Return value:  Size  Location     Type
  2742 ;;                  2    5[BANK1 ] int 
  2743 ;; Registers used:
  2744 ;;		wreg, status,2, status,0, btemp+1, pclath, cstack
  2745 ;; Tracked objects:
  2746 ;;		On entry : 0/0
  2747 ;;		On exit  : 0/0
  2748 ;;		Unchanged: 0/0
  2749 ;; Data sizes:     COMMON   BANK0   BANK1   BANK3   BANK2
  2750 ;;      Params:         0       0       2       0       0
  2751 ;;      Locals:         0       0       0       0       0
  2752 ;;      Temps:          0       0       2       0       0
  2753 ;;      Totals:         0       0       4       0       0
  2754 ;;Total ram usage:        4 bytes
  2755 ;; Hardware stack levels used: 1
  2756 ;; Hardware stack levels required when called: 2
  2757 ;; This function calls:
  2758 ;;		_PWM_Max_Duty
  2759 ;;		___fldiv
  2760 ;;		___flmul
  2761 ;;		___fltol
  2762 ;;		___xxtofl
  2763 ;; This function is called by:
  2764 ;;		_main
  2765 ;; This function uses a non-reentrant model
  2766 ;;
  2767                           
  2768                           
  2769                           ;psect for function _PWM2_Duty
  2770  0C9C                     _PWM2_Duty:
  2771  0C9C                     l2076:	
  2772                           ;incstack = 0
  2773                           ; Regs used in _PWM2_Duty: [wreg+status,2+status,0+btemp+1+pclath+cstack]
  2774                           
  2775                           
  2776                           ;./pwm.h: 29: PWM2_Duty(unsigned int duty);./pwm.h: 30: {;./pwm.h: 31:     duty = ((floa
      +                          t)duty/100.0)*PWM_Max_Duty();
  2777  0C9C  1683               	bsf	3,5	;RP0=1, select bank1
  2778  0C9D  1303               	bcf	3,6	;RP1=0, select bank1
  2779  0C9E  0825               	movf	PWM2_Duty@duty^(0+128),w
  2780  0C9F  1283               	bcf	3,5	;RP0=0, select bank0
  2781  0CA0  1303               	bcf	3,6	;RP1=0, select bank0
  2782  0CA1  00A8               	movwf	___xxtofl@val
  2783  0CA2  1683               	bsf	3,5	;RP0=1, select bank1
  2784  0CA3  1303               	bcf	3,6	;RP1=0, select bank1
  2785  0CA4  0826               	movf	(PWM2_Duty@duty+1)^(0+128),w
  2786  0CA5  1283               	bcf	3,5	;RP0=0, select bank0
  2787  0CA6  1303               	bcf	3,6	;RP1=0, select bank0
  2788  0CA7  00A9               	movwf	___xxtofl@val+1
  2789  0CA8  01AA               	clrf	___xxtofl@val+2
  2790  0CA9  01AB               	clrf	___xxtofl@val+3
  2791  0CAA  3000               	movlw	0
  2792  0CAB  120A  158A  266A  120A  158A  	fcall	___xxtofl
  2793  0CB0  1283               	bcf	3,5	;RP0=0, select bank0
  2794  0CB1  1303               	bcf	3,6	;RP1=0, select bank0
  2795  0CB2  082B               	movf	?___xxtofl+3,w
  2796  0CB3  00BD               	movwf	___fldiv@b+3
  2797  0CB4  082A               	movf	?___xxtofl+2,w
  2798  0CB5  00BC               	movwf	___fldiv@b+2
  2799  0CB6  0829               	movf	?___xxtofl+1,w
  2800  0CB7  00BB               	movwf	___fldiv@b+1
  2801  0CB8  0828               	movf	?___xxtofl,w
  2802  0CB9  00BA               	movwf	___fldiv@b
  2803  0CBA  3042               	movlw	66
  2804  0CBB  00B9               	movwf	___fldiv@a+3
  2805  0CBC  30C8               	movlw	200
  2806  0CBD  00B8               	movwf	___fldiv@a+2
  2807  0CBE  3000               	movlw	0
  2808  0CBF  00B7               	movwf	___fldiv@a+1
  2809  0CC0  3000               	movlw	0
  2810  0CC1  00B6               	movwf	___fldiv@a
  2811  0CC2  120A  118A  22B8  120A  158A  	fcall	___fldiv
  2812  0CC7  1283               	bcf	3,5	;RP0=0, select bank0
  2813  0CC8  1303               	bcf	3,6	;RP1=0, select bank0
  2814  0CC9  0839               	movf	?___fldiv+3,w
  2815  0CCA  00D7               	movwf	___flmul@a+3
  2816  0CCB  0838               	movf	?___fldiv+2,w
  2817  0CCC  00D6               	movwf	___flmul@a+2
  2818  0CCD  0837               	movf	?___fldiv+1,w
  2819  0CCE  00D5               	movwf	___flmul@a+1
  2820  0CCF  0836               	movf	?___fldiv,w
  2821  0CD0  00D4               	movwf	___flmul@a
  2822  0CD1  120A  158A  2345  120A  158A  	fcall	_PWM_Max_Duty
  2823  0CD6  1283               	bcf	3,5	;RP0=0, select bank0
  2824  0CD7  1303               	bcf	3,6	;RP1=0, select bank0
  2825  0CD8  0826               	movf	?_PWM_Max_Duty,w
  2826  0CD9  00A8               	movwf	___xxtofl@val
  2827  0CDA  0827               	movf	?_PWM_Max_Duty+1,w
  2828  0CDB  00A9               	movwf	___xxtofl@val+1
  2829  0CDC  3000               	movlw	0
  2830  0CDD  1BA9               	btfsc	___xxtofl@val+1,7
  2831  0CDE  30FF               	movlw	255
  2832  0CDF  00AA               	movwf	___xxtofl@val+2
  2833  0CE0  00AB               	movwf	___xxtofl@val+3
  2834  0CE1  3001               	movlw	1
  2835  0CE2  120A  158A  266A  120A  158A  	fcall	___xxtofl
  2836  0CE7  1283               	bcf	3,5	;RP0=0, select bank0
  2837  0CE8  1303               	bcf	3,6	;RP1=0, select bank0
  2838  0CE9  082B               	movf	?___xxtofl+3,w
  2839  0CEA  00D3               	movwf	___flmul@b+3
  2840  0CEB  082A               	movf	?___xxtofl+2,w
  2841  0CEC  00D2               	movwf	___flmul@b+2
  2842  0CED  0829               	movf	?___xxtofl+1,w
  2843  0CEE  00D1               	movwf	___flmul@b+1
  2844  0CEF  0828               	movf	?___xxtofl,w
  2845  0CF0  00D0               	movwf	___flmul@b
  2846  0CF1  120A  118A  2495  120A  158A  	fcall	___flmul
  2847  0CF6  1283               	bcf	3,5	;RP0=0, select bank0
  2848  0CF7  1303               	bcf	3,6	;RP1=0, select bank0
  2849  0CF8  0853               	movf	?___flmul+3,w
  2850  0CF9  00ED               	movwf	___fltol@f1+3
  2851  0CFA  0852               	movf	?___flmul+2,w
  2852  0CFB  00EC               	movwf	___fltol@f1+2
  2853  0CFC  0851               	movf	?___flmul+1,w
  2854  0CFD  00EB               	movwf	___fltol@f1+1
  2855  0CFE  0850               	movf	?___flmul,w
  2856  0CFF  00EA               	movwf	___fltol@f1
  2857  0D00  120A  158A  2531  120A  158A  	fcall	___fltol
  2858  0D05  1283               	bcf	3,5	;RP0=0, select bank0
  2859  0D06  1303               	bcf	3,6	;RP1=0, select bank0
  2860  0D07  086B               	movf	?___fltol+1,w
  2861  0D08  1683               	bsf	3,5	;RP0=1, select bank1
  2862  0D09  1303               	bcf	3,6	;RP1=0, select bank1
  2863  0D0A  00A6               	movwf	(PWM2_Duty@duty+1)^(0+128)
  2864  0D0B  1283               	bcf	3,5	;RP0=0, select bank0
  2865  0D0C  1303               	bcf	3,6	;RP1=0, select bank0
  2866  0D0D  086A               	movf	?___fltol,w
  2867  0D0E  1683               	bsf	3,5	;RP0=1, select bank1
  2868  0D0F  1303               	bcf	3,6	;RP1=0, select bank1
  2869  0D10  00A5               	movwf	PWM2_Duty@duty^(0+128)
  2870  0D11                     l2078:
  2871                           
  2872                           ;./pwm.h: 32:     CCP2X = duty & 2;
  2873  0D11  1283               	bcf	3,5	;RP0=0, select bank0
  2874  0D12  1303               	bcf	3,6	;RP1=0, select bank0
  2875  0D13  129D               	bcf	29,5	;volatile
  2876  0D14                     l2080:
  2877                           
  2878                           ;./pwm.h: 33:     CCP2Y = duty & 1;
  2879  0D14  1683               	bsf	3,5	;RP0=1, select bank1
  2880  0D15  1303               	bcf	3,6	;RP1=0, select bank1
  2881  0D16  1825               	btfsc	PWM2_Duty@duty^(0+128),0
  2882  0D17  2D19               	goto	u2831
  2883  0D18  2D1D               	goto	u2830
  2884  0D19                     u2831:
  2885  0D19  1283               	bcf	3,5	;RP0=0, select bank0
  2886  0D1A  1303               	bcf	3,6	;RP1=0, select bank0
  2887  0D1B  161D               	bsf	29,4	;volatile
  2888  0D1C  2D20               	goto	u2844
  2889  0D1D                     u2830:
  2890  0D1D  1283               	bcf	3,5	;RP0=0, select bank0
  2891  0D1E  1303               	bcf	3,6	;RP1=0, select bank0
  2892  0D1F  121D               	bcf	29,4	;volatile
  2893  0D20                     u2844:
  2894  0D20                     l2082:
  2895                           
  2896                           ;./pwm.h: 34:     CCPR2L = duty>>2;
  2897  0D20  1683               	bsf	3,5	;RP0=1, select bank1
  2898  0D21  1303               	bcf	3,6	;RP1=0, select bank1
  2899  0D22  0826               	movf	(PWM2_Duty@duty+1)^(0+128),w
  2900  0D23  00A8               	movwf	(??_PWM2_Duty^(0+128)+1)
  2901  0D24  0825               	movf	PWM2_Duty@duty^(0+128),w
  2902  0D25  00A7               	movwf	??_PWM2_Duty^(0+128)
  2903  0D26  1003               	clrc
  2904  0D27  0CA8               	rrf	(??_PWM2_Duty^(0+128)+1),f
  2905  0D28  0CA7               	rrf	??_PWM2_Duty^(0+128),f
  2906  0D29  1003               	clrc
  2907  0D2A  0CA8               	rrf	(??_PWM2_Duty^(0+128)+1),f
  2908  0D2B  0CA7               	rrf	??_PWM2_Duty^(0+128),f
  2909  0D2C  0827               	movf	??_PWM2_Duty^(0+128),w
  2910  0D2D  1283               	bcf	3,5	;RP0=0, select bank0
  2911  0D2E  1303               	bcf	3,6	;RP1=0, select bank0
  2912  0D2F  009B               	movwf	27	;volatile
  2913  0D30                     l130:
  2914  0D30  0008               	return
  2915  0D31                     __end_of_PWM2_Duty:
  2916                           
  2917                           	psect	text14
  2918  0AC5                     __ptext14:	
  2919 ;; *************** function _PWM1_Start *****************
  2920 ;; Defined at:
  2921 ;;		line 37 in file "./pwm.h"
  2922 ;; Parameters:    Size  Location     Type
  2923 ;;		None
  2924 ;; Auto vars:     Size  Location     Type
  2925 ;;		None
  2926 ;; Return value:  Size  Location     Type
  2927 ;;                  2  132[None  ] int 
  2928 ;; Registers used:
  2929 ;;		None
  2930 ;; Tracked objects:
  2931 ;;		On entry : 0/0
  2932 ;;		On exit  : 0/0
  2933 ;;		Unchanged: 0/0
  2934 ;; Data sizes:     COMMON   BANK0   BANK1   BANK3   BANK2
  2935 ;;      Params:         0       0       0       0       0
  2936 ;;      Locals:         0       0       0       0       0
  2937 ;;      Temps:          0       0       0       0       0
  2938 ;;      Totals:         0       0       0       0       0
  2939 ;;Total ram usage:        0 bytes
  2940 ;; Hardware stack levels used: 1
  2941 ;; This function calls:
  2942 ;;		Nothing
  2943 ;; This function is called by:
  2944 ;;		_main
  2945 ;; This function uses a non-reentrant model
  2946 ;;
  2947                           
  2948                           
  2949                           ;psect for function _PWM1_Start
  2950  0AC5                     _PWM1_Start:
  2951  0AC5                     l2084:	
  2952                           ;incstack = 0
  2953                           ; Regs used in _PWM1_Start: []
  2954                           
  2955                           
  2956                           ;./pwm.h: 39:   CCP1CONbits.CCP1M3 = 1;
  2957  0AC5  1283               	bcf	3,5	;RP0=0, select bank0
  2958  0AC6  1303               	bcf	3,6	;RP1=0, select bank0
  2959  0AC7  1597               	bsf	23,3	;volatile
  2960                           
  2961                           ;./pwm.h: 40:   CCP1CONbits.CCP1M2 = 1;
  2962  0AC8  1517               	bsf	23,2	;volatile
  2963                           
  2964                           ;./pwm.h: 45:     T2CONbits.T2CKPS0 = 1;
  2965  0AC9  1412               	bsf	18,0	;volatile
  2966                           
  2967                           ;./pwm.h: 46:     T2CONbits.T2CKPS1 = 0;
  2968  0ACA  1092               	bcf	18,1	;volatile
  2969                           
  2970                           ;./pwm.h: 51:   T2CONbits.TMR2ON = 1;
  2971  0ACB  1512               	bsf	18,2	;volatile
  2972                           
  2973                           ;./pwm.h: 52:   TRISCbits.TRISC2 = 0;
  2974  0ACC  1683               	bsf	3,5	;RP0=1, select bank1
  2975  0ACD  1303               	bcf	3,6	;RP1=0, select bank1
  2976  0ACE  1107               	bcf	7,2	;volatile
  2977  0ACF                     l133:
  2978  0ACF  0008               	return
  2979  0AD0                     __end_of_PWM1_Start:
  2980                           
  2981                           	psect	text15
  2982  0BB8                     __ptext15:	
  2983 ;; *************** function _PWM1_Init_Fre *****************
  2984 ;; Defined at:
  2985 ;;		line 11 in file "./pwm.h"
  2986 ;; Parameters:    Size  Location     Type
  2987 ;;  fre             4    6[BANK0 ] long 
  2988 ;; Auto vars:     Size  Location     Type
  2989 ;;		None
  2990 ;; Return value:  Size  Location     Type
  2991 ;;                  2    6[BANK0 ] int 
  2992 ;; Registers used:
  2993 ;;		wreg, status,2, status,0, pclath, cstack
  2994 ;; Tracked objects:
  2995 ;;		On entry : 0/0
  2996 ;;		On exit  : 0/0
  2997 ;;		Unchanged: 0/0
  2998 ;; Data sizes:     COMMON   BANK0   BANK1   BANK3   BANK2
  2999 ;;      Params:         0       4       0       0       0
  3000 ;;      Locals:         0       0       0       0       0
  3001 ;;      Temps:          4       0       0       0       0
  3002 ;;      Totals:         4       4       0       0       0
  3003 ;;Total ram usage:        8 bytes
  3004 ;; Hardware stack levels used: 1
  3005 ;; Hardware stack levels required when called: 1
  3006 ;; This function calls:
  3007 ;;		___aldiv
  3008 ;; This function is called by:
  3009 ;;		_main
  3010 ;; This function uses a non-reentrant model
  3011 ;;
  3012                           
  3013                           
  3014                           ;psect for function _PWM1_Init_Fre
  3015  0BB8                     _PWM1_Init_Fre:
  3016  0BB8                     l2060:	
  3017                           ;incstack = 0
  3018                           ; Regs used in _PWM1_Init_Fre: [wreg+status,2+status,0+pclath+cstack]
  3019                           
  3020                           
  3021                           ;./pwm.h: 11: PWM1_Init_Fre(long fre);./pwm.h: 12: {;./pwm.h: 13:   PR2 = (8000000/(freq
      +                          *4*4)) - 1;
  3022  0BB8  1683               	bsf	3,5	;RP0=1, select bank1
  3023  0BB9  1303               	bcf	3,6	;RP1=0, select bank1
  3024  0BBA  0846               	movf	_freq^(0+128),w
  3025  0BBB  00F9               	movwf	??_PWM1_Init_Fre
  3026  0BBC  0847               	movf	(_freq+1)^(0+128),w
  3027  0BBD  00FA               	movwf	??_PWM1_Init_Fre+1
  3028  0BBE  0848               	movf	(_freq+2)^(0+128),w
  3029  0BBF  00FB               	movwf	??_PWM1_Init_Fre+2
  3030  0BC0  0849               	movf	(_freq+3)^(0+128),w
  3031  0BC1  00FC               	movwf	??_PWM1_Init_Fre+3
  3032  0BC2  3002               	movlw	2
  3033  0BC3                     u2775:
  3034  0BC3  1003               	clrc
  3035  0BC4  0DF9               	rlf	??_PWM1_Init_Fre,f
  3036  0BC5  0DFA               	rlf	??_PWM1_Init_Fre+1,f
  3037  0BC6  0DFB               	rlf	??_PWM1_Init_Fre+2,f
  3038  0BC7  0DFC               	rlf	??_PWM1_Init_Fre+3,f
  3039  0BC8                     u2770:
  3040  0BC8  3EFF               	addlw	-1
  3041  0BC9  1D03               	skipz
  3042  0BCA  2BC3               	goto	u2775
  3043  0BCB  3002               	movlw	2
  3044  0BCC                     u2785:
  3045  0BCC  1003               	clrc
  3046  0BCD  0DF9               	rlf	??_PWM1_Init_Fre,f
  3047  0BCE  0DFA               	rlf	??_PWM1_Init_Fre+1,f
  3048  0BCF  0DFB               	rlf	??_PWM1_Init_Fre+2,f
  3049  0BD0  0DFC               	rlf	??_PWM1_Init_Fre+3,f
  3050  0BD1                     u2780:
  3051  0BD1  3EFF               	addlw	-1
  3052  0BD2  1D03               	skipz
  3053  0BD3  2BCC               	goto	u2785
  3054  0BD4  087C               	movf	??_PWM1_Init_Fre+3,w
  3055  0BD5  00F3               	movwf	___aldiv@divisor+3
  3056  0BD6  087B               	movf	??_PWM1_Init_Fre+2,w
  3057  0BD7  00F2               	movwf	___aldiv@divisor+2
  3058  0BD8  087A               	movf	??_PWM1_Init_Fre+1,w
  3059  0BD9  00F1               	movwf	___aldiv@divisor+1
  3060  0BDA  0879               	movf	??_PWM1_Init_Fre,w
  3061  0BDB  00F0               	movwf	___aldiv@divisor
  3062  0BDC  3000               	movlw	0
  3063  0BDD  00F7               	movwf	___aldiv@dividend+3
  3064  0BDE  307A               	movlw	122
  3065  0BDF  00F6               	movwf	___aldiv@dividend+2
  3066  0BE0  3012               	movlw	18
  3067  0BE1  00F5               	movwf	___aldiv@dividend+1
  3068  0BE2  3000               	movlw	0
  3069  0BE3  00F4               	movwf	___aldiv@dividend
  3070  0BE4  120A  158A  25CD  120A  158A  	fcall	___aldiv
  3071  0BE9  0870               	movf	?___aldiv,w
  3072  0BEA  3EFF               	addlw	255
  3073  0BEB  1683               	bsf	3,5	;RP0=1, select bank1
  3074  0BEC  1303               	bcf	3,6	;RP1=0, select bank1
  3075  0BED  0092               	movwf	18	;volatile
  3076  0BEE                     l2062:
  3077                           
  3078                           ;./pwm.h: 14:   freq = fre;
  3079  0BEE  1283               	bcf	3,5	;RP0=0, select bank0
  3080  0BEF  1303               	bcf	3,6	;RP1=0, select bank0
  3081  0BF0  0829               	movf	PWM1_Init_Fre@fre+3,w
  3082  0BF1  1683               	bsf	3,5	;RP0=1, select bank1
  3083  0BF2  1303               	bcf	3,6	;RP1=0, select bank1
  3084  0BF3  00C9               	movwf	(_freq+3)^(0+128)
  3085  0BF4  1283               	bcf	3,5	;RP0=0, select bank0
  3086  0BF5  1303               	bcf	3,6	;RP1=0, select bank0
  3087  0BF6  0828               	movf	PWM1_Init_Fre@fre+2,w
  3088  0BF7  1683               	bsf	3,5	;RP0=1, select bank1
  3089  0BF8  1303               	bcf	3,6	;RP1=0, select bank1
  3090  0BF9  00C8               	movwf	(_freq+2)^(0+128)
  3091  0BFA  1283               	bcf	3,5	;RP0=0, select bank0
  3092  0BFB  1303               	bcf	3,6	;RP1=0, select bank0
  3093  0BFC  0827               	movf	PWM1_Init_Fre@fre+1,w
  3094  0BFD  1683               	bsf	3,5	;RP0=1, select bank1
  3095  0BFE  1303               	bcf	3,6	;RP1=0, select bank1
  3096  0BFF  00C7               	movwf	(_freq+1)^(0+128)
  3097  0C00  1283               	bcf	3,5	;RP0=0, select bank0
  3098  0C01  1303               	bcf	3,6	;RP1=0, select bank0
  3099  0C02  0826               	movf	PWM1_Init_Fre@fre,w
  3100  0C03  1683               	bsf	3,5	;RP0=1, select bank1
  3101  0C04  1303               	bcf	3,6	;RP1=0, select bank1
  3102  0C05  00C6               	movwf	_freq^(0+128)
  3103  0C06                     l121:
  3104  0C06  0008               	return
  3105  0C07                     __end_of_PWM1_Init_Fre:
  3106                           
  3107                           	psect	text16
  3108  0C07                     __ptext16:	
  3109 ;; *************** function _PWM1_Duty *****************
  3110 ;; Defined at:
  3111 ;;		line 22 in file "./pwm.h"
  3112 ;; Parameters:    Size  Location     Type
  3113 ;;  duty            2    5[BANK1 ] unsigned int 
  3114 ;; Auto vars:     Size  Location     Type
  3115 ;;		None
  3116 ;; Return value:  Size  Location     Type
  3117 ;;                  2    5[BANK1 ] int 
  3118 ;; Registers used:
  3119 ;;		wreg, status,2, status,0, btemp+1, pclath, cstack
  3120 ;; Tracked objects:
  3121 ;;		On entry : 0/0
  3122 ;;		On exit  : 0/0
  3123 ;;		Unchanged: 0/0
  3124 ;; Data sizes:     COMMON   BANK0   BANK1   BANK3   BANK2
  3125 ;;      Params:         0       0       2       0       0
  3126 ;;      Locals:         0       0       0       0       0
  3127 ;;      Temps:          0       0       2       0       0
  3128 ;;      Totals:         0       0       4       0       0
  3129 ;;Total ram usage:        4 bytes
  3130 ;; Hardware stack levels used: 1
  3131 ;; Hardware stack levels required when called: 2
  3132 ;; This function calls:
  3133 ;;		_PWM_Max_Duty
  3134 ;;		___fldiv
  3135 ;;		___flmul
  3136 ;;		___fltol
  3137 ;;		___xxtofl
  3138 ;; This function is called by:
  3139 ;;		_main
  3140 ;; This function uses a non-reentrant model
  3141 ;;
  3142                           
  3143                           
  3144                           ;psect for function _PWM1_Duty
  3145  0C07                     _PWM1_Duty:
  3146  0C07                     l2068:	
  3147                           ;incstack = 0
  3148                           ; Regs used in _PWM1_Duty: [wreg+status,2+status,0+btemp+1+pclath+cstack]
  3149                           
  3150                           
  3151                           ;./pwm.h: 22: PWM1_Duty(unsigned int duty);./pwm.h: 23: {;./pwm.h: 24:     duty = ((floa
      +                          t)duty/100.0)*PWM_Max_Duty();
  3152  0C07  1683               	bsf	3,5	;RP0=1, select bank1
  3153  0C08  1303               	bcf	3,6	;RP1=0, select bank1
  3154  0C09  0825               	movf	PWM1_Duty@duty^(0+128),w
  3155  0C0A  1283               	bcf	3,5	;RP0=0, select bank0
  3156  0C0B  1303               	bcf	3,6	;RP1=0, select bank0
  3157  0C0C  00A8               	movwf	___xxtofl@val
  3158  0C0D  1683               	bsf	3,5	;RP0=1, select bank1
  3159  0C0E  1303               	bcf	3,6	;RP1=0, select bank1
  3160  0C0F  0826               	movf	(PWM1_Duty@duty+1)^(0+128),w
  3161  0C10  1283               	bcf	3,5	;RP0=0, select bank0
  3162  0C11  1303               	bcf	3,6	;RP1=0, select bank0
  3163  0C12  00A9               	movwf	___xxtofl@val+1
  3164  0C13  01AA               	clrf	___xxtofl@val+2
  3165  0C14  01AB               	clrf	___xxtofl@val+3
  3166  0C15  3000               	movlw	0
  3167  0C16  120A  158A  266A  120A  158A  	fcall	___xxtofl
  3168  0C1B  1283               	bcf	3,5	;RP0=0, select bank0
  3169  0C1C  1303               	bcf	3,6	;RP1=0, select bank0
  3170  0C1D  082B               	movf	?___xxtofl+3,w
  3171  0C1E  00BD               	movwf	___fldiv@b+3
  3172  0C1F  082A               	movf	?___xxtofl+2,w
  3173  0C20  00BC               	movwf	___fldiv@b+2
  3174  0C21  0829               	movf	?___xxtofl+1,w
  3175  0C22  00BB               	movwf	___fldiv@b+1
  3176  0C23  0828               	movf	?___xxtofl,w
  3177  0C24  00BA               	movwf	___fldiv@b
  3178  0C25  3042               	movlw	66
  3179  0C26  00B9               	movwf	___fldiv@a+3
  3180  0C27  30C8               	movlw	200
  3181  0C28  00B8               	movwf	___fldiv@a+2
  3182  0C29  3000               	movlw	0
  3183  0C2A  00B7               	movwf	___fldiv@a+1
  3184  0C2B  3000               	movlw	0
  3185  0C2C  00B6               	movwf	___fldiv@a
  3186  0C2D  120A  118A  22B8  120A  158A  	fcall	___fldiv
  3187  0C32  1283               	bcf	3,5	;RP0=0, select bank0
  3188  0C33  1303               	bcf	3,6	;RP1=0, select bank0
  3189  0C34  0839               	movf	?___fldiv+3,w
  3190  0C35  00D7               	movwf	___flmul@a+3
  3191  0C36  0838               	movf	?___fldiv+2,w
  3192  0C37  00D6               	movwf	___flmul@a+2
  3193  0C38  0837               	movf	?___fldiv+1,w
  3194  0C39  00D5               	movwf	___flmul@a+1
  3195  0C3A  0836               	movf	?___fldiv,w
  3196  0C3B  00D4               	movwf	___flmul@a
  3197  0C3C  120A  158A  2345  120A  158A  	fcall	_PWM_Max_Duty
  3198  0C41  1283               	bcf	3,5	;RP0=0, select bank0
  3199  0C42  1303               	bcf	3,6	;RP1=0, select bank0
  3200  0C43  0826               	movf	?_PWM_Max_Duty,w
  3201  0C44  00A8               	movwf	___xxtofl@val
  3202  0C45  0827               	movf	?_PWM_Max_Duty+1,w
  3203  0C46  00A9               	movwf	___xxtofl@val+1
  3204  0C47  3000               	movlw	0
  3205  0C48  1BA9               	btfsc	___xxtofl@val+1,7
  3206  0C49  30FF               	movlw	255
  3207  0C4A  00AA               	movwf	___xxtofl@val+2
  3208  0C4B  00AB               	movwf	___xxtofl@val+3
  3209  0C4C  3001               	movlw	1
  3210  0C4D  120A  158A  266A  120A  158A  	fcall	___xxtofl
  3211  0C52  1283               	bcf	3,5	;RP0=0, select bank0
  3212  0C53  1303               	bcf	3,6	;RP1=0, select bank0
  3213  0C54  082B               	movf	?___xxtofl+3,w
  3214  0C55  00D3               	movwf	___flmul@b+3
  3215  0C56  082A               	movf	?___xxtofl+2,w
  3216  0C57  00D2               	movwf	___flmul@b+2
  3217  0C58  0829               	movf	?___xxtofl+1,w
  3218  0C59  00D1               	movwf	___flmul@b+1
  3219  0C5A  0828               	movf	?___xxtofl,w
  3220  0C5B  00D0               	movwf	___flmul@b
  3221  0C5C  120A  118A  2495  120A  158A  	fcall	___flmul
  3222  0C61  1283               	bcf	3,5	;RP0=0, select bank0
  3223  0C62  1303               	bcf	3,6	;RP1=0, select bank0
  3224  0C63  0853               	movf	?___flmul+3,w
  3225  0C64  00ED               	movwf	___fltol@f1+3
  3226  0C65  0852               	movf	?___flmul+2,w
  3227  0C66  00EC               	movwf	___fltol@f1+2
  3228  0C67  0851               	movf	?___flmul+1,w
  3229  0C68  00EB               	movwf	___fltol@f1+1
  3230  0C69  0850               	movf	?___flmul,w
  3231  0C6A  00EA               	movwf	___fltol@f1
  3232  0C6B  120A  158A  2531  120A  158A  	fcall	___fltol
  3233  0C70  1283               	bcf	3,5	;RP0=0, select bank0
  3234  0C71  1303               	bcf	3,6	;RP1=0, select bank0
  3235  0C72  086B               	movf	?___fltol+1,w
  3236  0C73  1683               	bsf	3,5	;RP0=1, select bank1
  3237  0C74  1303               	bcf	3,6	;RP1=0, select bank1
  3238  0C75  00A6               	movwf	(PWM1_Duty@duty+1)^(0+128)
  3239  0C76  1283               	bcf	3,5	;RP0=0, select bank0
  3240  0C77  1303               	bcf	3,6	;RP1=0, select bank0
  3241  0C78  086A               	movf	?___fltol,w
  3242  0C79  1683               	bsf	3,5	;RP0=1, select bank1
  3243  0C7A  1303               	bcf	3,6	;RP1=0, select bank1
  3244  0C7B  00A5               	movwf	PWM1_Duty@duty^(0+128)
  3245  0C7C                     l2070:
  3246                           
  3247                           ;./pwm.h: 25:     CCP1X = duty & 2;
  3248  0C7C  1283               	bcf	3,5	;RP0=0, select bank0
  3249  0C7D  1303               	bcf	3,6	;RP1=0, select bank0
  3250  0C7E  1297               	bcf	23,5	;volatile
  3251  0C7F                     l2072:
  3252                           
  3253                           ;./pwm.h: 26:     CCP1Y = duty & 1;
  3254  0C7F  1683               	bsf	3,5	;RP0=1, select bank1
  3255  0C80  1303               	bcf	3,6	;RP1=0, select bank1
  3256  0C81  1825               	btfsc	PWM1_Duty@duty^(0+128),0
  3257  0C82  2C84               	goto	u2811
  3258  0C83  2C88               	goto	u2810
  3259  0C84                     u2811:
  3260  0C84  1283               	bcf	3,5	;RP0=0, select bank0
  3261  0C85  1303               	bcf	3,6	;RP1=0, select bank0
  3262  0C86  1617               	bsf	23,4	;volatile
  3263  0C87  2C8B               	goto	u2824
  3264  0C88                     u2810:
  3265  0C88  1283               	bcf	3,5	;RP0=0, select bank0
  3266  0C89  1303               	bcf	3,6	;RP1=0, select bank0
  3267  0C8A  1217               	bcf	23,4	;volatile
  3268  0C8B                     u2824:
  3269  0C8B                     l2074:
  3270                           
  3271                           ;./pwm.h: 27:     CCPR1L = duty>>2;
  3272  0C8B  1683               	bsf	3,5	;RP0=1, select bank1
  3273  0C8C  1303               	bcf	3,6	;RP1=0, select bank1
  3274  0C8D  0826               	movf	(PWM1_Duty@duty+1)^(0+128),w
  3275  0C8E  00A8               	movwf	(??_PWM1_Duty^(0+128)+1)
  3276  0C8F  0825               	movf	PWM1_Duty@duty^(0+128),w
  3277  0C90  00A7               	movwf	??_PWM1_Duty^(0+128)
  3278  0C91  1003               	clrc
  3279  0C92  0CA8               	rrf	(??_PWM1_Duty^(0+128)+1),f
  3280  0C93  0CA7               	rrf	??_PWM1_Duty^(0+128),f
  3281  0C94  1003               	clrc
  3282  0C95  0CA8               	rrf	(??_PWM1_Duty^(0+128)+1),f
  3283  0C96  0CA7               	rrf	??_PWM1_Duty^(0+128),f
  3284  0C97  0827               	movf	??_PWM1_Duty^(0+128),w
  3285  0C98  1283               	bcf	3,5	;RP0=0, select bank0
  3286  0C99  1303               	bcf	3,6	;RP1=0, select bank0
  3287  0C9A  0095               	movwf	21	;volatile
  3288  0C9B                     l127:
  3289  0C9B  0008               	return
  3290  0C9C                     __end_of_PWM1_Duty:
  3291                           
  3292                           	psect	text17
  3293  0E6A                     __ptext17:	
  3294 ;; *************** function ___xxtofl *****************
  3295 ;; Defined at:
  3296 ;;		line 10 in file "C:\Program Files\Microchip\xc8\v2.32\pic\sources\c90\common\xxtofl.c"
  3297 ;; Parameters:    Size  Location     Type
  3298 ;;  sign            1    wreg     unsigned char 
  3299 ;;  val             4    8[BANK0 ] long 
  3300 ;; Auto vars:     Size  Location     Type
  3301 ;;  sign            1   16[BANK0 ] unsigned char 
  3302 ;;  arg             4   18[BANK0 ] unsigned long 
  3303 ;;  exp             1   17[BANK0 ] unsigned char 
  3304 ;; Return value:  Size  Location     Type
  3305 ;;                  4    8[BANK0 ] unsigned char 
  3306 ;; Registers used:
  3307 ;;		wreg, status,2, status,0
  3308 ;; Tracked objects:
  3309 ;;		On entry : 0/0
  3310 ;;		On exit  : 0/0
  3311 ;;		Unchanged: 0/0
  3312 ;; Data sizes:     COMMON   BANK0   BANK1   BANK3   BANK2
  3313 ;;      Params:         0       4       0       0       0
  3314 ;;      Locals:         0       6       0       0       0
  3315 ;;      Temps:          0       4       0       0       0
  3316 ;;      Totals:         0      14       0       0       0
  3317 ;;Total ram usage:       14 bytes
  3318 ;; Hardware stack levels used: 1
  3319 ;; This function calls:
  3320 ;;		Nothing
  3321 ;; This function is called by:
  3322 ;;		_PWM1_Duty
  3323 ;;		_PWM2_Duty
  3324 ;; This function uses a non-reentrant model
  3325 ;;
  3326                           
  3327                           
  3328                           ;psect for function ___xxtofl
  3329  0E6A                     ___xxtofl:
  3330                           
  3331                           ;incstack = 0
  3332                           ; Regs used in ___xxtofl: [wreg+status,2+status,0]
  3333                           ;___xxtofl@sign stored from wreg
  3334  0E6A  1283               	bcf	3,5	;RP0=0, select bank0
  3335  0E6B  1303               	bcf	3,6	;RP1=0, select bank0
  3336  0E6C  00B0               	movwf	___xxtofl@sign
  3337  0E6D                     l1982:
  3338  0E6D  0830               	movf	___xxtofl@sign,w
  3339  0E6E  1903               	btfsc	3,2
  3340  0E6F  2E71               	goto	u2541
  3341  0E70  2E72               	goto	u2540
  3342  0E71                     u2541:
  3343  0E71  2E86               	goto	l1988
  3344  0E72                     u2540:
  3345  0E72                     l1984:
  3346  0E72  1FAB               	btfss	___xxtofl@val+3,7
  3347  0E73  2E75               	goto	u2551
  3348  0E74  2E76               	goto	u2550
  3349  0E75                     u2551:
  3350  0E75  2E86               	goto	l1988
  3351  0E76                     u2550:
  3352  0E76                     l1986:
  3353  0E76  0928               	comf	___xxtofl@val,w
  3354  0E77  00B2               	movwf	___xxtofl@arg
  3355  0E78  0929               	comf	___xxtofl@val+1,w
  3356  0E79  00B3               	movwf	___xxtofl@arg+1
  3357  0E7A  092A               	comf	___xxtofl@val+2,w
  3358  0E7B  00B4               	movwf	___xxtofl@arg+2
  3359  0E7C  092B               	comf	___xxtofl@val+3,w
  3360  0E7D  00B5               	movwf	___xxtofl@arg+3
  3361  0E7E  0AB2               	incf	___xxtofl@arg,f
  3362  0E7F  1903               	skipnz
  3363  0E80  0AB3               	incf	___xxtofl@arg+1,f
  3364  0E81  1903               	skipnz
  3365  0E82  0AB4               	incf	___xxtofl@arg+2,f
  3366  0E83  1903               	skipnz
  3367  0E84  0AB5               	incf	___xxtofl@arg+3,f
  3368  0E85  2E8E               	goto	l733
  3369  0E86                     l1988:
  3370  0E86  082B               	movf	___xxtofl@val+3,w
  3371  0E87  00B5               	movwf	___xxtofl@arg+3
  3372  0E88  082A               	movf	___xxtofl@val+2,w
  3373  0E89  00B4               	movwf	___xxtofl@arg+2
  3374  0E8A  0829               	movf	___xxtofl@val+1,w
  3375  0E8B  00B3               	movwf	___xxtofl@arg+1
  3376  0E8C  0828               	movf	___xxtofl@val,w
  3377  0E8D  00B2               	movwf	___xxtofl@arg
  3378  0E8E                     l733:
  3379  0E8E  082B               	movf	___xxtofl@val+3,w
  3380  0E8F  042A               	iorwf	___xxtofl@val+2,w
  3381  0E90  0429               	iorwf	___xxtofl@val+1,w
  3382  0E91  0428               	iorwf	___xxtofl@val,w
  3383  0E92  1D03               	skipz
  3384  0E93  2E95               	goto	u2561
  3385  0E94  2E96               	goto	u2560
  3386  0E95                     u2561:
  3387  0E95  2E9F               	goto	l1994
  3388  0E96                     u2560:
  3389  0E96                     l1990:
  3390  0E96  3000               	movlw	0
  3391  0E97  00AB               	movwf	?___xxtofl+3
  3392  0E98  3000               	movlw	0
  3393  0E99  00AA               	movwf	?___xxtofl+2
  3394  0E9A  3000               	movlw	0
  3395  0E9B  00A9               	movwf	?___xxtofl+1
  3396  0E9C  3000               	movlw	0
  3397  0E9D  00A8               	movwf	?___xxtofl
  3398  0E9E  2F25               	goto	l735
  3399  0E9F                     l1994:
  3400  0E9F  3096               	movlw	150
  3401  0EA0  00AC               	movwf	??___xxtofl
  3402  0EA1  082C               	movf	??___xxtofl,w
  3403  0EA2  00B1               	movwf	___xxtofl@exp
  3404  0EA3  2EB1               	goto	l1998
  3405  0EA4                     l1996:
  3406  0EA4  3001               	movlw	1
  3407  0EA5  00AC               	movwf	??___xxtofl
  3408  0EA6  082C               	movf	??___xxtofl,w
  3409  0EA7  07B1               	addwf	___xxtofl@exp,f
  3410  0EA8  3001               	movlw	1
  3411  0EA9                     u2575:
  3412  0EA9  1003               	clrc
  3413  0EAA  0CB5               	rrf	___xxtofl@arg+3,f
  3414  0EAB  0CB4               	rrf	___xxtofl@arg+2,f
  3415  0EAC  0CB3               	rrf	___xxtofl@arg+1,f
  3416  0EAD  0CB2               	rrf	___xxtofl@arg,f
  3417  0EAE  3EFF               	addlw	-1
  3418  0EAF  1D03               	skipz
  3419  0EB0  2EA9               	goto	u2575
  3420  0EB1                     l1998:
  3421  0EB1  30FE               	movlw	254
  3422  0EB2  0535               	andwf	___xxtofl@arg+3,w
  3423  0EB3  1D03               	btfss	3,2
  3424  0EB4  2EB6               	goto	u2581
  3425  0EB5  2EB7               	goto	u2580
  3426  0EB6                     u2581:
  3427  0EB6  2EA4               	goto	l1996
  3428  0EB7                     u2580:
  3429  0EB7  2ED3               	goto	l739
  3430  0EB8                     l2000:
  3431  0EB8  3001               	movlw	1
  3432  0EB9  00AC               	movwf	??___xxtofl
  3433  0EBA  082C               	movf	??___xxtofl,w
  3434  0EBB  07B1               	addwf	___xxtofl@exp,f
  3435  0EBC                     l2002:
  3436  0EBC  3001               	movlw	1
  3437  0EBD  07B2               	addwf	___xxtofl@arg,f
  3438  0EBE  3000               	movlw	0
  3439  0EBF  1803               	skipnc
  3440  0EC0  3001               	movlw	1
  3441  0EC1  07B3               	addwf	___xxtofl@arg+1,f
  3442  0EC2  3000               	movlw	0
  3443  0EC3  1803               	skipnc
  3444  0EC4  3001               	movlw	1
  3445  0EC5  07B4               	addwf	___xxtofl@arg+2,f
  3446  0EC6  3000               	movlw	0
  3447  0EC7  1803               	skipnc
  3448  0EC8  3001               	movlw	1
  3449  0EC9  07B5               	addwf	___xxtofl@arg+3,f
  3450  0ECA                     l2004:
  3451  0ECA  3001               	movlw	1
  3452  0ECB                     u2595:
  3453  0ECB  1003               	clrc
  3454  0ECC  0CB5               	rrf	___xxtofl@arg+3,f
  3455  0ECD  0CB4               	rrf	___xxtofl@arg+2,f
  3456  0ECE  0CB3               	rrf	___xxtofl@arg+1,f
  3457  0ECF  0CB2               	rrf	___xxtofl@arg,f
  3458  0ED0  3EFF               	addlw	-1
  3459  0ED1  1D03               	skipz
  3460  0ED2  2ECB               	goto	u2595
  3461  0ED3                     l739:
  3462  0ED3  30FF               	movlw	255
  3463  0ED4  0535               	andwf	___xxtofl@arg+3,w
  3464  0ED5  1D03               	btfss	3,2
  3465  0ED6  2ED8               	goto	u2601
  3466  0ED7  2ED9               	goto	u2600
  3467  0ED8                     u2601:
  3468  0ED8  2EB8               	goto	l2000
  3469  0ED9                     u2600:
  3470  0ED9  2EE5               	goto	l2008
  3471  0EDA                     l2006:
  3472  0EDA  3001               	movlw	1
  3473  0EDB  02B1               	subwf	___xxtofl@exp,f
  3474  0EDC  3001               	movlw	1
  3475  0EDD  00AC               	movwf	??___xxtofl
  3476  0EDE                     u2615:
  3477  0EDE  1003               	clrc
  3478  0EDF  0DB2               	rlf	___xxtofl@arg,f
  3479  0EE0  0DB3               	rlf	___xxtofl@arg+1,f
  3480  0EE1  0DB4               	rlf	___xxtofl@arg+2,f
  3481  0EE2  0DB5               	rlf	___xxtofl@arg+3,f
  3482  0EE3  0BAC               	decfsz	??___xxtofl,f
  3483  0EE4  2EDE               	goto	u2615
  3484  0EE5                     l2008:
  3485  0EE5  1BB4               	btfsc	___xxtofl@arg+2,7
  3486  0EE6  2EE8               	goto	u2621
  3487  0EE7  2EE9               	goto	u2620
  3488  0EE8                     u2621:
  3489  0EE8  2EEF               	goto	l746
  3490  0EE9                     u2620:
  3491  0EE9                     l2010:
  3492  0EE9  3002               	movlw	2
  3493  0EEA  0231               	subwf	___xxtofl@exp,w
  3494  0EEB  1803               	skipnc
  3495  0EEC  2EEE               	goto	u2631
  3496  0EED  2EEF               	goto	u2630
  3497  0EEE                     u2631:
  3498  0EEE  2EDA               	goto	l2006
  3499  0EEF                     u2630:
  3500  0EEF                     l746:
  3501  0EEF  1831               	btfsc	___xxtofl@exp,0
  3502  0EF0  2EF2               	goto	u2641
  3503  0EF1  2EF3               	goto	u2640
  3504  0EF2                     u2641:
  3505  0EF2  2EFB               	goto	l747
  3506  0EF3                     u2640:
  3507  0EF3                     l2012:
  3508  0EF3  30FF               	movlw	255
  3509  0EF4  05B2               	andwf	___xxtofl@arg,f
  3510  0EF5  30FF               	movlw	255
  3511  0EF6  05B3               	andwf	___xxtofl@arg+1,f
  3512  0EF7  307F               	movlw	127
  3513  0EF8  05B4               	andwf	___xxtofl@arg+2,f
  3514  0EF9  30FF               	movlw	255
  3515  0EFA  05B5               	andwf	___xxtofl@arg+3,f
  3516  0EFB                     l747:
  3517  0EFB  1003               	clrc
  3518  0EFC  0CB1               	rrf	___xxtofl@exp,f
  3519  0EFD                     l2014:
  3520  0EFD  0831               	movf	___xxtofl@exp,w
  3521  0EFE  00AC               	movwf	??___xxtofl
  3522  0EFF  01AD               	clrf	??___xxtofl+1
  3523  0F00  01AE               	clrf	??___xxtofl+2
  3524  0F01  01AF               	clrf	??___xxtofl+3
  3525  0F02  3018               	movlw	24
  3526  0F03                     u2655:
  3527  0F03  1003               	clrc
  3528  0F04  0DAC               	rlf	??___xxtofl,f
  3529  0F05  0DAD               	rlf	??___xxtofl+1,f
  3530  0F06  0DAE               	rlf	??___xxtofl+2,f
  3531  0F07  0DAF               	rlf	??___xxtofl+3,f
  3532  0F08                     u2650:
  3533  0F08  3EFF               	addlw	-1
  3534  0F09  1D03               	skipz
  3535  0F0A  2F03               	goto	u2655
  3536  0F0B  082C               	movf	??___xxtofl,w
  3537  0F0C  04B2               	iorwf	___xxtofl@arg,f
  3538  0F0D  082D               	movf	??___xxtofl+1,w
  3539  0F0E  04B3               	iorwf	___xxtofl@arg+1,f
  3540  0F0F  082E               	movf	??___xxtofl+2,w
  3541  0F10  04B4               	iorwf	___xxtofl@arg+2,f
  3542  0F11  082F               	movf	??___xxtofl+3,w
  3543  0F12  04B5               	iorwf	___xxtofl@arg+3,f
  3544  0F13                     l2016:
  3545  0F13  0830               	movf	___xxtofl@sign,w
  3546  0F14  1903               	btfsc	3,2
  3547  0F15  2F17               	goto	u2661
  3548  0F16  2F18               	goto	u2660
  3549  0F17                     u2661:
  3550  0F17  2F1D               	goto	l2022
  3551  0F18                     u2660:
  3552  0F18                     l2018:
  3553  0F18  1FAB               	btfss	___xxtofl@val+3,7
  3554  0F19  2F1B               	goto	u2671
  3555  0F1A  2F1C               	goto	u2670
  3556  0F1B                     u2671:
  3557  0F1B  2F1D               	goto	l2022
  3558  0F1C                     u2670:
  3559  0F1C                     l2020:
  3560  0F1C  17B5               	bsf	___xxtofl@arg+3,7
  3561  0F1D                     l2022:
  3562  0F1D  0835               	movf	___xxtofl@arg+3,w
  3563  0F1E  00AB               	movwf	?___xxtofl+3
  3564  0F1F  0834               	movf	___xxtofl@arg+2,w
  3565  0F20  00AA               	movwf	?___xxtofl+2
  3566  0F21  0833               	movf	___xxtofl@arg+1,w
  3567  0F22  00A9               	movwf	?___xxtofl+1
  3568  0F23  0832               	movf	___xxtofl@arg,w
  3569  0F24  00A8               	movwf	?___xxtofl
  3570  0F25                     l735:
  3571  0F25  0008               	return
  3572  0F26                     __end_of___xxtofl:
  3573                           
  3574                           	psect	text18
  3575  0D31                     __ptext18:	
  3576 ;; *************** function ___fltol *****************
  3577 ;; Defined at:
  3578 ;;		line 43 in file "C:\Program Files\Microchip\xc8\v2.32\pic\sources\c90\common\fltol.c"
  3579 ;; Parameters:    Size  Location     Type
  3580 ;;  f1              4   74[BANK0 ] unsigned char 
  3581 ;; Auto vars:     Size  Location     Type
  3582 ;;  exp1            1   79[BANK0 ] unsigned char 
  3583 ;;  sign1           1   78[BANK0 ] unsigned char 
  3584 ;; Return value:  Size  Location     Type
  3585 ;;                  4   74[BANK0 ] long 
  3586 ;; Registers used:
  3587 ;;		wreg, status,2, status,0
  3588 ;; Tracked objects:
  3589 ;;		On entry : 0/0
  3590 ;;		On exit  : 0/0
  3591 ;;		Unchanged: 0/0
  3592 ;; Data sizes:     COMMON   BANK0   BANK1   BANK3   BANK2
  3593 ;;      Params:         0       4       0       0       0
  3594 ;;      Locals:         0       2       0       0       0
  3595 ;;      Temps:          0       0       5       0       0
  3596 ;;      Totals:         0       6       5       0       0
  3597 ;;Total ram usage:       11 bytes
  3598 ;; Hardware stack levels used: 1
  3599 ;; This function calls:
  3600 ;;		Nothing
  3601 ;; This function is called by:
  3602 ;;		_PWM1_Duty
  3603 ;;		_PWM2_Duty
  3604 ;; This function uses a non-reentrant model
  3605 ;;
  3606                           
  3607                           
  3608                           ;psect for function ___fltol
  3609  0D31                     ___fltol:
  3610  0D31                     l1616:	
  3611                           ;incstack = 0
  3612                           ; Regs used in ___fltol: [wreg+status,2+status,0]
  3613                           
  3614  0D31  1003               	clrc
  3615  0D32  1283               	bcf	3,5	;RP0=0, select bank0
  3616  0D33  1303               	bcf	3,6	;RP1=0, select bank0
  3617  0D34  0D6C               	rlf	___fltol@f1+2,w
  3618  0D35  0D6D               	rlf	___fltol@f1+3,w
  3619  0D36  1683               	bsf	3,5	;RP0=1, select bank1
  3620  0D37  1303               	bcf	3,6	;RP1=0, select bank1
  3621  0D38  00A0               	movwf	??___fltol^(0+128)
  3622  0D39  0820               	movf	??___fltol^(0+128),w
  3623  0D3A  1283               	bcf	3,5	;RP0=0, select bank0
  3624  0D3B  1303               	bcf	3,6	;RP1=0, select bank0
  3625  0D3C  00EF               	movwf	___fltol@exp1
  3626  0D3D  086F               	movf	___fltol@exp1,w
  3627  0D3E  1D03               	btfss	3,2
  3628  0D3F  2D41               	goto	u1651
  3629  0D40  2D42               	goto	u1650
  3630  0D41                     u1651:
  3631  0D41  2D4B               	goto	l1622
  3632  0D42                     u1650:
  3633  0D42                     l1618:
  3634  0D42  3000               	movlw	0
  3635  0D43  00ED               	movwf	?___fltol+3
  3636  0D44  3000               	movlw	0
  3637  0D45  00EC               	movwf	?___fltol+2
  3638  0D46  3000               	movlw	0
  3639  0D47  00EB               	movwf	?___fltol+1
  3640  0D48  3000               	movlw	0
  3641  0D49  00EA               	movwf	?___fltol
  3642  0D4A  2DCC               	goto	l486
  3643  0D4B                     l1622:
  3644  0D4B  086A               	movf	___fltol@f1,w
  3645  0D4C  1683               	bsf	3,5	;RP0=1, select bank1
  3646  0D4D  1303               	bcf	3,6	;RP1=0, select bank1
  3647  0D4E  00A0               	movwf	??___fltol^(0+128)
  3648  0D4F  1283               	bcf	3,5	;RP0=0, select bank0
  3649  0D50  1303               	bcf	3,6	;RP1=0, select bank0
  3650  0D51  086B               	movf	___fltol@f1+1,w
  3651  0D52  1683               	bsf	3,5	;RP0=1, select bank1
  3652  0D53  1303               	bcf	3,6	;RP1=0, select bank1
  3653  0D54  00A1               	movwf	(??___fltol^(0+128)+1)
  3654  0D55  1283               	bcf	3,5	;RP0=0, select bank0
  3655  0D56  1303               	bcf	3,6	;RP1=0, select bank0
  3656  0D57  086C               	movf	___fltol@f1+2,w
  3657  0D58  1683               	bsf	3,5	;RP0=1, select bank1
  3658  0D59  1303               	bcf	3,6	;RP1=0, select bank1
  3659  0D5A  00A2               	movwf	(??___fltol^(0+128)+2)
  3660  0D5B  1283               	bcf	3,5	;RP0=0, select bank0
  3661  0D5C  1303               	bcf	3,6	;RP1=0, select bank0
  3662  0D5D  086D               	movf	___fltol@f1+3,w
  3663  0D5E  1683               	bsf	3,5	;RP0=1, select bank1
  3664  0D5F  1303               	bcf	3,6	;RP1=0, select bank1
  3665  0D60  00A3               	movwf	(??___fltol^(0+128)+3)
  3666  0D61  301F               	movlw	31
  3667  0D62                     u1665:
  3668  0D62  1003               	clrc
  3669  0D63  0CA3               	rrf	(??___fltol^(0+128)+3),f
  3670  0D64  0CA2               	rrf	(??___fltol^(0+128)+2),f
  3671  0D65  0CA1               	rrf	(??___fltol^(0+128)+1),f
  3672  0D66  0CA0               	rrf	??___fltol^(0+128),f
  3673  0D67                     u1660:
  3674  0D67  3EFF               	addlw	-1
  3675  0D68  1D03               	skipz
  3676  0D69  2D62               	goto	u1665
  3677  0D6A  0820               	movf	??___fltol^(0+128),w
  3678  0D6B  00A4               	movwf	(??___fltol+4)^(0+128)
  3679  0D6C  0824               	movf	(??___fltol+4)^(0+128),w
  3680  0D6D  1283               	bcf	3,5	;RP0=0, select bank0
  3681  0D6E  1303               	bcf	3,6	;RP1=0, select bank0
  3682  0D6F  00EE               	movwf	___fltol@sign1
  3683  0D70                     l1624:
  3684  0D70  17EC               	bsf	___fltol@f1+2,7
  3685  0D71                     l1626:
  3686  0D71  30FF               	movlw	255
  3687  0D72  05EA               	andwf	___fltol@f1,f
  3688  0D73  30FF               	movlw	255
  3689  0D74  05EB               	andwf	___fltol@f1+1,f
  3690  0D75  30FF               	movlw	255
  3691  0D76  05EC               	andwf	___fltol@f1+2,f
  3692  0D77  3000               	movlw	0
  3693  0D78  05ED               	andwf	___fltol@f1+3,f
  3694  0D79                     l1628:
  3695  0D79  3096               	movlw	150
  3696  0D7A  02EF               	subwf	___fltol@exp1,f
  3697  0D7B                     l1630:
  3698  0D7B  1FEF               	btfss	___fltol@exp1,7
  3699  0D7C  2D7E               	goto	u1671
  3700  0D7D  2D7F               	goto	u1670
  3701  0D7E                     u1671:
  3702  0D7E  2D9D               	goto	l1640
  3703  0D7F                     u1670:
  3704  0D7F                     l1632:
  3705  0D7F  086F               	movf	___fltol@exp1,w
  3706  0D80  3A80               	xorlw	128
  3707  0D81  3E97               	addlw	151
  3708  0D82  1803               	skipnc
  3709  0D83  2D85               	goto	u1681
  3710  0D84  2D86               	goto	u1680
  3711  0D85                     u1681:
  3712  0D85  2D87               	goto	l1638
  3713  0D86                     u1680:
  3714  0D86  2D42               	goto	l1618
  3715  0D87                     l1638:
  3716  0D87  3001               	movlw	1
  3717  0D88                     u1695:
  3718  0D88  1003               	clrc
  3719  0D89  0CED               	rrf	___fltol@f1+3,f
  3720  0D8A  0CEC               	rrf	___fltol@f1+2,f
  3721  0D8B  0CEB               	rrf	___fltol@f1+1,f
  3722  0D8C  0CEA               	rrf	___fltol@f1,f
  3723  0D8D  3EFF               	addlw	-1
  3724  0D8E  1D03               	skipz
  3725  0D8F  2D88               	goto	u1695
  3726  0D90  3001               	movlw	1
  3727  0D91  1683               	bsf	3,5	;RP0=1, select bank1
  3728  0D92  1303               	bcf	3,6	;RP1=0, select bank1
  3729  0D93  00A0               	movwf	??___fltol^(0+128)
  3730  0D94  0820               	movf	??___fltol^(0+128),w
  3731  0D95  1283               	bcf	3,5	;RP0=0, select bank0
  3732  0D96  1303               	bcf	3,6	;RP1=0, select bank0
  3733  0D97  07EF               	addwf	___fltol@exp1,f
  3734  0D98  1D03               	btfss	3,2
  3735  0D99  2D9B               	goto	u1701
  3736  0D9A  2D9C               	goto	u1700
  3737  0D9B                     u1701:
  3738  0D9B  2D87               	goto	l1638
  3739  0D9C                     u1700:
  3740  0D9C  2DBC               	goto	l1648
  3741  0D9D                     l1640:
  3742  0D9D  3020               	movlw	32
  3743  0D9E  026F               	subwf	___fltol@exp1,w
  3744  0D9F  1C03               	skipc
  3745  0DA0  2DA2               	goto	u1711
  3746  0DA1  2DA3               	goto	u1710
  3747  0DA2                     u1711:
  3748  0DA2  2DB7               	goto	l493
  3749  0DA3                     u1710:
  3750  0DA3  2D42               	goto	l1618
  3751  0DA4                     l1646:
  3752  0DA4  3001               	movlw	1
  3753  0DA5  1683               	bsf	3,5	;RP0=1, select bank1
  3754  0DA6  1303               	bcf	3,6	;RP1=0, select bank1
  3755  0DA7  00A0               	movwf	??___fltol^(0+128)
  3756  0DA8                     u1725:
  3757  0DA8  1003               	clrc
  3758  0DA9  1283               	bcf	3,5	;RP0=0, select bank0
  3759  0DAA  1303               	bcf	3,6	;RP1=0, select bank0
  3760  0DAB  0DEA               	rlf	___fltol@f1,f
  3761  0DAC  0DEB               	rlf	___fltol@f1+1,f
  3762  0DAD  0DEC               	rlf	___fltol@f1+2,f
  3763  0DAE  0DED               	rlf	___fltol@f1+3,f
  3764  0DAF  1683               	bsf	3,5	;RP0=1, select bank1
  3765  0DB0  1303               	bcf	3,6	;RP1=0, select bank1
  3766  0DB1  0BA0               	decfsz	??___fltol^(0+128),f
  3767  0DB2  2DA8               	goto	u1725
  3768  0DB3  3001               	movlw	1
  3769  0DB4  1283               	bcf	3,5	;RP0=0, select bank0
  3770  0DB5  1303               	bcf	3,6	;RP1=0, select bank0
  3771  0DB6  02EF               	subwf	___fltol@exp1,f
  3772  0DB7                     l493:
  3773  0DB7  086F               	movf	___fltol@exp1,w
  3774  0DB8  1D03               	btfss	3,2
  3775  0DB9  2DBB               	goto	u1731
  3776  0DBA  2DBC               	goto	u1730
  3777  0DBB                     u1731:
  3778  0DBB  2DA4               	goto	l1646
  3779  0DBC                     u1730:
  3780  0DBC                     l1648:
  3781  0DBC  086E               	movf	___fltol@sign1,w
  3782  0DBD  1903               	btfsc	3,2
  3783  0DBE  2DC0               	goto	u1741
  3784  0DBF  2DC1               	goto	u1740
  3785  0DC0                     u1741:
  3786  0DC0  2DCC               	goto	l496
  3787  0DC1                     u1740:
  3788  0DC1                     l1650:
  3789  0DC1  09EA               	comf	___fltol@f1,f
  3790  0DC2  09EB               	comf	___fltol@f1+1,f
  3791  0DC3  09EC               	comf	___fltol@f1+2,f
  3792  0DC4  09ED               	comf	___fltol@f1+3,f
  3793  0DC5  0AEA               	incf	___fltol@f1,f
  3794  0DC6  1903               	skipnz
  3795  0DC7  0AEB               	incf	___fltol@f1+1,f
  3796  0DC8  1903               	skipnz
  3797  0DC9  0AEC               	incf	___fltol@f1+2,f
  3798  0DCA  1903               	skipnz
  3799  0DCB  0AED               	incf	___fltol@f1+3,f
  3800  0DCC                     l496:
  3801  0DCC                     l486:
  3802  0DCC  0008               	return
  3803  0DCD                     __end_of___fltol:
  3804                           
  3805                           	psect	text19
  3806  0495                     __ptext19:	
  3807 ;; *************** function ___flmul *****************
  3808 ;; Defined at:
  3809 ;;		line 8 in file "C:\Program Files\Microchip\xc8\v2.32\pic\sources\c90\common\sprcmul.c"
  3810 ;; Parameters:    Size  Location     Type
  3811 ;;  b               4   48[BANK0 ] long 
  3812 ;;  a               4   52[BANK0 ] long 
  3813 ;; Auto vars:     Size  Location     Type
  3814 ;;  prod            4   68[BANK0 ] struct .
  3815 ;;  grs             4   62[BANK0 ] unsigned long 
  3816 ;;  temp            2   72[BANK0 ] struct .
  3817 ;;  bexp            1   67[BANK0 ] unsigned char 
  3818 ;;  aexp            1   66[BANK0 ] unsigned char 
  3819 ;;  sign            1   61[BANK0 ] unsigned char 
  3820 ;; Return value:  Size  Location     Type
  3821 ;;                  4   48[BANK0 ] unsigned char 
  3822 ;; Registers used:
  3823 ;;		wreg, status,2, status,0, btemp+1, pclath, cstack
  3824 ;; Tracked objects:
  3825 ;;		On entry : 0/0
  3826 ;;		On exit  : 0/0
  3827 ;;		Unchanged: 0/0
  3828 ;; Data sizes:     COMMON   BANK0   BANK1   BANK3   BANK2
  3829 ;;      Params:         0       8       0       0       0
  3830 ;;      Locals:         0      13       0       0       0
  3831 ;;      Temps:          0       5       0       0       0
  3832 ;;      Totals:         0      26       0       0       0
  3833 ;;Total ram usage:       26 bytes
  3834 ;; Hardware stack levels used: 1
  3835 ;; Hardware stack levels required when called: 1
  3836 ;; This function calls:
  3837 ;;		__Umul8_16
  3838 ;; This function is called by:
  3839 ;;		_PWM1_Duty
  3840 ;;		_PWM2_Duty
  3841 ;; This function uses a non-reentrant model
  3842 ;;
  3843                           
  3844                           
  3845                           ;psect for function ___flmul
  3846  0495                     ___flmul:
  3847  0495                     l1842:	
  3848                           ;incstack = 0
  3849                           ; Regs used in ___flmul: [wreg+status,2+status,0+btemp+1+pclath+cstack]
  3850                           
  3851  0495  1283               	bcf	3,5	;RP0=0, select bank0
  3852  0496  1303               	bcf	3,6	;RP1=0, select bank0
  3853  0497  0853               	movf	___flmul@b+3,w
  3854  0498  3980               	andlw	128
  3855  0499  00D8               	movwf	??___flmul
  3856  049A  0858               	movf	??___flmul,w
  3857  049B  00DD               	movwf	___flmul@sign
  3858  049C                     l1844:
  3859  049C  0853               	movf	___flmul@b+3,w
  3860  049D  00D8               	movwf	??___flmul
  3861  049E  0758               	addwf	??___flmul,w
  3862  049F  00D9               	movwf	??___flmul+1
  3863  04A0  0859               	movf	??___flmul+1,w
  3864  04A1  00E3               	movwf	___flmul@bexp
  3865  04A2                     l1846:
  3866  04A2  1FD2               	btfss	___flmul@b+2,7
  3867  04A3  2CA5               	goto	u2171
  3868  04A4  2CA6               	goto	u2170
  3869  04A5                     u2171:
  3870  04A5  2CA7               	goto	l1850
  3871  04A6                     u2170:
  3872  04A6                     l1848:
  3873  04A6  1463               	bsf	___flmul@bexp,0
  3874  04A7                     l1850:
  3875  04A7  0863               	movf	___flmul@bexp,w
  3876  04A8  1903               	btfsc	3,2
  3877  04A9  2CAB               	goto	u2181
  3878  04AA  2CAC               	goto	u2180
  3879  04AB                     u2181:
  3880  04AB  2CBB               	goto	l1858
  3881  04AC                     u2180:
  3882  04AC                     l1852:
  3883  04AC  0A63               	incf	___flmul@bexp,w
  3884  04AD  1D03               	btfss	3,2
  3885  04AE  2CB0               	goto	u2191
  3886  04AF  2CB1               	goto	u2190
  3887  04B0                     u2191:
  3888  04B0  2CB9               	goto	l1856
  3889  04B1                     u2190:
  3890  04B1                     l1854:
  3891  04B1  3000               	movlw	0
  3892  04B2  00D3               	movwf	___flmul@b+3
  3893  04B3  3000               	movlw	0
  3894  04B4  00D2               	movwf	___flmul@b+2
  3895  04B5  3000               	movlw	0
  3896  04B6  00D1               	movwf	___flmul@b+1
  3897  04B7  3000               	movlw	0
  3898  04B8  00D0               	movwf	___flmul@b
  3899  04B9                     l1856:
  3900  04B9  17D2               	bsf	___flmul@b+2,7
  3901  04BA  2CC3               	goto	l1860
  3902  04BB                     l1858:
  3903  04BB  3000               	movlw	0
  3904  04BC  00D3               	movwf	___flmul@b+3
  3905  04BD  3000               	movlw	0
  3906  04BE  00D2               	movwf	___flmul@b+2
  3907  04BF  3000               	movlw	0
  3908  04C0  00D1               	movwf	___flmul@b+1
  3909  04C1  3000               	movlw	0
  3910  04C2  00D0               	movwf	___flmul@b
  3911  04C3                     l1860:
  3912  04C3  0857               	movf	___flmul@a+3,w
  3913  04C4  3980               	andlw	128
  3914  04C5  00D8               	movwf	??___flmul
  3915  04C6  0858               	movf	??___flmul,w
  3916  04C7  06DD               	xorwf	___flmul@sign,f
  3917  04C8                     l1862:
  3918  04C8  0857               	movf	___flmul@a+3,w
  3919  04C9  00D8               	movwf	??___flmul
  3920  04CA  0758               	addwf	??___flmul,w
  3921  04CB  00D9               	movwf	??___flmul+1
  3922  04CC  0859               	movf	??___flmul+1,w
  3923  04CD  00E2               	movwf	___flmul@aexp
  3924  04CE                     l1864:
  3925  04CE  1FD6               	btfss	___flmul@a+2,7
  3926  04CF  2CD1               	goto	u2201
  3927  04D0  2CD2               	goto	u2200
  3928  04D1                     u2201:
  3929  04D1  2CD3               	goto	l1868
  3930  04D2                     u2200:
  3931  04D2                     l1866:
  3932  04D2  1462               	bsf	___flmul@aexp,0
  3933  04D3                     l1868:
  3934  04D3  0862               	movf	___flmul@aexp,w
  3935  04D4  1903               	btfsc	3,2
  3936  04D5  2CD7               	goto	u2211
  3937  04D6  2CD8               	goto	u2210
  3938  04D7                     u2211:
  3939  04D7  2CE7               	goto	l1876
  3940  04D8                     u2210:
  3941  04D8                     l1870:
  3942  04D8  0A62               	incf	___flmul@aexp,w
  3943  04D9  1D03               	btfss	3,2
  3944  04DA  2CDC               	goto	u2221
  3945  04DB  2CDD               	goto	u2220
  3946  04DC                     u2221:
  3947  04DC  2CE5               	goto	l1874
  3948  04DD                     u2220:
  3949  04DD                     l1872:
  3950  04DD  3000               	movlw	0
  3951  04DE  00D7               	movwf	___flmul@a+3
  3952  04DF  3000               	movlw	0
  3953  04E0  00D6               	movwf	___flmul@a+2
  3954  04E1  3000               	movlw	0
  3955  04E2  00D5               	movwf	___flmul@a+1
  3956  04E3  3000               	movlw	0
  3957  04E4  00D4               	movwf	___flmul@a
  3958  04E5                     l1874:
  3959  04E5  17D6               	bsf	___flmul@a+2,7
  3960  04E6  2CEF               	goto	l1878
  3961  04E7                     l1876:
  3962  04E7  3000               	movlw	0
  3963  04E8  00D7               	movwf	___flmul@a+3
  3964  04E9  3000               	movlw	0
  3965  04EA  00D6               	movwf	___flmul@a+2
  3966  04EB  3000               	movlw	0
  3967  04EC  00D5               	movwf	___flmul@a+1
  3968  04ED  3000               	movlw	0
  3969  04EE  00D4               	movwf	___flmul@a
  3970  04EF                     l1878:
  3971  04EF  0862               	movf	___flmul@aexp,w
  3972  04F0  1903               	btfsc	3,2
  3973  04F1  2CF3               	goto	u2231
  3974  04F2  2CF4               	goto	u2230
  3975  04F3                     u2231:
  3976  04F3  2CF9               	goto	l1882
  3977  04F4                     u2230:
  3978  04F4                     l1880:
  3979  04F4  0863               	movf	___flmul@bexp,w
  3980  04F5  1D03               	btfss	3,2
  3981  04F6  2CF8               	goto	u2241
  3982  04F7  2CF9               	goto	u2240
  3983  04F8                     u2241:
  3984  04F8  2D02               	goto	l1886
  3985  04F9                     u2240:
  3986  04F9                     l1882:
  3987  04F9  3000               	movlw	0
  3988  04FA  00D3               	movwf	?___flmul+3
  3989  04FB  3000               	movlw	0
  3990  04FC  00D2               	movwf	?___flmul+2
  3991  04FD  3000               	movlw	0
  3992  04FE  00D1               	movwf	?___flmul+1
  3993  04FF  3000               	movlw	0
  3994  0500  00D0               	movwf	?___flmul
  3995  0501  2FF5               	goto	l689
  3996  0502                     l1886:
  3997  0502  0850               	movf	___flmul@b,w
  3998  0503  00D8               	movwf	??___flmul
  3999  0504  0858               	movf	??___flmul,w
  4000  0505  00F0               	movwf	__Umul8_16@multiplicand
  4001  0506  0856               	movf	___flmul@a+2,w
  4002  0507  120A  158A  231E  120A  118A  	fcall	__Umul8_16
  4003  050C  0871               	movf	?__Umul8_16+1,w
  4004  050D  1283               	bcf	3,5	;RP0=0, select bank0
  4005  050E  1303               	bcf	3,6	;RP1=0, select bank0
  4006  050F  00E9               	movwf	___flmul@temp+1
  4007  0510  0870               	movf	?__Umul8_16,w
  4008  0511  00E8               	movwf	___flmul@temp
  4009  0512                     l1888:
  4010  0512  0868               	movf	___flmul@temp,w
  4011  0513  00D8               	movwf	??___flmul
  4012  0514  01D9               	clrf	??___flmul+1
  4013  0515  01DA               	clrf	??___flmul+2
  4014  0516  01DB               	clrf	??___flmul+3
  4015  0517  085B               	movf	??___flmul+3,w
  4016  0518  00E1               	movwf	___flmul@grs+3
  4017  0519  085A               	movf	??___flmul+2,w
  4018  051A  00E0               	movwf	___flmul@grs+2
  4019  051B  0859               	movf	??___flmul+1,w
  4020  051C  00DF               	movwf	___flmul@grs+1
  4021  051D  0858               	movf	??___flmul,w
  4022  051E  00DE               	movwf	___flmul@grs
  4023  051F                     l1890:
  4024  051F  0869               	movf	___flmul@temp+1,w
  4025  0520  00D8               	movwf	??___flmul
  4026  0521  01D9               	clrf	??___flmul+1
  4027  0522  01DA               	clrf	??___flmul+2
  4028  0523  01DB               	clrf	??___flmul+3
  4029  0524  085B               	movf	??___flmul+3,w
  4030  0525  00E7               	movwf	___flmul@prod+3
  4031  0526  085A               	movf	??___flmul+2,w
  4032  0527  00E6               	movwf	___flmul@prod+2
  4033  0528  0859               	movf	??___flmul+1,w
  4034  0529  00E5               	movwf	___flmul@prod+1
  4035  052A  0858               	movf	??___flmul,w
  4036  052B  00E4               	movwf	___flmul@prod
  4037  052C  0851               	movf	___flmul@b+1,w
  4038  052D  00D8               	movwf	??___flmul
  4039  052E  0858               	movf	??___flmul,w
  4040  052F  00F0               	movwf	__Umul8_16@multiplicand
  4041  0530  0855               	movf	___flmul@a+1,w
  4042  0531  120A  158A  231E  120A  118A  	fcall	__Umul8_16
  4043  0536  0871               	movf	?__Umul8_16+1,w
  4044  0537  1283               	bcf	3,5	;RP0=0, select bank0
  4045  0538  1303               	bcf	3,6	;RP1=0, select bank0
  4046  0539  00E9               	movwf	___flmul@temp+1
  4047  053A  0870               	movf	?__Umul8_16,w
  4048  053B  00E8               	movwf	___flmul@temp
  4049  053C                     l1892:
  4050  053C  0868               	movf	___flmul@temp,w
  4051  053D  00D8               	movwf	??___flmul
  4052  053E  01D9               	clrf	??___flmul+1
  4053  053F  01DA               	clrf	??___flmul+2
  4054  0540  01DB               	clrf	??___flmul+3
  4055  0541  0858               	movf	??___flmul,w
  4056  0542  07DE               	addwf	___flmul@grs,f
  4057  0543  0859               	movf	??___flmul+1,w
  4058  0544  1103               	clrz
  4059  0545  1803               	skipnc
  4060  0546  3E01               	addlw	1
  4061  0547  1903               	skipnz
  4062  0548  2D4A               	goto	u2251
  4063  0549  07DF               	addwf	___flmul@grs+1,f
  4064  054A                     u2251:
  4065  054A  085A               	movf	??___flmul+2,w
  4066  054B  1103               	clrz
  4067  054C  1803               	skipnc
  4068  054D  3E01               	addlw	1
  4069  054E  1903               	skipnz
  4070  054F  2D51               	goto	u2252
  4071  0550  07E0               	addwf	___flmul@grs+2,f
  4072  0551                     u2252:
  4073  0551  085B               	movf	??___flmul+3,w
  4074  0552  1103               	clrz
  4075  0553  1803               	skipnc
  4076  0554  3E01               	addlw	1
  4077  0555  1903               	skipnz
  4078  0556  2D58               	goto	u2253
  4079  0557  07E1               	addwf	___flmul@grs+3,f
  4080  0558                     u2253:
  4081  0558                     l1894:
  4082  0558  0869               	movf	___flmul@temp+1,w
  4083  0559  00D8               	movwf	??___flmul
  4084  055A  01D9               	clrf	??___flmul+1
  4085  055B  01DA               	clrf	??___flmul+2
  4086  055C  01DB               	clrf	??___flmul+3
  4087  055D  0858               	movf	??___flmul,w
  4088  055E  07E4               	addwf	___flmul@prod,f
  4089  055F  0859               	movf	??___flmul+1,w
  4090  0560  1103               	clrz
  4091  0561  1803               	skipnc
  4092  0562  3E01               	addlw	1
  4093  0563  1903               	skipnz
  4094  0564  2D66               	goto	u2261
  4095  0565  07E5               	addwf	___flmul@prod+1,f
  4096  0566                     u2261:
  4097  0566  085A               	movf	??___flmul+2,w
  4098  0567  1103               	clrz
  4099  0568  1803               	skipnc
  4100  0569  3E01               	addlw	1
  4101  056A  1903               	skipnz
  4102  056B  2D6D               	goto	u2262
  4103  056C  07E6               	addwf	___flmul@prod+2,f
  4104  056D                     u2262:
  4105  056D  085B               	movf	??___flmul+3,w
  4106  056E  1103               	clrz
  4107  056F  1803               	skipnc
  4108  0570  3E01               	addlw	1
  4109  0571  1903               	skipnz
  4110  0572  2D74               	goto	u2263
  4111  0573  07E7               	addwf	___flmul@prod+3,f
  4112  0574                     u2263:
  4113  0574  0852               	movf	___flmul@b+2,w
  4114  0575  00D8               	movwf	??___flmul
  4115  0576  0858               	movf	??___flmul,w
  4116  0577  00F0               	movwf	__Umul8_16@multiplicand
  4117  0578  0854               	movf	___flmul@a,w
  4118  0579  120A  158A  231E  120A  118A  	fcall	__Umul8_16
  4119  057E  0871               	movf	?__Umul8_16+1,w
  4120  057F  1283               	bcf	3,5	;RP0=0, select bank0
  4121  0580  1303               	bcf	3,6	;RP1=0, select bank0
  4122  0581  00E9               	movwf	___flmul@temp+1
  4123  0582  0870               	movf	?__Umul8_16,w
  4124  0583  00E8               	movwf	___flmul@temp
  4125  0584                     l1896:
  4126  0584  0868               	movf	___flmul@temp,w
  4127  0585  00D8               	movwf	??___flmul
  4128  0586  01D9               	clrf	??___flmul+1
  4129  0587  01DA               	clrf	??___flmul+2
  4130  0588  01DB               	clrf	??___flmul+3
  4131  0589  0858               	movf	??___flmul,w
  4132  058A  07DE               	addwf	___flmul@grs,f
  4133  058B  0859               	movf	??___flmul+1,w
  4134  058C  1103               	clrz
  4135  058D  1803               	skipnc
  4136  058E  3E01               	addlw	1
  4137  058F  1903               	skipnz
  4138  0590  2D92               	goto	u2271
  4139  0591  07DF               	addwf	___flmul@grs+1,f
  4140  0592                     u2271:
  4141  0592  085A               	movf	??___flmul+2,w
  4142  0593  1103               	clrz
  4143  0594  1803               	skipnc
  4144  0595  3E01               	addlw	1
  4145  0596  1903               	skipnz
  4146  0597  2D99               	goto	u2272
  4147  0598  07E0               	addwf	___flmul@grs+2,f
  4148  0599                     u2272:
  4149  0599  085B               	movf	??___flmul+3,w
  4150  059A  1103               	clrz
  4151  059B  1803               	skipnc
  4152  059C  3E01               	addlw	1
  4153  059D  1903               	skipnz
  4154  059E  2DA0               	goto	u2273
  4155  059F  07E1               	addwf	___flmul@grs+3,f
  4156  05A0                     u2273:
  4157  05A0                     l1898:
  4158  05A0  0869               	movf	___flmul@temp+1,w
  4159  05A1  00D8               	movwf	??___flmul
  4160  05A2  01D9               	clrf	??___flmul+1
  4161  05A3  01DA               	clrf	??___flmul+2
  4162  05A4  01DB               	clrf	??___flmul+3
  4163  05A5  0858               	movf	??___flmul,w
  4164  05A6  07E4               	addwf	___flmul@prod,f
  4165  05A7  0859               	movf	??___flmul+1,w
  4166  05A8  1103               	clrz
  4167  05A9  1803               	skipnc
  4168  05AA  3E01               	addlw	1
  4169  05AB  1903               	skipnz
  4170  05AC  2DAE               	goto	u2281
  4171  05AD  07E5               	addwf	___flmul@prod+1,f
  4172  05AE                     u2281:
  4173  05AE  085A               	movf	??___flmul+2,w
  4174  05AF  1103               	clrz
  4175  05B0  1803               	skipnc
  4176  05B1  3E01               	addlw	1
  4177  05B2  1903               	skipnz
  4178  05B3  2DB5               	goto	u2282
  4179  05B4  07E6               	addwf	___flmul@prod+2,f
  4180  05B5                     u2282:
  4181  05B5  085B               	movf	??___flmul+3,w
  4182  05B6  1103               	clrz
  4183  05B7  1803               	skipnc
  4184  05B8  3E01               	addlw	1
  4185  05B9  1903               	skipnz
  4186  05BA  2DBC               	goto	u2283
  4187  05BB  07E7               	addwf	___flmul@prod+3,f
  4188  05BC                     u2283:
  4189  05BC                     l1900:
  4190  05BC  3008               	movlw	8
  4191  05BD  00D8               	movwf	??___flmul
  4192  05BE                     u2295:
  4193  05BE  1003               	clrc
  4194  05BF  0DDE               	rlf	___flmul@grs,f
  4195  05C0  0DDF               	rlf	___flmul@grs+1,f
  4196  05C1  0DE0               	rlf	___flmul@grs+2,f
  4197  05C2  0DE1               	rlf	___flmul@grs+3,f
  4198  05C3  0BD8               	decfsz	??___flmul,f
  4199  05C4  2DBE               	goto	u2295
  4200  05C5                     l1902:
  4201  05C5  0851               	movf	___flmul@b+1,w
  4202  05C6  00D8               	movwf	??___flmul
  4203  05C7  0858               	movf	??___flmul,w
  4204  05C8  00F0               	movwf	__Umul8_16@multiplicand
  4205  05C9  0854               	movf	___flmul@a,w
  4206  05CA  120A  158A  231E  120A  118A  	fcall	__Umul8_16
  4207  05CF  0871               	movf	?__Umul8_16+1,w
  4208  05D0  1283               	bcf	3,5	;RP0=0, select bank0
  4209  05D1  1303               	bcf	3,6	;RP1=0, select bank0
  4210  05D2  00E9               	movwf	___flmul@temp+1
  4211  05D3  0870               	movf	?__Umul8_16,w
  4212  05D4  00E8               	movwf	___flmul@temp
  4213  05D5                     l1904:
  4214  05D5  0868               	movf	___flmul@temp,w
  4215  05D6  00D8               	movwf	??___flmul
  4216  05D7  0869               	movf	___flmul@temp+1,w
  4217  05D8  00D9               	movwf	??___flmul+1
  4218  05D9  01DA               	clrf	??___flmul+2
  4219  05DA  01DB               	clrf	??___flmul+3
  4220  05DB  0858               	movf	??___flmul,w
  4221  05DC  07DE               	addwf	___flmul@grs,f
  4222  05DD  0859               	movf	??___flmul+1,w
  4223  05DE  1103               	clrz
  4224  05DF  1803               	skipnc
  4225  05E0  3E01               	addlw	1
  4226  05E1  1903               	skipnz
  4227  05E2  2DE4               	goto	u2301
  4228  05E3  07DF               	addwf	___flmul@grs+1,f
  4229  05E4                     u2301:
  4230  05E4  085A               	movf	??___flmul+2,w
  4231  05E5  1103               	clrz
  4232  05E6  1803               	skipnc
  4233  05E7  3E01               	addlw	1
  4234  05E8  1903               	skipnz
  4235  05E9  2DEB               	goto	u2302
  4236  05EA  07E0               	addwf	___flmul@grs+2,f
  4237  05EB                     u2302:
  4238  05EB  085B               	movf	??___flmul+3,w
  4239  05EC  1103               	clrz
  4240  05ED  1803               	skipnc
  4241  05EE  3E01               	addlw	1
  4242  05EF  1903               	skipnz
  4243  05F0  2DF2               	goto	u2303
  4244  05F1  07E1               	addwf	___flmul@grs+3,f
  4245  05F2                     u2303:
  4246  05F2                     l1906:
  4247  05F2  0850               	movf	___flmul@b,w
  4248  05F3  00D8               	movwf	??___flmul
  4249  05F4  0858               	movf	??___flmul,w
  4250  05F5  00F0               	movwf	__Umul8_16@multiplicand
  4251  05F6  0855               	movf	___flmul@a+1,w
  4252  05F7  120A  158A  231E  120A  118A  	fcall	__Umul8_16
  4253  05FC  0871               	movf	?__Umul8_16+1,w
  4254  05FD  1283               	bcf	3,5	;RP0=0, select bank0
  4255  05FE  1303               	bcf	3,6	;RP1=0, select bank0
  4256  05FF  00E9               	movwf	___flmul@temp+1
  4257  0600  0870               	movf	?__Umul8_16,w
  4258  0601  00E8               	movwf	___flmul@temp
  4259  0602                     l1908:
  4260  0602  0868               	movf	___flmul@temp,w
  4261  0603  00D8               	movwf	??___flmul
  4262  0604  0869               	movf	___flmul@temp+1,w
  4263  0605  00D9               	movwf	??___flmul+1
  4264  0606  01DA               	clrf	??___flmul+2
  4265  0607  01DB               	clrf	??___flmul+3
  4266  0608  0858               	movf	??___flmul,w
  4267  0609  07DE               	addwf	___flmul@grs,f
  4268  060A  0859               	movf	??___flmul+1,w
  4269  060B  1103               	clrz
  4270  060C  1803               	skipnc
  4271  060D  3E01               	addlw	1
  4272  060E  1903               	skipnz
  4273  060F  2E11               	goto	u2311
  4274  0610  07DF               	addwf	___flmul@grs+1,f
  4275  0611                     u2311:
  4276  0611  085A               	movf	??___flmul+2,w
  4277  0612  1103               	clrz
  4278  0613  1803               	skipnc
  4279  0614  3E01               	addlw	1
  4280  0615  1903               	skipnz
  4281  0616  2E18               	goto	u2312
  4282  0617  07E0               	addwf	___flmul@grs+2,f
  4283  0618                     u2312:
  4284  0618  085B               	movf	??___flmul+3,w
  4285  0619  1103               	clrz
  4286  061A  1803               	skipnc
  4287  061B  3E01               	addlw	1
  4288  061C  1903               	skipnz
  4289  061D  2E1F               	goto	u2313
  4290  061E  07E1               	addwf	___flmul@grs+3,f
  4291  061F                     u2313:
  4292  061F                     l1910:
  4293  061F  3008               	movlw	8
  4294  0620  00D8               	movwf	??___flmul
  4295  0621                     u2325:
  4296  0621  1003               	clrc
  4297  0622  0DDE               	rlf	___flmul@grs,f
  4298  0623  0DDF               	rlf	___flmul@grs+1,f
  4299  0624  0DE0               	rlf	___flmul@grs+2,f
  4300  0625  0DE1               	rlf	___flmul@grs+3,f
  4301  0626  0BD8               	decfsz	??___flmul,f
  4302  0627  2E21               	goto	u2325
  4303  0628  0850               	movf	___flmul@b,w
  4304  0629  00D8               	movwf	??___flmul
  4305  062A  0858               	movf	??___flmul,w
  4306  062B  00F0               	movwf	__Umul8_16@multiplicand
  4307  062C  0854               	movf	___flmul@a,w
  4308  062D  120A  158A  231E  120A  118A  	fcall	__Umul8_16
  4309  0632  0871               	movf	?__Umul8_16+1,w
  4310  0633  1283               	bcf	3,5	;RP0=0, select bank0
  4311  0634  1303               	bcf	3,6	;RP1=0, select bank0
  4312  0635  00E9               	movwf	___flmul@temp+1
  4313  0636  0870               	movf	?__Umul8_16,w
  4314  0637  00E8               	movwf	___flmul@temp
  4315  0638                     l1912:
  4316  0638  0868               	movf	___flmul@temp,w
  4317  0639  00D8               	movwf	??___flmul
  4318  063A  0869               	movf	___flmul@temp+1,w
  4319  063B  00D9               	movwf	??___flmul+1
  4320  063C  01DA               	clrf	??___flmul+2
  4321  063D  01DB               	clrf	??___flmul+3
  4322  063E  0858               	movf	??___flmul,w
  4323  063F  07DE               	addwf	___flmul@grs,f
  4324  0640  0859               	movf	??___flmul+1,w
  4325  0641  1103               	clrz
  4326  0642  1803               	skipnc
  4327  0643  3E01               	addlw	1
  4328  0644  1903               	skipnz
  4329  0645  2E47               	goto	u2331
  4330  0646  07DF               	addwf	___flmul@grs+1,f
  4331  0647                     u2331:
  4332  0647  085A               	movf	??___flmul+2,w
  4333  0648  1103               	clrz
  4334  0649  1803               	skipnc
  4335  064A  3E01               	addlw	1
  4336  064B  1903               	skipnz
  4337  064C  2E4E               	goto	u2332
  4338  064D  07E0               	addwf	___flmul@grs+2,f
  4339  064E                     u2332:
  4340  064E  085B               	movf	??___flmul+3,w
  4341  064F  1103               	clrz
  4342  0650  1803               	skipnc
  4343  0651  3E01               	addlw	1
  4344  0652  1903               	skipnz
  4345  0653  2E55               	goto	u2333
  4346  0654  07E1               	addwf	___flmul@grs+3,f
  4347  0655                     u2333:
  4348  0655                     l1914:
  4349  0655  0851               	movf	___flmul@b+1,w
  4350  0656  00D8               	movwf	??___flmul
  4351  0657  0858               	movf	??___flmul,w
  4352  0658  00F0               	movwf	__Umul8_16@multiplicand
  4353  0659  0856               	movf	___flmul@a+2,w
  4354  065A  120A  158A  231E  120A  118A  	fcall	__Umul8_16
  4355  065F  0871               	movf	?__Umul8_16+1,w
  4356  0660  1283               	bcf	3,5	;RP0=0, select bank0
  4357  0661  1303               	bcf	3,6	;RP1=0, select bank0
  4358  0662  00E9               	movwf	___flmul@temp+1
  4359  0663  0870               	movf	?__Umul8_16,w
  4360  0664  00E8               	movwf	___flmul@temp
  4361  0665  0868               	movf	___flmul@temp,w
  4362  0666  00D8               	movwf	??___flmul
  4363  0667  0869               	movf	___flmul@temp+1,w
  4364  0668  00D9               	movwf	??___flmul+1
  4365  0669  01DA               	clrf	??___flmul+2
  4366  066A  01DB               	clrf	??___flmul+3
  4367  066B  0858               	movf	??___flmul,w
  4368  066C  07E4               	addwf	___flmul@prod,f
  4369  066D  0859               	movf	??___flmul+1,w
  4370  066E  1103               	clrz
  4371  066F  1803               	skipnc
  4372  0670  3E01               	addlw	1
  4373  0671  1903               	skipnz
  4374  0672  2E74               	goto	u2341
  4375  0673  07E5               	addwf	___flmul@prod+1,f
  4376  0674                     u2341:
  4377  0674  085A               	movf	??___flmul+2,w
  4378  0675  1103               	clrz
  4379  0676  1803               	skipnc
  4380  0677  3E01               	addlw	1
  4381  0678  1903               	skipnz
  4382  0679  2E7B               	goto	u2342
  4383  067A  07E6               	addwf	___flmul@prod+2,f
  4384  067B                     u2342:
  4385  067B  085B               	movf	??___flmul+3,w
  4386  067C  1103               	clrz
  4387  067D  1803               	skipnc
  4388  067E  3E01               	addlw	1
  4389  067F  1903               	skipnz
  4390  0680  2E82               	goto	u2343
  4391  0681  07E7               	addwf	___flmul@prod+3,f
  4392  0682                     u2343:
  4393  0682                     l1916:
  4394  0682  0852               	movf	___flmul@b+2,w
  4395  0683  00D8               	movwf	??___flmul
  4396  0684  0858               	movf	??___flmul,w
  4397  0685  00F0               	movwf	__Umul8_16@multiplicand
  4398  0686  0855               	movf	___flmul@a+1,w
  4399  0687  120A  158A  231E  120A  118A  	fcall	__Umul8_16
  4400  068C  0871               	movf	?__Umul8_16+1,w
  4401  068D  1283               	bcf	3,5	;RP0=0, select bank0
  4402  068E  1303               	bcf	3,6	;RP1=0, select bank0
  4403  068F  00E9               	movwf	___flmul@temp+1
  4404  0690  0870               	movf	?__Umul8_16,w
  4405  0691  00E8               	movwf	___flmul@temp
  4406  0692                     l1918:
  4407  0692  0868               	movf	___flmul@temp,w
  4408  0693  00D8               	movwf	??___flmul
  4409  0694  0869               	movf	___flmul@temp+1,w
  4410  0695  00D9               	movwf	??___flmul+1
  4411  0696  01DA               	clrf	??___flmul+2
  4412  0697  01DB               	clrf	??___flmul+3
  4413  0698  0858               	movf	??___flmul,w
  4414  0699  07E4               	addwf	___flmul@prod,f
  4415  069A  0859               	movf	??___flmul+1,w
  4416  069B  1103               	clrz
  4417  069C  1803               	skipnc
  4418  069D  3E01               	addlw	1
  4419  069E  1903               	skipnz
  4420  069F  2EA1               	goto	u2351
  4421  06A0  07E5               	addwf	___flmul@prod+1,f
  4422  06A1                     u2351:
  4423  06A1  085A               	movf	??___flmul+2,w
  4424  06A2  1103               	clrz
  4425  06A3  1803               	skipnc
  4426  06A4  3E01               	addlw	1
  4427  06A5  1903               	skipnz
  4428  06A6  2EA8               	goto	u2352
  4429  06A7  07E6               	addwf	___flmul@prod+2,f
  4430  06A8                     u2352:
  4431  06A8  085B               	movf	??___flmul+3,w
  4432  06A9  1103               	clrz
  4433  06AA  1803               	skipnc
  4434  06AB  3E01               	addlw	1
  4435  06AC  1903               	skipnz
  4436  06AD  2EAF               	goto	u2353
  4437  06AE  07E7               	addwf	___flmul@prod+3,f
  4438  06AF                     u2353:
  4439  06AF  0852               	movf	___flmul@b+2,w
  4440  06B0  00D8               	movwf	??___flmul
  4441  06B1  0858               	movf	??___flmul,w
  4442  06B2  00F0               	movwf	__Umul8_16@multiplicand
  4443  06B3  0856               	movf	___flmul@a+2,w
  4444  06B4  120A  158A  231E  120A  118A  	fcall	__Umul8_16
  4445  06B9  0871               	movf	?__Umul8_16+1,w
  4446  06BA  1283               	bcf	3,5	;RP0=0, select bank0
  4447  06BB  1303               	bcf	3,6	;RP1=0, select bank0
  4448  06BC  00E9               	movwf	___flmul@temp+1
  4449  06BD  0870               	movf	?__Umul8_16,w
  4450  06BE  00E8               	movwf	___flmul@temp
  4451  06BF                     l1920:
  4452  06BF  0868               	movf	___flmul@temp,w
  4453  06C0  00D8               	movwf	??___flmul
  4454  06C1  0869               	movf	___flmul@temp+1,w
  4455  06C2  00D9               	movwf	??___flmul+1
  4456  06C3  01DA               	clrf	??___flmul+2
  4457  06C4  01DB               	clrf	??___flmul+3
  4458  06C5  3008               	movlw	8
  4459  06C6                     u2365:
  4460  06C6  1003               	clrc
  4461  06C7  0DD8               	rlf	??___flmul,f
  4462  06C8  0DD9               	rlf	??___flmul+1,f
  4463  06C9  0DDA               	rlf	??___flmul+2,f
  4464  06CA  0DDB               	rlf	??___flmul+3,f
  4465  06CB                     u2360:
  4466  06CB  3EFF               	addlw	-1
  4467  06CC  1D03               	skipz
  4468  06CD  2EC6               	goto	u2365
  4469  06CE  0858               	movf	??___flmul,w
  4470  06CF  07E4               	addwf	___flmul@prod,f
  4471  06D0  0859               	movf	??___flmul+1,w
  4472  06D1  1103               	clrz
  4473  06D2  1803               	skipnc
  4474  06D3  3E01               	addlw	1
  4475  06D4  1903               	skipnz
  4476  06D5  2ED7               	goto	u2371
  4477  06D6  07E5               	addwf	___flmul@prod+1,f
  4478  06D7                     u2371:
  4479  06D7  085A               	movf	??___flmul+2,w
  4480  06D8  1103               	clrz
  4481  06D9  1803               	skipnc
  4482  06DA  3E01               	addlw	1
  4483  06DB  1903               	skipnz
  4484  06DC  2EDE               	goto	u2372
  4485  06DD  07E6               	addwf	___flmul@prod+2,f
  4486  06DE                     u2372:
  4487  06DE  085B               	movf	??___flmul+3,w
  4488  06DF  1103               	clrz
  4489  06E0  1803               	skipnc
  4490  06E1  3E01               	addlw	1
  4491  06E2  1903               	skipnz
  4492  06E3  2EE5               	goto	u2373
  4493  06E4  07E7               	addwf	___flmul@prod+3,f
  4494  06E5                     u2373:
  4495  06E5                     l1922:
  4496  06E5  085E               	movf	___flmul@grs,w
  4497  06E6  00D8               	movwf	??___flmul
  4498  06E7  085F               	movf	___flmul@grs+1,w
  4499  06E8  00D9               	movwf	??___flmul+1
  4500  06E9  0860               	movf	___flmul@grs+2,w
  4501  06EA  00DA               	movwf	??___flmul+2
  4502  06EB  0861               	movf	___flmul@grs+3,w
  4503  06EC  00DB               	movwf	??___flmul+3
  4504  06ED  3018               	movlw	24
  4505  06EE                     u2385:
  4506  06EE  1003               	clrc
  4507  06EF  0CDB               	rrf	??___flmul+3,f
  4508  06F0  0CDA               	rrf	??___flmul+2,f
  4509  06F1  0CD9               	rrf	??___flmul+1,f
  4510  06F2  0CD8               	rrf	??___flmul,f
  4511  06F3                     u2380:
  4512  06F3  3EFF               	addlw	-1
  4513  06F4  1D03               	skipz
  4514  06F5  2EEE               	goto	u2385
  4515  06F6  0858               	movf	??___flmul,w
  4516  06F7  07E4               	addwf	___flmul@prod,f
  4517  06F8  0859               	movf	??___flmul+1,w
  4518  06F9  1103               	clrz
  4519  06FA  1803               	skipnc
  4520  06FB  3E01               	addlw	1
  4521  06FC  1903               	skipnz
  4522  06FD  2EFF               	goto	u2391
  4523  06FE  07E5               	addwf	___flmul@prod+1,f
  4524  06FF                     u2391:
  4525  06FF  085A               	movf	??___flmul+2,w
  4526  0700  1103               	clrz
  4527  0701  1803               	skipnc
  4528  0702  3E01               	addlw	1
  4529  0703  1903               	skipnz
  4530  0704  2F06               	goto	u2392
  4531  0705  07E6               	addwf	___flmul@prod+2,f
  4532  0706                     u2392:
  4533  0706  085B               	movf	??___flmul+3,w
  4534  0707  1103               	clrz
  4535  0708  1803               	skipnc
  4536  0709  3E01               	addlw	1
  4537  070A  1903               	skipnz
  4538  070B  2F0D               	goto	u2393
  4539  070C  07E7               	addwf	___flmul@prod+3,f
  4540  070D                     u2393:
  4541  070D                     l1924:
  4542  070D  3008               	movlw	8
  4543  070E  00D8               	movwf	??___flmul
  4544  070F                     u2405:
  4545  070F  1003               	clrc
  4546  0710  0DDE               	rlf	___flmul@grs,f
  4547  0711  0DDF               	rlf	___flmul@grs+1,f
  4548  0712  0DE0               	rlf	___flmul@grs+2,f
  4549  0713  0DE1               	rlf	___flmul@grs+3,f
  4550  0714  0BD8               	decfsz	??___flmul,f
  4551  0715  2F0F               	goto	u2405
  4552  0716                     l1926:
  4553  0716  0863               	movf	___flmul@bexp,w
  4554  0717  0762               	addwf	___flmul@aexp,w
  4555  0718  00D8               	movwf	??___flmul
  4556  0719  01D9               	clrf	??___flmul+1
  4557  071A  0DD9               	rlf	??___flmul+1,f
  4558  071B  0858               	movf	??___flmul,w
  4559  071C  3E82               	addlw	130
  4560  071D  00E8               	movwf	___flmul@temp
  4561  071E  0859               	movf	??___flmul+1,w
  4562  071F  1803               	skipnc
  4563  0720  3E01               	addlw	1
  4564  0721  3EFF               	addlw	255
  4565  0722  00E9               	movwf	___flmul@temp+1
  4566  0723  2F41               	goto	l1938
  4567  0724                     l1928:
  4568  0724  3001               	movlw	1
  4569  0725  00D8               	movwf	??___flmul
  4570  0726                     u2415:
  4571  0726  1003               	clrc
  4572  0727  0DE4               	rlf	___flmul@prod,f
  4573  0728  0DE5               	rlf	___flmul@prod+1,f
  4574  0729  0DE6               	rlf	___flmul@prod+2,f
  4575  072A  0DE7               	rlf	___flmul@prod+3,f
  4576  072B  0BD8               	decfsz	??___flmul,f
  4577  072C  2F26               	goto	u2415
  4578  072D                     l1930:
  4579  072D  1FE1               	btfss	___flmul@grs+3,7
  4580  072E  2F30               	goto	u2421
  4581  072F  2F31               	goto	u2420
  4582  0730                     u2421:
  4583  0730  2F32               	goto	l1934
  4584  0731                     u2420:
  4585  0731                     l1932:
  4586  0731  1464               	bsf	___flmul@prod,0
  4587  0732                     l1934:
  4588  0732  3001               	movlw	1
  4589  0733  00D8               	movwf	??___flmul
  4590  0734                     u2435:
  4591  0734  1003               	clrc
  4592  0735  0DDE               	rlf	___flmul@grs,f
  4593  0736  0DDF               	rlf	___flmul@grs+1,f
  4594  0737  0DE0               	rlf	___flmul@grs+2,f
  4595  0738  0DE1               	rlf	___flmul@grs+3,f
  4596  0739  0BD8               	decfsz	??___flmul,f
  4597  073A  2F34               	goto	u2435
  4598  073B                     l1936:
  4599  073B  30FF               	movlw	255
  4600  073C  07E8               	addwf	___flmul@temp,f
  4601  073D  1803               	skipnc
  4602  073E  0AE9               	incf	___flmul@temp+1,f
  4603  073F  30FF               	movlw	255
  4604  0740  07E9               	addwf	___flmul@temp+1,f
  4605  0741                     l1938:
  4606  0741  1FE6               	btfss	___flmul@prod+2,7
  4607  0742  2F44               	goto	u2441
  4608  0743  2F45               	goto	u2440
  4609  0744                     u2441:
  4610  0744  2F24               	goto	l1928
  4611  0745                     u2440:
  4612  0745                     l1940:
  4613  0745  01E2               	clrf	___flmul@aexp
  4614  0746                     l1942:
  4615  0746  1FE1               	btfss	___flmul@grs+3,7
  4616  0747  2F49               	goto	u2451
  4617  0748  2F4A               	goto	u2450
  4618  0749                     u2451:
  4619  0749  2F66               	goto	l1950
  4620  074A                     u2450:
  4621  074A                     l1944:
  4622  074A  30FF               	movlw	255
  4623  074B  055E               	andwf	___flmul@grs,w
  4624  074C  00D8               	movwf	??___flmul
  4625  074D  30FF               	movlw	255
  4626  074E  055F               	andwf	___flmul@grs+1,w
  4627  074F  00D9               	movwf	??___flmul+1
  4628  0750  30FF               	movlw	255
  4629  0751  0560               	andwf	___flmul@grs+2,w
  4630  0752  00DA               	movwf	??___flmul+2
  4631  0753  307F               	movlw	127
  4632  0754  0561               	andwf	___flmul@grs+3,w
  4633  0755  00DB               	movwf	??___flmul+3
  4634  0756  085B               	movf	??___flmul+3,w
  4635  0757  045A               	iorwf	??___flmul+2,w
  4636  0758  0459               	iorwf	??___flmul+1,w
  4637  0759  0458               	iorwf	??___flmul,w
  4638  075A  1903               	skipnz
  4639  075B  2F5D               	goto	u2461
  4640  075C  2F5E               	goto	u2460
  4641  075D                     u2461:
  4642  075D  2F61               	goto	l695
  4643  075E                     u2460:
  4644  075E                     l1946:
  4645  075E  01E2               	clrf	___flmul@aexp
  4646  075F  0AE2               	incf	___flmul@aexp,f
  4647  0760  2F66               	goto	l1950
  4648  0761                     l695:
  4649  0761  1C64               	btfss	___flmul@prod,0
  4650  0762  2F64               	goto	u2471
  4651  0763  2F65               	goto	u2470
  4652  0764                     u2471:
  4653  0764  2F66               	goto	l1950
  4654  0765                     u2470:
  4655  0765  2F5E               	goto	l1946
  4656  0766                     l1950:
  4657  0766  0862               	movf	___flmul@aexp,w
  4658  0767  1903               	btfsc	3,2
  4659  0768  2F6A               	goto	u2481
  4660  0769  2F6B               	goto	u2480
  4661  076A                     u2481:
  4662  076A  2F9C               	goto	l1960
  4663  076B                     u2480:
  4664  076B                     l1952:
  4665  076B  3001               	movlw	1
  4666  076C  07E4               	addwf	___flmul@prod,f
  4667  076D  3000               	movlw	0
  4668  076E  1803               	skipnc
  4669  076F  3001               	movlw	1
  4670  0770  07E5               	addwf	___flmul@prod+1,f
  4671  0771  3000               	movlw	0
  4672  0772  1803               	skipnc
  4673  0773  3001               	movlw	1
  4674  0774  07E6               	addwf	___flmul@prod+2,f
  4675  0775  3000               	movlw	0
  4676  0776  1803               	skipnc
  4677  0777  3001               	movlw	1
  4678  0778  07E7               	addwf	___flmul@prod+3,f
  4679  0779                     l1954:
  4680  0779  1C67               	btfss	___flmul@prod+3,0
  4681  077A  2F7C               	goto	u2491
  4682  077B  2F7D               	goto	u2490
  4683  077C                     u2491:
  4684  077C  2F9C               	goto	l1960
  4685  077D                     u2490:
  4686  077D                     l1956:
  4687  077D  0864               	movf	___flmul@prod,w
  4688  077E  00D8               	movwf	??___flmul
  4689  077F  0865               	movf	___flmul@prod+1,w
  4690  0780  00D9               	movwf	??___flmul+1
  4691  0781  0866               	movf	___flmul@prod+2,w
  4692  0782  00DA               	movwf	??___flmul+2
  4693  0783  0867               	movf	___flmul@prod+3,w
  4694  0784  00DB               	movwf	??___flmul+3
  4695  0785  3001               	movlw	1
  4696  0786  00DC               	movwf	??___flmul+4
  4697  0787                     u2505:
  4698  0787  0D5B               	rlf	??___flmul+3,w
  4699  0788  0CDB               	rrf	??___flmul+3,f
  4700  0789  0CDA               	rrf	??___flmul+2,f
  4701  078A  0CD9               	rrf	??___flmul+1,f
  4702  078B  0CD8               	rrf	??___flmul,f
  4703  078C                     u2500:
  4704  078C  0BDC               	decfsz	??___flmul+4,f
  4705  078D  2F87               	goto	u2505
  4706  078E  085B               	movf	??___flmul+3,w
  4707  078F  00E7               	movwf	___flmul@prod+3
  4708  0790  085A               	movf	??___flmul+2,w
  4709  0791  00E6               	movwf	___flmul@prod+2
  4710  0792  0859               	movf	??___flmul+1,w
  4711  0793  00E5               	movwf	___flmul@prod+1
  4712  0794  0858               	movf	??___flmul,w
  4713  0795  00E4               	movwf	___flmul@prod
  4714  0796                     l1958:
  4715  0796  3001               	movlw	1
  4716  0797  07E8               	addwf	___flmul@temp,f
  4717  0798  1803               	skipnc
  4718  0799  0AE9               	incf	___flmul@temp+1,f
  4719  079A  3000               	movlw	0
  4720  079B  07E9               	addwf	___flmul@temp+1,f
  4721  079C                     l1960:
  4722  079C  0869               	movf	___flmul@temp+1,w
  4723  079D  3A80               	xorlw	128
  4724  079E  00FF               	movwf	btemp+1
  4725  079F  3080               	movlw	128
  4726  07A0  027F               	subwf	btemp+1,w
  4727  07A1  1D03               	skipz
  4728  07A2  2FA5               	goto	u2515
  4729  07A3  30FF               	movlw	255
  4730  07A4  0268               	subwf	___flmul@temp,w
  4731  07A5                     u2515:
  4732  07A5  1C03               	skipc
  4733  07A6  2FA8               	goto	u2511
  4734  07A7  2FA9               	goto	u2510
  4735  07A8                     u2511:
  4736  07A8  2FB4               	goto	l1964
  4737  07A9                     u2510:
  4738  07A9                     l1962:
  4739  07A9  307F               	movlw	127
  4740  07AA  1283               	bcf	3,5	;RP0=0, select bank0
  4741  07AB  1303               	bcf	3,6	;RP1=0, select bank0
  4742  07AC  00E7               	movwf	___flmul@prod+3
  4743  07AD  3080               	movlw	128
  4744  07AE  00E6               	movwf	___flmul@prod+2
  4745  07AF  3000               	movlw	0
  4746  07B0  00E5               	movwf	___flmul@prod+1
  4747  07B1  3000               	movlw	0
  4748  07B2  00E4               	movwf	___flmul@prod
  4749  07B3  2FE9               	goto	l701
  4750  07B4                     l1964:
  4751  07B4  1283               	bcf	3,5	;RP0=0, select bank0
  4752  07B5  1303               	bcf	3,6	;RP1=0, select bank0
  4753  07B6  0869               	movf	___flmul@temp+1,w
  4754  07B7  3A80               	xorlw	128
  4755  07B8  00FF               	movwf	btemp+1
  4756  07B9  3080               	movlw	128
  4757  07BA  027F               	subwf	btemp+1,w
  4758  07BB  1D03               	skipz
  4759  07BC  2FBF               	goto	u2525
  4760  07BD  3001               	movlw	1
  4761  07BE  0268               	subwf	___flmul@temp,w
  4762  07BF                     u2525:
  4763  07BF  1803               	skipnc
  4764  07C0  2FC2               	goto	u2521
  4765  07C1  2FC3               	goto	u2520
  4766  07C2                     u2521:
  4767  07C2  2FCF               	goto	l1970
  4768  07C3                     u2520:
  4769  07C3                     l1966:
  4770  07C3  3000               	movlw	0
  4771  07C4  1283               	bcf	3,5	;RP0=0, select bank0
  4772  07C5  1303               	bcf	3,6	;RP1=0, select bank0
  4773  07C6  00E7               	movwf	___flmul@prod+3
  4774  07C7  3000               	movlw	0
  4775  07C8  00E6               	movwf	___flmul@prod+2
  4776  07C9  3000               	movlw	0
  4777  07CA  00E5               	movwf	___flmul@prod+1
  4778  07CB  3000               	movlw	0
  4779  07CC  00E4               	movwf	___flmul@prod
  4780  07CD                     l1968:
  4781  07CD  01DD               	clrf	___flmul@sign
  4782  07CE  2FE9               	goto	l701
  4783  07CF                     l1970:
  4784  07CF  1283               	bcf	3,5	;RP0=0, select bank0
  4785  07D0  1303               	bcf	3,6	;RP1=0, select bank0
  4786  07D1  0868               	movf	___flmul@temp,w
  4787  07D2  00D8               	movwf	??___flmul
  4788  07D3  0858               	movf	??___flmul,w
  4789  07D4  00E3               	movwf	___flmul@bexp
  4790  07D5  30FF               	movlw	255
  4791  07D6  05E4               	andwf	___flmul@prod,f
  4792  07D7  30FF               	movlw	255
  4793  07D8  05E5               	andwf	___flmul@prod+1,f
  4794  07D9  307F               	movlw	127
  4795  07DA  05E6               	andwf	___flmul@prod+2,f
  4796  07DB  3000               	movlw	0
  4797  07DC  05E7               	andwf	___flmul@prod+3,f
  4798  07DD                     l1972:
  4799  07DD  1C63               	btfss	___flmul@bexp,0
  4800  07DE  2FE0               	goto	u2531
  4801  07DF  2FE1               	goto	u2530
  4802  07E0                     u2531:
  4803  07E0  2FE2               	goto	l1976
  4804  07E1                     u2530:
  4805  07E1                     l1974:
  4806  07E1  17E6               	bsf	___flmul@prod+2,7
  4807  07E2                     l1976:
  4808  07E2  0863               	movf	___flmul@bexp,w
  4809  07E3  00D8               	movwf	??___flmul
  4810  07E4  1003               	clrc
  4811  07E5  0C58               	rrf	??___flmul,w
  4812  07E6  00D9               	movwf	??___flmul+1
  4813  07E7  0859               	movf	??___flmul+1,w
  4814  07E8  00E7               	movwf	___flmul@prod+3
  4815  07E9                     l701:
  4816  07E9  085D               	movf	___flmul@sign,w
  4817  07EA  00D8               	movwf	??___flmul
  4818  07EB  0858               	movf	??___flmul,w
  4819  07EC  04E7               	iorwf	___flmul@prod+3,f
  4820  07ED                     l1978:
  4821  07ED  0867               	movf	___flmul@prod+3,w
  4822  07EE  00D3               	movwf	?___flmul+3
  4823  07EF  0866               	movf	___flmul@prod+2,w
  4824  07F0  00D2               	movwf	?___flmul+2
  4825  07F1  0865               	movf	___flmul@prod+1,w
  4826  07F2  00D1               	movwf	?___flmul+1
  4827  07F3  0864               	movf	___flmul@prod,w
  4828  07F4  00D0               	movwf	?___flmul
  4829  07F5                     l689:
  4830  07F5  0008               	return
  4831  07F6                     __end_of___flmul:
  4832                           
  4833                           	psect	text20
  4834  0B1E                     __ptext20:	
  4835 ;; *************** function __Umul8_16 *****************
  4836 ;; Defined at:
  4837 ;;		line 4 in file "C:\Program Files\Microchip\xc8\v2.32\pic\sources\c90\common\Umul8_16.c"
  4838 ;; Parameters:    Size  Location     Type
  4839 ;;  multiplier      1    wreg     unsigned char 
  4840 ;;  multiplicand    1    0[COMMON] unsigned char 
  4841 ;; Auto vars:     Size  Location     Type
  4842 ;;  multiplier      1    8[COMMON] unsigned char 
  4843 ;;  word_mpld       2    6[COMMON] unsigned int 
  4844 ;;  product         2    4[COMMON] unsigned int 
  4845 ;; Return value:  Size  Location     Type
  4846 ;;                  2    0[COMMON] unsigned int 
  4847 ;; Registers used:
  4848 ;;		wreg, status,2, status,0
  4849 ;; Tracked objects:
  4850 ;;		On entry : 0/0
  4851 ;;		On exit  : 0/0
  4852 ;;		Unchanged: 0/0
  4853 ;; Data sizes:     COMMON   BANK0   BANK1   BANK3   BANK2
  4854 ;;      Params:         2       0       0       0       0
  4855 ;;      Locals:         5       0       0       0       0
  4856 ;;      Temps:          2       0       0       0       0
  4857 ;;      Totals:         9       0       0       0       0
  4858 ;;Total ram usage:        9 bytes
  4859 ;; Hardware stack levels used: 1
  4860 ;; This function calls:
  4861 ;;		Nothing
  4862 ;; This function is called by:
  4863 ;;		___flmul
  4864 ;; This function uses a non-reentrant model
  4865 ;;
  4866                           
  4867                           
  4868                           ;psect for function __Umul8_16
  4869  0B1E                     __Umul8_16:
  4870                           
  4871                           ;incstack = 0
  4872                           ; Regs used in __Umul8_16: [wreg+status,2+status,0]
  4873                           ;__Umul8_16@multiplier stored from wreg
  4874  0B1E  00F8               	movwf	__Umul8_16@multiplier
  4875  0B1F                     l1592:
  4876  0B1F  01F4               	clrf	__Umul8_16@product
  4877  0B20  01F5               	clrf	__Umul8_16@product+1
  4878  0B21                     l1594:
  4879  0B21  0870               	movf	__Umul8_16@multiplicand,w
  4880  0B22  00F2               	movwf	??__Umul8_16
  4881  0B23  01F3               	clrf	??__Umul8_16+1
  4882  0B24  0872               	movf	??__Umul8_16,w
  4883  0B25  00F6               	movwf	__Umul8_16@word_mpld
  4884  0B26  0873               	movf	??__Umul8_16+1,w
  4885  0B27  00F7               	movwf	__Umul8_16@word_mpld+1
  4886  0B28                     l1596:
  4887  0B28  1C78               	btfss	__Umul8_16@multiplier,0
  4888  0B29  2B2B               	goto	u1591
  4889  0B2A  2B2C               	goto	u1590
  4890  0B2B                     u1591:
  4891  0B2B  2B32               	goto	l708
  4892  0B2C                     u1590:
  4893  0B2C                     l1598:
  4894  0B2C  0876               	movf	__Umul8_16@word_mpld,w
  4895  0B2D  07F4               	addwf	__Umul8_16@product,f
  4896  0B2E  1803               	skipnc
  4897  0B2F  0AF5               	incf	__Umul8_16@product+1,f
  4898  0B30  0877               	movf	__Umul8_16@word_mpld+1,w
  4899  0B31  07F5               	addwf	__Umul8_16@product+1,f
  4900  0B32                     l708:
  4901  0B32  3001               	movlw	1
  4902  0B33                     u1605:
  4903  0B33  1003               	clrc
  4904  0B34  0DF6               	rlf	__Umul8_16@word_mpld,f
  4905  0B35  0DF7               	rlf	__Umul8_16@word_mpld+1,f
  4906  0B36  3EFF               	addlw	-1
  4907  0B37  1D03               	skipz
  4908  0B38  2B33               	goto	u1605
  4909  0B39  1003               	clrc
  4910  0B3A  0CF8               	rrf	__Umul8_16@multiplier,f
  4911  0B3B                     l1600:
  4912  0B3B  0878               	movf	__Umul8_16@multiplier,w
  4913  0B3C  1D03               	btfss	3,2
  4914  0B3D  2B3F               	goto	u1611
  4915  0B3E  2B40               	goto	u1610
  4916  0B3F                     u1611:
  4917  0B3F  2B28               	goto	l1596
  4918  0B40                     u1610:
  4919  0B40                     l1602:
  4920  0B40  0875               	movf	__Umul8_16@product+1,w
  4921  0B41  00F1               	movwf	?__Umul8_16+1
  4922  0B42  0874               	movf	__Umul8_16@product,w
  4923  0B43  00F0               	movwf	?__Umul8_16
  4924  0B44                     l710:
  4925  0B44  0008               	return
  4926  0B45                     __end_of__Umul8_16:
  4927                           
  4928                           	psect	text21
  4929  02B8                     __ptext21:	
  4930 ;; *************** function ___fldiv *****************
  4931 ;; Defined at:
  4932 ;;		line 8 in file "C:\Program Files\Microchip\xc8\v2.32\pic\sources\c90\common\sprcdiv.c"
  4933 ;; Parameters:    Size  Location     Type
  4934 ;;  a               4   22[BANK0 ] unsigned int 
  4935 ;;  b               4   26[BANK0 ] unsigned int 
  4936 ;; Auto vars:     Size  Location     Type
  4937 ;;  grs             4   42[BANK0 ] unsigned long 
  4938 ;;  rem             4   35[BANK0 ] unsigned long 
  4939 ;;  new_exp         2   40[BANK0 ] int 
  4940 ;;  aexp            1   47[BANK0 ] unsigned char 
  4941 ;;  bexp            1   46[BANK0 ] unsigned char 
  4942 ;;  sign            1   39[BANK0 ] unsigned char 
  4943 ;; Return value:  Size  Location     Type
  4944 ;;                  4   22[BANK0 ] unsigned char 
  4945 ;; Registers used:
  4946 ;;		wreg, status,2, status,0, btemp+1
  4947 ;; Tracked objects:
  4948 ;;		On entry : 0/0
  4949 ;;		On exit  : 0/0
  4950 ;;		Unchanged: 0/0
  4951 ;; Data sizes:     COMMON   BANK0   BANK1   BANK3   BANK2
  4952 ;;      Params:         0       8       0       0       0
  4953 ;;      Locals:         0      13       0       0       0
  4954 ;;      Temps:          0       5       0       0       0
  4955 ;;      Totals:         0      26       0       0       0
  4956 ;;Total ram usage:       26 bytes
  4957 ;; Hardware stack levels used: 1
  4958 ;; This function calls:
  4959 ;;		Nothing
  4960 ;; This function is called by:
  4961 ;;		_PWM1_Duty
  4962 ;;		_PWM2_Duty
  4963 ;; This function uses a non-reentrant model
  4964 ;;
  4965                           
  4966                           
  4967                           ;psect for function ___fldiv
  4968  02B8                     ___fldiv:
  4969  02B8                     l1700:	
  4970                           ;incstack = 0
  4971                           ; Regs used in ___fldiv: [wreg+status,2+status,0+btemp+1]
  4972                           
  4973  02B8  1283               	bcf	3,5	;RP0=0, select bank0
  4974  02B9  1303               	bcf	3,6	;RP1=0, select bank0
  4975  02BA  083D               	movf	___fldiv@b+3,w
  4976  02BB  3980               	andlw	128
  4977  02BC  00BE               	movwf	??___fldiv
  4978  02BD  083E               	movf	??___fldiv,w
  4979  02BE  00C7               	movwf	___fldiv@sign
  4980  02BF                     l1702:
  4981  02BF  083D               	movf	___fldiv@b+3,w
  4982  02C0  00BE               	movwf	??___fldiv
  4983  02C1  073E               	addwf	??___fldiv,w
  4984  02C2  00BF               	movwf	??___fldiv+1
  4985  02C3  083F               	movf	??___fldiv+1,w
  4986  02C4  00CE               	movwf	___fldiv@bexp
  4987  02C5                     l1704:
  4988  02C5  1FBC               	btfss	___fldiv@b+2,7
  4989  02C6  2AC8               	goto	u1881
  4990  02C7  2AC9               	goto	u1880
  4991  02C8                     u1881:
  4992  02C8  2ACA               	goto	l1708
  4993  02C9                     u1880:
  4994  02C9                     l1706:
  4995  02C9  144E               	bsf	___fldiv@bexp,0
  4996  02CA                     l1708:
  4997  02CA  084E               	movf	___fldiv@bexp,w
  4998  02CB  1903               	btfsc	3,2
  4999  02CC  2ACE               	goto	u1891
  5000  02CD  2ACF               	goto	u1890
  5001  02CE                     u1891:
  5002  02CE  2ADF               	goto	l1718
  5003  02CF                     u1890:
  5004  02CF                     l1710:
  5005  02CF  0A4E               	incf	___fldiv@bexp,w
  5006  02D0  1D03               	btfss	3,2
  5007  02D1  2AD3               	goto	u1901
  5008  02D2  2AD4               	goto	u1900
  5009  02D3                     u1901:
  5010  02D3  2ADC               	goto	l1714
  5011  02D4                     u1900:
  5012  02D4                     l1712:
  5013  02D4  3000               	movlw	0
  5014  02D5  00BD               	movwf	___fldiv@b+3
  5015  02D6  3000               	movlw	0
  5016  02D7  00BC               	movwf	___fldiv@b+2
  5017  02D8  3000               	movlw	0
  5018  02D9  00BB               	movwf	___fldiv@b+1
  5019  02DA  3000               	movlw	0
  5020  02DB  00BA               	movwf	___fldiv@b
  5021  02DC                     l1714:
  5022  02DC  17BC               	bsf	___fldiv@b+2,7
  5023  02DD                     l1716:
  5024  02DD  01BD               	clrf	___fldiv@b+3
  5025  02DE  2AE7               	goto	l1720
  5026  02DF                     l1718:
  5027  02DF  3000               	movlw	0
  5028  02E0  00BD               	movwf	___fldiv@b+3
  5029  02E1  3000               	movlw	0
  5030  02E2  00BC               	movwf	___fldiv@b+2
  5031  02E3  3000               	movlw	0
  5032  02E4  00BB               	movwf	___fldiv@b+1
  5033  02E5  3000               	movlw	0
  5034  02E6  00BA               	movwf	___fldiv@b
  5035  02E7                     l1720:
  5036  02E7  0839               	movf	___fldiv@a+3,w
  5037  02E8  3980               	andlw	128
  5038  02E9  00BE               	movwf	??___fldiv
  5039  02EA  083E               	movf	??___fldiv,w
  5040  02EB  06C7               	xorwf	___fldiv@sign,f
  5041  02EC                     l1722:
  5042  02EC  0839               	movf	___fldiv@a+3,w
  5043  02ED  00BE               	movwf	??___fldiv
  5044  02EE  073E               	addwf	??___fldiv,w
  5045  02EF  00BF               	movwf	??___fldiv+1
  5046  02F0  083F               	movf	??___fldiv+1,w
  5047  02F1  00CF               	movwf	___fldiv@aexp
  5048  02F2                     l1724:
  5049  02F2  1FB8               	btfss	___fldiv@a+2,7
  5050  02F3  2AF5               	goto	u1911
  5051  02F4  2AF6               	goto	u1910
  5052  02F5                     u1911:
  5053  02F5  2AF7               	goto	l1728
  5054  02F6                     u1910:
  5055  02F6                     l1726:
  5056  02F6  144F               	bsf	___fldiv@aexp,0
  5057  02F7                     l1728:
  5058  02F7  084F               	movf	___fldiv@aexp,w
  5059  02F8  1903               	btfsc	3,2
  5060  02F9  2AFB               	goto	u1921
  5061  02FA  2AFC               	goto	u1920
  5062  02FB                     u1921:
  5063  02FB  2B0C               	goto	l1738
  5064  02FC                     u1920:
  5065  02FC                     l1730:
  5066  02FC  0A4F               	incf	___fldiv@aexp,w
  5067  02FD  1D03               	btfss	3,2
  5068  02FE  2B00               	goto	u1931
  5069  02FF  2B01               	goto	u1930
  5070  0300                     u1931:
  5071  0300  2B09               	goto	l1734
  5072  0301                     u1930:
  5073  0301                     l1732:
  5074  0301  3000               	movlw	0
  5075  0302  00B9               	movwf	___fldiv@a+3
  5076  0303  3000               	movlw	0
  5077  0304  00B8               	movwf	___fldiv@a+2
  5078  0305  3000               	movlw	0
  5079  0306  00B7               	movwf	___fldiv@a+1
  5080  0307  3000               	movlw	0
  5081  0308  00B6               	movwf	___fldiv@a
  5082  0309                     l1734:
  5083  0309  17B8               	bsf	___fldiv@a+2,7
  5084  030A                     l1736:
  5085  030A  01B9               	clrf	___fldiv@a+3
  5086  030B  2B14               	goto	l649
  5087  030C                     l1738:
  5088  030C  3000               	movlw	0
  5089  030D  00B9               	movwf	___fldiv@a+3
  5090  030E  3000               	movlw	0
  5091  030F  00B8               	movwf	___fldiv@a+2
  5092  0310  3000               	movlw	0
  5093  0311  00B7               	movwf	___fldiv@a+1
  5094  0312  3000               	movlw	0
  5095  0313  00B6               	movwf	___fldiv@a
  5096  0314                     l649:
  5097  0314  0839               	movf	___fldiv@a+3,w
  5098  0315  0438               	iorwf	___fldiv@a+2,w
  5099  0316  0437               	iorwf	___fldiv@a+1,w
  5100  0317  0436               	iorwf	___fldiv@a,w
  5101  0318  1D03               	skipz
  5102  0319  2B1B               	goto	u1941
  5103  031A  2B1C               	goto	u1940
  5104  031B                     u1941:
  5105  031B  2B35               	goto	l1748
  5106  031C                     u1940:
  5107  031C                     l1740:
  5108  031C  3000               	movlw	0
  5109  031D  00BD               	movwf	___fldiv@b+3
  5110  031E  3000               	movlw	0
  5111  031F  00BC               	movwf	___fldiv@b+2
  5112  0320  3000               	movlw	0
  5113  0321  00BB               	movwf	___fldiv@b+1
  5114  0322  3000               	movlw	0
  5115  0323  00BA               	movwf	___fldiv@b
  5116  0324  3080               	movlw	128
  5117  0325  04BC               	iorwf	___fldiv@b+2,f
  5118  0326  307F               	movlw	127
  5119  0327  04BD               	iorwf	___fldiv@b+3,f
  5120  0328                     l1742:
  5121  0328  0847               	movf	___fldiv@sign,w
  5122  0329  00BE               	movwf	??___fldiv
  5123  032A  083E               	movf	??___fldiv,w
  5124  032B  04BD               	iorwf	___fldiv@b+3,f
  5125  032C                     l1744:
  5126  032C  083D               	movf	___fldiv@b+3,w
  5127  032D  00B9               	movwf	?___fldiv+3
  5128  032E  083C               	movf	___fldiv@b+2,w
  5129  032F  00B8               	movwf	?___fldiv+2
  5130  0330  083B               	movf	___fldiv@b+1,w
  5131  0331  00B7               	movwf	?___fldiv+1
  5132  0332  083A               	movf	___fldiv@b,w
  5133  0333  00B6               	movwf	?___fldiv
  5134  0334  2C94               	goto	l651
  5135  0335                     l1748:
  5136  0335  084E               	movf	___fldiv@bexp,w
  5137  0336  1D03               	btfss	3,2
  5138  0337  2B39               	goto	u1951
  5139  0338  2B3A               	goto	u1950
  5140  0339                     u1951:
  5141  0339  2B43               	goto	l1754
  5142  033A                     u1950:
  5143  033A                     l1750:
  5144  033A  3000               	movlw	0
  5145  033B  00B9               	movwf	?___fldiv+3
  5146  033C  3000               	movlw	0
  5147  033D  00B8               	movwf	?___fldiv+2
  5148  033E  3000               	movlw	0
  5149  033F  00B7               	movwf	?___fldiv+1
  5150  0340  3000               	movlw	0
  5151  0341  00B6               	movwf	?___fldiv
  5152  0342  2C94               	goto	l651
  5153  0343                     l1754:
  5154  0343  084E               	movf	___fldiv@bexp,w
  5155  0344  00BE               	movwf	??___fldiv
  5156  0345  01BF               	clrf	??___fldiv+1
  5157  0346  083F               	movf	??___fldiv+1,w
  5158  0347  00C1               	movwf	??___fldiv+3
  5159  0348  084F               	movf	___fldiv@aexp,w
  5160  0349  023E               	subwf	??___fldiv,w
  5161  034A  00C0               	movwf	??___fldiv+2
  5162  034B  1C03               	skipc
  5163  034C  03C1               	decf	??___fldiv+3,f
  5164  034D  0840               	movf	??___fldiv+2,w
  5165  034E  3E7F               	addlw	127
  5166  034F  00C8               	movwf	___fldiv@new_exp
  5167  0350  0841               	movf	??___fldiv+3,w
  5168  0351  1803               	skipnc
  5169  0352  3E01               	addlw	1
  5170  0353  3E00               	addlw	0
  5171  0354  00C9               	movwf	___fldiv@new_exp+1
  5172  0355                     l1756:
  5173  0355  083D               	movf	___fldiv@b+3,w
  5174  0356  00C6               	movwf	___fldiv@rem+3
  5175  0357  083C               	movf	___fldiv@b+2,w
  5176  0358  00C5               	movwf	___fldiv@rem+2
  5177  0359  083B               	movf	___fldiv@b+1,w
  5178  035A  00C4               	movwf	___fldiv@rem+1
  5179  035B  083A               	movf	___fldiv@b,w
  5180  035C  00C3               	movwf	___fldiv@rem
  5181  035D                     l1758:
  5182  035D  3000               	movlw	0
  5183  035E  00BD               	movwf	___fldiv@b+3
  5184  035F  3000               	movlw	0
  5185  0360  00BC               	movwf	___fldiv@b+2
  5186  0361  3000               	movlw	0
  5187  0362  00BB               	movwf	___fldiv@b+1
  5188  0363  3000               	movlw	0
  5189  0364  00BA               	movwf	___fldiv@b
  5190  0365                     l1760:
  5191  0365  3000               	movlw	0
  5192  0366  00CD               	movwf	___fldiv@grs+3
  5193  0367  3000               	movlw	0
  5194  0368  00CC               	movwf	___fldiv@grs+2
  5195  0369  3000               	movlw	0
  5196  036A  00CB               	movwf	___fldiv@grs+1
  5197  036B  3000               	movlw	0
  5198  036C  00CA               	movwf	___fldiv@grs
  5199  036D                     l1762:
  5200  036D  01CF               	clrf	___fldiv@aexp
  5201  036E  2BB9               	goto	l1782
  5202  036F                     l1764:
  5203  036F  084F               	movf	___fldiv@aexp,w
  5204  0370  1903               	btfsc	3,2
  5205  0371  2B73               	goto	u1961
  5206  0372  2B74               	goto	u1960
  5207  0373                     u1961:
  5208  0373  2B94               	goto	l1774
  5209  0374                     u1960:
  5210  0374                     l1766:
  5211  0374  3001               	movlw	1
  5212  0375  00BE               	movwf	??___fldiv
  5213  0376                     u1975:
  5214  0376  1003               	clrc
  5215  0377  0DC3               	rlf	___fldiv@rem,f
  5216  0378  0DC4               	rlf	___fldiv@rem+1,f
  5217  0379  0DC5               	rlf	___fldiv@rem+2,f
  5218  037A  0DC6               	rlf	___fldiv@rem+3,f
  5219  037B  0BBE               	decfsz	??___fldiv,f
  5220  037C  2B76               	goto	u1975
  5221  037D  3001               	movlw	1
  5222  037E  00BE               	movwf	??___fldiv
  5223  037F                     u1985:
  5224  037F  1003               	clrc
  5225  0380  0DBA               	rlf	___fldiv@b,f
  5226  0381  0DBB               	rlf	___fldiv@b+1,f
  5227  0382  0DBC               	rlf	___fldiv@b+2,f
  5228  0383  0DBD               	rlf	___fldiv@b+3,f
  5229  0384  0BBE               	decfsz	??___fldiv,f
  5230  0385  2B7F               	goto	u1985
  5231  0386                     l1768:
  5232  0386  1FCD               	btfss	___fldiv@grs+3,7
  5233  0387  2B89               	goto	u1991
  5234  0388  2B8A               	goto	u1990
  5235  0389                     u1991:
  5236  0389  2B8B               	goto	l1772
  5237  038A                     u1990:
  5238  038A                     l1770:
  5239  038A  143A               	bsf	___fldiv@b,0
  5240  038B                     l1772:
  5241  038B  3001               	movlw	1
  5242  038C  00BE               	movwf	??___fldiv
  5243  038D                     u2005:
  5244  038D  1003               	clrc
  5245  038E  0DCA               	rlf	___fldiv@grs,f
  5246  038F  0DCB               	rlf	___fldiv@grs+1,f
  5247  0390  0DCC               	rlf	___fldiv@grs+2,f
  5248  0391  0DCD               	rlf	___fldiv@grs+3,f
  5249  0392  0BBE               	decfsz	??___fldiv,f
  5250  0393  2B8D               	goto	u2005
  5251  0394                     l1774:
  5252  0394  0839               	movf	___fldiv@a+3,w
  5253  0395  0246               	subwf	___fldiv@rem+3,w
  5254  0396  1D03               	skipz
  5255  0397  2BA2               	goto	u2015
  5256  0398  0838               	movf	___fldiv@a+2,w
  5257  0399  0245               	subwf	___fldiv@rem+2,w
  5258  039A  1D03               	skipz
  5259  039B  2BA2               	goto	u2015
  5260  039C  0837               	movf	___fldiv@a+1,w
  5261  039D  0244               	subwf	___fldiv@rem+1,w
  5262  039E  1D03               	skipz
  5263  039F  2BA2               	goto	u2015
  5264  03A0  0836               	movf	___fldiv@a,w
  5265  03A1  0243               	subwf	___fldiv@rem,w
  5266  03A2                     u2015:
  5267  03A2  1C03               	skipc
  5268  03A3  2BA5               	goto	u2011
  5269  03A4  2BA6               	goto	u2010
  5270  03A5                     u2011:
  5271  03A5  2BB5               	goto	l1780
  5272  03A6                     u2010:
  5273  03A6                     l1776:
  5274  03A6  174D               	bsf	___fldiv@grs+3,6
  5275  03A7                     l1778:
  5276  03A7  0836               	movf	___fldiv@a,w
  5277  03A8  02C3               	subwf	___fldiv@rem,f
  5278  03A9  0837               	movf	___fldiv@a+1,w
  5279  03AA  1C03               	skipc
  5280  03AB  0F37               	incfsz	___fldiv@a+1,w
  5281  03AC  02C4               	subwf	___fldiv@rem+1,f
  5282  03AD  0838               	movf	___fldiv@a+2,w
  5283  03AE  1C03               	skipc
  5284  03AF  0F38               	incfsz	___fldiv@a+2,w
  5285  03B0  02C5               	subwf	___fldiv@rem+2,f
  5286  03B1  0839               	movf	___fldiv@a+3,w
  5287  03B2  1C03               	skipc
  5288  03B3  0F39               	incfsz	___fldiv@a+3,w
  5289  03B4  02C6               	subwf	___fldiv@rem+3,f
  5290  03B5                     l1780:
  5291  03B5  3001               	movlw	1
  5292  03B6  00BE               	movwf	??___fldiv
  5293  03B7  083E               	movf	??___fldiv,w
  5294  03B8  07CF               	addwf	___fldiv@aexp,f
  5295  03B9                     l1782:
  5296  03B9  301A               	movlw	26
  5297  03BA  024F               	subwf	___fldiv@aexp,w
  5298  03BB  1C03               	skipc
  5299  03BC  2BBE               	goto	u2021
  5300  03BD  2BBF               	goto	u2020
  5301  03BE                     u2021:
  5302  03BE  2B6F               	goto	l1764
  5303  03BF                     u2020:
  5304  03BF                     l1784:
  5305  03BF  0846               	movf	___fldiv@rem+3,w
  5306  03C0  0445               	iorwf	___fldiv@rem+2,w
  5307  03C1  0444               	iorwf	___fldiv@rem+1,w
  5308  03C2  0443               	iorwf	___fldiv@rem,w
  5309  03C3  1903               	skipnz
  5310  03C4  2BC6               	goto	u2031
  5311  03C5  2BC7               	goto	u2030
  5312  03C6                     u2031:
  5313  03C6  2BE6               	goto	l1798
  5314  03C7                     u2030:
  5315  03C7                     l1786:
  5316  03C7  144A               	bsf	___fldiv@grs,0
  5317  03C8  2BE6               	goto	l1798
  5318  03C9                     l1788:
  5319  03C9  3001               	movlw	1
  5320  03CA  00BE               	movwf	??___fldiv
  5321  03CB                     u2045:
  5322  03CB  1003               	clrc
  5323  03CC  0DBA               	rlf	___fldiv@b,f
  5324  03CD  0DBB               	rlf	___fldiv@b+1,f
  5325  03CE  0DBC               	rlf	___fldiv@b+2,f
  5326  03CF  0DBD               	rlf	___fldiv@b+3,f
  5327  03D0  0BBE               	decfsz	??___fldiv,f
  5328  03D1  2BCB               	goto	u2045
  5329  03D2                     l1790:
  5330  03D2  1FCD               	btfss	___fldiv@grs+3,7
  5331  03D3  2BD5               	goto	u2051
  5332  03D4  2BD6               	goto	u2050
  5333  03D5                     u2051:
  5334  03D5  2BD7               	goto	l1794
  5335  03D6                     u2050:
  5336  03D6                     l1792:
  5337  03D6  143A               	bsf	___fldiv@b,0
  5338  03D7                     l1794:
  5339  03D7  3001               	movlw	1
  5340  03D8  00BE               	movwf	??___fldiv
  5341  03D9                     u2065:
  5342  03D9  1003               	clrc
  5343  03DA  0DCA               	rlf	___fldiv@grs,f
  5344  03DB  0DCB               	rlf	___fldiv@grs+1,f
  5345  03DC  0DCC               	rlf	___fldiv@grs+2,f
  5346  03DD  0DCD               	rlf	___fldiv@grs+3,f
  5347  03DE  0BBE               	decfsz	??___fldiv,f
  5348  03DF  2BD9               	goto	u2065
  5349  03E0                     l1796:
  5350  03E0  30FF               	movlw	255
  5351  03E1  07C8               	addwf	___fldiv@new_exp,f
  5352  03E2  1803               	skipnc
  5353  03E3  0AC9               	incf	___fldiv@new_exp+1,f
  5354  03E4  30FF               	movlw	255
  5355  03E5  07C9               	addwf	___fldiv@new_exp+1,f
  5356  03E6                     l1798:
  5357  03E6  1FBC               	btfss	___fldiv@b+2,7
  5358  03E7  2BE9               	goto	u2071
  5359  03E8  2BEA               	goto	u2070
  5360  03E9                     u2071:
  5361  03E9  2BC9               	goto	l1788
  5362  03EA                     u2070:
  5363  03EA                     l1800:
  5364  03EA  01CF               	clrf	___fldiv@aexp
  5365  03EB                     l1802:
  5366  03EB  1FCD               	btfss	___fldiv@grs+3,7
  5367  03EC  2BEE               	goto	u2081
  5368  03ED  2BEF               	goto	u2080
  5369  03EE                     u2081:
  5370  03EE  2C0B               	goto	l1810
  5371  03EF                     u2080:
  5372  03EF                     l1804:
  5373  03EF  30FF               	movlw	255
  5374  03F0  054A               	andwf	___fldiv@grs,w
  5375  03F1  00BE               	movwf	??___fldiv
  5376  03F2  30FF               	movlw	255
  5377  03F3  054B               	andwf	___fldiv@grs+1,w
  5378  03F4  00BF               	movwf	??___fldiv+1
  5379  03F5  30FF               	movlw	255
  5380  03F6  054C               	andwf	___fldiv@grs+2,w
  5381  03F7  00C0               	movwf	??___fldiv+2
  5382  03F8  307F               	movlw	127
  5383  03F9  054D               	andwf	___fldiv@grs+3,w
  5384  03FA  00C1               	movwf	??___fldiv+3
  5385  03FB  0841               	movf	??___fldiv+3,w
  5386  03FC  0440               	iorwf	??___fldiv+2,w
  5387  03FD  043F               	iorwf	??___fldiv+1,w
  5388  03FE  043E               	iorwf	??___fldiv,w
  5389  03FF  1903               	skipnz
  5390  0400  2C02               	goto	u2091
  5391  0401  2C03               	goto	u2090
  5392  0402                     u2091:
  5393  0402  2C06               	goto	l665
  5394  0403                     u2090:
  5395  0403                     l1806:
  5396  0403  01CF               	clrf	___fldiv@aexp
  5397  0404  0ACF               	incf	___fldiv@aexp,f
  5398  0405  2C0B               	goto	l1810
  5399  0406                     l665:
  5400  0406  1C3A               	btfss	___fldiv@b,0
  5401  0407  2C09               	goto	u2101
  5402  0408  2C0A               	goto	u2100
  5403  0409                     u2101:
  5404  0409  2C0B               	goto	l1810
  5405  040A                     u2100:
  5406  040A  2C03               	goto	l1806
  5407  040B                     l1810:
  5408  040B  084F               	movf	___fldiv@aexp,w
  5409  040C  1903               	btfsc	3,2
  5410  040D  2C0F               	goto	u2111
  5411  040E  2C10               	goto	u2110
  5412  040F                     u2111:
  5413  040F  2C41               	goto	l1820
  5414  0410                     u2110:
  5415  0410                     l1812:
  5416  0410  3001               	movlw	1
  5417  0411  07BA               	addwf	___fldiv@b,f
  5418  0412  3000               	movlw	0
  5419  0413  1803               	skipnc
  5420  0414  3001               	movlw	1
  5421  0415  07BB               	addwf	___fldiv@b+1,f
  5422  0416  3000               	movlw	0
  5423  0417  1803               	skipnc
  5424  0418  3001               	movlw	1
  5425  0419  07BC               	addwf	___fldiv@b+2,f
  5426  041A  3000               	movlw	0
  5427  041B  1803               	skipnc
  5428  041C  3001               	movlw	1
  5429  041D  07BD               	addwf	___fldiv@b+3,f
  5430  041E                     l1814:
  5431  041E  1C3D               	btfss	___fldiv@b+3,0
  5432  041F  2C21               	goto	u2121
  5433  0420  2C22               	goto	u2120
  5434  0421                     u2121:
  5435  0421  2C41               	goto	l1820
  5436  0422                     u2120:
  5437  0422                     l1816:
  5438  0422  083A               	movf	___fldiv@b,w
  5439  0423  00BE               	movwf	??___fldiv
  5440  0424  083B               	movf	___fldiv@b+1,w
  5441  0425  00BF               	movwf	??___fldiv+1
  5442  0426  083C               	movf	___fldiv@b+2,w
  5443  0427  00C0               	movwf	??___fldiv+2
  5444  0428  083D               	movf	___fldiv@b+3,w
  5445  0429  00C1               	movwf	??___fldiv+3
  5446  042A  3001               	movlw	1
  5447  042B  00C2               	movwf	??___fldiv+4
  5448  042C                     u2135:
  5449  042C  0D41               	rlf	??___fldiv+3,w
  5450  042D  0CC1               	rrf	??___fldiv+3,f
  5451  042E  0CC0               	rrf	??___fldiv+2,f
  5452  042F  0CBF               	rrf	??___fldiv+1,f
  5453  0430  0CBE               	rrf	??___fldiv,f
  5454  0431                     u2130:
  5455  0431  0BC2               	decfsz	??___fldiv+4,f
  5456  0432  2C2C               	goto	u2135
  5457  0433  0841               	movf	??___fldiv+3,w
  5458  0434  00BD               	movwf	___fldiv@b+3
  5459  0435  0840               	movf	??___fldiv+2,w
  5460  0436  00BC               	movwf	___fldiv@b+2
  5461  0437  083F               	movf	??___fldiv+1,w
  5462  0438  00BB               	movwf	___fldiv@b+1
  5463  0439  083E               	movf	??___fldiv,w
  5464  043A  00BA               	movwf	___fldiv@b
  5465  043B                     l1818:
  5466  043B  3001               	movlw	1
  5467  043C  07C8               	addwf	___fldiv@new_exp,f
  5468  043D  1803               	skipnc
  5469  043E  0AC9               	incf	___fldiv@new_exp+1,f
  5470  043F  3000               	movlw	0
  5471  0440  07C9               	addwf	___fldiv@new_exp+1,f
  5472  0441                     l1820:
  5473  0441  0849               	movf	___fldiv@new_exp+1,w
  5474  0442  3A80               	xorlw	128
  5475  0443  00FF               	movwf	btemp+1
  5476  0444  3080               	movlw	128
  5477  0445  027F               	subwf	btemp+1,w
  5478  0446  1D03               	skipz
  5479  0447  2C4A               	goto	u2145
  5480  0448  30FF               	movlw	255
  5481  0449  0248               	subwf	___fldiv@new_exp,w
  5482  044A                     u2145:
  5483  044A  1C03               	skipc
  5484  044B  2C4D               	goto	u2141
  5485  044C  2C4E               	goto	u2140
  5486  044D                     u2141:
  5487  044D  2C5C               	goto	l1824
  5488  044E                     u2140:
  5489  044E                     l1822:
  5490  044E  30FF               	movlw	255
  5491  044F  1283               	bcf	3,5	;RP0=0, select bank0
  5492  0450  1303               	bcf	3,6	;RP1=0, select bank0
  5493  0451  00C8               	movwf	___fldiv@new_exp
  5494  0452  3000               	movlw	0
  5495  0453  00C9               	movwf	___fldiv@new_exp+1
  5496  0454  3000               	movlw	0
  5497  0455  00BD               	movwf	___fldiv@b+3
  5498  0456  3000               	movlw	0
  5499  0457  00BC               	movwf	___fldiv@b+2
  5500  0458  3000               	movlw	0
  5501  0459  00BB               	movwf	___fldiv@b+1
  5502  045A  3000               	movlw	0
  5503  045B  00BA               	movwf	___fldiv@b
  5504  045C                     l1824:
  5505  045C  1283               	bcf	3,5	;RP0=0, select bank0
  5506  045D  1303               	bcf	3,6	;RP1=0, select bank0
  5507  045E  0849               	movf	___fldiv@new_exp+1,w
  5508  045F  3A80               	xorlw	128
  5509  0460  00FF               	movwf	btemp+1
  5510  0461  3080               	movlw	128
  5511  0462  027F               	subwf	btemp+1,w
  5512  0463  1D03               	skipz
  5513  0464  2C67               	goto	u2155
  5514  0465  3001               	movlw	1
  5515  0466  0248               	subwf	___fldiv@new_exp,w
  5516  0467                     u2155:
  5517  0467  1803               	skipnc
  5518  0468  2C6A               	goto	u2151
  5519  0469  2C6B               	goto	u2150
  5520  046A                     u2151:
  5521  046A  2C78               	goto	l671
  5522  046B                     u2150:
  5523  046B                     l1826:
  5524  046B  1283               	bcf	3,5	;RP0=0, select bank0
  5525  046C  1303               	bcf	3,6	;RP1=0, select bank0
  5526  046D  01C8               	clrf	___fldiv@new_exp
  5527  046E  01C9               	clrf	___fldiv@new_exp+1
  5528  046F                     l1828:
  5529  046F  3000               	movlw	0
  5530  0470  00BD               	movwf	___fldiv@b+3
  5531  0471  3000               	movlw	0
  5532  0472  00BC               	movwf	___fldiv@b+2
  5533  0473  3000               	movlw	0
  5534  0474  00BB               	movwf	___fldiv@b+1
  5535  0475  3000               	movlw	0
  5536  0476  00BA               	movwf	___fldiv@b
  5537  0477                     l1830:
  5538  0477  01C7               	clrf	___fldiv@sign
  5539  0478                     l671:
  5540  0478  1283               	bcf	3,5	;RP0=0, select bank0
  5541  0479  1303               	bcf	3,6	;RP1=0, select bank0
  5542  047A  0848               	movf	___fldiv@new_exp,w
  5543  047B  00BE               	movwf	??___fldiv
  5544  047C  083E               	movf	??___fldiv,w
  5545  047D  00CE               	movwf	___fldiv@bexp
  5546  047E                     l1832:
  5547  047E  1C4E               	btfss	___fldiv@bexp,0
  5548  047F  2C81               	goto	u2161
  5549  0480  2C82               	goto	u2160
  5550  0481                     u2161:
  5551  0481  2C84               	goto	l1836
  5552  0482                     u2160:
  5553  0482                     l1834:
  5554  0482  17BC               	bsf	___fldiv@b+2,7
  5555  0483  2C88               	goto	l673
  5556  0484                     l1836:
  5557  0484  307F               	movlw	127
  5558  0485  00BE               	movwf	??___fldiv
  5559  0486  083E               	movf	??___fldiv,w
  5560  0487  05BC               	andwf	___fldiv@b+2,f
  5561  0488                     l673:
  5562  0488  084E               	movf	___fldiv@bexp,w
  5563  0489  00BE               	movwf	??___fldiv
  5564  048A  1003               	clrc
  5565  048B  0C3E               	rrf	??___fldiv,w
  5566  048C  00BF               	movwf	??___fldiv+1
  5567  048D  083F               	movf	??___fldiv+1,w
  5568  048E  00BD               	movwf	___fldiv@b+3
  5569  048F  0847               	movf	___fldiv@sign,w
  5570  0490  00BE               	movwf	??___fldiv
  5571  0491  083E               	movf	??___fldiv,w
  5572  0492  04BD               	iorwf	___fldiv@b+3,f
  5573  0493  2B2C               	goto	l1744
  5574  0494                     l651:
  5575  0494  0008               	return
  5576  0495                     __end_of___fldiv:
  5577                           
  5578                           	psect	text22
  5579  0B45                     __ptext22:	
  5580 ;; *************** function _PWM_Max_Duty *****************
  5581 ;; Defined at:
  5582 ;;		line 6 in file "./pwm.h"
  5583 ;; Parameters:    Size  Location     Type
  5584 ;;		None
  5585 ;; Auto vars:     Size  Location     Type
  5586 ;;		None
  5587 ;; Return value:  Size  Location     Type
  5588 ;;                  2    6[BANK0 ] int 
  5589 ;; Registers used:
  5590 ;;		wreg, status,2, status,0, pclath, cstack
  5591 ;; Tracked objects:
  5592 ;;		On entry : 0/0
  5593 ;;		On exit  : 0/0
  5594 ;;		Unchanged: 0/0
  5595 ;; Data sizes:     COMMON   BANK0   BANK1   BANK3   BANK2
  5596 ;;      Params:         0       2       0       0       0
  5597 ;;      Locals:         0       0       0       0       0
  5598 ;;      Temps:          4       0       0       0       0
  5599 ;;      Totals:         4       2       0       0       0
  5600 ;;Total ram usage:        6 bytes
  5601 ;; Hardware stack levels used: 1
  5602 ;; Hardware stack levels required when called: 1
  5603 ;; This function calls:
  5604 ;;		___aldiv
  5605 ;; This function is called by:
  5606 ;;		_PWM1_Duty
  5607 ;;		_PWM2_Duty
  5608 ;; This function uses a non-reentrant model
  5609 ;;
  5610                           
  5611                           
  5612                           ;psect for function _PWM_Max_Duty
  5613  0B45                     _PWM_Max_Duty:
  5614  0B45                     l1610:	
  5615                           ;incstack = 0
  5616                           ; Regs used in _PWM_Max_Duty: [wreg+status,2+status,0+pclath+cstack]
  5617                           
  5618                           
  5619                           ;./pwm.h: 8:   return(8000000/(freq*4));
  5620  0B45  1683               	bsf	3,5	;RP0=1, select bank1
  5621  0B46  1303               	bcf	3,6	;RP1=0, select bank1
  5622  0B47  0846               	movf	_freq^(0+128),w
  5623  0B48  00F9               	movwf	??_PWM_Max_Duty
  5624  0B49  0847               	movf	(_freq+1)^(0+128),w
  5625  0B4A  00FA               	movwf	??_PWM_Max_Duty+1
  5626  0B4B  0848               	movf	(_freq+2)^(0+128),w
  5627  0B4C  00FB               	movwf	??_PWM_Max_Duty+2
  5628  0B4D  0849               	movf	(_freq+3)^(0+128),w
  5629  0B4E  00FC               	movwf	??_PWM_Max_Duty+3
  5630  0B4F  3002               	movlw	2
  5631  0B50                     u1635:
  5632  0B50  1003               	clrc
  5633  0B51  0DF9               	rlf	??_PWM_Max_Duty,f
  5634  0B52  0DFA               	rlf	??_PWM_Max_Duty+1,f
  5635  0B53  0DFB               	rlf	??_PWM_Max_Duty+2,f
  5636  0B54  0DFC               	rlf	??_PWM_Max_Duty+3,f
  5637  0B55                     u1630:
  5638  0B55  3EFF               	addlw	-1
  5639  0B56  1D03               	skipz
  5640  0B57  2B50               	goto	u1635
  5641  0B58  087C               	movf	??_PWM_Max_Duty+3,w
  5642  0B59  00F3               	movwf	___aldiv@divisor+3
  5643  0B5A  087B               	movf	??_PWM_Max_Duty+2,w
  5644  0B5B  00F2               	movwf	___aldiv@divisor+2
  5645  0B5C  087A               	movf	??_PWM_Max_Duty+1,w
  5646  0B5D  00F1               	movwf	___aldiv@divisor+1
  5647  0B5E  0879               	movf	??_PWM_Max_Duty,w
  5648  0B5F  00F0               	movwf	___aldiv@divisor
  5649  0B60  3000               	movlw	0
  5650  0B61  00F7               	movwf	___aldiv@dividend+3
  5651  0B62  307A               	movlw	122
  5652  0B63  00F6               	movwf	___aldiv@dividend+2
  5653  0B64  3012               	movlw	18
  5654  0B65  00F5               	movwf	___aldiv@dividend+1
  5655  0B66  3000               	movlw	0
  5656  0B67  00F4               	movwf	___aldiv@dividend
  5657  0B68  120A  158A  25CD  120A  158A  	fcall	___aldiv
  5658  0B6D  0871               	movf	?___aldiv+1,w
  5659  0B6E  1283               	bcf	3,5	;RP0=0, select bank0
  5660  0B6F  1303               	bcf	3,6	;RP1=0, select bank0
  5661  0B70  00A7               	movwf	?_PWM_Max_Duty+1
  5662  0B71  0870               	movf	?___aldiv,w
  5663  0B72  00A6               	movwf	?_PWM_Max_Duty
  5664  0B73                     l118:
  5665  0B73  0008               	return
  5666  0B74                     __end_of_PWM_Max_Duty:
  5667                           
  5668                           	psect	text23
  5669  0DCD                     __ptext23:	
  5670 ;; *************** function ___aldiv *****************
  5671 ;; Defined at:
  5672 ;;		line 5 in file "C:\Program Files\Microchip\xc8\v2.32\pic\sources\c90\common\aldiv.c"
  5673 ;; Parameters:    Size  Location     Type
  5674 ;;  divisor         4    0[COMMON] long 
  5675 ;;  dividend        4    4[COMMON] long 
  5676 ;; Auto vars:     Size  Location     Type
  5677 ;;  quotient        4    2[BANK0 ] long 
  5678 ;;  sign            1    1[BANK0 ] unsigned char 
  5679 ;;  counter         1    0[BANK0 ] unsigned char 
  5680 ;; Return value:  Size  Location     Type
  5681 ;;                  4    0[COMMON] long 
  5682 ;; Registers used:
  5683 ;;		wreg, status,2, status,0
  5684 ;; Tracked objects:
  5685 ;;		On entry : 0/0
  5686 ;;		On exit  : 0/0
  5687 ;;		Unchanged: 0/0
  5688 ;; Data sizes:     COMMON   BANK0   BANK1   BANK3   BANK2
  5689 ;;      Params:         8       0       0       0       0
  5690 ;;      Locals:         0       6       0       0       0
  5691 ;;      Temps:          1       0       0       0       0
  5692 ;;      Totals:         9       6       0       0       0
  5693 ;;Total ram usage:       15 bytes
  5694 ;; Hardware stack levels used: 1
  5695 ;; This function calls:
  5696 ;;		Nothing
  5697 ;; This function is called by:
  5698 ;;		_UART_Init
  5699 ;;		_PWM_Max_Duty
  5700 ;;		_PWM1_Init_Fre
  5701 ;;		_PWM2_Init_Fre
  5702 ;; This function uses a non-reentrant model
  5703 ;;
  5704                           
  5705                           
  5706                           ;psect for function ___aldiv
  5707  0DCD                     ___aldiv:
  5708  0DCD                     l1552:	
  5709                           ;incstack = 0
  5710                           ; Regs used in ___aldiv: [wreg+status,2+status,0]
  5711                           
  5712  0DCD  1283               	bcf	3,5	;RP0=0, select bank0
  5713  0DCE  1303               	bcf	3,6	;RP1=0, select bank0
  5714  0DCF  01A1               	clrf	___aldiv@sign
  5715  0DD0                     l1554:
  5716  0DD0  1FF3               	btfss	___aldiv@divisor+3,7
  5717  0DD1  2DD3               	goto	u1491
  5718  0DD2  2DD4               	goto	u1490
  5719  0DD3                     u1491:
  5720  0DD3  2DE1               	goto	l365
  5721  0DD4                     u1490:
  5722  0DD4                     l1556:
  5723  0DD4  09F0               	comf	___aldiv@divisor,f
  5724  0DD5  09F1               	comf	___aldiv@divisor+1,f
  5725  0DD6  09F2               	comf	___aldiv@divisor+2,f
  5726  0DD7  09F3               	comf	___aldiv@divisor+3,f
  5727  0DD8  0AF0               	incf	___aldiv@divisor,f
  5728  0DD9  1903               	skipnz
  5729  0DDA  0AF1               	incf	___aldiv@divisor+1,f
  5730  0DDB  1903               	skipnz
  5731  0DDC  0AF2               	incf	___aldiv@divisor+2,f
  5732  0DDD  1903               	skipnz
  5733  0DDE  0AF3               	incf	___aldiv@divisor+3,f
  5734  0DDF  01A1               	clrf	___aldiv@sign
  5735  0DE0  0AA1               	incf	___aldiv@sign,f
  5736  0DE1                     l365:
  5737  0DE1  1FF7               	btfss	___aldiv@dividend+3,7
  5738  0DE2  2DE4               	goto	u1501
  5739  0DE3  2DE5               	goto	u1500
  5740  0DE4                     u1501:
  5741  0DE4  2DF4               	goto	l1562
  5742  0DE5                     u1500:
  5743  0DE5                     l1558:
  5744  0DE5  09F4               	comf	___aldiv@dividend,f
  5745  0DE6  09F5               	comf	___aldiv@dividend+1,f
  5746  0DE7  09F6               	comf	___aldiv@dividend+2,f
  5747  0DE8  09F7               	comf	___aldiv@dividend+3,f
  5748  0DE9  0AF4               	incf	___aldiv@dividend,f
  5749  0DEA  1903               	skipnz
  5750  0DEB  0AF5               	incf	___aldiv@dividend+1,f
  5751  0DEC  1903               	skipnz
  5752  0DED  0AF6               	incf	___aldiv@dividend+2,f
  5753  0DEE  1903               	skipnz
  5754  0DEF  0AF7               	incf	___aldiv@dividend+3,f
  5755  0DF0                     l1560:
  5756  0DF0  3001               	movlw	1
  5757  0DF1  00F8               	movwf	??___aldiv
  5758  0DF2  0878               	movf	??___aldiv,w
  5759  0DF3  06A1               	xorwf	___aldiv@sign,f
  5760  0DF4                     l1562:
  5761  0DF4  3000               	movlw	0
  5762  0DF5  00A5               	movwf	___aldiv@quotient+3
  5763  0DF6  3000               	movlw	0
  5764  0DF7  00A4               	movwf	___aldiv@quotient+2
  5765  0DF8  3000               	movlw	0
  5766  0DF9  00A3               	movwf	___aldiv@quotient+1
  5767  0DFA  3000               	movlw	0
  5768  0DFB  00A2               	movwf	___aldiv@quotient
  5769  0DFC                     l1564:
  5770  0DFC  0873               	movf	___aldiv@divisor+3,w
  5771  0DFD  0472               	iorwf	___aldiv@divisor+2,w
  5772  0DFE  0471               	iorwf	___aldiv@divisor+1,w
  5773  0DFF  0470               	iorwf	___aldiv@divisor,w
  5774  0E00  1903               	skipnz
  5775  0E01  2E03               	goto	u1511
  5776  0E02  2E04               	goto	u1510
  5777  0E03                     u1511:
  5778  0E03  2E51               	goto	l1584
  5779  0E04                     u1510:
  5780  0E04                     l1566:
  5781  0E04  01A0               	clrf	___aldiv@counter
  5782  0E05  0AA0               	incf	___aldiv@counter,f
  5783  0E06  2E14               	goto	l1570
  5784  0E07                     l1568:
  5785  0E07  3001               	movlw	1
  5786  0E08  00F8               	movwf	??___aldiv
  5787  0E09                     u1525:
  5788  0E09  1003               	clrc
  5789  0E0A  0DF0               	rlf	___aldiv@divisor,f
  5790  0E0B  0DF1               	rlf	___aldiv@divisor+1,f
  5791  0E0C  0DF2               	rlf	___aldiv@divisor+2,f
  5792  0E0D  0DF3               	rlf	___aldiv@divisor+3,f
  5793  0E0E  0BF8               	decfsz	??___aldiv,f
  5794  0E0F  2E09               	goto	u1525
  5795  0E10  3001               	movlw	1
  5796  0E11  00F8               	movwf	??___aldiv
  5797  0E12  0878               	movf	??___aldiv,w
  5798  0E13  07A0               	addwf	___aldiv@counter,f
  5799  0E14                     l1570:
  5800  0E14  1FF3               	btfss	___aldiv@divisor+3,7
  5801  0E15  2E17               	goto	u1531
  5802  0E16  2E18               	goto	u1530
  5803  0E17                     u1531:
  5804  0E17  2E07               	goto	l1568
  5805  0E18                     u1530:
  5806  0E18                     l1572:
  5807  0E18  3001               	movlw	1
  5808  0E19  00F8               	movwf	??___aldiv
  5809  0E1A                     u1545:
  5810  0E1A  1003               	clrc
  5811  0E1B  0DA2               	rlf	___aldiv@quotient,f
  5812  0E1C  0DA3               	rlf	___aldiv@quotient+1,f
  5813  0E1D  0DA4               	rlf	___aldiv@quotient+2,f
  5814  0E1E  0DA5               	rlf	___aldiv@quotient+3,f
  5815  0E1F  0BF8               	decfsz	??___aldiv,f
  5816  0E20  2E1A               	goto	u1545
  5817  0E21                     l1574:
  5818  0E21  0873               	movf	___aldiv@divisor+3,w
  5819  0E22  0277               	subwf	___aldiv@dividend+3,w
  5820  0E23  1D03               	skipz
  5821  0E24  2E2F               	goto	u1555
  5822  0E25  0872               	movf	___aldiv@divisor+2,w
  5823  0E26  0276               	subwf	___aldiv@dividend+2,w
  5824  0E27  1D03               	skipz
  5825  0E28  2E2F               	goto	u1555
  5826  0E29  0871               	movf	___aldiv@divisor+1,w
  5827  0E2A  0275               	subwf	___aldiv@dividend+1,w
  5828  0E2B  1D03               	skipz
  5829  0E2C  2E2F               	goto	u1555
  5830  0E2D  0870               	movf	___aldiv@divisor,w
  5831  0E2E  0274               	subwf	___aldiv@dividend,w
  5832  0E2F                     u1555:
  5833  0E2F  1C03               	skipc
  5834  0E30  2E32               	goto	u1551
  5835  0E31  2E33               	goto	u1550
  5836  0E32                     u1551:
  5837  0E32  2E42               	goto	l1580
  5838  0E33                     u1550:
  5839  0E33                     l1576:
  5840  0E33  0870               	movf	___aldiv@divisor,w
  5841  0E34  02F4               	subwf	___aldiv@dividend,f
  5842  0E35  0871               	movf	___aldiv@divisor+1,w
  5843  0E36  1C03               	skipc
  5844  0E37  0F71               	incfsz	___aldiv@divisor+1,w
  5845  0E38  02F5               	subwf	___aldiv@dividend+1,f
  5846  0E39  0872               	movf	___aldiv@divisor+2,w
  5847  0E3A  1C03               	skipc
  5848  0E3B  0F72               	incfsz	___aldiv@divisor+2,w
  5849  0E3C  02F6               	subwf	___aldiv@dividend+2,f
  5850  0E3D  0873               	movf	___aldiv@divisor+3,w
  5851  0E3E  1C03               	skipc
  5852  0E3F  0F73               	incfsz	___aldiv@divisor+3,w
  5853  0E40  02F7               	subwf	___aldiv@dividend+3,f
  5854  0E41                     l1578:
  5855  0E41  1422               	bsf	___aldiv@quotient,0
  5856  0E42                     l1580:
  5857  0E42  3001               	movlw	1
  5858  0E43                     u1565:
  5859  0E43  1003               	clrc
  5860  0E44  0CF3               	rrf	___aldiv@divisor+3,f
  5861  0E45  0CF2               	rrf	___aldiv@divisor+2,f
  5862  0E46  0CF1               	rrf	___aldiv@divisor+1,f
  5863  0E47  0CF0               	rrf	___aldiv@divisor,f
  5864  0E48  3EFF               	addlw	-1
  5865  0E49  1D03               	skipz
  5866  0E4A  2E43               	goto	u1565
  5867  0E4B                     l1582:
  5868  0E4B  3001               	movlw	1
  5869  0E4C  02A0               	subwf	___aldiv@counter,f
  5870  0E4D  1D03               	btfss	3,2
  5871  0E4E  2E50               	goto	u1571
  5872  0E4F  2E51               	goto	u1570
  5873  0E50                     u1571:
  5874  0E50  2E18               	goto	l1572
  5875  0E51                     u1570:
  5876  0E51                     l1584:
  5877  0E51  0821               	movf	___aldiv@sign,w
  5878  0E52  1903               	btfsc	3,2
  5879  0E53  2E55               	goto	u1581
  5880  0E54  2E56               	goto	u1580
  5881  0E55                     u1581:
  5882  0E55  2E61               	goto	l1588
  5883  0E56                     u1580:
  5884  0E56                     l1586:
  5885  0E56  09A2               	comf	___aldiv@quotient,f
  5886  0E57  09A3               	comf	___aldiv@quotient+1,f
  5887  0E58  09A4               	comf	___aldiv@quotient+2,f
  5888  0E59  09A5               	comf	___aldiv@quotient+3,f
  5889  0E5A  0AA2               	incf	___aldiv@quotient,f
  5890  0E5B  1903               	skipnz
  5891  0E5C  0AA3               	incf	___aldiv@quotient+1,f
  5892  0E5D  1903               	skipnz
  5893  0E5E  0AA4               	incf	___aldiv@quotient+2,f
  5894  0E5F  1903               	skipnz
  5895  0E60  0AA5               	incf	___aldiv@quotient+3,f
  5896  0E61                     l1588:
  5897  0E61  0825               	movf	___aldiv@quotient+3,w
  5898  0E62  00F3               	movwf	?___aldiv+3
  5899  0E63  0824               	movf	___aldiv@quotient+2,w
  5900  0E64  00F2               	movwf	?___aldiv+2
  5901  0E65  0823               	movf	___aldiv@quotient+1,w
  5902  0E66  00F1               	movwf	?___aldiv+1
  5903  0E67  0822               	movf	___aldiv@quotient,w
  5904  0E68  00F0               	movwf	?___aldiv
  5905  0E69                     l375:
  5906  0E69  0008               	return
  5907  0E6A                     __end_of___aldiv:
  5908  007E                     btemp	set	126	;btemp
  5909  007E                     wtemp0	set	126
  5910                           
  5911                           	psect	config
  5912                           
  5913                           ;Config register CONFIG @ 0x2007
  5914                           ;	Oscillator Selection bits
  5915                           ;	FOSC = XT, XT oscillator
  5916                           ;	Watchdog Timer Enable bit
  5917                           ;	WDTE = OFF, WDT disabled
  5918                           ;	Power-up Timer Enable bit
  5919                           ;	PWRTE = OFF, PWRT disabled
  5920                           ;	Brown-out Reset Enable bit
  5921                           ;	BOREN = OFF, BOR disabled
  5922                           ;	Low-Voltage (Single-Supply) In-Circuit Serial Programming Enable bit
  5923                           ;	LVP = OFF, RB3 is digital I/O, HV on MCLR must be used for programming
  5924                           ;	Data EEPROM Memory Code Protection bit
  5925                           ;	CPD = OFF, Data EEPROM code protection off
  5926                           ;	Flash Program Memory Write Enable bits
  5927                           ;	WRT = OFF, Write protection off; all program memory may be written to by EECON control
  5928                           ;	In-Circuit Debugger Mode bit
  5929                           ;	DEBUG = 0x1, unprogrammed default
  5930                           ;	Flash Program Memory Code Protection bit
  5931                           ;	CP = OFF, Code protection off
  5932  2007                     	org	8199
  5933  2007  3F39               	dw	16185

Data Sizes:
    Strings     29
    Constant    10
    Data        0
    BSS         4
    Persistent  0
    Stack       0

Auto Spaces:
    Space          Size  Autos    Used
    COMMON           14     14      14
    BANK0            80     80      80
    BANK1            80     38      42
    BANK3            96      0       0
    BANK2            96      0       0

Pointer List with Targets:

    sprintf@f	PTR const unsigned char  size(1) Largest target is 15
		 -> STR_2(CODE[15]), STR_1(CODE[14]), 

    sprintf@sp	PTR unsigned char  size(1) Largest target is 20
		 -> main@uart_logs(BANK1[20]), 

    sprintf@ap	PTR void [1] size(1) Largest target is 2
		 -> ?_sprintf(BANK0[2]), 

    UART_Write_Text@text	PTR unsigned char  size(1) Largest target is 20
		 -> main@uart_logs(BANK1[20]), 


Critical Paths under _main in COMMON

    _sprintf->___lwmod
    ___lwmod->___lwdiv
    _UART_Write_Text->_UART_Write
    _UART_Init->___aldiv
    _PWM2_Init_Fre->___aldiv
    _PWM2_Duty->_PWM_Max_Duty
    _PWM1_Init_Fre->___aldiv
    _PWM1_Duty->_PWM_Max_Duty
    ___xxtofl->_PWM_Max_Duty
    ___fltol->_PWM_Max_Duty
    ___flmul->_PWM_Max_Duty
    _PWM_Max_Duty->___aldiv

Critical Paths under _main in BANK0

    _UART_Init->___aldiv
    _PWM2_Init_Fre->___aldiv
    _PWM2_Duty->___fltol
    _PWM1_Init_Fre->___aldiv
    _PWM1_Duty->___fltol
    ___xxtofl->_PWM_Max_Duty
    ___fltol->___flmul
    ___flmul->___fldiv
    ___fldiv->___xxtofl
    _PWM_Max_Duty->___aldiv

Critical Paths under _main in BANK1

    _main->_PWM1_Duty
    _main->_PWM2_Duty
    _PWM2_Duty->___fltol
    _PWM1_Duty->___fltol

Critical Paths under _main in BANK3

    None.

Critical Paths under _main in BANK2

    None.

Call Graph Tables:

 ---------------------------------------------------------------------------------
 (Depth) Function   	        Calls       Base Space   Used Autos Params    Refs
 ---------------------------------------------------------------------------------
 (0) _main                                                29    29      0   18064
                                              9 BANK1     29    29      0
                          _PWM1_Duty
                      _PWM1_Init_Fre
                         _PWM1_Start
                          _PWM2_Duty
                      _PWM2_Init_Fre
                         _PWM2_Start
                          _UART_Init
                    _UART_Write_Text
                            _spiInit
                            _spiRead
                           _spiWrite
                            _sprintf
 ---------------------------------------------------------------------------------
 (1) _sprintf                                             21    18      3    1320
                                              0 BANK0     13    10      3
                            ___lwdiv
                            ___lwmod
 ---------------------------------------------------------------------------------
 (2) ___lwmod                                              6     2      4     311
                                              8 COMMON     6     2      4
                            ___lwdiv (ARG)
 ---------------------------------------------------------------------------------
 (2) ___lwdiv                                              8     4      4     314
                                              0 COMMON     8     4      4
 ---------------------------------------------------------------------------------
 (1) _spiWrite                                             1     1      0      22
                                              0 COMMON     1     1      0
 ---------------------------------------------------------------------------------
 (1) _spiRead                                              0     0      0       0
                     _spiReceiveWait
 ---------------------------------------------------------------------------------
 (2) _spiReceiveWait                                       0     0      0       0
 ---------------------------------------------------------------------------------
 (1) _spiInit                                              4     1      3     360
                                              0 COMMON     4     1      3
 ---------------------------------------------------------------------------------
 (1) _UART_Write_Text                                      4     4      0     178
                                              1 COMMON     4     4      0
                         _UART_Write
 ---------------------------------------------------------------------------------
 (2) _UART_Write                                           1     1      0      22
                                              0 COMMON     1     1      0
 ---------------------------------------------------------------------------------
 (1) _UART_Init                                           18    14      4    1292
                                              9 COMMON     2     2      0
                                              6 BANK0     16    12      4
                            ___aldiv
 ---------------------------------------------------------------------------------
 (1) _PWM2_Start                                           0     0      0       0
 ---------------------------------------------------------------------------------
 (1) _PWM2_Init_Fre                                        8     4      4    1158
                                              9 COMMON     4     4      0
                                              6 BANK0      4     0      4
                            ___aldiv
 ---------------------------------------------------------------------------------
 (1) _PWM2_Duty                                            4     2      2    6204
                                              5 BANK1      4     2      2
                       _PWM_Max_Duty
                            ___fldiv
                            ___flmul
                            ___fltol
                           ___xxtofl
 ---------------------------------------------------------------------------------
 (1) _PWM1_Start                                           0     0      0       0
 ---------------------------------------------------------------------------------
 (1) _PWM1_Init_Fre                                        8     4      4    1158
                                              9 COMMON     4     4      0
                                              6 BANK0      4     0      4
                            ___aldiv
 ---------------------------------------------------------------------------------
 (1) _PWM1_Duty                                            4     2      2    6204
                                              5 BANK1      4     2      2
                       _PWM_Max_Duty
                            ___fldiv
                            ___flmul
                            ___fltol
                           ___xxtofl
 ---------------------------------------------------------------------------------
 (2) ___xxtofl                                            14    10      4     626
                                              8 BANK0     14    10      4
                       _PWM_Max_Duty (ARG)
 ---------------------------------------------------------------------------------
 (2) ___fltol                                             11     7      4     381
                                             74 BANK0      6     2      4
                                              0 BANK1      5     5      0
                       _PWM_Max_Duty (ARG)
                            ___fldiv (ARG)
                            ___flmul (ARG)
                           ___xxtofl (ARG)
 ---------------------------------------------------------------------------------
 (2) ___flmul                                             26    18      8    2569
                                             48 BANK0     26    18      8
                       _PWM_Max_Duty (ARG)
                          __Umul8_16
                            ___fldiv (ARG)
                           ___xxtofl (ARG)
 ---------------------------------------------------------------------------------
 (3) __Umul8_16                                            9     7      2     799
                                              0 COMMON     9     7      2
 ---------------------------------------------------------------------------------
 (2) ___fldiv                                             26    18      8    1425
                                             22 BANK0     26    18      8
                           ___xxtofl (ARG)
 ---------------------------------------------------------------------------------
 (2) _PWM_Max_Duty                                         6     4      2    1060
                                              9 COMMON     4     4      0
                                              6 BANK0      2     0      2
                            ___aldiv
 ---------------------------------------------------------------------------------
 (2) ___aldiv                                             15     7      8    1060
                                              0 COMMON     9     1      8
                                              0 BANK0      6     6      0
 ---------------------------------------------------------------------------------
 Estimated maximum stack depth 3
 ---------------------------------------------------------------------------------

 Call Graph Graphs:

 _main (ROOT)
   _PWM1_Duty
     _PWM_Max_Duty
       ___aldiv
     ___fldiv
       ___xxtofl (ARG)
         _PWM_Max_Duty (ARG)
     ___flmul
       _PWM_Max_Duty (ARG)
       __Umul8_16 (ARG)
       ___fldiv (ARG)
       ___xxtofl (ARG)
     ___fltol
       _PWM_Max_Duty (ARG)
       ___fldiv (ARG)
       ___flmul (ARG)
       ___xxtofl (ARG)
     ___xxtofl
   _PWM1_Init_Fre
     ___aldiv
   _PWM1_Start
   _PWM2_Duty
     _PWM_Max_Duty
     ___fldiv
     ___flmul
     ___fltol
     ___xxtofl
   _PWM2_Init_Fre
     ___aldiv
   _PWM2_Start
   _UART_Init
     ___aldiv
   _UART_Write_Text
     _UART_Write
   _spiInit
   _spiRead
     _spiReceiveWait
   _spiWrite
   _sprintf
     ___lwdiv
     ___lwmod
       ___lwdiv (ARG)

 Address spaces:
Name               Size   Autos  Total    Cost      Usage
BITCOMMON            E      0       0       0        0.0%
EEDATA             100      0       0       0        0.0%
NULL                 0      0       0       0        0.0%
CODE                 0      0       0       0        0.0%
COMMON               E      E       E       1      100.0%
BITSFR0              0      0       0       1        0.0%
SFR0                 0      0       0       1        0.0%
BITSFR1              0      0       0       2        0.0%
SFR1                 0      0       0       2        0.0%
STACK                0      0       0       2        0.0%
ABS                  0      0      88       3        0.0%
BITBANK0            50      0       0       4        0.0%
BITSFR3              0      0       0       4        0.0%
SFR3                 0      0       0       4        0.0%
BANK0               50     50      50       5      100.0%
BITSFR2              0      0       0       5        0.0%
SFR2                 0      0       0       5        0.0%
BITBANK1            50      0       0       6        0.0%
BANK1               50     26      2A       7       52.5%
BITBANK3            60      0       0       8        0.0%
BANK3               60      0       0       9        0.0%
BITBANK2            60      0       0      10        0.0%
BANK2               60      0       0      11        0.0%
DATA                 0      0      88      12        0.0%


Microchip Technology PIC Macro Assembler V2.32 build 20210201212658 
Symbol Table                                                                                   Mon Nov 29 11:45:10 2021

            ___fldiv@aexp 004F              ___fldiv@bexp 004E                         pc 0002  
            ___fldiv@sign 0047               _SSPSTATbits 0094                        l83 0FFF  
                      fsr 0004       __Umul8_16@word_mpld 0076                       l104 0ADC  
                     l121 0C06                       l113 0B1D                       l130 0D30  
                     l107 0AE6                       l124 008C                       l133 0ACF  
                     l118 0B73                       l127 0C9B                       l136 0ADA  
                     l172 0AB5                       l175 0ABB                       l168 0AF7  
                     l169 0AFC                       l186 0AC4                       l178 0AB4  
                     l365 0DE1                       l701 07E9                       l710 0B44  
                     l375 0E69                       l296 0174                       l651 0494  
                     l708 0B32                       l572 0BB7                       l493 0DB7  
                     l733 0E8E                       l486 0DCC                       l582 003D  
                     l671 0478                       l735 0F25                       l496 0DCC  
                     l673 0488                       l665 0406                       l649 0314  
                     l746 0EEF                       l747 0EFB                       l739 0ED3  
                     l695 0761                       l689 07F5                       _GIE 005F  
                     _RD0 0040                       _PR2 0092                       fsr0 0004  
                     indf 0000              ___flmul@aexp 0062              ___flmul@bexp 0063  
            ___flmul@sign 005D              ___flmul@temp 0068              ___flmul@prod 0064  
            ___fltol@exp1 006F                      l2000 0EB8                      l2010 0EE9  
                    l2002 0EBC                      l2020 0F1C                      l2012 0EF3  
                    l2004 0ECA                      l2100 0AC1                      l2022 0F1D  
                    l2014 0EFD                      l2006 0EDA                      l2030 0F88  
                    l2110 009B                      l2016 0F13                      l2008 0EE5  
                    l2040 0FF2                      l2032 0FE1                      l2104 0AB0  
                    l2120 00C5                      l2112 00A2                      l2200 01CB  
                    l2018 0F18                      l2042 0FF5                      l2034 0FE4  
                    l2026 0F26                      l2130 00DE                      l2122 00CD  
                    l2114 00A7                      l2106 0090                      l2210 01E6  
                    l2202 01D6                      l2060 0BB8                      l2044 0FF8  
                    l2036 0FED                      l2028 0F7F                      l2052 0AFE  
                    l2140 00FC                      l2124 00D1                      l2108 0095  
                    l2220 0210                      l2212 01F3                      l2204 01DB  
                    l2070 0C7C                      l2062 0BEE                      l2046 0FF9  
                    l2038 0FF1                      l2054 0B01                      l2150 011C  
                    l2142 0106                      l2126 00D5                      l2118 00A8  
                    l2230 0245                      l2222 0213                      l2214 01F9  
                    l2206 01E0                      l1600 0B3B                      l2072 0C7F  
                    l2080 0D14                      l2064 003E                      l2048 0FFC  
                    l2056 0B0C                      l2152 014A                      l2144 010C  
                    l2136 00E0                      l2128 00D9                      l2160 0170  
                    l2240 0291                      l2232 025D                      l2224 021D  
                    l2216 01FC                      l2208 01E6                      l1610 0B45  
                    l1602 0B40                      l2074 0C8B                      l2082 0D20  
                    l2066 0074                      l2058 0B12                      l2090 0AEF  
                    l2154 0151                      l2146 0113                      l2242 0297  
                    l2234 0267                      l2226 022D                      l2218 020A  
                    l2170 017B                      l1700 02B8                      l2068 0C07  
                    l2084 0AC5                      l2076 0C9C                      l2092 0AF1  
                    l2156 0155                      l2148 0117                      l2236 026D  
                    l2228 0238                      l2244 02A6                      l2180 0183  
                    l2172 017C                      l1710 02CF                      l1702 02BF  
                    l1630 0D7B                      l1622 0D4B                      l2078 0D11  
                    l2086 0AD0                      l1606 0ADC                      l2094 0AF3  
                    l1614 0AB5                      l2270 00BA                      l2158 015E  
                    l2246 02A9                      l2238 0287                      l2190 01BA  
                    l2182 0184                      l2174 017D                      l1560 0DF0  
                    l1552 0DCD                      l1800 03EA                      l1720 02E7  
                    l1712 02D4                      l1704 02C5                      l1632 0D7F  
                    l1640 0D9D                      l1624 0D70                      l1616 0D31  
                    l1608 0AE2                      l2096 0AF6                      l2088 0AE8  
                    l2248 02AA                      l2192 01BD                      l2184 0193  
                    l2176 017E                      l2168 0175                      l1570 0E14  
                    l1562 0DF4                      l1554 0DD0                      l1810 040B  
                    l1802 03EB                      l1730 02FC                      l1722 02EC  
                    l1714 02DC                      l1706 02C9                      l1650 0DC1  
                    l1626 0D71                      l1618 0D42                      l2098 0ABC  
                    l2194 01BE                      l2186 019C                      l2178 0181  
                    l1580 0E42                      l1572 0E18                      l1564 0DFC  
                    l1556 0DD4                      l1812 0410                      l1820 0441  
                    l1804 03EF                      l1740 031C                      l1732 0301  
                    l1724 02F2                      l1716 02DD                      l1708 02CA  
                    l1900 05BC                      l1628 0D79                      l1660 0B86  
                    l1652 0B74                      l2196 01BF                      l2188 01AB  
                    l1582 0E4B                      l1574 0E21                      l1566 0E04  
                    l1558 0DE5                      l1830 0477                      l1822 044E  
                    l1814 041E                      l1806 0403                      l1750 033A  
                    l1742 0328                      l1734 0309                      l1726 02F6  
                    l1718 02DF                      l1910 061F                      l1902 05C5  
                    l1646 0DA4                      l1638 0D87                      l1670 0BA6  
                    l1662 0B8A                      l1654 0B76                      l2198 01C0  
                    l1576 0E33                      l1568 0E07                      l1584 0E51  
                    l1832 047E                      l1824 045C                      l1816 0422  
                    l1760 0365                      l1744 032C                      l1736 030A  
                    l1728 02F7                      l1592 0B1F                      l1920 06BF  
                    l1912 0638                      l1904 05D5                      l1648 0DBC  
                    l1672 0BAD                      l1664 0B8E                      l1656 0B7C  
                    l1680 000A                      l1586 0E56                      l1578 0E41  
                    l1834 0482                      l1826 046B                      l1818 043B  
                    l1770 038A                      l1762 036D                      l1754 0343  
                    l1738 030C                      l1594 0B21                      l1930 072D  
                    l1922 06E5                      l1914 0655                      l1906 05F2  
                    l1850 04A7                      l1842 0495                      l1666 0B9F  
                    l1658 0B7F                      l1674 0BB3                      l1690 0026  
                    l1682 000D                      l1588 0E61                      l1836 0484  
                    l1828 046F                      l1780 03B5                      l1772 038B  
                    l1764 036F                      l1756 0355                      l1748 0335  
                    l1596 0B28                      l1940 0745                      l1932 0731  
                    l1924 070D                      l1916 0682                      l1908 0602  
                    l1860 04C3                      l1852 04AC                      l1844 049C  
                    l1668 0BA5                      l1692 002C                      l1684 0014  
                    l1790 03D2                      l1766 0374                      l1774 0394  
                    l1782 03B9                      l1758 035D                      l1598 0B2C  
                    l1950 0766                      l1942 0746                      l1934 0732  
                    l1926 0716                      l1918 0692                      l1870 04D8  
                    l1862 04C8                      l1854 04B1                      l1846 04A2  
                    l1694 0033                      l1686 0018                      l1678 0004  
                    l1792 03D6                      l1784 03BF                      l1776 03A6  
                    l1768 0386                      l1952 076B                      l1960 079C  
                    l1944 074A                      l1936 073B                      l1928 0724  
                    l1880 04F4                      l1872 04DD                      l1864 04CE  
                    l1856 04B9                      l1848 04A6                      l1688 001C  
                    l1696 0039                      l1794 03D7                      l1786 03C7  
                    l1778 03A7                      l1970 07CF                      l1962 07A9  
                    l1954 0779                      l1946 075E                      l1938 0741  
                    l1890 051F                      l1882 04F9                      l1874 04E5  
                    l1866 04D2                      l1858 04BB                      l1796 03E0  
                    l1788 03C9                      l1972 07DD                      l1964 07B4  
                    l1956 077D                      l1892 053C                      l1876 04E7  
                    l1868 04D3                      l1798 03E6                      l1974 07E1  
                    l1966 07C3                      l1958 0796                      l1894 0558  
                    l1886 0502                      l1878 04EF                      l1990 0E96  
                    l1982 0E6D                      l1976 07E2                      l1968 07CD  
                    l1896 0584                      l1888 0512                      l1984 0E72  
                    l1978 07ED                      l1898 05A0                      l1994 0E9F  
                    l1986 0E76                      l1996 0EA4                      l1988 0E86  
                    l1998 0EB1                      STR_1 081F                      STR_2 0810  
                    _BRGH 04C2                      _CREN 00C4                      u2010 03A6  
                    u2011 03A5                      u2100 040A                      u2020 03BF  
                    u2101 0409                      u2021 03BE                      u2005 038D  
                    u2110 0410                      u2030 03C7                      u2111 040F  
                    u2031 03C6                      u2015 03A2                      u2120 0422  
                    u2200 04D2                      u2121 0421                      u2201 04D1  
                    u2130 0431                      u2050 03D6                      u2210 04D8  
                    u2051 03D5                      u2211 04D7                      u1500 0DE5  
                    u2140 044E                      u2220 04DD                      u1501 0DE4  
                    u2141 044D                      u2045 03CB                      u2301 05E4  
                    u2221 04DC                      u1510 0E04                      u2150 046B  
                    u2070 03EA                      u2302 05EB                      u2230 04F4  
                    u1511 0E03                      u2151 046A                      u2135 042C  
                    u2071 03E9                      u2311 0611                      u2303 05F2  
                    u2231 04F3                      u3007 029F                      u2160 0482  
                    u2080 03EF                      u2312 0618                      u2240 04F9  
                    u2161 0481                      u2145 044A                      u2081 03EE  
                    u2065 03D9                      u2313 061F                      u2241 04F8  
                    u3017 02B0                      u1530 0E18                      u2090 0403  
                    u1610 0B40                      u2170 04A6                      u1531 0E17  
                    u2155 0467                      u2091 0402                      u1611 0B3F  
                    u2331 0647                      u2251 054A                      u2171 04A5  
                    u2500 078C                      u2420 0731                      u2332 064E  
                    u2252 0551                      u2180 04AC                      u1700 0D9C  
                    u1620 0AE2                      u1525 0E09                      u1605 0B33  
                    u2421 0730                      u2405 070F                      u2341 0674  
                    u2333 0655                      u2325 0621                      u2261 0566  
                    u2253 0558                      u2181 04AB                      u1701 0D9B  
                    u1621 0AE1                      u1550 0E33                      u1630 0B55  
                    u2510 07A9                      u2342 067B                      u2262 056D  
                    u2190 04B1                      u1710 0DA3                      u1551 0E32  
                    u2511 07A8                      u2415 0726                      u2351 06A1  
                    u2343 0682                      u2271 0592                      u2263 0574  
                    u2191 04B0                      u1711 0DA2                      u2520 07C3  
                    u2440 0745                      u2360 06CB                      u2352 06A8  
                    u2272 0599                      u2600 0ED9                      u1640 0ABB  
                    u1545 0E1A                      u2521 07C2                      u2505 0787  
                    u2441 0744                      u2353 06AF                      u2281 05AE  
                    u2273 05A0                      u2601 0ED8                      u1641 0ABA  
                    u1570 0E51                      u1490 0DD4                      u2530 07E1  
                    u2450 074A                      u2282 05B5                      u1730 0DBC  
                    u1650 0D42                      u1810 0BB3                      u1571 0E50  
                    u1555 0E2F                      u1491 0DD3                      u1635 0B50  
                    u2531 07E0                      u2515 07A5                      u2451 0749  
                    u2435 0734                      u2371 06D7                      u2283 05BC  
                    u1731 0DBB                      u1651 0D41                      u1811 0BB2  
                    u1580 0E56                      u1900 02D4                      u2460 075E  
                    u2380 06F3                      u2372 06DE                      u1740 0DC1  
                    u1660 0D67                      u2620 0EE9                      u2540 0E72  
                    u1820 000A                      u1581 0E55                      u1565 0E43  
                    u1901 02D3                      u2525 07BF                      u2461 075D  
                    u2373 06E5                      u2365 06C6                      u1741 0DC0  
                    u1725 0DA8                      u2621 0EE8                      u2541 0E71  
                    u2701 0F61                      u1805 0BA7                      u1821 0009  
                    u1910 02F6                      u1590 0B2C                      u2470 0765  
                    u1670 0D7F                      u2630 0EEF                      u2550 0E76  
                    u2710 0F88                      u2702 0F62                      u1750 0B7C  
                    u1911 02F5                      u1591 0B2B                      u2471 0764  
                    u2391 06FF                      u2295 05BE                      u1671 0D7E  
                    u2631 0EEE                      u2615 0EDE                      u2551 0E75  
                    u2711 0F87                      u2703 0F67                      u1751 0B7B  
                    u1920 02FC                      u2480 076B                      u2392 0706  
                    u1680 0D86                      u2640 0EF3                      u2560 0E96  
                    u2800 0057                      u2720 0F98                      u2704 0F68  
                    u1840 001C                      u1921 02FB                      u2481 076A  
                    u2393 070D                      u2385 06EE                      u1681 0D85  
                    u1665 0D62                      u2641 0EF2                      u2561 0E95  
                    u2705 0F6D                      u1841 001B                      u1930 0301  
                    u2490 077D                      u2650 0F08                      u2810 0C88  
                    u2730 0FB1                      u2706 0F6E                      u1770 0B8E  
                    u1850 0026                      u1931 0300                      u2491 077C  
                    u2811 0C84                      u1771 0B8D                      u1851 0025  
                    u1835 000E                      u1940 031C                      u2660 0F18  
                    u2580 0EB7                      u2900 010C                      u1941 031B  
                    u2661 0F17                      u2581 0EB6                      u2805 0052  
                    u2741 0FC3                      u2725 0F93                      u1765 0B80  
                    u2901 010B                      u1950 033A                      u2670 0F1C  
                    u2830 0D1D                      u2750 0FED                      u2742 0FC4  
                    u1790 0B9F                      u1870 0039                      u2910 015E  
                    u1951 0339                      u1695 0D88                      u2671 0F1B  
                    u2655 0F03                      u2575 0EA9                      u2831 0D19  
                    u2751 0FEC                      u2743 0FC9                      u2735 0FAC  
                    u1791 0B9E                      u1871 0038                      u1855 0022  
                    u2911 015D                      u1960 0374                      u1880 02C9  
                    u2824 0C8B                      u2744 0FCA                      u2680 0F36  
                    u2760 0B1D                      u2920 0170                      u1961 0373  
                    u1881 02C8                      u2745 0FCF                      u2761 0B1C  
                    u1785 0B8F                      u1865 002D                      u2921 016F  
                    u1890 02CF                      u2770 0BC8                      u2746 0FD0  
                    u2690 0F4F                      u2850 0AEF                      u2930 01E6  
                    u1891 02CE                      u2595 0ECB                      u2851 0AEE  
                    u1795 0B9B                      u2931 01E5                      _PEIE 005E  
                    u2780 0BD1                      u2844 0D20                      u2860 009B  
                    u2940 01F9                      u2685 0F31                      u2861 009A  
                    u2941 01F8                      u1990 038A                      u2790 004E  
                    u2870 00D5                      u1991 0389                      u1975 0376  
                    u2775 0BC3                      u2695 0F4A                      u2871 00D4  
                    u2880 00FB                      u1985 037F                      u2785 0BCC  
                    u2881 00FA                      u2890 0106                      u2795 0049  
                    u2891 0105                      _RCIF 0065                      u2885 00F7  
                    u2957 0204                      u2967 0219                      u2977 0233  
            _PWM_Max_Duty 0B45                      u2987 0263                      u2997 028D  
                    _SPEN 00C7                      _TRMT 04C1                      _TXEN 04C5  
                    _SYNC 04C4                      _main 0175                      _freq 00C6  
                    btemp 007E                      start 0000           ___fldiv@new_exp 0048  
 __end_of_UART_Write_Text 0B1E             ___fltol@sign1 006E           __end_of___aldiv 0E6A  
                   ?_main 0070                     _CCP1X 00BD           __end_of___fldiv 0495  
                   _CCP1Y 00BC                     _CCP2X 00ED                     _CCP2Y 00EC  
         __end_of___flmul 07F6           __end_of___fltol 0DCD           __end_of___lwdiv 0BB8  
         __end_of___lwmod 003E                     _RCREG 001A                     _SPBRG 0099  
                   _PORTD 0008                     _TRISD 0088                     _SSPIE 0463  
                   _SSPIF 0063                     _TXREG 0019               ?_UART_Write 0070  
      __size_of_UART_Init 00DA        __size_of_PWM1_Duty 0095               ?_PWM1_Start 0070  
      __size_of_PWM2_Duty 0095               ?_PWM2_Start 0070           __end_of_dpowers 0810  
                   pclath 000A           __end_of_spiInit 0AFD           __end_of_spiRead 0AC5  
                   status 0003                     wtemp0 007E           __end_of_sprintf 0175  
         __initialization 07F6              __end_of_main 02B8                    ??_main 00A9  
                  _ADCON1 009F                    _CCPR1L 0015                    _CCPR2L 001B  
                  _TRISA5 042D                    _TRISC3 043B                    _TRISC5 043D  
                  _TRISC6 043E                    _TRISC7 043F                    _SSPBUF 0013  
                  _SSPCON 0014          __end_of___xxtofl 0F26         __end_of_UART_Init 1000  
       __end_of_PWM1_Duty 0C9C         __end_of_PWM2_Duty 0D31       __size_of_UART_Write 000C  
               ??___aldiv 0078                 ??___fldiv 003E       __size_of_PWM1_Start 000B  
               ??___flmul 0058          ?_UART_Write_Text 0070                 ??___fltol 00A0  
     __size_of_PWM2_Start 000B                 ??___lwdiv 0074                 ??___lwmod 007C  
           main@uart_logs 00AC        __size_of__Umul8_16 0027          __end_of_spiWrite 0AB5  
               ??_spiInit 0073                 ??_spiRead 0070                 ??_sprintf 0023  
            ___xxtofl@arg 0032              ___xxtofl@exp 0031              ___xxtofl@val 0028  
 __end_of__initialization 07FC     __end_of_PWM1_Init_Fre 0C07                ___fltol@f1 006A  
   __end_of_PWM2_Init_Fre 008D            __pcstackCOMMON 0070                __pbssBANK1 00C6  
       __end_of__Umul8_16 0B45                __pmaintext 0175   __size_of_spiReceiveWait 0007  
               ?___xxtofl 0028              ??_UART_Write 0070              ??_PWM1_Start 0070  
            ??_PWM2_Start 0070                   _SSPSTAT 0094                __stringtab 0800  
               ?_spiWrite 0070                   ___aldiv 0DCD                   ___fldiv 02B8  
                 ___flmul 0495                   ___fltol 0D31        __end_of_UART_Write 0AE7  
                 ___lwdiv 0B74                   ___lwmod 0004        __end_of_PWM1_Start 0AD0  
      __end_of_PWM2_Start 0ADB                   __ptext1 008D                   __ptext2 0004  
                 __ptext3 0B74                   __ptext4 0AAF                   __ptext5 0ABC  
                 __ptext6 0AB5                   __ptext7 0AE7                   __ptext8 0AFD  
                 __ptext9 0ADB                   _dpowers 0806                 _T2CONbits 0012  
              ??___xxtofl 002C          ___aldiv@dividend 0074                   _spiInit 0AE7  
                 _spiRead 0ABC                   _sprintf 008D                   main@v_l 00C0  
                 main@v_r 00C2                   main@out 00C4      end_of_initialization 07FC  
        ___aldiv@quotient 0022                ??_spiWrite 0070                 _UART_Init 0F26  
               _PWM1_Duty 0C07                 _PWM2_Duty 0C9C                 _PORTDbits 0008  
          UART_Write@data 0070             ___xxtofl@sign 0030                 _TRISCbits 0087  
             ___fldiv@grs 004A               ___fldiv@rem 0043               spiWrite@dat 0070  
             ___flmul@grs 005E               _CCP1CONbits 0017               _CCP2CONbits 001D  
          _spiReceiveWait 0AB5                ?_UART_Init 0026                ?_PWM1_Duty 00A5  
              ?_PWM2_Duty 00A5  __size_of_UART_Write_Text 0021       start_initialization 07F6  
           ?_PWM_Max_Duty 0026    __end_of_spiReceiveWait 0ABC                 __Umul8_16 0B1E  
               ___fldiv@a 0036                 ___fldiv@b 003A                 ___flmul@a 0054  
               ___flmul@b 0050    __size_of_PWM1_Init_Fre 004F                 ___latbits 0002  
           __pcstackBANK0 0020             __pcstackBANK1 00A0         __size_of___xxtofl 00BC  
  __size_of_PWM2_Init_Fre 004F            ??_PWM_Max_Duty 0079               sprintf@flag 0027  
             sprintf@prec 0028          ___lwdiv@dividend 0072           ?_spiReceiveWait 0070  
                ?___aldiv 0070                  ?___fldiv 0036                  ?___flmul 0050  
                ?___fltol 006A                ?__Umul8_16 0070                  ?___lwdiv 0070  
                ?___lwmod 0078               ??_UART_Init 002A         __size_of_spiWrite 0006  
             ??_PWM1_Duty 00A7               ??_PWM2_Duty 00A7                 __pstrings 0800  
                ?_spiInit 0070                  ?_spiRead 0070          ___lwdiv@quotient 0075  
                ?_sprintf 0020                UART_Init@x 0079         ??_UART_Write_Text 0071  
         ___aldiv@divisor 0070      spiInit@sTransmitEdge 0072           ___aldiv@counter 0020  
           _PWM1_Init_Fre 0BB8        spiInit@sDataSample 0070             PWM1_Duty@duty 00A5  
           _PWM2_Init_Fre 003E         UART_Init@baudrate 0026             PWM2_Duty@duty 00A5  
             __stringbase 0805            ?_PWM1_Init_Fre 0026            ?_PWM2_Init_Fre 0026  
             ??__Umul8_16 0072          __size_of___aldiv 009D      __end_of_PWM_Max_Duty 0B74  
        __size_of___fldiv 01DD          __size_of___flmul 0361          __size_of___fltol 009C  
        __size_of___lwdiv 0044          __size_of___lwmod 003A          PWM1_Init_Fre@fre 0026  
      __end_of__stringtab 0806                sprintf@val 0029                  ___xxtofl 0E6A  
         ___lwdiv@divisor 0070           ___lwdiv@counter 0077                  __ptext10 0F26  
                __ptext11 0AD0                  __ptext20 0B1E                  __ptext12 003E  
                __ptext21 02B8                  __ptext13 0C9C                  __ptext22 0B45  
                __ptext14 0AC5                  __ptext23 0DCD                  __ptext15 0BB8  
                __ptext16 0C07                  __ptext17 0E6A                  __ptext18 0D31  
                __ptext19 0495          __size_of_spiInit 0016          __size_of_spiRead 0009  
        __size_of_sprintf 00E8       UART_Write_Text@text 0074             __size_of_main 0143  
                _spiWrite 0AAF              spiInit@sType 0073         spiInit@sClockIdle 0071  
               sprintf@ap 0026                 sprintf@sp 002B           ??_PWM1_Init_Fre 0079  
        ___lwmod@dividend 007A          ??_spiReceiveWait 0070           ??_PWM2_Init_Fre 0079  
               stringcode 0800          PWM2_Init_Fre@fre 0026    __Umul8_16@multiplicand 0070  
         _UART_Write_Text 0AFD                  sprintf@c 002C                  sprintf@f 0020  
         ___lwmod@divisor 0078           ___lwmod@counter 007D                  stringdir 0800  
                stringtab 0800              ___aldiv@sign 0021                _UART_Write 0ADB  
              _PWM1_Start 0AC5                _PWM2_Start 0AD0          UART_Write_Text@i 0072  
    __Umul8_16@multiplier 0078     __size_of_PWM_Max_Duty 002F         __Umul8_16@product 0074  
