

Microchip MPLAB XC8 Assembler V2.32 build 20210201212658 
                                                                                               Wed Nov 24 22:40:56 2021

Microchip MPLAB XC8 C Compiler v2.32 (Free license) build 20210201212658 Og1 
     1                           	processor	16F877A
     2                           	pagewidth 120
     3                           	opt	flic
     4                           	psect	strings,global,class=STRING,delta=2,noexec
     5                           	psect	cinit,global,class=CODE,merge=1,delta=2
     6                           	psect	bssBANK1,global,class=BANK1,space=1,delta=1,noexec
     7                           	psect	cstackBANK1,global,class=BANK1,space=1,delta=1,noexec
     8                           	psect	cstackCOMMON,global,class=COMMON,space=1,delta=1,noexec
     9                           	psect	cstackBANK0,global,class=BANK0,space=1,delta=1,noexec
    10                           	psect	maintext,global,class=CODE,split=1,delta=2
    11                           	psect	text1,local,class=CODE,merge=1,delta=2
    12                           	psect	text2,local,class=CODE,merge=1,delta=2
    13                           	psect	text3,local,class=CODE,merge=1,delta=2
    14                           	psect	text4,local,class=CODE,merge=1,delta=2
    15                           	psect	text5,local,class=CODE,merge=1,delta=2
    16                           	psect	text6,local,class=CODE,merge=1,delta=2
    17                           	psect	text7,local,class=CODE,merge=1,delta=2
    18                           	psect	text8,local,class=CODE,merge=1,delta=2
    19                           	psect	text9,local,class=CODE,merge=1,delta=2
    20                           	psect	text10,local,class=CODE,merge=1,delta=2
    21                           	psect	text11,local,class=CODE,merge=1,delta=2
    22                           	psect	text12,local,class=CODE,merge=1,delta=2
    23                           	psect	text13,local,class=CODE,merge=1,delta=2
    24                           	psect	text14,local,class=CODE,merge=1,delta=2
    25                           	psect	text15,local,class=CODE,merge=1,delta=2,group=1
    26                           	psect	text16,local,class=CODE,merge=1,delta=2,group=1
    27                           	psect	text17,local,class=CODE,merge=1,delta=2,group=1
    28                           	psect	text18,local,class=CODE,merge=1,delta=2,group=1
    29                           	psect	text19,local,class=CODE,merge=1,delta=2,group=1
    30                           	psect	text20,local,class=CODE,merge=1,delta=2
    31                           	psect	text21,local,class=CODE,merge=1,delta=2,group=1
    32                           	psect	config,global,abs,ovrld,class=CONFIG,space=4,delta=2,noexec
    33                           	dabs	1,0x7E,2
    34  0000                     
    35                           ; Version 2.20
    36                           ; Generated 12/02/2020 GMT
    37                           ; 
    38                           ; Copyright © 2020, Microchip Technology Inc. and its subsidiaries ("Microchip")
    39                           ; All rights reserved.
    40                           ; 
    41                           ; This software is developed by Microchip Technology Inc. and its subsidiaries ("Microch
      +                          ip").
    42                           ; 
    43                           ; Redistribution and use in source and binary forms, with or without modification, are
    44                           ; permitted provided that the following conditions are met:
    45                           ; 
    46                           ;     1. Redistributions of source code must retain the above copyright notice, this lis
      +                          t of
    47                           ;        conditions and the following disclaimer.
    48                           ; 
    49                           ;     2. Redistributions in binary form must reproduce the above copyright notice, this 
      +                          list
    50                           ;        of conditions and the following disclaimer in the documentation and/or other
    51                           ;        materials provided with the distribution.
    52                           ; 
    53                           ;     3. Microchip's name may not be used to endorse or promote products derived from th
      +                          is
    54                           ;        software without specific prior written permission.
    55                           ; 
    56                           ; THIS SOFTWARE IS PROVIDED BY MICROCHIP "AS IS" AND ANY EXPRESS OR IMPLIED WARRANTIES,
    57                           ; INCLUDING, BUT NOT LIMITED TO, THE IMPLIED WARRANTIES OF MERCHANTABILITY AND FITNESS F
      +                          OR
    58                           ; PURPOSE ARE DISCLAIMED.  IN NO EVENT SHALL MICROCHIP BE LIABLE FOR ANY DIRECT, INDIREC
      +                          T,
    59                           ; INCIDENTAL, SPECIAL, EXEMPLARY, OR CONSEQUENTIAL DAMAGES (INCLUDING BUT NOT LIMITED TO
    60                           ; PROCUREMENT OF SUBSTITUTE GOODS OR SERVICES; LOSS OF USE, DATA OR PROFITS; OR BUSINESS
    61                           ; INTERRUPTION) HOWSOEVER CAUSED AND ON ANY THEORY OF LIABILITY, WHETHER IN CONTRACT, ST
      +                          RICT
    62                           ; LIABILITY, OR TORT (INCLUDING NEGLIGENCE OR OTHERWISE) ARISING IN ANY WAY OUT OF THE U
      +                          SE OF
    63                           ; THIS SOFTWARE, EVEN IF ADVISED OF THE POSSIBILITY OF SUCH DAMAGE.
    64                           ; 
    65                           ; 
    66                           ; Code-generator required, PIC16F877A Definitions
    67                           ; 
    68                           ; SFR Addresses
    69  0000                     	;# 
    70  0001                     	;# 
    71  0002                     	;# 
    72  0003                     	;# 
    73  0004                     	;# 
    74  0005                     	;# 
    75  0006                     	;# 
    76  0007                     	;# 
    77  0008                     	;# 
    78  0009                     	;# 
    79  000A                     	;# 
    80  000B                     	;# 
    81  000C                     	;# 
    82  000D                     	;# 
    83  000E                     	;# 
    84  000E                     	;# 
    85  000F                     	;# 
    86  0010                     	;# 
    87  0011                     	;# 
    88  0012                     	;# 
    89  0013                     	;# 
    90  0014                     	;# 
    91  0015                     	;# 
    92  0015                     	;# 
    93  0016                     	;# 
    94  0017                     	;# 
    95  0018                     	;# 
    96  0019                     	;# 
    97  001A                     	;# 
    98  001B                     	;# 
    99  001B                     	;# 
   100  001C                     	;# 
   101  001D                     	;# 
   102  001E                     	;# 
   103  001F                     	;# 
   104  0081                     	;# 
   105  0085                     	;# 
   106  0086                     	;# 
   107  0087                     	;# 
   108  0088                     	;# 
   109  0089                     	;# 
   110  008C                     	;# 
   111  008D                     	;# 
   112  008E                     	;# 
   113  0091                     	;# 
   114  0092                     	;# 
   115  0093                     	;# 
   116  0094                     	;# 
   117  0098                     	;# 
   118  0099                     	;# 
   119  009C                     	;# 
   120  009D                     	;# 
   121  009E                     	;# 
   122  009F                     	;# 
   123  010C                     	;# 
   124  010D                     	;# 
   125  010E                     	;# 
   126  010F                     	;# 
   127  018C                     	;# 
   128  018D                     	;# 
   129  0000                     	;# 
   130  0001                     	;# 
   131  0002                     	;# 
   132  0003                     	;# 
   133  0004                     	;# 
   134  0005                     	;# 
   135  0006                     	;# 
   136  0007                     	;# 
   137  0008                     	;# 
   138  0009                     	;# 
   139  000A                     	;# 
   140  000B                     	;# 
   141  000C                     	;# 
   142  000D                     	;# 
   143  000E                     	;# 
   144  000E                     	;# 
   145  000F                     	;# 
   146  0010                     	;# 
   147  0011                     	;# 
   148  0012                     	;# 
   149  0013                     	;# 
   150  0014                     	;# 
   151  0015                     	;# 
   152  0015                     	;# 
   153  0016                     	;# 
   154  0017                     	;# 
   155  0018                     	;# 
   156  0019                     	;# 
   157  001A                     	;# 
   158  001B                     	;# 
   159  001B                     	;# 
   160  001C                     	;# 
   161  001D                     	;# 
   162  001E                     	;# 
   163  001F                     	;# 
   164  0081                     	;# 
   165  0085                     	;# 
   166  0086                     	;# 
   167  0087                     	;# 
   168  0088                     	;# 
   169  0089                     	;# 
   170  008C                     	;# 
   171  008D                     	;# 
   172  008E                     	;# 
   173  0091                     	;# 
   174  0092                     	;# 
   175  0093                     	;# 
   176  0094                     	;# 
   177  0098                     	;# 
   178  0099                     	;# 
   179  009C                     	;# 
   180  009D                     	;# 
   181  009E                     	;# 
   182  009F                     	;# 
   183  010C                     	;# 
   184  010D                     	;# 
   185  010E                     	;# 
   186  010F                     	;# 
   187  018C                     	;# 
   188  018D                     	;# 
   189  0000                     	;# 
   190  0001                     	;# 
   191  0002                     	;# 
   192  0003                     	;# 
   193  0004                     	;# 
   194  0005                     	;# 
   195  0006                     	;# 
   196  0007                     	;# 
   197  0008                     	;# 
   198  0009                     	;# 
   199  000A                     	;# 
   200  000B                     	;# 
   201  000C                     	;# 
   202  000D                     	;# 
   203  000E                     	;# 
   204  000E                     	;# 
   205  000F                     	;# 
   206  0010                     	;# 
   207  0011                     	;# 
   208  0012                     	;# 
   209  0013                     	;# 
   210  0014                     	;# 
   211  0015                     	;# 
   212  0015                     	;# 
   213  0016                     	;# 
   214  0017                     	;# 
   215  0018                     	;# 
   216  0019                     	;# 
   217  001A                     	;# 
   218  001B                     	;# 
   219  001B                     	;# 
   220  001C                     	;# 
   221  001D                     	;# 
   222  001E                     	;# 
   223  001F                     	;# 
   224  0081                     	;# 
   225  0085                     	;# 
   226  0086                     	;# 
   227  0087                     	;# 
   228  0088                     	;# 
   229  0089                     	;# 
   230  008C                     	;# 
   231  008D                     	;# 
   232  008E                     	;# 
   233  0091                     	;# 
   234  0092                     	;# 
   235  0093                     	;# 
   236  0094                     	;# 
   237  0098                     	;# 
   238  0099                     	;# 
   239  009C                     	;# 
   240  009D                     	;# 
   241  009E                     	;# 
   242  009F                     	;# 
   243  010C                     	;# 
   244  010D                     	;# 
   245  010E                     	;# 
   246  010F                     	;# 
   247  018C                     	;# 
   248  018D                     	;# 
   249  0013                     _SSPBUF	set	19
   250  0014                     _SSPCON	set	20
   251  0008                     _PORTDbits	set	8
   252  0008                     _PORTD	set	8
   253  001D                     _CCP2CONbits	set	29
   254  0012                     _T2CONbits	set	18
   255  0017                     _CCP1CONbits	set	23
   256  001B                     _CCPR2L	set	27
   257  0015                     _CCPR1L	set	21
   258  0019                     _TXREG	set	25
   259  001A                     _RCREG	set	26
   260  0040                     _RD0	set	64
   261  0063                     _SSPIF	set	99
   262  005E                     _PEIE	set	94
   263  005F                     _GIE	set	95
   264  00EC                     _CCP2Y	set	236
   265  00ED                     _CCP2X	set	237
   266  00BC                     _CCP1Y	set	188
   267  00BD                     _CCP1X	set	189
   268  0065                     _RCIF	set	101
   269  00C4                     _CREN	set	196
   270  00C7                     _SPEN	set	199
   271  0094                     _SSPSTATbits	set	148
   272  0094                     _SSPSTAT	set	148
   273  009F                     _ADCON1	set	159
   274  0088                     _TRISD	set	136
   275  0087                     _TRISCbits	set	135
   276  0092                     _PR2	set	146
   277  0099                     _SPBRG	set	153
   278  043B                     _TRISC3	set	1083
   279  043D                     _TRISC5	set	1085
   280  042D                     _TRISA5	set	1069
   281  0463                     _SSPIE	set	1123
   282  04C1                     _TRMT	set	1217
   283  04C5                     _TXEN	set	1221
   284  043E                     _TRISC6	set	1086
   285  043F                     _TRISC7	set	1087
   286  04C4                     _SYNC	set	1220
   287  04C2                     _BRGH	set	1218
   288                           
   289                           	psect	strings
   290  0800                     __pstrings:
   291  0800                     stringtab:
   292  0800                     __stringtab:
   293  0800                     stringcode:	
   294                           ;	String table - string pointers are 1 byte each
   295                           
   296  0800                     stringdir:
   297  0800  3008               	movlw	high stringdir
   298  0801  008A               	movwf	10
   299  0802  0804               	movf	4,w
   300  0803  0A84               	incf	4,f
   301  0804  0782               	addwf	2,f
   302  0805                     __stringbase:
   303  0805  3400               	retlw	0
   304  0806                     __end_of__stringtab:
   305  0806                     STR_1:
   306  0806  3454               	retlw	84	;'T'
   307  0807  3465               	retlw	101	;'e'
   308  0808  3473               	retlw	115	;'s'
   309  0809  3474               	retlw	116	;'t'
   310  080A  3420               	retlw	32	;' '
   311  080B  346D               	retlw	109	;'m'
   312  080C  3465               	retlw	101	;'e'
   313  080D  3473               	retlw	115	;'s'
   314  080E  3473               	retlw	115	;'s'
   315  080F  3461               	retlw	97	;'a'
   316  0810  3467               	retlw	103	;'g'
   317  0811  3465               	retlw	101	;'e'
   318  0812  340A               	retlw	10
   319  0813  340D               	retlw	13
   320  0814  3400               	retlw	0
   321  0815                     STR_2:
   322  0815  3444               	retlw	68	;'D'
   323  0816  3461               	retlw	97	;'a'
   324  0817  3474               	retlw	116	;'t'
   325  0818  3461               	retlw	97	;'a'
   326  0819  3420               	retlw	32	;' '
   327  081A  343D               	retlw	61	;'='
   328  081B  3420               	retlw	32	;' '
   329  081C  3400               	retlw	0
   330  0812                     
   331                           	psect	cinit
   332  07F6                     start_initialization:	
   333                           ; #config settings
   334                           
   335  07F6                     __initialization:
   336                           
   337                           ; Clear objects allocated to BANK1
   338  07F6  1683               	bsf	3,5	;RP0=1, select bank1
   339  07F7  1303               	bcf	3,6	;RP1=0, select bank1
   340  07F8  01AE               	clrf	__pbssBANK1& (0+127)
   341  07F9  01AF               	clrf	(__pbssBANK1+1)& (0+127)
   342  07FA  01B0               	clrf	(__pbssBANK1+2)& (0+127)
   343  07FB  01B1               	clrf	(__pbssBANK1+3)& (0+127)
   344  07FC                     end_of_initialization:	
   345                           ;End of C runtime variable initialization code
   346                           
   347  07FC                     __end_of__initialization:
   348  07FC  0183               	clrf	3
   349  07FD  120A  118A  29DD   	ljmp	_main	;jump to C main() function
   350                           
   351                           	psect	bssBANK1
   352  00AE                     __pbssBANK1:
   353  00AE                     _freq:
   354  00AE                     	ds	4
   355                           
   356                           	psect	cstackBANK1
   357  00A0                     __pcstackBANK1:
   358  00A0                     ??___fltol:
   359                           
   360                           ; 1 bytes @ 0x0
   361  00A0                     	ds	5
   362  00A5                     ?_PWM1_Duty:
   363  00A5                     ?_PWM2_Duty:	
   364                           ; 2 bytes @ 0x5
   365                           
   366  00A5                     PWM1_Duty@duty:	
   367                           ; 2 bytes @ 0x5
   368                           
   369  00A5                     PWM2_Duty@duty:	
   370                           ; 2 bytes @ 0x5
   371                           
   372                           
   373                           ; 2 bytes @ 0x5
   374  00A5                     	ds	2
   375  00A7                     ??_PWM1_Duty:
   376  00A7                     ??_PWM2_Duty:	
   377                           ; 1 bytes @ 0x7
   378                           
   379                           
   380                           ; 1 bytes @ 0x7
   381  00A7                     	ds	2
   382  00A9                     ??_main:
   383                           
   384                           ; 1 bytes @ 0x9
   385  00A9                     	ds	3
   386  00AC                     main@data:
   387                           
   388                           ; 2 bytes @ 0xC
   389  00AC                     	ds	2
   390                           
   391                           	psect	cstackCOMMON
   392  0070                     __pcstackCOMMON:
   393  0070                     ?_spiInit:
   394  0070                     ?_spiRead:	
   395                           ; 1 bytes @ 0x0
   396                           
   397  0070                     ??_spiRead:	
   398                           ; 1 bytes @ 0x0
   399                           
   400  0070                     ?_spiWrite:	
   401                           ; 1 bytes @ 0x0
   402                           
   403  0070                     ??_spiWrite:	
   404                           ; 1 bytes @ 0x0
   405                           
   406  0070                     ?_UART_Write:	
   407                           ; 1 bytes @ 0x0
   408                           
   409  0070                     ??_UART_Write:	
   410                           ; 1 bytes @ 0x0
   411                           
   412  0070                     ?_UART_Write_Text:	
   413                           ; 1 bytes @ 0x0
   414                           
   415  0070                     ??_PWM1_Start:	
   416                           ; 1 bytes @ 0x0
   417                           
   418  0070                     ??_PWM2_Start:	
   419                           ; 1 bytes @ 0x0
   420                           
   421  0070                     ?_main:	
   422                           ; 1 bytes @ 0x0
   423                           
   424  0070                     ?_spiReceiveWait:	
   425                           ; 1 bytes @ 0x0
   426                           
   427  0070                     ??_spiReceiveWait:	
   428                           ; 1 bytes @ 0x0
   429                           
   430  0070                     ?_spiDataReady:	
   431                           ; 1 bytes @ 0x0
   432                           
   433  0070                     ?__Umul8_16:	
   434                           ; 2 bytes @ 0x0
   435                           
   436  0070                     ?_PWM1_Start:	
   437                           ; 2 bytes @ 0x0
   438                           
   439  0070                     ?_PWM2_Start:	
   440                           ; 2 bytes @ 0x0
   441                           
   442  0070                     ?___aldiv:	
   443                           ; 2 bytes @ 0x0
   444                           
   445  0070                     UART_Write@data:	
   446                           ; 4 bytes @ 0x0
   447                           
   448  0070                     spiInit@sDataSample:	
   449                           ; 1 bytes @ 0x0
   450                           
   451  0070                     spiWrite@dat:	
   452                           ; 1 bytes @ 0x0
   453                           
   454  0070                     __Umul8_16@multiplicand:	
   455                           ; 1 bytes @ 0x0
   456                           
   457  0070                     ___aldiv@divisor:	
   458                           ; 1 bytes @ 0x0
   459                           
   460                           
   461                           ; 4 bytes @ 0x0
   462  0070                     	ds	1
   463  0071                     ??_UART_Write_Text:
   464  0071                     spiInit@sClockIdle:	
   465                           ; 1 bytes @ 0x1
   466                           
   467  0071                     UART_Write_Text@i:	
   468                           ; 1 bytes @ 0x1
   469                           
   470                           
   471                           ; 2 bytes @ 0x1
   472  0071                     	ds	1
   473  0072                     ??_spiDataReady:
   474  0072                     ??__Umul8_16:	
   475                           ; 1 bytes @ 0x2
   476                           
   477  0072                     spiInit@sTransmitEdge:	
   478                           ; 1 bytes @ 0x2
   479                           
   480                           
   481                           ; 1 bytes @ 0x2
   482  0072                     	ds	1
   483  0073                     ??_spiInit:
   484  0073                     UART_Write_Text@text:	
   485                           ; 1 bytes @ 0x3
   486                           
   487  0073                     spiInit@sType:	
   488                           ; 1 bytes @ 0x3
   489                           
   490                           
   491                           ; 1 bytes @ 0x3
   492  0073                     	ds	1
   493  0074                     __Umul8_16@product:
   494  0074                     ___aldiv@dividend:	
   495                           ; 2 bytes @ 0x4
   496                           
   497                           
   498                           ; 4 bytes @ 0x4
   499  0074                     	ds	2
   500  0076                     __Umul8_16@word_mpld:
   501                           
   502                           ; 2 bytes @ 0x6
   503  0076                     	ds	2
   504  0078                     ??___aldiv:
   505  0078                     __Umul8_16@multiplier:	
   506                           ; 1 bytes @ 0x8
   507                           
   508                           
   509                           ; 1 bytes @ 0x8
   510  0078                     	ds	1
   511  0079                     ??_PWM_Max_Duty:
   512  0079                     ??_PWM1_Init_Fre:	
   513                           ; 1 bytes @ 0x9
   514                           
   515  0079                     ??_PWM2_Init_Fre:	
   516                           ; 1 bytes @ 0x9
   517                           
   518  0079                     UART_Init@x:	
   519                           ; 1 bytes @ 0x9
   520                           
   521                           
   522                           ; 2 bytes @ 0x9
   523  0079                     	ds	4
   524                           
   525                           	psect	cstackBANK0
   526  0020                     __pcstackBANK0:
   527  0020                     ___aldiv@counter:
   528                           
   529                           ; 1 bytes @ 0x0
   530  0020                     	ds	1
   531  0021                     ___aldiv@sign:
   532                           
   533                           ; 1 bytes @ 0x1
   534  0021                     	ds	1
   535  0022                     ___aldiv@quotient:
   536                           
   537                           ; 4 bytes @ 0x2
   538  0022                     	ds	4
   539  0026                     ?_UART_Init:
   540  0026                     ?_PWM_Max_Duty:	
   541                           ; 1 bytes @ 0x6
   542                           
   543  0026                     ?_PWM1_Init_Fre:	
   544                           ; 2 bytes @ 0x6
   545                           
   546  0026                     ?_PWM2_Init_Fre:	
   547                           ; 2 bytes @ 0x6
   548                           
   549  0026                     UART_Init@baudrate:	
   550                           ; 2 bytes @ 0x6
   551                           
   552  0026                     PWM1_Init_Fre@fre:	
   553                           ; 4 bytes @ 0x6
   554                           
   555  0026                     PWM2_Init_Fre@fre:	
   556                           ; 4 bytes @ 0x6
   557                           
   558                           
   559                           ; 4 bytes @ 0x6
   560  0026                     	ds	2
   561  0028                     ?___xxtofl:
   562  0028                     ___xxtofl@val:	
   563                           ; 4 bytes @ 0x8
   564                           
   565                           
   566                           ; 4 bytes @ 0x8
   567  0028                     	ds	2
   568  002A                     ??_UART_Init:
   569                           
   570                           ; 1 bytes @ 0xA
   571  002A                     	ds	2
   572  002C                     ??___xxtofl:
   573                           
   574                           ; 1 bytes @ 0xC
   575  002C                     	ds	4
   576  0030                     ___xxtofl@sign:
   577                           
   578                           ; 1 bytes @ 0x10
   579  0030                     	ds	1
   580  0031                     ___xxtofl@exp:
   581                           
   582                           ; 1 bytes @ 0x11
   583  0031                     	ds	1
   584  0032                     ___xxtofl@arg:
   585                           
   586                           ; 4 bytes @ 0x12
   587  0032                     	ds	4
   588  0036                     ?___fldiv:
   589  0036                     ___fldiv@a:	
   590                           ; 4 bytes @ 0x16
   591                           
   592                           
   593                           ; 4 bytes @ 0x16
   594  0036                     	ds	4
   595  003A                     ___fldiv@b:
   596                           
   597                           ; 4 bytes @ 0x1A
   598  003A                     	ds	4
   599  003E                     ??___fldiv:
   600                           
   601                           ; 1 bytes @ 0x1E
   602  003E                     	ds	5
   603  0043                     ___fldiv@rem:
   604                           
   605                           ; 4 bytes @ 0x23
   606  0043                     	ds	4
   607  0047                     ___fldiv@sign:
   608                           
   609                           ; 1 bytes @ 0x27
   610  0047                     	ds	1
   611  0048                     ___fldiv@new_exp:
   612                           
   613                           ; 2 bytes @ 0x28
   614  0048                     	ds	2
   615  004A                     ___fldiv@grs:
   616                           
   617                           ; 4 bytes @ 0x2A
   618  004A                     	ds	4
   619  004E                     ___fldiv@bexp:
   620                           
   621                           ; 1 bytes @ 0x2E
   622  004E                     	ds	1
   623  004F                     ___fldiv@aexp:
   624                           
   625                           ; 1 bytes @ 0x2F
   626  004F                     	ds	1
   627  0050                     ?___flmul:
   628  0050                     ___flmul@b:	
   629                           ; 4 bytes @ 0x30
   630                           
   631                           
   632                           ; 4 bytes @ 0x30
   633  0050                     	ds	4
   634  0054                     ___flmul@a:
   635                           
   636                           ; 4 bytes @ 0x34
   637  0054                     	ds	4
   638  0058                     ??___flmul:
   639                           
   640                           ; 1 bytes @ 0x38
   641  0058                     	ds	5
   642  005D                     ___flmul@sign:
   643                           
   644                           ; 1 bytes @ 0x3D
   645  005D                     	ds	1
   646  005E                     ___flmul@grs:
   647                           
   648                           ; 4 bytes @ 0x3E
   649  005E                     	ds	4
   650  0062                     ___flmul@aexp:
   651                           
   652                           ; 1 bytes @ 0x42
   653  0062                     	ds	1
   654  0063                     ___flmul@bexp:
   655                           
   656                           ; 1 bytes @ 0x43
   657  0063                     	ds	1
   658  0064                     ___flmul@prod:
   659                           
   660                           ; 4 bytes @ 0x44
   661  0064                     	ds	4
   662  0068                     ___flmul@temp:
   663                           
   664                           ; 2 bytes @ 0x48
   665  0068                     	ds	2
   666  006A                     ?___fltol:
   667  006A                     ___fltol@f1:	
   668                           ; 4 bytes @ 0x4A
   669                           
   670                           
   671                           ; 4 bytes @ 0x4A
   672  006A                     	ds	4
   673  006E                     ___fltol@sign1:
   674                           
   675                           ; 1 bytes @ 0x4E
   676  006E                     	ds	1
   677  006F                     ___fltol@exp1:
   678                           
   679                           ; 1 bytes @ 0x4F
   680  006F                     	ds	1
   681                           
   682                           	psect	maintext
   683  01DD                     __pmaintext:	
   684 ;;
   685 ;;Main: autosize = 0, tempsize = 3, incstack = 0, save=0
   686 ;;
   687 ;; *************** function _main *****************
   688 ;; Defined at:
   689 ;;		line 26 in file "newmain.c"
   690 ;; Parameters:    Size  Location     Type
   691 ;;		None
   692 ;; Auto vars:     Size  Location     Type
   693 ;;  data            2   12[BANK1 ] int 
   694 ;; Return value:  Size  Location     Type
   695 ;;                  1    wreg      void 
   696 ;; Registers used:
   697 ;;		wreg, fsr0l, fsr0h, status,2, status,0, btemp+1, pclath, cstack
   698 ;; Tracked objects:
   699 ;;		On entry : B00/0
   700 ;;		On exit  : 0/0
   701 ;;		Unchanged: 0/0
   702 ;; Data sizes:     COMMON   BANK0   BANK1   BANK3   BANK2
   703 ;;      Params:         0       0       0       0       0
   704 ;;      Locals:         0       0       2       0       0
   705 ;;      Temps:          0       0       3       0       0
   706 ;;      Totals:         0       0       5       0       0
   707 ;;Total ram usage:        5 bytes
   708 ;; Hardware stack levels required when called: 3
   709 ;; This function calls:
   710 ;;		_PWM1_Duty
   711 ;;		_PWM1_Init_Fre
   712 ;;		_PWM1_Start
   713 ;;		_PWM2_Duty
   714 ;;		_PWM2_Init_Fre
   715 ;;		_PWM2_Start
   716 ;;		_UART_Init
   717 ;;		_UART_Write
   718 ;;		_UART_Write_Text
   719 ;;		_spiDataReady
   720 ;;		_spiInit
   721 ;;		_spiRead
   722 ;;		_spiWrite
   723 ;; This function is called by:
   724 ;;		Startup code after reset
   725 ;; This function uses a non-reentrant model
   726 ;;
   727                           
   728                           
   729                           ;psect for function _main
   730  01DD                     _main:
   731  01DD                     l1894:	
   732                           ;incstack = 0
   733                           ; Regs used in _main: [wreg-fsr0h+status,2+status,0+btemp+1+pclath+cstack]
   734                           
   735                           
   736                           ;newmain.c: 28:     TRISD = 0;
   737  01DD  1683               	bsf	3,5	;RP0=1, select bank1
   738  01DE  1303               	bcf	3,6	;RP1=0, select bank1
   739  01DF  0188               	clrf	8	;volatile
   740                           
   741                           ;newmain.c: 29:     PORTD = 0;
   742  01E0  1283               	bcf	3,5	;RP0=0, select bank0
   743  01E1  1303               	bcf	3,6	;RP1=0, select bank0
   744  01E2  0188               	clrf	8	;volatile
   745  01E3                     l1896:
   746                           
   747                           ;newmain.c: 31:     GIE = 1;
   748  01E3  178B               	bsf	11,7	;volatile
   749  01E4                     l1898:
   750                           
   751                           ;newmain.c: 32:     PEIE = 1;
   752  01E4  170B               	bsf	11,6	;volatile
   753  01E5                     l1900:
   754                           
   755                           ;newmain.c: 33:     SSPIF = 0;
   756  01E5  118C               	bcf	12,3	;volatile
   757  01E6                     l1902:
   758                           
   759                           ;newmain.c: 34:     SSPIE = 1;
   760  01E6  1683               	bsf	3,5	;RP0=1, select bank1
   761  01E7  1303               	bcf	3,6	;RP1=0, select bank1
   762  01E8  158C               	bsf	12,3	;volatile
   763  01E9                     l1904:
   764                           
   765                           ;newmain.c: 35:     ADCON1 = 0x07;
   766  01E9  3007               	movlw	7
   767  01EA  009F               	movwf	31	;volatile
   768  01EB                     l1906:
   769                           
   770                           ;newmain.c: 36:     TRISA5 = 1;
   771  01EB  1685               	bsf	5,5	;volatile
   772  01EC                     l1908:
   773                           
   774                           ;newmain.c: 37:     UART_Init(9600);
   775  01EC  3000               	movlw	0
   776  01ED  1283               	bcf	3,5	;RP0=0, select bank0
   777  01EE  1303               	bcf	3,6	;RP1=0, select bank0
   778  01EF  00A9               	movwf	UART_Init@baudrate+3
   779  01F0  3000               	movlw	0
   780  01F1  00A8               	movwf	UART_Init@baudrate+2
   781  01F2  3025               	movlw	37
   782  01F3  00A7               	movwf	UART_Init@baudrate+1
   783  01F4  3080               	movlw	128
   784  01F5  00A6               	movwf	UART_Init@baudrate
   785  01F6  120A  118A  2103  120A  118A  	fcall	_UART_Init
   786  01FB                     l1910:
   787                           
   788                           ;newmain.c: 38:     spiInit(SPI_SLAVE_SS_EN, SPI_DATA_SAMPLE_MIDDLE, SPI_CLOCK_IDLE_LOW,
      +                           SPI_IDLE_2_ACTIVE);
   789  01FB  01F0               	clrf	spiInit@sDataSample
   790  01FC  01F1               	clrf	spiInit@sClockIdle
   791  01FD  01F2               	clrf	spiInit@sTransmitEdge
   792  01FE  3024               	movlw	36
   793  01FF  120A  158A  249D  120A  118A  	fcall	_spiInit
   794  0204                     l1912:
   795                           
   796                           ;newmain.c: 39:     PWM2_Init_Fre(1000);
   797  0204  3000               	movlw	0
   798  0205  1283               	bcf	3,5	;RP0=0, select bank0
   799  0206  1303               	bcf	3,6	;RP1=0, select bank0
   800  0207  00A9               	movwf	PWM2_Init_Fre@fre+3
   801  0208  3000               	movlw	0
   802  0209  00A8               	movwf	PWM2_Init_Fre@fre+2
   803  020A  3003               	movlw	3
   804  020B  00A7               	movwf	PWM2_Init_Fre@fre+1
   805  020C  30E8               	movlw	232
   806  020D  00A6               	movwf	PWM2_Init_Fre@fre
   807  020E  120A  158A  254E  120A  118A  	fcall	_PWM2_Init_Fre
   808  0213                     l1914:
   809                           
   810                           ;newmain.c: 40:     PWM1_Init_Fre(1000);
   811  0213  3000               	movlw	0
   812  0214  1283               	bcf	3,5	;RP0=0, select bank0
   813  0215  1303               	bcf	3,6	;RP1=0, select bank0
   814  0216  00A9               	movwf	PWM1_Init_Fre@fre+3
   815  0217  3000               	movlw	0
   816  0218  00A8               	movwf	PWM1_Init_Fre@fre+2
   817  0219  3003               	movlw	3
   818  021A  00A7               	movwf	PWM1_Init_Fre@fre+1
   819  021B  30E8               	movlw	232
   820  021C  00A6               	movwf	PWM1_Init_Fre@fre
   821  021D  120A  158A  24FF  120A  118A  	fcall	_PWM1_Init_Fre
   822  0222                     l1916:
   823                           
   824                           ;newmain.c: 41:     PORTDbits.RD1 = 0;
   825  0222  1283               	bcf	3,5	;RP0=0, select bank0
   826  0223  1303               	bcf	3,6	;RP1=0, select bank0
   827  0224  1088               	bcf	8,1	;volatile
   828  0225                     l1918:
   829                           
   830                           ;newmain.c: 42:     PORTDbits.RD2 = 1;
   831  0225  1508               	bsf	8,2	;volatile
   832  0226                     l1920:
   833                           
   834                           ;newmain.c: 43:     PORTDbits.RD3 = 0;
   835  0226  1188               	bcf	8,3	;volatile
   836  0227                     l1922:
   837                           
   838                           ;newmain.c: 44:     PORTDbits.RD4 = 1;
   839  0227  1608               	bsf	8,4	;volatile
   840  0228                     l1924:
   841                           
   842                           ;newmain.c: 46:     {;newmain.c: 47:         PWM2_Duty(255);
   843  0228  30FF               	movlw	255
   844  0229  1683               	bsf	3,5	;RP0=1, select bank1
   845  022A  1303               	bcf	3,6	;RP1=0, select bank1
   846  022B  00A5               	movwf	PWM2_Duty@duty^(0+128)
   847  022C  3000               	movlw	0
   848  022D  00A6               	movwf	(PWM2_Duty@duty^(0+128)+1)
   849  022E  120A  158A  2632  120A  118A  	fcall	_PWM2_Duty
   850  0233                     l1926:
   851                           
   852                           ;newmain.c: 48:         PWM1_Duty(50);
   853  0233  3032               	movlw	50
   854  0234  1683               	bsf	3,5	;RP0=1, select bank1
   855  0235  1303               	bcf	3,6	;RP1=0, select bank1
   856  0236  00A5               	movwf	PWM1_Duty@duty^(0+128)
   857  0237  3000               	movlw	0
   858  0238  00A6               	movwf	(PWM1_Duty@duty^(0+128)+1)
   859  0239  120A  158A  259D  120A  118A  	fcall	_PWM1_Duty
   860  023E                     l1928:
   861                           
   862                           ;newmain.c: 49:         PWM2_Start();
   863  023E  120A  158A  2486  120A  118A  	fcall	_PWM2_Start
   864  0243                     l1930:
   865                           
   866                           ;newmain.c: 50:         PWM1_Start();
   867  0243  120A  158A  247B  120A  118A  	fcall	_PWM1_Start
   868  0248                     l1932:
   869                           
   870                           ;newmain.c: 51:         UART_Write_Text("Test message\n\r");
   871  0248  3001               	movlw	(low ((STR_1-__stringbase)| (0+32768)))& (0+255)
   872  0249  120A  158A  24B3  120A  118A  	fcall	_UART_Write_Text
   873  024E                     l1934:
   874                           
   875                           ;newmain.c: 52:         if(spiDataReady())
   876  024E  120A  118A  200A  120A  118A  	fcall	_spiDataReady
   877  0253  0870               	movf	?_spiDataReady,w
   878  0254  0471               	iorwf	?_spiDataReady+1,w
   879  0255  1903               	btfsc	3,2
   880  0256  2A58               	goto	u2551
   881  0257  2A59               	goto	u2550
   882  0258                     u2551:
   883  0258  2AAA               	goto	l146
   884  0259                     u2550:
   885  0259                     l1936:
   886                           
   887                           ;newmain.c: 53:         {;newmain.c: 54:             int data;;newmain.c: 55:           
      +                            data = spiRead ();
   888  0259  120A  158A  2472  120A  118A  	fcall	_spiRead
   889  025E  1683               	bsf	3,5	;RP0=1, select bank1
   890  025F  1303               	bcf	3,6	;RP1=0, select bank1
   891  0260  00A9               	movwf	??_main^(0+128)
   892  0261  01AA               	clrf	(??_main^(0+128)+1)
   893  0262  0829               	movf	??_main^(0+128),w
   894  0263  00AC               	movwf	main@data^(0+128)
   895  0264  082A               	movf	(??_main+1)^(0+128),w
   896  0265  00AD               	movwf	(main@data+1)^(0+128)
   897                           
   898                           ;newmain.c: 56:             if (spiRead())
   899  0266  120A  158A  2472  120A  118A  	fcall	_spiRead
   900  026B  3A00               	xorlw	0
   901  026C  1903               	skipnz
   902  026D  2A6F               	goto	u2561
   903  026E  2A70               	goto	u2560
   904  026F                     u2561:
   905  026F  2AA6               	goto	l1950
   906  0270                     u2560:
   907  0270                     l1938:
   908                           
   909                           ;newmain.c: 57:             {;newmain.c: 58:                 RD0 = 1;
   910  0270  1283               	bcf	3,5	;RP0=0, select bank0
   911  0271  1303               	bcf	3,6	;RP1=0, select bank0
   912  0272  1408               	bsf	8,0	;volatile
   913  0273                     l1940:
   914                           
   915                           ;newmain.c: 59:                 spiWrite (1);
   916  0273  3001               	movlw	1
   917  0274  120A  158A  246C  120A  118A  	fcall	_spiWrite
   918  0279                     l1942:
   919                           
   920                           ;newmain.c: 60:                 UART_Write_Text("Data = ");
   921  0279  3010               	movlw	(low ((STR_2-__stringbase)| (0+32768)))& (0+255)
   922  027A  120A  158A  24B3  120A  118A  	fcall	_UART_Write_Text
   923  027F                     l1944:
   924                           
   925                           ;newmain.c: 61:                 UART_Write(data);
   926  027F  1683               	bsf	3,5	;RP0=1, select bank1
   927  0280  1303               	bcf	3,6	;RP1=0, select bank1
   928  0281  082C               	movf	main@data^(0+128),w
   929  0282  120A  158A  2491  120A  118A  	fcall	_UART_Write
   930  0287                     l1946:
   931                           
   932                           ;newmain.c: 62:                 _delay((unsigned long)((90)*(8000000/4000.0)));
   933  0287  30EA               	movlw	234
   934  0288  1683               	bsf	3,5	;RP0=1, select bank1
   935  0289  1303               	bcf	3,6	;RP1=0, select bank1
   936  028A  00AA               	movwf	(??_main^(0+128)+1)
   937  028B  30C2               	movlw	194
   938  028C  00A9               	movwf	??_main^(0+128)
   939  028D                     u2577:
   940  028D  0BA9               	decfsz	??_main^(0+128),f
   941  028E  2A8D               	goto	u2577
   942  028F  0BAA               	decfsz	(??_main^(0+128)+1),f
   943  0290  2A8D               	goto	u2577
   944  0291  0000               	nop
   945  0292                     l1948:
   946                           
   947                           ;newmain.c: 63:                 UART_Write_Text("\n\r");
   948  0292  300D               	movlw	(low (((STR_1+12)-__stringbase)| (0+32768)))& (0+255)
   949  0293  120A  158A  24B3  120A  118A  	fcall	_UART_Write_Text
   950                           
   951                           ;newmain.c: 64:                 _delay((unsigned long)((1000)*(8000000/4000.0)));
   952  0298  300B               	movlw	11
   953  0299  1683               	bsf	3,5	;RP0=1, select bank1
   954  029A  1303               	bcf	3,6	;RP1=0, select bank1
   955  029B  00AB               	movwf	(??_main^(0+128)+2)
   956  029C  3026               	movlw	38
   957  029D  00AA               	movwf	(??_main^(0+128)+1)
   958  029E  305D               	movlw	93
   959  029F  00A9               	movwf	??_main^(0+128)
   960  02A0                     u2587:
   961  02A0  0BA9               	decfsz	??_main^(0+128),f
   962  02A1  2AA0               	goto	u2587
   963  02A2  0BAA               	decfsz	(??_main^(0+128)+1),f
   964  02A3  2AA0               	goto	u2587
   965  02A4  0BAB               	decfsz	(??_main^(0+128)+2),f
   966  02A5  2AA0               	goto	u2587
   967  02A6                     l1950:
   968                           
   969                           ;newmain.c: 66:             RD0 = 0;
   970  02A6  1283               	bcf	3,5	;RP0=0, select bank0
   971  02A7  1303               	bcf	3,6	;RP1=0, select bank0
   972  02A8  1008               	bcf	8,0	;volatile
   973  02A9                     l1952:
   974                           
   975                           ;newmain.c: 67:             SSPIF = 0;
   976  02A9  118C               	bcf	12,3	;volatile
   977  02AA                     l146:	
   978                           ;newmain.c: 68:         }
   979                           
   980                           
   981                           ;newmain.c: 69:         _delay((unsigned long)((5)*(8000000/4000.0)));
   982  02AA  300D               	movlw	13
   983  02AB  1683               	bsf	3,5	;RP0=1, select bank1
   984  02AC  1303               	bcf	3,6	;RP1=0, select bank1
   985  02AD  00AA               	movwf	(??_main^(0+128)+1)
   986  02AE  30FB               	movlw	251
   987  02AF  00A9               	movwf	??_main^(0+128)
   988  02B0                     u2597:
   989  02B0  0BA9               	decfsz	??_main^(0+128),f
   990  02B1  2AB0               	goto	u2597
   991  02B2  0BAA               	decfsz	(??_main^(0+128)+1),f
   992  02B3  2AB0               	goto	u2597
   993  02B4  2A28               	goto	l1924
   994  02B5  120A  118A  2800   	ljmp	start
   995  02B8                     __end_of_main:
   996                           
   997                           	psect	text1
   998  0C6C                     __ptext1:	
   999 ;; *************** function _spiWrite *****************
  1000 ;; Defined at:
  1001 ;;		line 34 in file "spi.c"
  1002 ;; Parameters:    Size  Location     Type
  1003 ;;  dat             1    wreg     unsigned char 
  1004 ;; Auto vars:     Size  Location     Type
  1005 ;;  dat             1    0[COMMON] unsigned char 
  1006 ;; Return value:  Size  Location     Type
  1007 ;;                  1    wreg      void 
  1008 ;; Registers used:
  1009 ;;		wreg
  1010 ;; Tracked objects:
  1011 ;;		On entry : 0/0
  1012 ;;		On exit  : 0/0
  1013 ;;		Unchanged: 0/0
  1014 ;; Data sizes:     COMMON   BANK0   BANK1   BANK3   BANK2
  1015 ;;      Params:         0       0       0       0       0
  1016 ;;      Locals:         1       0       0       0       0
  1017 ;;      Temps:          0       0       0       0       0
  1018 ;;      Totals:         1       0       0       0       0
  1019 ;;Total ram usage:        1 bytes
  1020 ;; Hardware stack levels used: 1
  1021 ;; This function calls:
  1022 ;;		Nothing
  1023 ;; This function is called by:
  1024 ;;		_main
  1025 ;; This function uses a non-reentrant model
  1026 ;;
  1027                           
  1028                           
  1029                           ;psect for function _spiWrite
  1030  0C6C                     _spiWrite:
  1031                           
  1032                           ;incstack = 0
  1033                           ; Regs used in _spiWrite: [wreg]
  1034                           ;spiWrite@dat stored from wreg
  1035  0C6C  00F0               	movwf	spiWrite@dat
  1036  0C6D                     l1892:
  1037                           
  1038                           ;spi.c: 34: void spiWrite(char dat);spi.c: 35: {;spi.c: 36:     SSPBUF = dat;
  1039  0C6D  0870               	movf	spiWrite@dat,w
  1040  0C6E  1283               	bcf	3,5	;RP0=0, select bank0
  1041  0C6F  1303               	bcf	3,6	;RP1=0, select bank0
  1042  0C70  0093               	movwf	19	;volatile
  1043  0C71                     l176:
  1044  0C71  0008               	return
  1045  0C72                     __end_of_spiWrite:
  1046                           
  1047                           	psect	text2
  1048  0C72                     __ptext2:	
  1049 ;; *************** function _spiRead *****************
  1050 ;; Defined at:
  1051 ;;		line 47 in file "spi.c"
  1052 ;; Parameters:    Size  Location     Type
  1053 ;;		None
  1054 ;; Auto vars:     Size  Location     Type
  1055 ;;		None
  1056 ;; Return value:  Size  Location     Type
  1057 ;;                  1    wreg      unsigned char 
  1058 ;; Registers used:
  1059 ;;		wreg, status,2, status,0, pclath, cstack
  1060 ;; Tracked objects:
  1061 ;;		On entry : 0/0
  1062 ;;		On exit  : 0/0
  1063 ;;		Unchanged: 0/0
  1064 ;; Data sizes:     COMMON   BANK0   BANK1   BANK3   BANK2
  1065 ;;      Params:         0       0       0       0       0
  1066 ;;      Locals:         0       0       0       0       0
  1067 ;;      Temps:          0       0       0       0       0
  1068 ;;      Totals:         0       0       0       0       0
  1069 ;;Total ram usage:        0 bytes
  1070 ;; Hardware stack levels used: 1
  1071 ;; Hardware stack levels required when called: 1
  1072 ;; This function calls:
  1073 ;;		_spiReceiveWait
  1074 ;; This function is called by:
  1075 ;;		_main
  1076 ;; This function uses a non-reentrant model
  1077 ;;
  1078                           
  1079                           
  1080                           ;psect for function _spiRead
  1081  0C72                     _spiRead:
  1082  0C72                     l1886:	
  1083                           ;incstack = 0
  1084                           ; Regs used in _spiRead: [wreg+status,2+status,0+pclath+cstack]
  1085                           
  1086                           
  1087                           ;spi.c: 49:     spiReceiveWait();
  1088  0C72  120A  118A  2003  120A  158A  	fcall	_spiReceiveWait
  1089  0C77                     l1888:
  1090                           
  1091                           ;spi.c: 50:     return(SSPBUF);
  1092  0C77  1283               	bcf	3,5	;RP0=0, select bank0
  1093  0C78  1303               	bcf	3,6	;RP1=0, select bank0
  1094  0C79  0813               	movf	19,w	;volatile
  1095  0C7A                     l184:
  1096  0C7A  0008               	return
  1097  0C7B                     __end_of_spiRead:
  1098                           
  1099                           	psect	text3
  1100  0003                     __ptext3:	
  1101 ;; *************** function _spiReceiveWait *****************
  1102 ;; Defined at:
  1103 ;;		line 29 in file "spi.c"
  1104 ;; Parameters:    Size  Location     Type
  1105 ;;		None
  1106 ;; Auto vars:     Size  Location     Type
  1107 ;;		None
  1108 ;; Return value:  Size  Location     Type
  1109 ;;                  1    wreg      void 
  1110 ;; Registers used:
  1111 ;;		None
  1112 ;; Tracked objects:
  1113 ;;		On entry : 0/0
  1114 ;;		On exit  : 0/0
  1115 ;;		Unchanged: 0/0
  1116 ;; Data sizes:     COMMON   BANK0   BANK1   BANK3   BANK2
  1117 ;;      Params:         0       0       0       0       0
  1118 ;;      Locals:         0       0       0       0       0
  1119 ;;      Temps:          0       0       0       0       0
  1120 ;;      Totals:         0       0       0       0       0
  1121 ;;Total ram usage:        0 bytes
  1122 ;; Hardware stack levels used: 1
  1123 ;; This function calls:
  1124 ;;		Nothing
  1125 ;; This function is called by:
  1126 ;;		_spiRead
  1127 ;; This function uses a non-reentrant model
  1128 ;;
  1129                           
  1130                           
  1131                           ;psect for function _spiReceiveWait
  1132  0003                     _spiReceiveWait:
  1133  0003                     l1438:	
  1134                           ;incstack = 0
  1135                           ; Regs used in _spiReceiveWait: []
  1136                           
  1137  0003                     l170:	
  1138                           ;spi.c: 31:     while ( !SSPSTATbits.BF );
  1139                           
  1140  0003  1683               	bsf	3,5	;RP0=1, select bank1
  1141  0004  1303               	bcf	3,6	;RP1=0, select bank1
  1142  0005  1C14               	btfss	20,0	;volatile
  1143  0006  2808               	goto	u1451
  1144  0007  2809               	goto	u1450
  1145  0008                     u1451:
  1146  0008  2803               	goto	l170
  1147  0009                     u1450:
  1148  0009                     l173:
  1149  0009  0008               	return
  1150  000A                     __end_of_spiReceiveWait:
  1151                           
  1152                           	psect	text4
  1153  0C9D                     __ptext4:	
  1154 ;; *************** function _spiInit *****************
  1155 ;; Defined at:
  1156 ;;		line 12 in file "spi.c"
  1157 ;; Parameters:    Size  Location     Type
  1158 ;;  sType           1    wreg     enum E850
  1159 ;;  sDataSample     1    0[COMMON] enum E858
  1160 ;;  sClockIdle      1    1[COMMON] enum E862
  1161 ;;  sTransmitEdg    1    2[COMMON] enum E866
  1162 ;; Auto vars:     Size  Location     Type
  1163 ;;  sType           1    3[COMMON] enum E850
  1164 ;; Return value:  Size  Location     Type
  1165 ;;                  1    wreg      void 
  1166 ;; Registers used:
  1167 ;;		wreg, status,2, status,0
  1168 ;; Tracked objects:
  1169 ;;		On entry : 0/0
  1170 ;;		On exit  : 0/0
  1171 ;;		Unchanged: 0/0
  1172 ;; Data sizes:     COMMON   BANK0   BANK1   BANK3   BANK2
  1173 ;;      Params:         3       0       0       0       0
  1174 ;;      Locals:         1       0       0       0       0
  1175 ;;      Temps:          0       0       0       0       0
  1176 ;;      Totals:         4       0       0       0       0
  1177 ;;Total ram usage:        4 bytes
  1178 ;; Hardware stack levels used: 1
  1179 ;; This function calls:
  1180 ;;		Nothing
  1181 ;; This function is called by:
  1182 ;;		_main
  1183 ;; This function uses a non-reentrant model
  1184 ;;
  1185                           
  1186                           
  1187                           ;psect for function _spiInit
  1188  0C9D                     _spiInit:
  1189                           
  1190                           ;incstack = 0
  1191                           ; Regs used in _spiInit: [wreg+status,2+status,0]
  1192                           ;spiInit@sType stored from wreg
  1193  0C9D  00F3               	movwf	spiInit@sType
  1194  0C9E                     l1864:
  1195                           
  1196                           ;spi.c: 12: void spiInit(Spi_Type sType, Spi_Data_Sample sDataSample, Spi_Clock_Idle sCl
      +                          ockIdle, Spi_Transmit_Edge sTransmitEdge);spi.c: 13: {;spi.c: 14:     TRISC5 = 0;
  1197  0C9E  1683               	bsf	3,5	;RP0=1, select bank1
  1198  0C9F  1303               	bcf	3,6	;RP1=0, select bank1
  1199  0CA0  1287               	bcf	7,5	;volatile
  1200                           
  1201                           ;spi.c: 15:     if(sType & 0b00000100)
  1202  0CA1  1D73               	btfss	spiInit@sType,2
  1203  0CA2  2CA4               	goto	u2531
  1204  0CA3  2CA5               	goto	u2530
  1205  0CA4                     u2531:
  1206  0CA4  2CA9               	goto	l1870
  1207  0CA5                     u2530:
  1208  0CA5                     l1866:
  1209                           
  1210                           ;spi.c: 16:     {;spi.c: 17:         SSPSTAT = sTransmitEdge;
  1211  0CA5  0872               	movf	spiInit@sTransmitEdge,w
  1212  0CA6  0094               	movwf	20	;volatile
  1213  0CA7                     l1868:
  1214                           
  1215                           ;spi.c: 18:         TRISC3 = 1;
  1216  0CA7  1587               	bsf	7,3	;volatile
  1217                           
  1218                           ;spi.c: 19:     }
  1219  0CA8  2CAD               	goto	l166
  1220  0CA9                     l1870:
  1221                           
  1222                           ;spi.c: 21:     {;spi.c: 22:         SSPSTAT = sDataSample | sTransmitEdge;
  1223  0CA9  0870               	movf	spiInit@sDataSample,w
  1224  0CAA  0472               	iorwf	spiInit@sTransmitEdge,w
  1225  0CAB  0094               	movwf	20	;volatile
  1226  0CAC                     l1872:
  1227                           
  1228                           ;spi.c: 23:         TRISC3 = 0;
  1229  0CAC  1187               	bcf	7,3	;volatile
  1230  0CAD                     l166:	
  1231                           ;spi.c: 24:     }
  1232                           
  1233                           
  1234                           ;spi.c: 26:     SSPCON = sType | sClockIdle;
  1235  0CAD  0873               	movf	spiInit@sType,w
  1236  0CAE  0471               	iorwf	spiInit@sClockIdle,w
  1237  0CAF  1283               	bcf	3,5	;RP0=0, select bank0
  1238  0CB0  1303               	bcf	3,6	;RP1=0, select bank0
  1239  0CB1  0094               	movwf	20	;volatile
  1240  0CB2                     l167:
  1241  0CB2  0008               	return
  1242  0CB3                     __end_of_spiInit:
  1243                           
  1244                           	psect	text5
  1245  000A                     __ptext5:	
  1246 ;; *************** function _spiDataReady *****************
  1247 ;; Defined at:
  1248 ;;		line 39 in file "spi.c"
  1249 ;; Parameters:    Size  Location     Type
  1250 ;;		None
  1251 ;; Auto vars:     Size  Location     Type
  1252 ;;		None
  1253 ;; Return value:  Size  Location     Type
  1254 ;;                  2    0[COMMON] unsigned int 
  1255 ;; Registers used:
  1256 ;;		wreg, status,2
  1257 ;; Tracked objects:
  1258 ;;		On entry : 0/0
  1259 ;;		On exit  : 0/0
  1260 ;;		Unchanged: 0/0
  1261 ;; Data sizes:     COMMON   BANK0   BANK1   BANK3   BANK2
  1262 ;;      Params:         2       0       0       0       0
  1263 ;;      Locals:         0       0       0       0       0
  1264 ;;      Temps:          0       0       0       0       0
  1265 ;;      Totals:         2       0       0       0       0
  1266 ;;Total ram usage:        2 bytes
  1267 ;; Hardware stack levels used: 1
  1268 ;; This function calls:
  1269 ;;		Nothing
  1270 ;; This function is called by:
  1271 ;;		_main
  1272 ;; This function uses a non-reentrant model
  1273 ;;
  1274                           
  1275                           
  1276                           ;psect for function _spiDataReady
  1277  000A                     _spiDataReady:
  1278  000A                     l1874:	
  1279                           ;incstack = 0
  1280                           ; Regs used in _spiDataReady: [wreg+status,2]
  1281                           
  1282                           
  1283                           ;spi.c: 41:     if(SSPSTATbits.BF)
  1284  000A  1683               	bsf	3,5	;RP0=1, select bank1
  1285  000B  1303               	bcf	3,6	;RP1=0, select bank1
  1286  000C  1C14               	btfss	20,0	;volatile
  1287  000D  280F               	goto	u2541
  1288  000E  2810               	goto	u2540
  1289  000F                     u2541:
  1290  000F  2815               	goto	l1882
  1291  0010                     u2540:
  1292  0010                     l1876:
  1293                           
  1294                           ;spi.c: 42:         return 1;
  1295  0010  3001               	movlw	1
  1296  0011  00F0               	movwf	?_spiDataReady
  1297  0012  3000               	movlw	0
  1298  0013  00F1               	movwf	?_spiDataReady+1
  1299  0014  2817               	goto	l180
  1300  0015                     l1882:
  1301                           
  1302                           ;spi.c: 44:         return 0;
  1303  0015  01F0               	clrf	?_spiDataReady
  1304  0016  01F1               	clrf	?_spiDataReady+1
  1305  0017                     l180:
  1306  0017  0008               	return
  1307  0018                     __end_of_spiDataReady:
  1308                           
  1309                           	psect	text6
  1310  0CB3                     __ptext6:	
  1311 ;; *************** function _UART_Write_Text *****************
  1312 ;; Defined at:
  1313 ;;		line 53 in file "./uart.h"
  1314 ;; Parameters:    Size  Location     Type
  1315 ;;  text            1    wreg     PTR unsigned char 
  1316 ;;		 -> STR_3(3), STR_2(8), STR_1(15), 
  1317 ;; Auto vars:     Size  Location     Type
  1318 ;;  text            1    3[COMMON] PTR unsigned char 
  1319 ;;		 -> STR_3(3), STR_2(8), STR_1(15), 
  1320 ;;  i               2    1[COMMON] int 
  1321 ;; Return value:  Size  Location     Type
  1322 ;;                  1    wreg      void 
  1323 ;; Registers used:
  1324 ;;		wreg, fsr0l, fsr0h, status,2, status,0, pclath, cstack
  1325 ;; Tracked objects:
  1326 ;;		On entry : 0/0
  1327 ;;		On exit  : 0/0
  1328 ;;		Unchanged: 0/0
  1329 ;; Data sizes:     COMMON   BANK0   BANK1   BANK3   BANK2
  1330 ;;      Params:         0       0       0       0       0
  1331 ;;      Locals:         3       0       0       0       0
  1332 ;;      Temps:          0       0       0       0       0
  1333 ;;      Totals:         3       0       0       0       0
  1334 ;;Total ram usage:        3 bytes
  1335 ;; Hardware stack levels used: 1
  1336 ;; Hardware stack levels required when called: 1
  1337 ;; This function calls:
  1338 ;;		_UART_Write
  1339 ;; This function is called by:
  1340 ;;		_main
  1341 ;; This function uses a non-reentrant model
  1342 ;;
  1343                           
  1344                           
  1345                           ;psect for function _UART_Write_Text
  1346  0CB3                     _UART_Write_Text:
  1347                           
  1348                           ;incstack = 0
  1349                           ; Regs used in _UART_Write_Text: [wreg-fsr0h+status,2+status,0+pclath+cstack]
  1350                           ;UART_Write_Text@text stored from wreg
  1351  0CB3  00F3               	movwf	UART_Write_Text@text
  1352  0CB4                     l1828:
  1353                           
  1354                           ;./uart.h: 53: void UART_Write_Text(char *text);./uart.h: 54: {;./uart.h: 55:   int i;;.
      +                          /uart.h: 56:   for(i=0;text[i]!='\0';i++)
  1355  0CB4  01F1               	clrf	UART_Write_Text@i
  1356  0CB5  01F2               	clrf	UART_Write_Text@i+1
  1357  0CB6  2CCA               	goto	l1834
  1358  0CB7                     l1830:
  1359                           
  1360                           ;./uart.h: 57:    UART_Write(text[i]);
  1361  0CB7  0871               	movf	UART_Write_Text@i,w
  1362  0CB8  0773               	addwf	UART_Write_Text@text,w
  1363  0CB9  0084               	movwf	4
  1364  0CBA  120A  158A  2000  120A  158A  	fcall	stringdir
  1365  0CBF  120A  158A  2491  120A  158A  	fcall	_UART_Write
  1366  0CC4                     l1832:
  1367  0CC4  3001               	movlw	1
  1368  0CC5  07F1               	addwf	UART_Write_Text@i,f
  1369  0CC6  1803               	skipnc
  1370  0CC7  0AF2               	incf	UART_Write_Text@i+1,f
  1371  0CC8  3000               	movlw	0
  1372  0CC9  07F2               	addwf	UART_Write_Text@i+1,f
  1373  0CCA                     l1834:
  1374  0CCA  0871               	movf	UART_Write_Text@i,w
  1375  0CCB  0773               	addwf	UART_Write_Text@text,w
  1376  0CCC  0084               	movwf	4
  1377  0CCD  120A  158A  2000  120A  158A  	fcall	stringdir
  1378  0CD2  3A00               	xorlw	0
  1379  0CD3  1D03               	skipz
  1380  0CD4  2CD6               	goto	u2441
  1381  0CD5  2CD7               	goto	u2440
  1382  0CD6                     u2441:
  1383  0CD6  2CB7               	goto	l1830
  1384  0CD7                     u2440:
  1385  0CD7                     l111:
  1386  0CD7  0008               	return
  1387  0CD8                     __end_of_UART_Write_Text:
  1388                           
  1389                           	psect	text7
  1390  0C91                     __ptext7:	
  1391 ;; *************** function _UART_Write *****************
  1392 ;; Defined at:
  1393 ;;		line 47 in file "./uart.h"
  1394 ;; Parameters:    Size  Location     Type
  1395 ;;  data            1    wreg     unsigned char 
  1396 ;; Auto vars:     Size  Location     Type
  1397 ;;  data            1    0[COMMON] unsigned char 
  1398 ;; Return value:  Size  Location     Type
  1399 ;;                  1    wreg      void 
  1400 ;; Registers used:
  1401 ;;		wreg
  1402 ;; Tracked objects:
  1403 ;;		On entry : 0/0
  1404 ;;		On exit  : 0/0
  1405 ;;		Unchanged: 0/0
  1406 ;; Data sizes:     COMMON   BANK0   BANK1   BANK3   BANK2
  1407 ;;      Params:         0       0       0       0       0
  1408 ;;      Locals:         1       0       0       0       0
  1409 ;;      Temps:          0       0       0       0       0
  1410 ;;      Totals:         1       0       0       0       0
  1411 ;;Total ram usage:        1 bytes
  1412 ;; Hardware stack levels used: 1
  1413 ;; This function calls:
  1414 ;;		Nothing
  1415 ;; This function is called by:
  1416 ;;		_UART_Write_Text
  1417 ;;		_main
  1418 ;; This function uses a non-reentrant model
  1419 ;;
  1420                           
  1421                           
  1422                           ;psect for function _UART_Write
  1423  0C91                     _UART_Write:
  1424                           
  1425                           ;incstack = 0
  1426                           ; Regs used in _UART_Write: [wreg]
  1427                           ;UART_Write@data stored from wreg
  1428  0C91  00F0               	movwf	UART_Write@data
  1429  0C92                     l1430:
  1430  0C92                     l102:	
  1431                           ;./uart.h: 47: void UART_Write(char data);./uart.h: 48: {;./uart.h: 49:   while(!TRMT);
  1432                           
  1433  0C92  1683               	bsf	3,5	;RP0=1, select bank1
  1434  0C93  1303               	bcf	3,6	;RP1=0, select bank1
  1435  0C94  1C98               	btfss	24,1	;volatile
  1436  0C95  2C97               	goto	u1431
  1437  0C96  2C98               	goto	u1430
  1438  0C97                     u1431:
  1439  0C97  2C92               	goto	l102
  1440  0C98                     u1430:
  1441  0C98                     l1432:
  1442                           
  1443                           ;./uart.h: 50:   TXREG = data;
  1444  0C98  0870               	movf	UART_Write@data,w
  1445  0C99  1283               	bcf	3,5	;RP0=0, select bank0
  1446  0C9A  1303               	bcf	3,6	;RP1=0, select bank0
  1447  0C9B  0099               	movwf	25	;volatile
  1448  0C9C                     l105:
  1449  0C9C  0008               	return
  1450  0C9D                     __end_of_UART_Write:
  1451                           
  1452                           	psect	text8
  1453  0103                     __ptext8:	
  1454 ;; *************** function _UART_Init *****************
  1455 ;; Defined at:
  1456 ;;		line 1 in file "./uart.h"
  1457 ;; Parameters:    Size  Location     Type
  1458 ;;  baudrate        4    6[BANK0 ] const long 
  1459 ;; Auto vars:     Size  Location     Type
  1460 ;;  x               2    9[COMMON] unsigned int 
  1461 ;; Return value:  Size  Location     Type
  1462 ;;                  1    wreg      unsigned char 
  1463 ;; Registers used:
  1464 ;;		wreg, status,2, status,0, pclath, cstack
  1465 ;; Tracked objects:
  1466 ;;		On entry : 0/0
  1467 ;;		On exit  : 0/0
  1468 ;;		Unchanged: 0/0
  1469 ;; Data sizes:     COMMON   BANK0   BANK1   BANK3   BANK2
  1470 ;;      Params:         0       4       0       0       0
  1471 ;;      Locals:         2       0       0       0       0
  1472 ;;      Temps:          0      12       0       0       0
  1473 ;;      Totals:         2      16       0       0       0
  1474 ;;Total ram usage:       18 bytes
  1475 ;; Hardware stack levels used: 1
  1476 ;; Hardware stack levels required when called: 1
  1477 ;; This function calls:
  1478 ;;		___aldiv
  1479 ;; This function is called by:
  1480 ;;		_main
  1481 ;; This function uses a non-reentrant model
  1482 ;;
  1483                           
  1484                           
  1485                           ;psect for function _UART_Init
  1486  0103                     _UART_Init:
  1487  0103                     l1802:	
  1488                           ;incstack = 0
  1489                           ; Regs used in _UART_Init: [wreg+status,2+status,0+pclath+cstack]
  1490                           
  1491                           
  1492                           ;./uart.h: 1: char UART_Init(const long int baudrate);./uart.h: 2: {;./uart.h: 3:  unsig
      +                          ned int x;;./uart.h: 4:  x = (8000000 - baudrate*64)/(baudrate*64);
  1493  0103  1283               	bcf	3,5	;RP0=0, select bank0
  1494  0104  1303               	bcf	3,6	;RP1=0, select bank0
  1495  0105  0826               	movf	UART_Init@baudrate,w
  1496  0106  00AA               	movwf	??_UART_Init
  1497  0107  0827               	movf	UART_Init@baudrate+1,w
  1498  0108  00AB               	movwf	??_UART_Init+1
  1499  0109  0828               	movf	UART_Init@baudrate+2,w
  1500  010A  00AC               	movwf	??_UART_Init+2
  1501  010B  0829               	movf	UART_Init@baudrate+3,w
  1502  010C  00AD               	movwf	??_UART_Init+3
  1503  010D  3006               	movlw	6
  1504  010E                     u2365:
  1505  010E  1003               	clrc
  1506  010F  0DAA               	rlf	??_UART_Init,f
  1507  0110  0DAB               	rlf	??_UART_Init+1,f
  1508  0111  0DAC               	rlf	??_UART_Init+2,f
  1509  0112  0DAD               	rlf	??_UART_Init+3,f
  1510  0113                     u2360:
  1511  0113  3EFF               	addlw	-1
  1512  0114  1D03               	skipz
  1513  0115  290E               	goto	u2365
  1514  0116  082D               	movf	??_UART_Init+3,w
  1515  0117  00F3               	movwf	___aldiv@divisor+3
  1516  0118  082C               	movf	??_UART_Init+2,w
  1517  0119  00F2               	movwf	___aldiv@divisor+2
  1518  011A  082B               	movf	??_UART_Init+1,w
  1519  011B  00F1               	movwf	___aldiv@divisor+1
  1520  011C  082A               	movf	??_UART_Init,w
  1521  011D  00F0               	movwf	___aldiv@divisor
  1522  011E  0826               	movf	UART_Init@baudrate,w
  1523  011F  00AE               	movwf	??_UART_Init+4
  1524  0120  0827               	movf	UART_Init@baudrate+1,w
  1525  0121  00AF               	movwf	??_UART_Init+5
  1526  0122  0828               	movf	UART_Init@baudrate+2,w
  1527  0123  00B0               	movwf	??_UART_Init+6
  1528  0124  0829               	movf	UART_Init@baudrate+3,w
  1529  0125  00B1               	movwf	??_UART_Init+7
  1530  0126  3006               	movlw	6
  1531  0127                     u2375:
  1532  0127  1003               	clrc
  1533  0128  0DAE               	rlf	??_UART_Init+4,f
  1534  0129  0DAF               	rlf	??_UART_Init+5,f
  1535  012A  0DB0               	rlf	??_UART_Init+6,f
  1536  012B  0DB1               	rlf	??_UART_Init+7,f
  1537  012C                     u2370:
  1538  012C  3EFF               	addlw	-1
  1539  012D  1D03               	skipz
  1540  012E  2927               	goto	u2375
  1541  012F  3000               	movlw	0
  1542  0130  00B2               	movwf	??_UART_Init+8
  1543  0131  3012               	movlw	18
  1544  0132  00B3               	movwf	??_UART_Init+9
  1545  0133  307A               	movlw	122
  1546  0134  00B4               	movwf	??_UART_Init+10
  1547  0135  3000               	movlw	0
  1548  0136  00B5               	movwf	??_UART_Init+11
  1549  0137  082E               	movf	??_UART_Init+4,w
  1550  0138  02B2               	subwf	??_UART_Init+8,f
  1551  0139  082F               	movf	??_UART_Init+5,w
  1552  013A  1C03               	skipc
  1553  013B  0F2F               	incfsz	??_UART_Init+5,w
  1554  013C  293E               	goto	u2381
  1555  013D  293F               	goto	u2382
  1556  013E                     u2381:
  1557  013E  02B3               	subwf	??_UART_Init+9,f
  1558  013F                     u2382:
  1559  013F  0830               	movf	??_UART_Init+6,w
  1560  0140  1C03               	skipc
  1561  0141  0F30               	incfsz	??_UART_Init+6,w
  1562  0142  2944               	goto	u2383
  1563  0143  2945               	goto	u2384
  1564  0144                     u2383:
  1565  0144  02B4               	subwf	??_UART_Init+10,f
  1566  0145                     u2384:
  1567  0145  0831               	movf	??_UART_Init+7,w
  1568  0146  1C03               	skipc
  1569  0147  0F31               	incfsz	??_UART_Init+7,w
  1570  0148  294A               	goto	u2385
  1571  0149  294B               	goto	u2386
  1572  014A                     u2385:
  1573  014A  02B5               	subwf	??_UART_Init+11,f
  1574  014B                     u2386:
  1575  014B  0835               	movf	??_UART_Init+11,w
  1576  014C  00F7               	movwf	___aldiv@dividend+3
  1577  014D  0834               	movf	??_UART_Init+10,w
  1578  014E  00F6               	movwf	___aldiv@dividend+2
  1579  014F  0833               	movf	??_UART_Init+9,w
  1580  0150  00F5               	movwf	___aldiv@dividend+1
  1581  0151  0832               	movf	??_UART_Init+8,w
  1582  0152  00F4               	movwf	___aldiv@dividend
  1583  0153  120A  158A  2763  120A  118A  	fcall	___aldiv
  1584  0158  0871               	movf	?___aldiv+1,w
  1585  0159  00FA               	movwf	UART_Init@x+1
  1586  015A  0870               	movf	?___aldiv,w
  1587  015B  00F9               	movwf	UART_Init@x
  1588  015C                     l1804:
  1589                           
  1590                           ;./uart.h: 5:  if(x>255)
  1591  015C  3001               	movlw	1
  1592  015D  027A               	subwf	UART_Init@x+1,w
  1593  015E  3000               	movlw	0
  1594  015F  1903               	skipnz
  1595  0160  0279               	subwf	UART_Init@x,w
  1596  0161  1C03               	skipc
  1597  0162  2964               	goto	u2391
  1598  0163  2965               	goto	u2390
  1599  0164                     u2391:
  1600  0164  29C1               	goto	l1810
  1601  0165                     u2390:
  1602  0165                     l1806:
  1603                           
  1604                           ;./uart.h: 6:  {;./uart.h: 7:   x = (8000000 - baudrate*16)/(baudrate*16);
  1605  0165  1283               	bcf	3,5	;RP0=0, select bank0
  1606  0166  1303               	bcf	3,6	;RP1=0, select bank0
  1607  0167  0826               	movf	UART_Init@baudrate,w
  1608  0168  00AA               	movwf	??_UART_Init
  1609  0169  0827               	movf	UART_Init@baudrate+1,w
  1610  016A  00AB               	movwf	??_UART_Init+1
  1611  016B  0828               	movf	UART_Init@baudrate+2,w
  1612  016C  00AC               	movwf	??_UART_Init+2
  1613  016D  0829               	movf	UART_Init@baudrate+3,w
  1614  016E  00AD               	movwf	??_UART_Init+3
  1615  016F  3004               	movlw	4
  1616  0170                     u2405:
  1617  0170  1003               	clrc
  1618  0171  0DAA               	rlf	??_UART_Init,f
  1619  0172  0DAB               	rlf	??_UART_Init+1,f
  1620  0173  0DAC               	rlf	??_UART_Init+2,f
  1621  0174  0DAD               	rlf	??_UART_Init+3,f
  1622  0175                     u2400:
  1623  0175  3EFF               	addlw	-1
  1624  0176  1D03               	skipz
  1625  0177  2970               	goto	u2405
  1626  0178  082D               	movf	??_UART_Init+3,w
  1627  0179  00F3               	movwf	___aldiv@divisor+3
  1628  017A  082C               	movf	??_UART_Init+2,w
  1629  017B  00F2               	movwf	___aldiv@divisor+2
  1630  017C  082B               	movf	??_UART_Init+1,w
  1631  017D  00F1               	movwf	___aldiv@divisor+1
  1632  017E  082A               	movf	??_UART_Init,w
  1633  017F  00F0               	movwf	___aldiv@divisor
  1634  0180  0826               	movf	UART_Init@baudrate,w
  1635  0181  00AE               	movwf	??_UART_Init+4
  1636  0182  0827               	movf	UART_Init@baudrate+1,w
  1637  0183  00AF               	movwf	??_UART_Init+5
  1638  0184  0828               	movf	UART_Init@baudrate+2,w
  1639  0185  00B0               	movwf	??_UART_Init+6
  1640  0186  0829               	movf	UART_Init@baudrate+3,w
  1641  0187  00B1               	movwf	??_UART_Init+7
  1642  0188  3004               	movlw	4
  1643  0189                     u2415:
  1644  0189  1003               	clrc
  1645  018A  0DAE               	rlf	??_UART_Init+4,f
  1646  018B  0DAF               	rlf	??_UART_Init+5,f
  1647  018C  0DB0               	rlf	??_UART_Init+6,f
  1648  018D  0DB1               	rlf	??_UART_Init+7,f
  1649  018E                     u2410:
  1650  018E  3EFF               	addlw	-1
  1651  018F  1D03               	skipz
  1652  0190  2989               	goto	u2415
  1653  0191  3000               	movlw	0
  1654  0192  00B2               	movwf	??_UART_Init+8
  1655  0193  3012               	movlw	18
  1656  0194  00B3               	movwf	??_UART_Init+9
  1657  0195  307A               	movlw	122
  1658  0196  00B4               	movwf	??_UART_Init+10
  1659  0197  3000               	movlw	0
  1660  0198  00B5               	movwf	??_UART_Init+11
  1661  0199  082E               	movf	??_UART_Init+4,w
  1662  019A  02B2               	subwf	??_UART_Init+8,f
  1663  019B  082F               	movf	??_UART_Init+5,w
  1664  019C  1C03               	skipc
  1665  019D  0F2F               	incfsz	??_UART_Init+5,w
  1666  019E  29A0               	goto	u2421
  1667  019F  29A1               	goto	u2422
  1668  01A0                     u2421:
  1669  01A0  02B3               	subwf	??_UART_Init+9,f
  1670  01A1                     u2422:
  1671  01A1  0830               	movf	??_UART_Init+6,w
  1672  01A2  1C03               	skipc
  1673  01A3  0F30               	incfsz	??_UART_Init+6,w
  1674  01A4  29A6               	goto	u2423
  1675  01A5  29A7               	goto	u2424
  1676  01A6                     u2423:
  1677  01A6  02B4               	subwf	??_UART_Init+10,f
  1678  01A7                     u2424:
  1679  01A7  0831               	movf	??_UART_Init+7,w
  1680  01A8  1C03               	skipc
  1681  01A9  0F31               	incfsz	??_UART_Init+7,w
  1682  01AA  29AC               	goto	u2425
  1683  01AB  29AD               	goto	u2426
  1684  01AC                     u2425:
  1685  01AC  02B5               	subwf	??_UART_Init+11,f
  1686  01AD                     u2426:
  1687  01AD  0835               	movf	??_UART_Init+11,w
  1688  01AE  00F7               	movwf	___aldiv@dividend+3
  1689  01AF  0834               	movf	??_UART_Init+10,w
  1690  01B0  00F6               	movwf	___aldiv@dividend+2
  1691  01B1  0833               	movf	??_UART_Init+9,w
  1692  01B2  00F5               	movwf	___aldiv@dividend+1
  1693  01B3  0832               	movf	??_UART_Init+8,w
  1694  01B4  00F4               	movwf	___aldiv@dividend
  1695  01B5  120A  158A  2763  120A  118A  	fcall	___aldiv
  1696  01BA  0871               	movf	?___aldiv+1,w
  1697  01BB  00FA               	movwf	UART_Init@x+1
  1698  01BC  0870               	movf	?___aldiv,w
  1699  01BD  00F9               	movwf	UART_Init@x
  1700  01BE                     l1808:
  1701                           
  1702                           ;./uart.h: 8:   BRGH = 1;
  1703  01BE  1683               	bsf	3,5	;RP0=1, select bank1
  1704  01BF  1303               	bcf	3,6	;RP1=0, select bank1
  1705  01C0  1518               	bsf	24,2	;volatile
  1706  01C1                     l1810:
  1707                           
  1708                           ;./uart.h: 10:  if(x<256)
  1709  01C1  3001               	movlw	1
  1710  01C2  027A               	subwf	UART_Init@x+1,w
  1711  01C3  3000               	movlw	0
  1712  01C4  1903               	skipnz
  1713  01C5  0279               	subwf	UART_Init@x,w
  1714  01C6  1803               	skipnc
  1715  01C7  29C9               	goto	u2431
  1716  01C8  29CA               	goto	u2430
  1717  01C9                     u2431:
  1718  01C9  29DC               	goto	l81
  1719  01CA                     u2430:
  1720  01CA                     l1812:
  1721                           
  1722                           ;./uart.h: 11:  {;./uart.h: 12:    SPBRG = x;
  1723  01CA  0879               	movf	UART_Init@x,w
  1724  01CB  1683               	bsf	3,5	;RP0=1, select bank1
  1725  01CC  1303               	bcf	3,6	;RP1=0, select bank1
  1726  01CD  0099               	movwf	25	;volatile
  1727  01CE                     l1814:
  1728                           
  1729                           ;./uart.h: 13:    SYNC = 0;
  1730  01CE  1218               	bcf	24,4	;volatile
  1731  01CF                     l1816:
  1732                           
  1733                           ;./uart.h: 14:    SPEN = 1;
  1734  01CF  1283               	bcf	3,5	;RP0=0, select bank0
  1735  01D0  1303               	bcf	3,6	;RP1=0, select bank0
  1736  01D1  1798               	bsf	24,7	;volatile
  1737  01D2                     l1818:
  1738                           
  1739                           ;./uart.h: 15:           TRISC7 = 1;
  1740  01D2  1683               	bsf	3,5	;RP0=1, select bank1
  1741  01D3  1303               	bcf	3,6	;RP1=0, select bank1
  1742  01D4  1787               	bsf	7,7	;volatile
  1743  01D5                     l1820:
  1744                           
  1745                           ;./uart.h: 16:           TRISC6 = 1;
  1746  01D5  1707               	bsf	7,6	;volatile
  1747  01D6                     l1822:
  1748                           
  1749                           ;./uart.h: 17:           CREN = 1;
  1750  01D6  1283               	bcf	3,5	;RP0=0, select bank0
  1751  01D7  1303               	bcf	3,6	;RP1=0, select bank0
  1752  01D8  1618               	bsf	24,4	;volatile
  1753  01D9                     l1824:
  1754                           
  1755                           ;./uart.h: 18:           TXEN = 1;
  1756  01D9  1683               	bsf	3,5	;RP0=1, select bank1
  1757  01DA  1303               	bcf	3,6	;RP1=0, select bank1
  1758  01DB  1698               	bsf	24,5	;volatile
  1759  01DC                     l81:
  1760  01DC  0008               	return
  1761  01DD                     __end_of_UART_Init:
  1762                           
  1763                           	psect	text9
  1764  0C86                     __ptext9:	
  1765 ;; *************** function _PWM2_Start *****************
  1766 ;; Defined at:
  1767 ;;		line 54 in file "./pwm.h"
  1768 ;; Parameters:    Size  Location     Type
  1769 ;;		None
  1770 ;; Auto vars:     Size  Location     Type
  1771 ;;		None
  1772 ;; Return value:  Size  Location     Type
  1773 ;;                  2  133[None  ] int 
  1774 ;; Registers used:
  1775 ;;		None
  1776 ;; Tracked objects:
  1777 ;;		On entry : 0/0
  1778 ;;		On exit  : 0/0
  1779 ;;		Unchanged: 0/0
  1780 ;; Data sizes:     COMMON   BANK0   BANK1   BANK3   BANK2
  1781 ;;      Params:         0       0       0       0       0
  1782 ;;      Locals:         0       0       0       0       0
  1783 ;;      Temps:          0       0       0       0       0
  1784 ;;      Totals:         0       0       0       0       0
  1785 ;;Total ram usage:        0 bytes
  1786 ;; Hardware stack levels used: 1
  1787 ;; This function calls:
  1788 ;;		Nothing
  1789 ;; This function is called by:
  1790 ;;		_main
  1791 ;; This function uses a non-reentrant model
  1792 ;;
  1793                           
  1794                           
  1795                           ;psect for function _PWM2_Start
  1796  0C86                     _PWM2_Start:
  1797  0C86                     l1862:	
  1798                           ;incstack = 0
  1799                           ; Regs used in _PWM2_Start: []
  1800                           
  1801                           
  1802                           ;./pwm.h: 56:   CCP2CONbits.CCP2M3 = 1;
  1803  0C86  1283               	bcf	3,5	;RP0=0, select bank0
  1804  0C87  1303               	bcf	3,6	;RP1=0, select bank0
  1805  0C88  159D               	bsf	29,3	;volatile
  1806                           
  1807                           ;./pwm.h: 57:   CCP2CONbits.CCP2M2 = 1;
  1808  0C89  151D               	bsf	29,2	;volatile
  1809                           
  1810                           ;./pwm.h: 62:     T2CONbits.T2CKPS0 = 1;
  1811  0C8A  1412               	bsf	18,0	;volatile
  1812                           
  1813                           ;./pwm.h: 63:     T2CONbits.T2CKPS1 = 0;
  1814  0C8B  1092               	bcf	18,1	;volatile
  1815                           
  1816                           ;./pwm.h: 68:     T2CONbits.TMR2ON = 1;
  1817  0C8C  1512               	bsf	18,2	;volatile
  1818                           
  1819                           ;./pwm.h: 69:     TRISCbits.TRISC1 = 0;
  1820  0C8D  1683               	bsf	3,5	;RP0=1, select bank1
  1821  0C8E  1303               	bcf	3,6	;RP1=0, select bank1
  1822  0C8F  1087               	bcf	7,1	;volatile
  1823  0C90                     l134:
  1824  0C90  0008               	return
  1825  0C91                     __end_of_PWM2_Start:
  1826                           
  1827                           	psect	text10
  1828  0D4E                     __ptext10:	
  1829 ;; *************** function _PWM2_Init_Fre *****************
  1830 ;; Defined at:
  1831 ;;		line 16 in file "./pwm.h"
  1832 ;; Parameters:    Size  Location     Type
  1833 ;;  fre             4    6[BANK0 ] long 
  1834 ;; Auto vars:     Size  Location     Type
  1835 ;;		None
  1836 ;; Return value:  Size  Location     Type
  1837 ;;                  2    6[BANK0 ] int 
  1838 ;; Registers used:
  1839 ;;		wreg, status,2, status,0, pclath, cstack
  1840 ;; Tracked objects:
  1841 ;;		On entry : 0/0
  1842 ;;		On exit  : 0/0
  1843 ;;		Unchanged: 0/0
  1844 ;; Data sizes:     COMMON   BANK0   BANK1   BANK3   BANK2
  1845 ;;      Params:         0       4       0       0       0
  1846 ;;      Locals:         0       0       0       0       0
  1847 ;;      Temps:          4       0       0       0       0
  1848 ;;      Totals:         4       4       0       0       0
  1849 ;;Total ram usage:        8 bytes
  1850 ;; Hardware stack levels used: 1
  1851 ;; Hardware stack levels required when called: 1
  1852 ;; This function calls:
  1853 ;;		___aldiv
  1854 ;; This function is called by:
  1855 ;;		_main
  1856 ;; This function uses a non-reentrant model
  1857 ;;
  1858                           
  1859                           
  1860                           ;psect for function _PWM2_Init_Fre
  1861  0D4E                     _PWM2_Init_Fre:
  1862  0D4E                     l1840:	
  1863                           ;incstack = 0
  1864                           ; Regs used in _PWM2_Init_Fre: [wreg+status,2+status,0+pclath+cstack]
  1865                           
  1866                           
  1867                           ;./pwm.h: 16: PWM2_Init_Fre(long fre);./pwm.h: 17: {;./pwm.h: 18:   PR2 = (8000000/(freq
      +                          *4*4)) - 1;
  1868  0D4E  1683               	bsf	3,5	;RP0=1, select bank1
  1869  0D4F  1303               	bcf	3,6	;RP1=0, select bank1
  1870  0D50  082E               	movf	_freq^(0+128),w
  1871  0D51  00F9               	movwf	??_PWM2_Init_Fre
  1872  0D52  082F               	movf	(_freq+1)^(0+128),w
  1873  0D53  00FA               	movwf	??_PWM2_Init_Fre+1
  1874  0D54  0830               	movf	(_freq+2)^(0+128),w
  1875  0D55  00FB               	movwf	??_PWM2_Init_Fre+2
  1876  0D56  0831               	movf	(_freq+3)^(0+128),w
  1877  0D57  00FC               	movwf	??_PWM2_Init_Fre+3
  1878  0D58  3002               	movlw	2
  1879  0D59                     u2475:
  1880  0D59  1003               	clrc
  1881  0D5A  0DF9               	rlf	??_PWM2_Init_Fre,f
  1882  0D5B  0DFA               	rlf	??_PWM2_Init_Fre+1,f
  1883  0D5C  0DFB               	rlf	??_PWM2_Init_Fre+2,f
  1884  0D5D  0DFC               	rlf	??_PWM2_Init_Fre+3,f
  1885  0D5E                     u2470:
  1886  0D5E  3EFF               	addlw	-1
  1887  0D5F  1D03               	skipz
  1888  0D60  2D59               	goto	u2475
  1889  0D61  3002               	movlw	2
  1890  0D62                     u2485:
  1891  0D62  1003               	clrc
  1892  0D63  0DF9               	rlf	??_PWM2_Init_Fre,f
  1893  0D64  0DFA               	rlf	??_PWM2_Init_Fre+1,f
  1894  0D65  0DFB               	rlf	??_PWM2_Init_Fre+2,f
  1895  0D66  0DFC               	rlf	??_PWM2_Init_Fre+3,f
  1896  0D67                     u2480:
  1897  0D67  3EFF               	addlw	-1
  1898  0D68  1D03               	skipz
  1899  0D69  2D62               	goto	u2485
  1900  0D6A  087C               	movf	??_PWM2_Init_Fre+3,w
  1901  0D6B  00F3               	movwf	___aldiv@divisor+3
  1902  0D6C  087B               	movf	??_PWM2_Init_Fre+2,w
  1903  0D6D  00F2               	movwf	___aldiv@divisor+2
  1904  0D6E  087A               	movf	??_PWM2_Init_Fre+1,w
  1905  0D6F  00F1               	movwf	___aldiv@divisor+1
  1906  0D70  0879               	movf	??_PWM2_Init_Fre,w
  1907  0D71  00F0               	movwf	___aldiv@divisor
  1908  0D72  3000               	movlw	0
  1909  0D73  00F7               	movwf	___aldiv@dividend+3
  1910  0D74  307A               	movlw	122
  1911  0D75  00F6               	movwf	___aldiv@dividend+2
  1912  0D76  3012               	movlw	18
  1913  0D77  00F5               	movwf	___aldiv@dividend+1
  1914  0D78  3000               	movlw	0
  1915  0D79  00F4               	movwf	___aldiv@dividend
  1916  0D7A  120A  158A  2763  120A  158A  	fcall	___aldiv
  1917  0D7F  0870               	movf	?___aldiv,w
  1918  0D80  3EFF               	addlw	255
  1919  0D81  1683               	bsf	3,5	;RP0=1, select bank1
  1920  0D82  1303               	bcf	3,6	;RP1=0, select bank1
  1921  0D83  0092               	movwf	18	;volatile
  1922  0D84                     l1842:
  1923                           
  1924                           ;./pwm.h: 19:   freq = fre;
  1925  0D84  1283               	bcf	3,5	;RP0=0, select bank0
  1926  0D85  1303               	bcf	3,6	;RP1=0, select bank0
  1927  0D86  0829               	movf	PWM2_Init_Fre@fre+3,w
  1928  0D87  1683               	bsf	3,5	;RP0=1, select bank1
  1929  0D88  1303               	bcf	3,6	;RP1=0, select bank1
  1930  0D89  00B1               	movwf	(_freq+3)^(0+128)
  1931  0D8A  1283               	bcf	3,5	;RP0=0, select bank0
  1932  0D8B  1303               	bcf	3,6	;RP1=0, select bank0
  1933  0D8C  0828               	movf	PWM2_Init_Fre@fre+2,w
  1934  0D8D  1683               	bsf	3,5	;RP0=1, select bank1
  1935  0D8E  1303               	bcf	3,6	;RP1=0, select bank1
  1936  0D8F  00B0               	movwf	(_freq+2)^(0+128)
  1937  0D90  1283               	bcf	3,5	;RP0=0, select bank0
  1938  0D91  1303               	bcf	3,6	;RP1=0, select bank0
  1939  0D92  0827               	movf	PWM2_Init_Fre@fre+1,w
  1940  0D93  1683               	bsf	3,5	;RP0=1, select bank1
  1941  0D94  1303               	bcf	3,6	;RP1=0, select bank1
  1942  0D95  00AF               	movwf	(_freq+1)^(0+128)
  1943  0D96  1283               	bcf	3,5	;RP0=0, select bank0
  1944  0D97  1303               	bcf	3,6	;RP1=0, select bank0
  1945  0D98  0826               	movf	PWM2_Init_Fre@fre,w
  1946  0D99  1683               	bsf	3,5	;RP0=1, select bank1
  1947  0D9A  1303               	bcf	3,6	;RP1=0, select bank1
  1948  0D9B  00AE               	movwf	_freq^(0+128)
  1949  0D9C                     l122:
  1950  0D9C  0008               	return
  1951  0D9D                     __end_of_PWM2_Init_Fre:
  1952                           
  1953                           	psect	text11
  1954  0E32                     __ptext11:	
  1955 ;; *************** function _PWM2_Duty *****************
  1956 ;; Defined at:
  1957 ;;		line 29 in file "./pwm.h"
  1958 ;; Parameters:    Size  Location     Type
  1959 ;;  duty            2    5[BANK1 ] unsigned int 
  1960 ;; Auto vars:     Size  Location     Type
  1961 ;;		None
  1962 ;; Return value:  Size  Location     Type
  1963 ;;                  2    5[BANK1 ] int 
  1964 ;; Registers used:
  1965 ;;		wreg, status,2, status,0, btemp+1, pclath, cstack
  1966 ;; Tracked objects:
  1967 ;;		On entry : 0/0
  1968 ;;		On exit  : 0/0
  1969 ;;		Unchanged: 0/0
  1970 ;; Data sizes:     COMMON   BANK0   BANK1   BANK3   BANK2
  1971 ;;      Params:         0       0       2       0       0
  1972 ;;      Locals:         0       0       0       0       0
  1973 ;;      Temps:          0       0       2       0       0
  1974 ;;      Totals:         0       0       4       0       0
  1975 ;;Total ram usage:        4 bytes
  1976 ;; Hardware stack levels used: 1
  1977 ;; Hardware stack levels required when called: 2
  1978 ;; This function calls:
  1979 ;;		_PWM_Max_Duty
  1980 ;;		___fldiv
  1981 ;;		___flmul
  1982 ;;		___fltol
  1983 ;;		___xxtofl
  1984 ;; This function is called by:
  1985 ;;		_main
  1986 ;; This function uses a non-reentrant model
  1987 ;;
  1988                           
  1989                           
  1990                           ;psect for function _PWM2_Duty
  1991  0E32                     _PWM2_Duty:
  1992  0E32                     l1852:	
  1993                           ;incstack = 0
  1994                           ; Regs used in _PWM2_Duty: [wreg+status,2+status,0+btemp+1+pclath+cstack]
  1995                           
  1996                           
  1997                           ;./pwm.h: 29: PWM2_Duty(unsigned int duty);./pwm.h: 30: {;./pwm.h: 31:     duty = ((floa
      +                          t)duty/100.0)*PWM_Max_Duty();
  1998  0E32  1683               	bsf	3,5	;RP0=1, select bank1
  1999  0E33  1303               	bcf	3,6	;RP1=0, select bank1
  2000  0E34  0825               	movf	PWM2_Duty@duty^(0+128),w
  2001  0E35  1283               	bcf	3,5	;RP0=0, select bank0
  2002  0E36  1303               	bcf	3,6	;RP1=0, select bank0
  2003  0E37  00A8               	movwf	___xxtofl@val
  2004  0E38  1683               	bsf	3,5	;RP0=1, select bank1
  2005  0E39  1303               	bcf	3,6	;RP1=0, select bank1
  2006  0E3A  0826               	movf	(PWM2_Duty@duty+1)^(0+128),w
  2007  0E3B  1283               	bcf	3,5	;RP0=0, select bank0
  2008  0E3C  1303               	bcf	3,6	;RP1=0, select bank0
  2009  0E3D  00A9               	movwf	___xxtofl@val+1
  2010  0E3E  01AA               	clrf	___xxtofl@val+2
  2011  0E3F  01AB               	clrf	___xxtofl@val+3
  2012  0E40  3000               	movlw	0
  2013  0E41  120A  118A  2047  120A  158A  	fcall	___xxtofl
  2014  0E46  1283               	bcf	3,5	;RP0=0, select bank0
  2015  0E47  1303               	bcf	3,6	;RP1=0, select bank0
  2016  0E48  082B               	movf	?___xxtofl+3,w
  2017  0E49  00BD               	movwf	___fldiv@b+3
  2018  0E4A  082A               	movf	?___xxtofl+2,w
  2019  0E4B  00BC               	movwf	___fldiv@b+2
  2020  0E4C  0829               	movf	?___xxtofl+1,w
  2021  0E4D  00BB               	movwf	___fldiv@b+1
  2022  0E4E  0828               	movf	?___xxtofl,w
  2023  0E4F  00BA               	movwf	___fldiv@b
  2024  0E50  3042               	movlw	66
  2025  0E51  00B9               	movwf	___fldiv@a+3
  2026  0E52  30C8               	movlw	200
  2027  0E53  00B8               	movwf	___fldiv@a+2
  2028  0E54  3000               	movlw	0
  2029  0E55  00B7               	movwf	___fldiv@a+1
  2030  0E56  3000               	movlw	0
  2031  0E57  00B6               	movwf	___fldiv@a
  2032  0E58  120A  118A  22B8  120A  158A  	fcall	___fldiv
  2033  0E5D  1283               	bcf	3,5	;RP0=0, select bank0
  2034  0E5E  1303               	bcf	3,6	;RP1=0, select bank0
  2035  0E5F  0839               	movf	?___fldiv+3,w
  2036  0E60  00D7               	movwf	___flmul@a+3
  2037  0E61  0838               	movf	?___fldiv+2,w
  2038  0E62  00D6               	movwf	___flmul@a+2
  2039  0E63  0837               	movf	?___fldiv+1,w
  2040  0E64  00D5               	movwf	___flmul@a+1
  2041  0E65  0836               	movf	?___fldiv,w
  2042  0E66  00D4               	movwf	___flmul@a
  2043  0E67  120A  118A  2018  120A  158A  	fcall	_PWM_Max_Duty
  2044  0E6C  1283               	bcf	3,5	;RP0=0, select bank0
  2045  0E6D  1303               	bcf	3,6	;RP1=0, select bank0
  2046  0E6E  0826               	movf	?_PWM_Max_Duty,w
  2047  0E6F  00A8               	movwf	___xxtofl@val
  2048  0E70  0827               	movf	?_PWM_Max_Duty+1,w
  2049  0E71  00A9               	movwf	___xxtofl@val+1
  2050  0E72  3000               	movlw	0
  2051  0E73  1BA9               	btfsc	___xxtofl@val+1,7
  2052  0E74  30FF               	movlw	255
  2053  0E75  00AA               	movwf	___xxtofl@val+2
  2054  0E76  00AB               	movwf	___xxtofl@val+3
  2055  0E77  3001               	movlw	1
  2056  0E78  120A  118A  2047  120A  158A  	fcall	___xxtofl
  2057  0E7D  1283               	bcf	3,5	;RP0=0, select bank0
  2058  0E7E  1303               	bcf	3,6	;RP1=0, select bank0
  2059  0E7F  082B               	movf	?___xxtofl+3,w
  2060  0E80  00D3               	movwf	___flmul@b+3
  2061  0E81  082A               	movf	?___xxtofl+2,w
  2062  0E82  00D2               	movwf	___flmul@b+2
  2063  0E83  0829               	movf	?___xxtofl+1,w
  2064  0E84  00D1               	movwf	___flmul@b+1
  2065  0E85  0828               	movf	?___xxtofl,w
  2066  0E86  00D0               	movwf	___flmul@b
  2067  0E87  120A  118A  2495  120A  158A  	fcall	___flmul
  2068  0E8C  1283               	bcf	3,5	;RP0=0, select bank0
  2069  0E8D  1303               	bcf	3,6	;RP1=0, select bank0
  2070  0E8E  0853               	movf	?___flmul+3,w
  2071  0E8F  00ED               	movwf	___fltol@f1+3
  2072  0E90  0852               	movf	?___flmul+2,w
  2073  0E91  00EC               	movwf	___fltol@f1+2
  2074  0E92  0851               	movf	?___flmul+1,w
  2075  0E93  00EB               	movwf	___fltol@f1+1
  2076  0E94  0850               	movf	?___flmul,w
  2077  0E95  00EA               	movwf	___fltol@f1
  2078  0E96  120A  158A  26C7  120A  158A  	fcall	___fltol
  2079  0E9B  1283               	bcf	3,5	;RP0=0, select bank0
  2080  0E9C  1303               	bcf	3,6	;RP1=0, select bank0
  2081  0E9D  086B               	movf	?___fltol+1,w
  2082  0E9E  1683               	bsf	3,5	;RP0=1, select bank1
  2083  0E9F  1303               	bcf	3,6	;RP1=0, select bank1
  2084  0EA0  00A6               	movwf	(PWM2_Duty@duty+1)^(0+128)
  2085  0EA1  1283               	bcf	3,5	;RP0=0, select bank0
  2086  0EA2  1303               	bcf	3,6	;RP1=0, select bank0
  2087  0EA3  086A               	movf	?___fltol,w
  2088  0EA4  1683               	bsf	3,5	;RP0=1, select bank1
  2089  0EA5  1303               	bcf	3,6	;RP1=0, select bank1
  2090  0EA6  00A5               	movwf	PWM2_Duty@duty^(0+128)
  2091  0EA7                     l1854:
  2092                           
  2093                           ;./pwm.h: 32:     CCP2X = duty & 2;
  2094  0EA7  1283               	bcf	3,5	;RP0=0, select bank0
  2095  0EA8  1303               	bcf	3,6	;RP1=0, select bank0
  2096  0EA9  129D               	bcf	29,5	;volatile
  2097  0EAA                     l1856:
  2098                           
  2099                           ;./pwm.h: 33:     CCP2Y = duty & 1;
  2100  0EAA  1683               	bsf	3,5	;RP0=1, select bank1
  2101  0EAB  1303               	bcf	3,6	;RP1=0, select bank1
  2102  0EAC  1825               	btfsc	PWM2_Duty@duty^(0+128),0
  2103  0EAD  2EAF               	goto	u2511
  2104  0EAE  2EB3               	goto	u2510
  2105  0EAF                     u2511:
  2106  0EAF  1283               	bcf	3,5	;RP0=0, select bank0
  2107  0EB0  1303               	bcf	3,6	;RP1=0, select bank0
  2108  0EB1  161D               	bsf	29,4	;volatile
  2109  0EB2  2EB6               	goto	u2524
  2110  0EB3                     u2510:
  2111  0EB3  1283               	bcf	3,5	;RP0=0, select bank0
  2112  0EB4  1303               	bcf	3,6	;RP1=0, select bank0
  2113  0EB5  121D               	bcf	29,4	;volatile
  2114  0EB6                     u2524:
  2115  0EB6                     l1858:
  2116                           
  2117                           ;./pwm.h: 34:     CCPR2L = duty>>2;
  2118  0EB6  1683               	bsf	3,5	;RP0=1, select bank1
  2119  0EB7  1303               	bcf	3,6	;RP1=0, select bank1
  2120  0EB8  0826               	movf	(PWM2_Duty@duty+1)^(0+128),w
  2121  0EB9  00A8               	movwf	(??_PWM2_Duty^(0+128)+1)
  2122  0EBA  0825               	movf	PWM2_Duty@duty^(0+128),w
  2123  0EBB  00A7               	movwf	??_PWM2_Duty^(0+128)
  2124  0EBC  1003               	clrc
  2125  0EBD  0CA8               	rrf	(??_PWM2_Duty^(0+128)+1),f
  2126  0EBE  0CA7               	rrf	??_PWM2_Duty^(0+128),f
  2127  0EBF  1003               	clrc
  2128  0EC0  0CA8               	rrf	(??_PWM2_Duty^(0+128)+1),f
  2129  0EC1  0CA7               	rrf	??_PWM2_Duty^(0+128),f
  2130  0EC2  0827               	movf	??_PWM2_Duty^(0+128),w
  2131  0EC3  1283               	bcf	3,5	;RP0=0, select bank0
  2132  0EC4  1303               	bcf	3,6	;RP1=0, select bank0
  2133  0EC5  009B               	movwf	27	;volatile
  2134  0EC6                     l128:
  2135  0EC6  0008               	return
  2136  0EC7                     __end_of_PWM2_Duty:
  2137                           
  2138                           	psect	text12
  2139  0C7B                     __ptext12:	
  2140 ;; *************** function _PWM1_Start *****************
  2141 ;; Defined at:
  2142 ;;		line 37 in file "./pwm.h"
  2143 ;; Parameters:    Size  Location     Type
  2144 ;;		None
  2145 ;; Auto vars:     Size  Location     Type
  2146 ;;		None
  2147 ;; Return value:  Size  Location     Type
  2148 ;;                  2  130[None  ] int 
  2149 ;; Registers used:
  2150 ;;		None
  2151 ;; Tracked objects:
  2152 ;;		On entry : 0/0
  2153 ;;		On exit  : 0/0
  2154 ;;		Unchanged: 0/0
  2155 ;; Data sizes:     COMMON   BANK0   BANK1   BANK3   BANK2
  2156 ;;      Params:         0       0       0       0       0
  2157 ;;      Locals:         0       0       0       0       0
  2158 ;;      Temps:          0       0       0       0       0
  2159 ;;      Totals:         0       0       0       0       0
  2160 ;;Total ram usage:        0 bytes
  2161 ;; Hardware stack levels used: 1
  2162 ;; This function calls:
  2163 ;;		Nothing
  2164 ;; This function is called by:
  2165 ;;		_main
  2166 ;; This function uses a non-reentrant model
  2167 ;;
  2168                           
  2169                           
  2170                           ;psect for function _PWM1_Start
  2171  0C7B                     _PWM1_Start:
  2172  0C7B                     l1860:	
  2173                           ;incstack = 0
  2174                           ; Regs used in _PWM1_Start: []
  2175                           
  2176                           
  2177                           ;./pwm.h: 39:   CCP1CONbits.CCP1M3 = 1;
  2178  0C7B  1283               	bcf	3,5	;RP0=0, select bank0
  2179  0C7C  1303               	bcf	3,6	;RP1=0, select bank0
  2180  0C7D  1597               	bsf	23,3	;volatile
  2181                           
  2182                           ;./pwm.h: 40:   CCP1CONbits.CCP1M2 = 1;
  2183  0C7E  1517               	bsf	23,2	;volatile
  2184                           
  2185                           ;./pwm.h: 45:     T2CONbits.T2CKPS0 = 1;
  2186  0C7F  1412               	bsf	18,0	;volatile
  2187                           
  2188                           ;./pwm.h: 46:     T2CONbits.T2CKPS1 = 0;
  2189  0C80  1092               	bcf	18,1	;volatile
  2190                           
  2191                           ;./pwm.h: 51:   T2CONbits.TMR2ON = 1;
  2192  0C81  1512               	bsf	18,2	;volatile
  2193                           
  2194                           ;./pwm.h: 52:   TRISCbits.TRISC2 = 0;
  2195  0C82  1683               	bsf	3,5	;RP0=1, select bank1
  2196  0C83  1303               	bcf	3,6	;RP1=0, select bank1
  2197  0C84  1107               	bcf	7,2	;volatile
  2198  0C85                     l131:
  2199  0C85  0008               	return
  2200  0C86                     __end_of_PWM1_Start:
  2201                           
  2202                           	psect	text13
  2203  0CFF                     __ptext13:	
  2204 ;; *************** function _PWM1_Init_Fre *****************
  2205 ;; Defined at:
  2206 ;;		line 11 in file "./pwm.h"
  2207 ;; Parameters:    Size  Location     Type
  2208 ;;  fre             4    6[BANK0 ] long 
  2209 ;; Auto vars:     Size  Location     Type
  2210 ;;		None
  2211 ;; Return value:  Size  Location     Type
  2212 ;;                  2    6[BANK0 ] int 
  2213 ;; Registers used:
  2214 ;;		wreg, status,2, status,0, pclath, cstack
  2215 ;; Tracked objects:
  2216 ;;		On entry : 0/0
  2217 ;;		On exit  : 0/0
  2218 ;;		Unchanged: 0/0
  2219 ;; Data sizes:     COMMON   BANK0   BANK1   BANK3   BANK2
  2220 ;;      Params:         0       4       0       0       0
  2221 ;;      Locals:         0       0       0       0       0
  2222 ;;      Temps:          4       0       0       0       0
  2223 ;;      Totals:         4       4       0       0       0
  2224 ;;Total ram usage:        8 bytes
  2225 ;; Hardware stack levels used: 1
  2226 ;; Hardware stack levels required when called: 1
  2227 ;; This function calls:
  2228 ;;		___aldiv
  2229 ;; This function is called by:
  2230 ;;		_main
  2231 ;; This function uses a non-reentrant model
  2232 ;;
  2233                           
  2234                           
  2235                           ;psect for function _PWM1_Init_Fre
  2236  0CFF                     _PWM1_Init_Fre:
  2237  0CFF                     l1836:	
  2238                           ;incstack = 0
  2239                           ; Regs used in _PWM1_Init_Fre: [wreg+status,2+status,0+pclath+cstack]
  2240                           
  2241                           
  2242                           ;./pwm.h: 11: PWM1_Init_Fre(long fre);./pwm.h: 12: {;./pwm.h: 13:   PR2 = (8000000/(freq
      +                          *4*4)) - 1;
  2243  0CFF  1683               	bsf	3,5	;RP0=1, select bank1
  2244  0D00  1303               	bcf	3,6	;RP1=0, select bank1
  2245  0D01  082E               	movf	_freq^(0+128),w
  2246  0D02  00F9               	movwf	??_PWM1_Init_Fre
  2247  0D03  082F               	movf	(_freq+1)^(0+128),w
  2248  0D04  00FA               	movwf	??_PWM1_Init_Fre+1
  2249  0D05  0830               	movf	(_freq+2)^(0+128),w
  2250  0D06  00FB               	movwf	??_PWM1_Init_Fre+2
  2251  0D07  0831               	movf	(_freq+3)^(0+128),w
  2252  0D08  00FC               	movwf	??_PWM1_Init_Fre+3
  2253  0D09  3002               	movlw	2
  2254  0D0A                     u2455:
  2255  0D0A  1003               	clrc
  2256  0D0B  0DF9               	rlf	??_PWM1_Init_Fre,f
  2257  0D0C  0DFA               	rlf	??_PWM1_Init_Fre+1,f
  2258  0D0D  0DFB               	rlf	??_PWM1_Init_Fre+2,f
  2259  0D0E  0DFC               	rlf	??_PWM1_Init_Fre+3,f
  2260  0D0F                     u2450:
  2261  0D0F  3EFF               	addlw	-1
  2262  0D10  1D03               	skipz
  2263  0D11  2D0A               	goto	u2455
  2264  0D12  3002               	movlw	2
  2265  0D13                     u2465:
  2266  0D13  1003               	clrc
  2267  0D14  0DF9               	rlf	??_PWM1_Init_Fre,f
  2268  0D15  0DFA               	rlf	??_PWM1_Init_Fre+1,f
  2269  0D16  0DFB               	rlf	??_PWM1_Init_Fre+2,f
  2270  0D17  0DFC               	rlf	??_PWM1_Init_Fre+3,f
  2271  0D18                     u2460:
  2272  0D18  3EFF               	addlw	-1
  2273  0D19  1D03               	skipz
  2274  0D1A  2D13               	goto	u2465
  2275  0D1B  087C               	movf	??_PWM1_Init_Fre+3,w
  2276  0D1C  00F3               	movwf	___aldiv@divisor+3
  2277  0D1D  087B               	movf	??_PWM1_Init_Fre+2,w
  2278  0D1E  00F2               	movwf	___aldiv@divisor+2
  2279  0D1F  087A               	movf	??_PWM1_Init_Fre+1,w
  2280  0D20  00F1               	movwf	___aldiv@divisor+1
  2281  0D21  0879               	movf	??_PWM1_Init_Fre,w
  2282  0D22  00F0               	movwf	___aldiv@divisor
  2283  0D23  3000               	movlw	0
  2284  0D24  00F7               	movwf	___aldiv@dividend+3
  2285  0D25  307A               	movlw	122
  2286  0D26  00F6               	movwf	___aldiv@dividend+2
  2287  0D27  3012               	movlw	18
  2288  0D28  00F5               	movwf	___aldiv@dividend+1
  2289  0D29  3000               	movlw	0
  2290  0D2A  00F4               	movwf	___aldiv@dividend
  2291  0D2B  120A  158A  2763  120A  158A  	fcall	___aldiv
  2292  0D30  0870               	movf	?___aldiv,w
  2293  0D31  3EFF               	addlw	255
  2294  0D32  1683               	bsf	3,5	;RP0=1, select bank1
  2295  0D33  1303               	bcf	3,6	;RP1=0, select bank1
  2296  0D34  0092               	movwf	18	;volatile
  2297  0D35                     l1838:
  2298                           
  2299                           ;./pwm.h: 14:   freq = fre;
  2300  0D35  1283               	bcf	3,5	;RP0=0, select bank0
  2301  0D36  1303               	bcf	3,6	;RP1=0, select bank0
  2302  0D37  0829               	movf	PWM1_Init_Fre@fre+3,w
  2303  0D38  1683               	bsf	3,5	;RP0=1, select bank1
  2304  0D39  1303               	bcf	3,6	;RP1=0, select bank1
  2305  0D3A  00B1               	movwf	(_freq+3)^(0+128)
  2306  0D3B  1283               	bcf	3,5	;RP0=0, select bank0
  2307  0D3C  1303               	bcf	3,6	;RP1=0, select bank0
  2308  0D3D  0828               	movf	PWM1_Init_Fre@fre+2,w
  2309  0D3E  1683               	bsf	3,5	;RP0=1, select bank1
  2310  0D3F  1303               	bcf	3,6	;RP1=0, select bank1
  2311  0D40  00B0               	movwf	(_freq+2)^(0+128)
  2312  0D41  1283               	bcf	3,5	;RP0=0, select bank0
  2313  0D42  1303               	bcf	3,6	;RP1=0, select bank0
  2314  0D43  0827               	movf	PWM1_Init_Fre@fre+1,w
  2315  0D44  1683               	bsf	3,5	;RP0=1, select bank1
  2316  0D45  1303               	bcf	3,6	;RP1=0, select bank1
  2317  0D46  00AF               	movwf	(_freq+1)^(0+128)
  2318  0D47  1283               	bcf	3,5	;RP0=0, select bank0
  2319  0D48  1303               	bcf	3,6	;RP1=0, select bank0
  2320  0D49  0826               	movf	PWM1_Init_Fre@fre,w
  2321  0D4A  1683               	bsf	3,5	;RP0=1, select bank1
  2322  0D4B  1303               	bcf	3,6	;RP1=0, select bank1
  2323  0D4C  00AE               	movwf	_freq^(0+128)
  2324  0D4D                     l119:
  2325  0D4D  0008               	return
  2326  0D4E                     __end_of_PWM1_Init_Fre:
  2327                           
  2328                           	psect	text14
  2329  0D9D                     __ptext14:	
  2330 ;; *************** function _PWM1_Duty *****************
  2331 ;; Defined at:
  2332 ;;		line 22 in file "./pwm.h"
  2333 ;; Parameters:    Size  Location     Type
  2334 ;;  duty            2    5[BANK1 ] unsigned int 
  2335 ;; Auto vars:     Size  Location     Type
  2336 ;;		None
  2337 ;; Return value:  Size  Location     Type
  2338 ;;                  2    5[BANK1 ] int 
  2339 ;; Registers used:
  2340 ;;		wreg, status,2, status,0, btemp+1, pclath, cstack
  2341 ;; Tracked objects:
  2342 ;;		On entry : 0/0
  2343 ;;		On exit  : 0/0
  2344 ;;		Unchanged: 0/0
  2345 ;; Data sizes:     COMMON   BANK0   BANK1   BANK3   BANK2
  2346 ;;      Params:         0       0       2       0       0
  2347 ;;      Locals:         0       0       0       0       0
  2348 ;;      Temps:          0       0       2       0       0
  2349 ;;      Totals:         0       0       4       0       0
  2350 ;;Total ram usage:        4 bytes
  2351 ;; Hardware stack levels used: 1
  2352 ;; Hardware stack levels required when called: 2
  2353 ;; This function calls:
  2354 ;;		_PWM_Max_Duty
  2355 ;;		___fldiv
  2356 ;;		___flmul
  2357 ;;		___fltol
  2358 ;;		___xxtofl
  2359 ;; This function is called by:
  2360 ;;		_main
  2361 ;; This function uses a non-reentrant model
  2362 ;;
  2363                           
  2364                           
  2365                           ;psect for function _PWM1_Duty
  2366  0D9D                     _PWM1_Duty:
  2367  0D9D                     l1844:	
  2368                           ;incstack = 0
  2369                           ; Regs used in _PWM1_Duty: [wreg+status,2+status,0+btemp+1+pclath+cstack]
  2370                           
  2371                           
  2372                           ;./pwm.h: 22: PWM1_Duty(unsigned int duty);./pwm.h: 23: {;./pwm.h: 24:     duty = ((floa
      +                          t)duty/100.0)*PWM_Max_Duty();
  2373  0D9D  1683               	bsf	3,5	;RP0=1, select bank1
  2374  0D9E  1303               	bcf	3,6	;RP1=0, select bank1
  2375  0D9F  0825               	movf	PWM1_Duty@duty^(0+128),w
  2376  0DA0  1283               	bcf	3,5	;RP0=0, select bank0
  2377  0DA1  1303               	bcf	3,6	;RP1=0, select bank0
  2378  0DA2  00A8               	movwf	___xxtofl@val
  2379  0DA3  1683               	bsf	3,5	;RP0=1, select bank1
  2380  0DA4  1303               	bcf	3,6	;RP1=0, select bank1
  2381  0DA5  0826               	movf	(PWM1_Duty@duty+1)^(0+128),w
  2382  0DA6  1283               	bcf	3,5	;RP0=0, select bank0
  2383  0DA7  1303               	bcf	3,6	;RP1=0, select bank0
  2384  0DA8  00A9               	movwf	___xxtofl@val+1
  2385  0DA9  01AA               	clrf	___xxtofl@val+2
  2386  0DAA  01AB               	clrf	___xxtofl@val+3
  2387  0DAB  3000               	movlw	0
  2388  0DAC  120A  118A  2047  120A  158A  	fcall	___xxtofl
  2389  0DB1  1283               	bcf	3,5	;RP0=0, select bank0
  2390  0DB2  1303               	bcf	3,6	;RP1=0, select bank0
  2391  0DB3  082B               	movf	?___xxtofl+3,w
  2392  0DB4  00BD               	movwf	___fldiv@b+3
  2393  0DB5  082A               	movf	?___xxtofl+2,w
  2394  0DB6  00BC               	movwf	___fldiv@b+2
  2395  0DB7  0829               	movf	?___xxtofl+1,w
  2396  0DB8  00BB               	movwf	___fldiv@b+1
  2397  0DB9  0828               	movf	?___xxtofl,w
  2398  0DBA  00BA               	movwf	___fldiv@b
  2399  0DBB  3042               	movlw	66
  2400  0DBC  00B9               	movwf	___fldiv@a+3
  2401  0DBD  30C8               	movlw	200
  2402  0DBE  00B8               	movwf	___fldiv@a+2
  2403  0DBF  3000               	movlw	0
  2404  0DC0  00B7               	movwf	___fldiv@a+1
  2405  0DC1  3000               	movlw	0
  2406  0DC2  00B6               	movwf	___fldiv@a
  2407  0DC3  120A  118A  22B8  120A  158A  	fcall	___fldiv
  2408  0DC8  1283               	bcf	3,5	;RP0=0, select bank0
  2409  0DC9  1303               	bcf	3,6	;RP1=0, select bank0
  2410  0DCA  0839               	movf	?___fldiv+3,w
  2411  0DCB  00D7               	movwf	___flmul@a+3
  2412  0DCC  0838               	movf	?___fldiv+2,w
  2413  0DCD  00D6               	movwf	___flmul@a+2
  2414  0DCE  0837               	movf	?___fldiv+1,w
  2415  0DCF  00D5               	movwf	___flmul@a+1
  2416  0DD0  0836               	movf	?___fldiv,w
  2417  0DD1  00D4               	movwf	___flmul@a
  2418  0DD2  120A  118A  2018  120A  158A  	fcall	_PWM_Max_Duty
  2419  0DD7  1283               	bcf	3,5	;RP0=0, select bank0
  2420  0DD8  1303               	bcf	3,6	;RP1=0, select bank0
  2421  0DD9  0826               	movf	?_PWM_Max_Duty,w
  2422  0DDA  00A8               	movwf	___xxtofl@val
  2423  0DDB  0827               	movf	?_PWM_Max_Duty+1,w
  2424  0DDC  00A9               	movwf	___xxtofl@val+1
  2425  0DDD  3000               	movlw	0
  2426  0DDE  1BA9               	btfsc	___xxtofl@val+1,7
  2427  0DDF  30FF               	movlw	255
  2428  0DE0  00AA               	movwf	___xxtofl@val+2
  2429  0DE1  00AB               	movwf	___xxtofl@val+3
  2430  0DE2  3001               	movlw	1
  2431  0DE3  120A  118A  2047  120A  158A  	fcall	___xxtofl
  2432  0DE8  1283               	bcf	3,5	;RP0=0, select bank0
  2433  0DE9  1303               	bcf	3,6	;RP1=0, select bank0
  2434  0DEA  082B               	movf	?___xxtofl+3,w
  2435  0DEB  00D3               	movwf	___flmul@b+3
  2436  0DEC  082A               	movf	?___xxtofl+2,w
  2437  0DED  00D2               	movwf	___flmul@b+2
  2438  0DEE  0829               	movf	?___xxtofl+1,w
  2439  0DEF  00D1               	movwf	___flmul@b+1
  2440  0DF0  0828               	movf	?___xxtofl,w
  2441  0DF1  00D0               	movwf	___flmul@b
  2442  0DF2  120A  118A  2495  120A  158A  	fcall	___flmul
  2443  0DF7  1283               	bcf	3,5	;RP0=0, select bank0
  2444  0DF8  1303               	bcf	3,6	;RP1=0, select bank0
  2445  0DF9  0853               	movf	?___flmul+3,w
  2446  0DFA  00ED               	movwf	___fltol@f1+3
  2447  0DFB  0852               	movf	?___flmul+2,w
  2448  0DFC  00EC               	movwf	___fltol@f1+2
  2449  0DFD  0851               	movf	?___flmul+1,w
  2450  0DFE  00EB               	movwf	___fltol@f1+1
  2451  0DFF  0850               	movf	?___flmul,w
  2452  0E00  00EA               	movwf	___fltol@f1
  2453  0E01  120A  158A  26C7  120A  158A  	fcall	___fltol
  2454  0E06  1283               	bcf	3,5	;RP0=0, select bank0
  2455  0E07  1303               	bcf	3,6	;RP1=0, select bank0
  2456  0E08  086B               	movf	?___fltol+1,w
  2457  0E09  1683               	bsf	3,5	;RP0=1, select bank1
  2458  0E0A  1303               	bcf	3,6	;RP1=0, select bank1
  2459  0E0B  00A6               	movwf	(PWM1_Duty@duty+1)^(0+128)
  2460  0E0C  1283               	bcf	3,5	;RP0=0, select bank0
  2461  0E0D  1303               	bcf	3,6	;RP1=0, select bank0
  2462  0E0E  086A               	movf	?___fltol,w
  2463  0E0F  1683               	bsf	3,5	;RP0=1, select bank1
  2464  0E10  1303               	bcf	3,6	;RP1=0, select bank1
  2465  0E11  00A5               	movwf	PWM1_Duty@duty^(0+128)
  2466  0E12                     l1846:
  2467                           
  2468                           ;./pwm.h: 25:     CCP1X = duty & 2;
  2469  0E12  1283               	bcf	3,5	;RP0=0, select bank0
  2470  0E13  1303               	bcf	3,6	;RP1=0, select bank0
  2471  0E14  1297               	bcf	23,5	;volatile
  2472  0E15                     l1848:
  2473                           
  2474                           ;./pwm.h: 26:     CCP1Y = duty & 1;
  2475  0E15  1683               	bsf	3,5	;RP0=1, select bank1
  2476  0E16  1303               	bcf	3,6	;RP1=0, select bank1
  2477  0E17  1825               	btfsc	PWM1_Duty@duty^(0+128),0
  2478  0E18  2E1A               	goto	u2491
  2479  0E19  2E1E               	goto	u2490
  2480  0E1A                     u2491:
  2481  0E1A  1283               	bcf	3,5	;RP0=0, select bank0
  2482  0E1B  1303               	bcf	3,6	;RP1=0, select bank0
  2483  0E1C  1617               	bsf	23,4	;volatile
  2484  0E1D  2E21               	goto	u2504
  2485  0E1E                     u2490:
  2486  0E1E  1283               	bcf	3,5	;RP0=0, select bank0
  2487  0E1F  1303               	bcf	3,6	;RP1=0, select bank0
  2488  0E20  1217               	bcf	23,4	;volatile
  2489  0E21                     u2504:
  2490  0E21                     l1850:
  2491                           
  2492                           ;./pwm.h: 27:     CCPR1L = duty>>2;
  2493  0E21  1683               	bsf	3,5	;RP0=1, select bank1
  2494  0E22  1303               	bcf	3,6	;RP1=0, select bank1
  2495  0E23  0826               	movf	(PWM1_Duty@duty+1)^(0+128),w
  2496  0E24  00A8               	movwf	(??_PWM1_Duty^(0+128)+1)
  2497  0E25  0825               	movf	PWM1_Duty@duty^(0+128),w
  2498  0E26  00A7               	movwf	??_PWM1_Duty^(0+128)
  2499  0E27  1003               	clrc
  2500  0E28  0CA8               	rrf	(??_PWM1_Duty^(0+128)+1),f
  2501  0E29  0CA7               	rrf	??_PWM1_Duty^(0+128),f
  2502  0E2A  1003               	clrc
  2503  0E2B  0CA8               	rrf	(??_PWM1_Duty^(0+128)+1),f
  2504  0E2C  0CA7               	rrf	??_PWM1_Duty^(0+128),f
  2505  0E2D  0827               	movf	??_PWM1_Duty^(0+128),w
  2506  0E2E  1283               	bcf	3,5	;RP0=0, select bank0
  2507  0E2F  1303               	bcf	3,6	;RP1=0, select bank0
  2508  0E30  0095               	movwf	21	;volatile
  2509  0E31                     l125:
  2510  0E31  0008               	return
  2511  0E32                     __end_of_PWM1_Duty:
  2512                           
  2513                           	psect	text15
  2514  0047                     __ptext15:	
  2515 ;; *************** function ___xxtofl *****************
  2516 ;; Defined at:
  2517 ;;		line 10 in file "C:\Program Files\Microchip\xc8\v2.32\pic\sources\c90\common\xxtofl.c"
  2518 ;; Parameters:    Size  Location     Type
  2519 ;;  sign            1    wreg     unsigned char 
  2520 ;;  val             4    8[BANK0 ] long 
  2521 ;; Auto vars:     Size  Location     Type
  2522 ;;  sign            1   16[BANK0 ] unsigned char 
  2523 ;;  arg             4   18[BANK0 ] unsigned long 
  2524 ;;  exp             1   17[BANK0 ] unsigned char 
  2525 ;; Return value:  Size  Location     Type
  2526 ;;                  4    8[BANK0 ] unsigned char 
  2527 ;; Registers used:
  2528 ;;		wreg, status,2, status,0
  2529 ;; Tracked objects:
  2530 ;;		On entry : 0/0
  2531 ;;		On exit  : 0/0
  2532 ;;		Unchanged: 0/0
  2533 ;; Data sizes:     COMMON   BANK0   BANK1   BANK3   BANK2
  2534 ;;      Params:         0       4       0       0       0
  2535 ;;      Locals:         0       6       0       0       0
  2536 ;;      Temps:          0       4       0       0       0
  2537 ;;      Totals:         0      14       0       0       0
  2538 ;;Total ram usage:       14 bytes
  2539 ;; Hardware stack levels used: 1
  2540 ;; This function calls:
  2541 ;;		Nothing
  2542 ;; This function is called by:
  2543 ;;		_PWM1_Duty
  2544 ;;		_PWM2_Duty
  2545 ;; This function uses a non-reentrant model
  2546 ;;
  2547                           
  2548                           
  2549                           ;psect for function ___xxtofl
  2550  0047                     ___xxtofl:
  2551                           
  2552                           ;incstack = 0
  2553                           ; Regs used in ___xxtofl: [wreg+status,2+status,0]
  2554                           ;___xxtofl@sign stored from wreg
  2555  0047  1283               	bcf	3,5	;RP0=0, select bank0
  2556  0048  1303               	bcf	3,6	;RP1=0, select bank0
  2557  0049  00B0               	movwf	___xxtofl@sign
  2558  004A                     l1758:
  2559  004A  0830               	movf	___xxtofl@sign,w
  2560  004B  1903               	btfsc	3,2
  2561  004C  284E               	goto	u2221
  2562  004D  284F               	goto	u2220
  2563  004E                     u2221:
  2564  004E  2863               	goto	l1764
  2565  004F                     u2220:
  2566  004F                     l1760:
  2567  004F  1FAB               	btfss	___xxtofl@val+3,7
  2568  0050  2852               	goto	u2231
  2569  0051  2853               	goto	u2230
  2570  0052                     u2231:
  2571  0052  2863               	goto	l1764
  2572  0053                     u2230:
  2573  0053                     l1762:
  2574  0053  0928               	comf	___xxtofl@val,w
  2575  0054  00B2               	movwf	___xxtofl@arg
  2576  0055  0929               	comf	___xxtofl@val+1,w
  2577  0056  00B3               	movwf	___xxtofl@arg+1
  2578  0057  092A               	comf	___xxtofl@val+2,w
  2579  0058  00B4               	movwf	___xxtofl@arg+2
  2580  0059  092B               	comf	___xxtofl@val+3,w
  2581  005A  00B5               	movwf	___xxtofl@arg+3
  2582  005B  0AB2               	incf	___xxtofl@arg,f
  2583  005C  1903               	skipnz
  2584  005D  0AB3               	incf	___xxtofl@arg+1,f
  2585  005E  1903               	skipnz
  2586  005F  0AB4               	incf	___xxtofl@arg+2,f
  2587  0060  1903               	skipnz
  2588  0061  0AB5               	incf	___xxtofl@arg+3,f
  2589  0062  286B               	goto	l703
  2590  0063                     l1764:
  2591  0063  082B               	movf	___xxtofl@val+3,w
  2592  0064  00B5               	movwf	___xxtofl@arg+3
  2593  0065  082A               	movf	___xxtofl@val+2,w
  2594  0066  00B4               	movwf	___xxtofl@arg+2
  2595  0067  0829               	movf	___xxtofl@val+1,w
  2596  0068  00B3               	movwf	___xxtofl@arg+1
  2597  0069  0828               	movf	___xxtofl@val,w
  2598  006A  00B2               	movwf	___xxtofl@arg
  2599  006B                     l703:
  2600  006B  082B               	movf	___xxtofl@val+3,w
  2601  006C  042A               	iorwf	___xxtofl@val+2,w
  2602  006D  0429               	iorwf	___xxtofl@val+1,w
  2603  006E  0428               	iorwf	___xxtofl@val,w
  2604  006F  1D03               	skipz
  2605  0070  2872               	goto	u2241
  2606  0071  2873               	goto	u2240
  2607  0072                     u2241:
  2608  0072  287C               	goto	l1770
  2609  0073                     u2240:
  2610  0073                     l1766:
  2611  0073  3000               	movlw	0
  2612  0074  00AB               	movwf	?___xxtofl+3
  2613  0075  3000               	movlw	0
  2614  0076  00AA               	movwf	?___xxtofl+2
  2615  0077  3000               	movlw	0
  2616  0078  00A9               	movwf	?___xxtofl+1
  2617  0079  3000               	movlw	0
  2618  007A  00A8               	movwf	?___xxtofl
  2619  007B  2902               	goto	l705
  2620  007C                     l1770:
  2621  007C  3096               	movlw	150
  2622  007D  00AC               	movwf	??___xxtofl
  2623  007E  082C               	movf	??___xxtofl,w
  2624  007F  00B1               	movwf	___xxtofl@exp
  2625  0080  288E               	goto	l1774
  2626  0081                     l1772:
  2627  0081  3001               	movlw	1
  2628  0082  00AC               	movwf	??___xxtofl
  2629  0083  082C               	movf	??___xxtofl,w
  2630  0084  07B1               	addwf	___xxtofl@exp,f
  2631  0085  3001               	movlw	1
  2632  0086                     u2255:
  2633  0086  1003               	clrc
  2634  0087  0CB5               	rrf	___xxtofl@arg+3,f
  2635  0088  0CB4               	rrf	___xxtofl@arg+2,f
  2636  0089  0CB3               	rrf	___xxtofl@arg+1,f
  2637  008A  0CB2               	rrf	___xxtofl@arg,f
  2638  008B  3EFF               	addlw	-1
  2639  008C  1D03               	skipz
  2640  008D  2886               	goto	u2255
  2641  008E                     l1774:
  2642  008E  30FE               	movlw	254
  2643  008F  0535               	andwf	___xxtofl@arg+3,w
  2644  0090  1D03               	btfss	3,2
  2645  0091  2893               	goto	u2261
  2646  0092  2894               	goto	u2260
  2647  0093                     u2261:
  2648  0093  2881               	goto	l1772
  2649  0094                     u2260:
  2650  0094  28B0               	goto	l709
  2651  0095                     l1776:
  2652  0095  3001               	movlw	1
  2653  0096  00AC               	movwf	??___xxtofl
  2654  0097  082C               	movf	??___xxtofl,w
  2655  0098  07B1               	addwf	___xxtofl@exp,f
  2656  0099                     l1778:
  2657  0099  3001               	movlw	1
  2658  009A  07B2               	addwf	___xxtofl@arg,f
  2659  009B  3000               	movlw	0
  2660  009C  1803               	skipnc
  2661  009D  3001               	movlw	1
  2662  009E  07B3               	addwf	___xxtofl@arg+1,f
  2663  009F  3000               	movlw	0
  2664  00A0  1803               	skipnc
  2665  00A1  3001               	movlw	1
  2666  00A2  07B4               	addwf	___xxtofl@arg+2,f
  2667  00A3  3000               	movlw	0
  2668  00A4  1803               	skipnc
  2669  00A5  3001               	movlw	1
  2670  00A6  07B5               	addwf	___xxtofl@arg+3,f
  2671  00A7                     l1780:
  2672  00A7  3001               	movlw	1
  2673  00A8                     u2275:
  2674  00A8  1003               	clrc
  2675  00A9  0CB5               	rrf	___xxtofl@arg+3,f
  2676  00AA  0CB4               	rrf	___xxtofl@arg+2,f
  2677  00AB  0CB3               	rrf	___xxtofl@arg+1,f
  2678  00AC  0CB2               	rrf	___xxtofl@arg,f
  2679  00AD  3EFF               	addlw	-1
  2680  00AE  1D03               	skipz
  2681  00AF  28A8               	goto	u2275
  2682  00B0                     l709:
  2683  00B0  30FF               	movlw	255
  2684  00B1  0535               	andwf	___xxtofl@arg+3,w
  2685  00B2  1D03               	btfss	3,2
  2686  00B3  28B5               	goto	u2281
  2687  00B4  28B6               	goto	u2280
  2688  00B5                     u2281:
  2689  00B5  2895               	goto	l1776
  2690  00B6                     u2280:
  2691  00B6  28C2               	goto	l1784
  2692  00B7                     l1782:
  2693  00B7  3001               	movlw	1
  2694  00B8  02B1               	subwf	___xxtofl@exp,f
  2695  00B9  3001               	movlw	1
  2696  00BA  00AC               	movwf	??___xxtofl
  2697  00BB                     u2295:
  2698  00BB  1003               	clrc
  2699  00BC  0DB2               	rlf	___xxtofl@arg,f
  2700  00BD  0DB3               	rlf	___xxtofl@arg+1,f
  2701  00BE  0DB4               	rlf	___xxtofl@arg+2,f
  2702  00BF  0DB5               	rlf	___xxtofl@arg+3,f
  2703  00C0  0BAC               	decfsz	??___xxtofl,f
  2704  00C1  28BB               	goto	u2295
  2705  00C2                     l1784:
  2706  00C2  1BB4               	btfsc	___xxtofl@arg+2,7
  2707  00C3  28C5               	goto	u2301
  2708  00C4  28C6               	goto	u2300
  2709  00C5                     u2301:
  2710  00C5  28CC               	goto	l716
  2711  00C6                     u2300:
  2712  00C6                     l1786:
  2713  00C6  3002               	movlw	2
  2714  00C7  0231               	subwf	___xxtofl@exp,w
  2715  00C8  1803               	skipnc
  2716  00C9  28CB               	goto	u2311
  2717  00CA  28CC               	goto	u2310
  2718  00CB                     u2311:
  2719  00CB  28B7               	goto	l1782
  2720  00CC                     u2310:
  2721  00CC                     l716:
  2722  00CC  1831               	btfsc	___xxtofl@exp,0
  2723  00CD  28CF               	goto	u2321
  2724  00CE  28D0               	goto	u2320
  2725  00CF                     u2321:
  2726  00CF  28D8               	goto	l717
  2727  00D0                     u2320:
  2728  00D0                     l1788:
  2729  00D0  30FF               	movlw	255
  2730  00D1  05B2               	andwf	___xxtofl@arg,f
  2731  00D2  30FF               	movlw	255
  2732  00D3  05B3               	andwf	___xxtofl@arg+1,f
  2733  00D4  307F               	movlw	127
  2734  00D5  05B4               	andwf	___xxtofl@arg+2,f
  2735  00D6  30FF               	movlw	255
  2736  00D7  05B5               	andwf	___xxtofl@arg+3,f
  2737  00D8                     l717:
  2738  00D8  1003               	clrc
  2739  00D9  0CB1               	rrf	___xxtofl@exp,f
  2740  00DA                     l1790:
  2741  00DA  0831               	movf	___xxtofl@exp,w
  2742  00DB  00AC               	movwf	??___xxtofl
  2743  00DC  01AD               	clrf	??___xxtofl+1
  2744  00DD  01AE               	clrf	??___xxtofl+2
  2745  00DE  01AF               	clrf	??___xxtofl+3
  2746  00DF  3018               	movlw	24
  2747  00E0                     u2335:
  2748  00E0  1003               	clrc
  2749  00E1  0DAC               	rlf	??___xxtofl,f
  2750  00E2  0DAD               	rlf	??___xxtofl+1,f
  2751  00E3  0DAE               	rlf	??___xxtofl+2,f
  2752  00E4  0DAF               	rlf	??___xxtofl+3,f
  2753  00E5                     u2330:
  2754  00E5  3EFF               	addlw	-1
  2755  00E6  1D03               	skipz
  2756  00E7  28E0               	goto	u2335
  2757  00E8  082C               	movf	??___xxtofl,w
  2758  00E9  04B2               	iorwf	___xxtofl@arg,f
  2759  00EA  082D               	movf	??___xxtofl+1,w
  2760  00EB  04B3               	iorwf	___xxtofl@arg+1,f
  2761  00EC  082E               	movf	??___xxtofl+2,w
  2762  00ED  04B4               	iorwf	___xxtofl@arg+2,f
  2763  00EE  082F               	movf	??___xxtofl+3,w
  2764  00EF  04B5               	iorwf	___xxtofl@arg+3,f
  2765  00F0                     l1792:
  2766  00F0  0830               	movf	___xxtofl@sign,w
  2767  00F1  1903               	btfsc	3,2
  2768  00F2  28F4               	goto	u2341
  2769  00F3  28F5               	goto	u2340
  2770  00F4                     u2341:
  2771  00F4  28FA               	goto	l1798
  2772  00F5                     u2340:
  2773  00F5                     l1794:
  2774  00F5  1FAB               	btfss	___xxtofl@val+3,7
  2775  00F6  28F8               	goto	u2351
  2776  00F7  28F9               	goto	u2350
  2777  00F8                     u2351:
  2778  00F8  28FA               	goto	l1798
  2779  00F9                     u2350:
  2780  00F9                     l1796:
  2781  00F9  17B5               	bsf	___xxtofl@arg+3,7
  2782  00FA                     l1798:
  2783  00FA  0835               	movf	___xxtofl@arg+3,w
  2784  00FB  00AB               	movwf	?___xxtofl+3
  2785  00FC  0834               	movf	___xxtofl@arg+2,w
  2786  00FD  00AA               	movwf	?___xxtofl+2
  2787  00FE  0833               	movf	___xxtofl@arg+1,w
  2788  00FF  00A9               	movwf	?___xxtofl+1
  2789  0100  0832               	movf	___xxtofl@arg,w
  2790  0101  00A8               	movwf	?___xxtofl
  2791  0102                     l705:
  2792  0102  0008               	return
  2793  0103                     __end_of___xxtofl:
  2794                           
  2795                           	psect	text16
  2796  0EC7                     __ptext16:	
  2797 ;; *************** function ___fltol *****************
  2798 ;; Defined at:
  2799 ;;		line 43 in file "C:\Program Files\Microchip\xc8\v2.32\pic\sources\c90\common\fltol.c"
  2800 ;; Parameters:    Size  Location     Type
  2801 ;;  f1              4   74[BANK0 ] unsigned char 
  2802 ;; Auto vars:     Size  Location     Type
  2803 ;;  exp1            1   79[BANK0 ] unsigned char 
  2804 ;;  sign1           1   78[BANK0 ] unsigned char 
  2805 ;; Return value:  Size  Location     Type
  2806 ;;                  4   74[BANK0 ] long 
  2807 ;; Registers used:
  2808 ;;		wreg, status,2, status,0
  2809 ;; Tracked objects:
  2810 ;;		On entry : 0/0
  2811 ;;		On exit  : 0/0
  2812 ;;		Unchanged: 0/0
  2813 ;; Data sizes:     COMMON   BANK0   BANK1   BANK3   BANK2
  2814 ;;      Params:         0       4       0       0       0
  2815 ;;      Locals:         0       2       0       0       0
  2816 ;;      Temps:          0       0       5       0       0
  2817 ;;      Totals:         0       6       5       0       0
  2818 ;;Total ram usage:       11 bytes
  2819 ;; Hardware stack levels used: 1
  2820 ;; This function calls:
  2821 ;;		Nothing
  2822 ;; This function is called by:
  2823 ;;		_PWM1_Duty
  2824 ;;		_PWM2_Duty
  2825 ;; This function uses a non-reentrant model
  2826 ;;
  2827                           
  2828                           
  2829                           ;psect for function ___fltol
  2830  0EC7                     ___fltol:
  2831  0EC7                     l1440:	
  2832                           ;incstack = 0
  2833                           ; Regs used in ___fltol: [wreg+status,2+status,0]
  2834                           
  2835  0EC7  1003               	clrc
  2836  0EC8  1283               	bcf	3,5	;RP0=0, select bank0
  2837  0EC9  1303               	bcf	3,6	;RP1=0, select bank0
  2838  0ECA  0D6C               	rlf	___fltol@f1+2,w
  2839  0ECB  0D6D               	rlf	___fltol@f1+3,w
  2840  0ECC  1683               	bsf	3,5	;RP0=1, select bank1
  2841  0ECD  1303               	bcf	3,6	;RP1=0, select bank1
  2842  0ECE  00A0               	movwf	??___fltol^(0+128)
  2843  0ECF  0820               	movf	??___fltol^(0+128),w
  2844  0ED0  1283               	bcf	3,5	;RP0=0, select bank0
  2845  0ED1  1303               	bcf	3,6	;RP1=0, select bank0
  2846  0ED2  00EF               	movwf	___fltol@exp1
  2847  0ED3  086F               	movf	___fltol@exp1,w
  2848  0ED4  1D03               	btfss	3,2
  2849  0ED5  2ED7               	goto	u1461
  2850  0ED6  2ED8               	goto	u1460
  2851  0ED7                     u1461:
  2852  0ED7  2EE1               	goto	l1446
  2853  0ED8                     u1460:
  2854  0ED8                     l1442:
  2855  0ED8  3000               	movlw	0
  2856  0ED9  00ED               	movwf	?___fltol+3
  2857  0EDA  3000               	movlw	0
  2858  0EDB  00EC               	movwf	?___fltol+2
  2859  0EDC  3000               	movlw	0
  2860  0EDD  00EB               	movwf	?___fltol+1
  2861  0EDE  3000               	movlw	0
  2862  0EDF  00EA               	movwf	?___fltol
  2863  0EE0  2F62               	goto	l456
  2864  0EE1                     l1446:
  2865  0EE1  086A               	movf	___fltol@f1,w
  2866  0EE2  1683               	bsf	3,5	;RP0=1, select bank1
  2867  0EE3  1303               	bcf	3,6	;RP1=0, select bank1
  2868  0EE4  00A0               	movwf	??___fltol^(0+128)
  2869  0EE5  1283               	bcf	3,5	;RP0=0, select bank0
  2870  0EE6  1303               	bcf	3,6	;RP1=0, select bank0
  2871  0EE7  086B               	movf	___fltol@f1+1,w
  2872  0EE8  1683               	bsf	3,5	;RP0=1, select bank1
  2873  0EE9  1303               	bcf	3,6	;RP1=0, select bank1
  2874  0EEA  00A1               	movwf	(??___fltol^(0+128)+1)
  2875  0EEB  1283               	bcf	3,5	;RP0=0, select bank0
  2876  0EEC  1303               	bcf	3,6	;RP1=0, select bank0
  2877  0EED  086C               	movf	___fltol@f1+2,w
  2878  0EEE  1683               	bsf	3,5	;RP0=1, select bank1
  2879  0EEF  1303               	bcf	3,6	;RP1=0, select bank1
  2880  0EF0  00A2               	movwf	(??___fltol^(0+128)+2)
  2881  0EF1  1283               	bcf	3,5	;RP0=0, select bank0
  2882  0EF2  1303               	bcf	3,6	;RP1=0, select bank0
  2883  0EF3  086D               	movf	___fltol@f1+3,w
  2884  0EF4  1683               	bsf	3,5	;RP0=1, select bank1
  2885  0EF5  1303               	bcf	3,6	;RP1=0, select bank1
  2886  0EF6  00A3               	movwf	(??___fltol^(0+128)+3)
  2887  0EF7  301F               	movlw	31
  2888  0EF8                     u1475:
  2889  0EF8  1003               	clrc
  2890  0EF9  0CA3               	rrf	(??___fltol^(0+128)+3),f
  2891  0EFA  0CA2               	rrf	(??___fltol^(0+128)+2),f
  2892  0EFB  0CA1               	rrf	(??___fltol^(0+128)+1),f
  2893  0EFC  0CA0               	rrf	??___fltol^(0+128),f
  2894  0EFD                     u1470:
  2895  0EFD  3EFF               	addlw	-1
  2896  0EFE  1D03               	skipz
  2897  0EFF  2EF8               	goto	u1475
  2898  0F00  0820               	movf	??___fltol^(0+128),w
  2899  0F01  00A4               	movwf	(??___fltol+4)^(0+128)
  2900  0F02  0824               	movf	(??___fltol+4)^(0+128),w
  2901  0F03  1283               	bcf	3,5	;RP0=0, select bank0
  2902  0F04  1303               	bcf	3,6	;RP1=0, select bank0
  2903  0F05  00EE               	movwf	___fltol@sign1
  2904  0F06                     l1448:
  2905  0F06  17EC               	bsf	___fltol@f1+2,7
  2906  0F07                     l1450:
  2907  0F07  30FF               	movlw	255
  2908  0F08  05EA               	andwf	___fltol@f1,f
  2909  0F09  30FF               	movlw	255
  2910  0F0A  05EB               	andwf	___fltol@f1+1,f
  2911  0F0B  30FF               	movlw	255
  2912  0F0C  05EC               	andwf	___fltol@f1+2,f
  2913  0F0D  3000               	movlw	0
  2914  0F0E  05ED               	andwf	___fltol@f1+3,f
  2915  0F0F                     l1452:
  2916  0F0F  3096               	movlw	150
  2917  0F10  02EF               	subwf	___fltol@exp1,f
  2918  0F11                     l1454:
  2919  0F11  1FEF               	btfss	___fltol@exp1,7
  2920  0F12  2F14               	goto	u1481
  2921  0F13  2F15               	goto	u1480
  2922  0F14                     u1481:
  2923  0F14  2F33               	goto	l1464
  2924  0F15                     u1480:
  2925  0F15                     l1456:
  2926  0F15  086F               	movf	___fltol@exp1,w
  2927  0F16  3A80               	xorlw	128
  2928  0F17  3E97               	addlw	151
  2929  0F18  1803               	skipnc
  2930  0F19  2F1B               	goto	u1491
  2931  0F1A  2F1C               	goto	u1490
  2932  0F1B                     u1491:
  2933  0F1B  2F1D               	goto	l1462
  2934  0F1C                     u1490:
  2935  0F1C  2ED8               	goto	l1442
  2936  0F1D                     l1462:
  2937  0F1D  3001               	movlw	1
  2938  0F1E                     u1505:
  2939  0F1E  1003               	clrc
  2940  0F1F  0CED               	rrf	___fltol@f1+3,f
  2941  0F20  0CEC               	rrf	___fltol@f1+2,f
  2942  0F21  0CEB               	rrf	___fltol@f1+1,f
  2943  0F22  0CEA               	rrf	___fltol@f1,f
  2944  0F23  3EFF               	addlw	-1
  2945  0F24  1D03               	skipz
  2946  0F25  2F1E               	goto	u1505
  2947  0F26  3001               	movlw	1
  2948  0F27  1683               	bsf	3,5	;RP0=1, select bank1
  2949  0F28  1303               	bcf	3,6	;RP1=0, select bank1
  2950  0F29  00A0               	movwf	??___fltol^(0+128)
  2951  0F2A  0820               	movf	??___fltol^(0+128),w
  2952  0F2B  1283               	bcf	3,5	;RP0=0, select bank0
  2953  0F2C  1303               	bcf	3,6	;RP1=0, select bank0
  2954  0F2D  07EF               	addwf	___fltol@exp1,f
  2955  0F2E  1D03               	btfss	3,2
  2956  0F2F  2F31               	goto	u1511
  2957  0F30  2F32               	goto	u1510
  2958  0F31                     u1511:
  2959  0F31  2F1D               	goto	l1462
  2960  0F32                     u1510:
  2961  0F32  2F52               	goto	l1472
  2962  0F33                     l1464:
  2963  0F33  3020               	movlw	32
  2964  0F34  026F               	subwf	___fltol@exp1,w
  2965  0F35  1C03               	skipc
  2966  0F36  2F38               	goto	u1521
  2967  0F37  2F39               	goto	u1520
  2968  0F38                     u1521:
  2969  0F38  2F4D               	goto	l463
  2970  0F39                     u1520:
  2971  0F39  2ED8               	goto	l1442
  2972  0F3A                     l1470:
  2973  0F3A  3001               	movlw	1
  2974  0F3B  1683               	bsf	3,5	;RP0=1, select bank1
  2975  0F3C  1303               	bcf	3,6	;RP1=0, select bank1
  2976  0F3D  00A0               	movwf	??___fltol^(0+128)
  2977  0F3E                     u1535:
  2978  0F3E  1003               	clrc
  2979  0F3F  1283               	bcf	3,5	;RP0=0, select bank0
  2980  0F40  1303               	bcf	3,6	;RP1=0, select bank0
  2981  0F41  0DEA               	rlf	___fltol@f1,f
  2982  0F42  0DEB               	rlf	___fltol@f1+1,f
  2983  0F43  0DEC               	rlf	___fltol@f1+2,f
  2984  0F44  0DED               	rlf	___fltol@f1+3,f
  2985  0F45  1683               	bsf	3,5	;RP0=1, select bank1
  2986  0F46  1303               	bcf	3,6	;RP1=0, select bank1
  2987  0F47  0BA0               	decfsz	??___fltol^(0+128),f
  2988  0F48  2F3E               	goto	u1535
  2989  0F49  3001               	movlw	1
  2990  0F4A  1283               	bcf	3,5	;RP0=0, select bank0
  2991  0F4B  1303               	bcf	3,6	;RP1=0, select bank0
  2992  0F4C  02EF               	subwf	___fltol@exp1,f
  2993  0F4D                     l463:
  2994  0F4D  086F               	movf	___fltol@exp1,w
  2995  0F4E  1D03               	btfss	3,2
  2996  0F4F  2F51               	goto	u1541
  2997  0F50  2F52               	goto	u1540
  2998  0F51                     u1541:
  2999  0F51  2F3A               	goto	l1470
  3000  0F52                     u1540:
  3001  0F52                     l1472:
  3002  0F52  086E               	movf	___fltol@sign1,w
  3003  0F53  1903               	btfsc	3,2
  3004  0F54  2F56               	goto	u1551
  3005  0F55  2F57               	goto	u1550
  3006  0F56                     u1551:
  3007  0F56  2F62               	goto	l466
  3008  0F57                     u1550:
  3009  0F57                     l1474:
  3010  0F57  09EA               	comf	___fltol@f1,f
  3011  0F58  09EB               	comf	___fltol@f1+1,f
  3012  0F59  09EC               	comf	___fltol@f1+2,f
  3013  0F5A  09ED               	comf	___fltol@f1+3,f
  3014  0F5B  0AEA               	incf	___fltol@f1,f
  3015  0F5C  1903               	skipnz
  3016  0F5D  0AEB               	incf	___fltol@f1+1,f
  3017  0F5E  1903               	skipnz
  3018  0F5F  0AEC               	incf	___fltol@f1+2,f
  3019  0F60  1903               	skipnz
  3020  0F61  0AED               	incf	___fltol@f1+3,f
  3021  0F62                     l466:
  3022  0F62                     l456:
  3023  0F62  0008               	return
  3024  0F63                     __end_of___fltol:
  3025                           
  3026                           	psect	text17
  3027  0495                     __ptext17:	
  3028 ;; *************** function ___flmul *****************
  3029 ;; Defined at:
  3030 ;;		line 8 in file "C:\Program Files\Microchip\xc8\v2.32\pic\sources\c90\common\sprcmul.c"
  3031 ;; Parameters:    Size  Location     Type
  3032 ;;  b               4   48[BANK0 ] long 
  3033 ;;  a               4   52[BANK0 ] long 
  3034 ;; Auto vars:     Size  Location     Type
  3035 ;;  prod            4   68[BANK0 ] struct .
  3036 ;;  grs             4   62[BANK0 ] unsigned long 
  3037 ;;  temp            2   72[BANK0 ] struct .
  3038 ;;  bexp            1   67[BANK0 ] unsigned char 
  3039 ;;  aexp            1   66[BANK0 ] unsigned char 
  3040 ;;  sign            1   61[BANK0 ] unsigned char 
  3041 ;; Return value:  Size  Location     Type
  3042 ;;                  4   48[BANK0 ] unsigned char 
  3043 ;; Registers used:
  3044 ;;		wreg, status,2, status,0, btemp+1, pclath, cstack
  3045 ;; Tracked objects:
  3046 ;;		On entry : 0/0
  3047 ;;		On exit  : 0/0
  3048 ;;		Unchanged: 0/0
  3049 ;; Data sizes:     COMMON   BANK0   BANK1   BANK3   BANK2
  3050 ;;      Params:         0       8       0       0       0
  3051 ;;      Locals:         0      13       0       0       0
  3052 ;;      Temps:          0       5       0       0       0
  3053 ;;      Totals:         0      26       0       0       0
  3054 ;;Total ram usage:       26 bytes
  3055 ;; Hardware stack levels used: 1
  3056 ;; Hardware stack levels required when called: 1
  3057 ;; This function calls:
  3058 ;;		__Umul8_16
  3059 ;; This function is called by:
  3060 ;;		_PWM1_Duty
  3061 ;;		_PWM2_Duty
  3062 ;; This function uses a non-reentrant model
  3063 ;;
  3064                           
  3065                           
  3066                           ;psect for function ___flmul
  3067  0495                     ___flmul:
  3068  0495                     l1618:	
  3069                           ;incstack = 0
  3070                           ; Regs used in ___flmul: [wreg+status,2+status,0+btemp+1+pclath+cstack]
  3071                           
  3072  0495  1283               	bcf	3,5	;RP0=0, select bank0
  3073  0496  1303               	bcf	3,6	;RP1=0, select bank0
  3074  0497  0853               	movf	___flmul@b+3,w
  3075  0498  3980               	andlw	128
  3076  0499  00D8               	movwf	??___flmul
  3077  049A  0858               	movf	??___flmul,w
  3078  049B  00DD               	movwf	___flmul@sign
  3079  049C                     l1620:
  3080  049C  0853               	movf	___flmul@b+3,w
  3081  049D  00D8               	movwf	??___flmul
  3082  049E  0758               	addwf	??___flmul,w
  3083  049F  00D9               	movwf	??___flmul+1
  3084  04A0  0859               	movf	??___flmul+1,w
  3085  04A1  00E3               	movwf	___flmul@bexp
  3086  04A2                     l1622:
  3087  04A2  1FD2               	btfss	___flmul@b+2,7
  3088  04A3  2CA5               	goto	u1851
  3089  04A4  2CA6               	goto	u1850
  3090  04A5                     u1851:
  3091  04A5  2CA7               	goto	l1626
  3092  04A6                     u1850:
  3093  04A6                     l1624:
  3094  04A6  1463               	bsf	___flmul@bexp,0
  3095  04A7                     l1626:
  3096  04A7  0863               	movf	___flmul@bexp,w
  3097  04A8  1903               	btfsc	3,2
  3098  04A9  2CAB               	goto	u1861
  3099  04AA  2CAC               	goto	u1860
  3100  04AB                     u1861:
  3101  04AB  2CBB               	goto	l1634
  3102  04AC                     u1860:
  3103  04AC                     l1628:
  3104  04AC  0A63               	incf	___flmul@bexp,w
  3105  04AD  1D03               	btfss	3,2
  3106  04AE  2CB0               	goto	u1871
  3107  04AF  2CB1               	goto	u1870
  3108  04B0                     u1871:
  3109  04B0  2CB9               	goto	l1632
  3110  04B1                     u1870:
  3111  04B1                     l1630:
  3112  04B1  3000               	movlw	0
  3113  04B2  00D3               	movwf	___flmul@b+3
  3114  04B3  3000               	movlw	0
  3115  04B4  00D2               	movwf	___flmul@b+2
  3116  04B5  3000               	movlw	0
  3117  04B6  00D1               	movwf	___flmul@b+1
  3118  04B7  3000               	movlw	0
  3119  04B8  00D0               	movwf	___flmul@b
  3120  04B9                     l1632:
  3121  04B9  17D2               	bsf	___flmul@b+2,7
  3122  04BA  2CC3               	goto	l1636
  3123  04BB                     l1634:
  3124  04BB  3000               	movlw	0
  3125  04BC  00D3               	movwf	___flmul@b+3
  3126  04BD  3000               	movlw	0
  3127  04BE  00D2               	movwf	___flmul@b+2
  3128  04BF  3000               	movlw	0
  3129  04C0  00D1               	movwf	___flmul@b+1
  3130  04C1  3000               	movlw	0
  3131  04C2  00D0               	movwf	___flmul@b
  3132  04C3                     l1636:
  3133  04C3  0857               	movf	___flmul@a+3,w
  3134  04C4  3980               	andlw	128
  3135  04C5  00D8               	movwf	??___flmul
  3136  04C6  0858               	movf	??___flmul,w
  3137  04C7  06DD               	xorwf	___flmul@sign,f
  3138  04C8                     l1638:
  3139  04C8  0857               	movf	___flmul@a+3,w
  3140  04C9  00D8               	movwf	??___flmul
  3141  04CA  0758               	addwf	??___flmul,w
  3142  04CB  00D9               	movwf	??___flmul+1
  3143  04CC  0859               	movf	??___flmul+1,w
  3144  04CD  00E2               	movwf	___flmul@aexp
  3145  04CE                     l1640:
  3146  04CE  1FD6               	btfss	___flmul@a+2,7
  3147  04CF  2CD1               	goto	u1881
  3148  04D0  2CD2               	goto	u1880
  3149  04D1                     u1881:
  3150  04D1  2CD3               	goto	l1644
  3151  04D2                     u1880:
  3152  04D2                     l1642:
  3153  04D2  1462               	bsf	___flmul@aexp,0
  3154  04D3                     l1644:
  3155  04D3  0862               	movf	___flmul@aexp,w
  3156  04D4  1903               	btfsc	3,2
  3157  04D5  2CD7               	goto	u1891
  3158  04D6  2CD8               	goto	u1890
  3159  04D7                     u1891:
  3160  04D7  2CE7               	goto	l1652
  3161  04D8                     u1890:
  3162  04D8                     l1646:
  3163  04D8  0A62               	incf	___flmul@aexp,w
  3164  04D9  1D03               	btfss	3,2
  3165  04DA  2CDC               	goto	u1901
  3166  04DB  2CDD               	goto	u1900
  3167  04DC                     u1901:
  3168  04DC  2CE5               	goto	l1650
  3169  04DD                     u1900:
  3170  04DD                     l1648:
  3171  04DD  3000               	movlw	0
  3172  04DE  00D7               	movwf	___flmul@a+3
  3173  04DF  3000               	movlw	0
  3174  04E0  00D6               	movwf	___flmul@a+2
  3175  04E1  3000               	movlw	0
  3176  04E2  00D5               	movwf	___flmul@a+1
  3177  04E3  3000               	movlw	0
  3178  04E4  00D4               	movwf	___flmul@a
  3179  04E5                     l1650:
  3180  04E5  17D6               	bsf	___flmul@a+2,7
  3181  04E6  2CEF               	goto	l1654
  3182  04E7                     l1652:
  3183  04E7  3000               	movlw	0
  3184  04E8  00D7               	movwf	___flmul@a+3
  3185  04E9  3000               	movlw	0
  3186  04EA  00D6               	movwf	___flmul@a+2
  3187  04EB  3000               	movlw	0
  3188  04EC  00D5               	movwf	___flmul@a+1
  3189  04ED  3000               	movlw	0
  3190  04EE  00D4               	movwf	___flmul@a
  3191  04EF                     l1654:
  3192  04EF  0862               	movf	___flmul@aexp,w
  3193  04F0  1903               	btfsc	3,2
  3194  04F1  2CF3               	goto	u1911
  3195  04F2  2CF4               	goto	u1910
  3196  04F3                     u1911:
  3197  04F3  2CF9               	goto	l1658
  3198  04F4                     u1910:
  3199  04F4                     l1656:
  3200  04F4  0863               	movf	___flmul@bexp,w
  3201  04F5  1D03               	btfss	3,2
  3202  04F6  2CF8               	goto	u1921
  3203  04F7  2CF9               	goto	u1920
  3204  04F8                     u1921:
  3205  04F8  2D02               	goto	l1662
  3206  04F9                     u1920:
  3207  04F9                     l1658:
  3208  04F9  3000               	movlw	0
  3209  04FA  00D3               	movwf	?___flmul+3
  3210  04FB  3000               	movlw	0
  3211  04FC  00D2               	movwf	?___flmul+2
  3212  04FD  3000               	movlw	0
  3213  04FE  00D1               	movwf	?___flmul+1
  3214  04FF  3000               	movlw	0
  3215  0500  00D0               	movwf	?___flmul
  3216  0501  2FF5               	goto	l659
  3217  0502                     l1662:
  3218  0502  0850               	movf	___flmul@b,w
  3219  0503  00D8               	movwf	??___flmul
  3220  0504  0858               	movf	??___flmul,w
  3221  0505  00F0               	movwf	__Umul8_16@multiplicand
  3222  0506  0856               	movf	___flmul@a+2,w
  3223  0507  120A  158A  24D8  120A  118A  	fcall	__Umul8_16
  3224  050C  0871               	movf	?__Umul8_16+1,w
  3225  050D  1283               	bcf	3,5	;RP0=0, select bank0
  3226  050E  1303               	bcf	3,6	;RP1=0, select bank0
  3227  050F  00E9               	movwf	___flmul@temp+1
  3228  0510  0870               	movf	?__Umul8_16,w
  3229  0511  00E8               	movwf	___flmul@temp
  3230  0512                     l1664:
  3231  0512  0868               	movf	___flmul@temp,w
  3232  0513  00D8               	movwf	??___flmul
  3233  0514  01D9               	clrf	??___flmul+1
  3234  0515  01DA               	clrf	??___flmul+2
  3235  0516  01DB               	clrf	??___flmul+3
  3236  0517  085B               	movf	??___flmul+3,w
  3237  0518  00E1               	movwf	___flmul@grs+3
  3238  0519  085A               	movf	??___flmul+2,w
  3239  051A  00E0               	movwf	___flmul@grs+2
  3240  051B  0859               	movf	??___flmul+1,w
  3241  051C  00DF               	movwf	___flmul@grs+1
  3242  051D  0858               	movf	??___flmul,w
  3243  051E  00DE               	movwf	___flmul@grs
  3244  051F                     l1666:
  3245  051F  0869               	movf	___flmul@temp+1,w
  3246  0520  00D8               	movwf	??___flmul
  3247  0521  01D9               	clrf	??___flmul+1
  3248  0522  01DA               	clrf	??___flmul+2
  3249  0523  01DB               	clrf	??___flmul+3
  3250  0524  085B               	movf	??___flmul+3,w
  3251  0525  00E7               	movwf	___flmul@prod+3
  3252  0526  085A               	movf	??___flmul+2,w
  3253  0527  00E6               	movwf	___flmul@prod+2
  3254  0528  0859               	movf	??___flmul+1,w
  3255  0529  00E5               	movwf	___flmul@prod+1
  3256  052A  0858               	movf	??___flmul,w
  3257  052B  00E4               	movwf	___flmul@prod
  3258  052C  0851               	movf	___flmul@b+1,w
  3259  052D  00D8               	movwf	??___flmul
  3260  052E  0858               	movf	??___flmul,w
  3261  052F  00F0               	movwf	__Umul8_16@multiplicand
  3262  0530  0855               	movf	___flmul@a+1,w
  3263  0531  120A  158A  24D8  120A  118A  	fcall	__Umul8_16
  3264  0536  0871               	movf	?__Umul8_16+1,w
  3265  0537  1283               	bcf	3,5	;RP0=0, select bank0
  3266  0538  1303               	bcf	3,6	;RP1=0, select bank0
  3267  0539  00E9               	movwf	___flmul@temp+1
  3268  053A  0870               	movf	?__Umul8_16,w
  3269  053B  00E8               	movwf	___flmul@temp
  3270  053C                     l1668:
  3271  053C  0868               	movf	___flmul@temp,w
  3272  053D  00D8               	movwf	??___flmul
  3273  053E  01D9               	clrf	??___flmul+1
  3274  053F  01DA               	clrf	??___flmul+2
  3275  0540  01DB               	clrf	??___flmul+3
  3276  0541  0858               	movf	??___flmul,w
  3277  0542  07DE               	addwf	___flmul@grs,f
  3278  0543  0859               	movf	??___flmul+1,w
  3279  0544  1103               	clrz
  3280  0545  1803               	skipnc
  3281  0546  3E01               	addlw	1
  3282  0547  1903               	skipnz
  3283  0548  2D4A               	goto	u1931
  3284  0549  07DF               	addwf	___flmul@grs+1,f
  3285  054A                     u1931:
  3286  054A  085A               	movf	??___flmul+2,w
  3287  054B  1103               	clrz
  3288  054C  1803               	skipnc
  3289  054D  3E01               	addlw	1
  3290  054E  1903               	skipnz
  3291  054F  2D51               	goto	u1932
  3292  0550  07E0               	addwf	___flmul@grs+2,f
  3293  0551                     u1932:
  3294  0551  085B               	movf	??___flmul+3,w
  3295  0552  1103               	clrz
  3296  0553  1803               	skipnc
  3297  0554  3E01               	addlw	1
  3298  0555  1903               	skipnz
  3299  0556  2D58               	goto	u1933
  3300  0557  07E1               	addwf	___flmul@grs+3,f
  3301  0558                     u1933:
  3302  0558                     l1670:
  3303  0558  0869               	movf	___flmul@temp+1,w
  3304  0559  00D8               	movwf	??___flmul
  3305  055A  01D9               	clrf	??___flmul+1
  3306  055B  01DA               	clrf	??___flmul+2
  3307  055C  01DB               	clrf	??___flmul+3
  3308  055D  0858               	movf	??___flmul,w
  3309  055E  07E4               	addwf	___flmul@prod,f
  3310  055F  0859               	movf	??___flmul+1,w
  3311  0560  1103               	clrz
  3312  0561  1803               	skipnc
  3313  0562  3E01               	addlw	1
  3314  0563  1903               	skipnz
  3315  0564  2D66               	goto	u1941
  3316  0565  07E5               	addwf	___flmul@prod+1,f
  3317  0566                     u1941:
  3318  0566  085A               	movf	??___flmul+2,w
  3319  0567  1103               	clrz
  3320  0568  1803               	skipnc
  3321  0569  3E01               	addlw	1
  3322  056A  1903               	skipnz
  3323  056B  2D6D               	goto	u1942
  3324  056C  07E6               	addwf	___flmul@prod+2,f
  3325  056D                     u1942:
  3326  056D  085B               	movf	??___flmul+3,w
  3327  056E  1103               	clrz
  3328  056F  1803               	skipnc
  3329  0570  3E01               	addlw	1
  3330  0571  1903               	skipnz
  3331  0572  2D74               	goto	u1943
  3332  0573  07E7               	addwf	___flmul@prod+3,f
  3333  0574                     u1943:
  3334  0574  0852               	movf	___flmul@b+2,w
  3335  0575  00D8               	movwf	??___flmul
  3336  0576  0858               	movf	??___flmul,w
  3337  0577  00F0               	movwf	__Umul8_16@multiplicand
  3338  0578  0854               	movf	___flmul@a,w
  3339  0579  120A  158A  24D8  120A  118A  	fcall	__Umul8_16
  3340  057E  0871               	movf	?__Umul8_16+1,w
  3341  057F  1283               	bcf	3,5	;RP0=0, select bank0
  3342  0580  1303               	bcf	3,6	;RP1=0, select bank0
  3343  0581  00E9               	movwf	___flmul@temp+1
  3344  0582  0870               	movf	?__Umul8_16,w
  3345  0583  00E8               	movwf	___flmul@temp
  3346  0584                     l1672:
  3347  0584  0868               	movf	___flmul@temp,w
  3348  0585  00D8               	movwf	??___flmul
  3349  0586  01D9               	clrf	??___flmul+1
  3350  0587  01DA               	clrf	??___flmul+2
  3351  0588  01DB               	clrf	??___flmul+3
  3352  0589  0858               	movf	??___flmul,w
  3353  058A  07DE               	addwf	___flmul@grs,f
  3354  058B  0859               	movf	??___flmul+1,w
  3355  058C  1103               	clrz
  3356  058D  1803               	skipnc
  3357  058E  3E01               	addlw	1
  3358  058F  1903               	skipnz
  3359  0590  2D92               	goto	u1951
  3360  0591  07DF               	addwf	___flmul@grs+1,f
  3361  0592                     u1951:
  3362  0592  085A               	movf	??___flmul+2,w
  3363  0593  1103               	clrz
  3364  0594  1803               	skipnc
  3365  0595  3E01               	addlw	1
  3366  0596  1903               	skipnz
  3367  0597  2D99               	goto	u1952
  3368  0598  07E0               	addwf	___flmul@grs+2,f
  3369  0599                     u1952:
  3370  0599  085B               	movf	??___flmul+3,w
  3371  059A  1103               	clrz
  3372  059B  1803               	skipnc
  3373  059C  3E01               	addlw	1
  3374  059D  1903               	skipnz
  3375  059E  2DA0               	goto	u1953
  3376  059F  07E1               	addwf	___flmul@grs+3,f
  3377  05A0                     u1953:
  3378  05A0                     l1674:
  3379  05A0  0869               	movf	___flmul@temp+1,w
  3380  05A1  00D8               	movwf	??___flmul
  3381  05A2  01D9               	clrf	??___flmul+1
  3382  05A3  01DA               	clrf	??___flmul+2
  3383  05A4  01DB               	clrf	??___flmul+3
  3384  05A5  0858               	movf	??___flmul,w
  3385  05A6  07E4               	addwf	___flmul@prod,f
  3386  05A7  0859               	movf	??___flmul+1,w
  3387  05A8  1103               	clrz
  3388  05A9  1803               	skipnc
  3389  05AA  3E01               	addlw	1
  3390  05AB  1903               	skipnz
  3391  05AC  2DAE               	goto	u1961
  3392  05AD  07E5               	addwf	___flmul@prod+1,f
  3393  05AE                     u1961:
  3394  05AE  085A               	movf	??___flmul+2,w
  3395  05AF  1103               	clrz
  3396  05B0  1803               	skipnc
  3397  05B1  3E01               	addlw	1
  3398  05B2  1903               	skipnz
  3399  05B3  2DB5               	goto	u1962
  3400  05B4  07E6               	addwf	___flmul@prod+2,f
  3401  05B5                     u1962:
  3402  05B5  085B               	movf	??___flmul+3,w
  3403  05B6  1103               	clrz
  3404  05B7  1803               	skipnc
  3405  05B8  3E01               	addlw	1
  3406  05B9  1903               	skipnz
  3407  05BA  2DBC               	goto	u1963
  3408  05BB  07E7               	addwf	___flmul@prod+3,f
  3409  05BC                     u1963:
  3410  05BC                     l1676:
  3411  05BC  3008               	movlw	8
  3412  05BD  00D8               	movwf	??___flmul
  3413  05BE                     u1975:
  3414  05BE  1003               	clrc
  3415  05BF  0DDE               	rlf	___flmul@grs,f
  3416  05C0  0DDF               	rlf	___flmul@grs+1,f
  3417  05C1  0DE0               	rlf	___flmul@grs+2,f
  3418  05C2  0DE1               	rlf	___flmul@grs+3,f
  3419  05C3  0BD8               	decfsz	??___flmul,f
  3420  05C4  2DBE               	goto	u1975
  3421  05C5                     l1678:
  3422  05C5  0851               	movf	___flmul@b+1,w
  3423  05C6  00D8               	movwf	??___flmul
  3424  05C7  0858               	movf	??___flmul,w
  3425  05C8  00F0               	movwf	__Umul8_16@multiplicand
  3426  05C9  0854               	movf	___flmul@a,w
  3427  05CA  120A  158A  24D8  120A  118A  	fcall	__Umul8_16
  3428  05CF  0871               	movf	?__Umul8_16+1,w
  3429  05D0  1283               	bcf	3,5	;RP0=0, select bank0
  3430  05D1  1303               	bcf	3,6	;RP1=0, select bank0
  3431  05D2  00E9               	movwf	___flmul@temp+1
  3432  05D3  0870               	movf	?__Umul8_16,w
  3433  05D4  00E8               	movwf	___flmul@temp
  3434  05D5                     l1680:
  3435  05D5  0868               	movf	___flmul@temp,w
  3436  05D6  00D8               	movwf	??___flmul
  3437  05D7  0869               	movf	___flmul@temp+1,w
  3438  05D8  00D9               	movwf	??___flmul+1
  3439  05D9  01DA               	clrf	??___flmul+2
  3440  05DA  01DB               	clrf	??___flmul+3
  3441  05DB  0858               	movf	??___flmul,w
  3442  05DC  07DE               	addwf	___flmul@grs,f
  3443  05DD  0859               	movf	??___flmul+1,w
  3444  05DE  1103               	clrz
  3445  05DF  1803               	skipnc
  3446  05E0  3E01               	addlw	1
  3447  05E1  1903               	skipnz
  3448  05E2  2DE4               	goto	u1981
  3449  05E3  07DF               	addwf	___flmul@grs+1,f
  3450  05E4                     u1981:
  3451  05E4  085A               	movf	??___flmul+2,w
  3452  05E5  1103               	clrz
  3453  05E6  1803               	skipnc
  3454  05E7  3E01               	addlw	1
  3455  05E8  1903               	skipnz
  3456  05E9  2DEB               	goto	u1982
  3457  05EA  07E0               	addwf	___flmul@grs+2,f
  3458  05EB                     u1982:
  3459  05EB  085B               	movf	??___flmul+3,w
  3460  05EC  1103               	clrz
  3461  05ED  1803               	skipnc
  3462  05EE  3E01               	addlw	1
  3463  05EF  1903               	skipnz
  3464  05F0  2DF2               	goto	u1983
  3465  05F1  07E1               	addwf	___flmul@grs+3,f
  3466  05F2                     u1983:
  3467  05F2                     l1682:
  3468  05F2  0850               	movf	___flmul@b,w
  3469  05F3  00D8               	movwf	??___flmul
  3470  05F4  0858               	movf	??___flmul,w
  3471  05F5  00F0               	movwf	__Umul8_16@multiplicand
  3472  05F6  0855               	movf	___flmul@a+1,w
  3473  05F7  120A  158A  24D8  120A  118A  	fcall	__Umul8_16
  3474  05FC  0871               	movf	?__Umul8_16+1,w
  3475  05FD  1283               	bcf	3,5	;RP0=0, select bank0
  3476  05FE  1303               	bcf	3,6	;RP1=0, select bank0
  3477  05FF  00E9               	movwf	___flmul@temp+1
  3478  0600  0870               	movf	?__Umul8_16,w
  3479  0601  00E8               	movwf	___flmul@temp
  3480  0602                     l1684:
  3481  0602  0868               	movf	___flmul@temp,w
  3482  0603  00D8               	movwf	??___flmul
  3483  0604  0869               	movf	___flmul@temp+1,w
  3484  0605  00D9               	movwf	??___flmul+1
  3485  0606  01DA               	clrf	??___flmul+2
  3486  0607  01DB               	clrf	??___flmul+3
  3487  0608  0858               	movf	??___flmul,w
  3488  0609  07DE               	addwf	___flmul@grs,f
  3489  060A  0859               	movf	??___flmul+1,w
  3490  060B  1103               	clrz
  3491  060C  1803               	skipnc
  3492  060D  3E01               	addlw	1
  3493  060E  1903               	skipnz
  3494  060F  2E11               	goto	u1991
  3495  0610  07DF               	addwf	___flmul@grs+1,f
  3496  0611                     u1991:
  3497  0611  085A               	movf	??___flmul+2,w
  3498  0612  1103               	clrz
  3499  0613  1803               	skipnc
  3500  0614  3E01               	addlw	1
  3501  0615  1903               	skipnz
  3502  0616  2E18               	goto	u1992
  3503  0617  07E0               	addwf	___flmul@grs+2,f
  3504  0618                     u1992:
  3505  0618  085B               	movf	??___flmul+3,w
  3506  0619  1103               	clrz
  3507  061A  1803               	skipnc
  3508  061B  3E01               	addlw	1
  3509  061C  1903               	skipnz
  3510  061D  2E1F               	goto	u1993
  3511  061E  07E1               	addwf	___flmul@grs+3,f
  3512  061F                     u1993:
  3513  061F                     l1686:
  3514  061F  3008               	movlw	8
  3515  0620  00D8               	movwf	??___flmul
  3516  0621                     u2005:
  3517  0621  1003               	clrc
  3518  0622  0DDE               	rlf	___flmul@grs,f
  3519  0623  0DDF               	rlf	___flmul@grs+1,f
  3520  0624  0DE0               	rlf	___flmul@grs+2,f
  3521  0625  0DE1               	rlf	___flmul@grs+3,f
  3522  0626  0BD8               	decfsz	??___flmul,f
  3523  0627  2E21               	goto	u2005
  3524  0628  0850               	movf	___flmul@b,w
  3525  0629  00D8               	movwf	??___flmul
  3526  062A  0858               	movf	??___flmul,w
  3527  062B  00F0               	movwf	__Umul8_16@multiplicand
  3528  062C  0854               	movf	___flmul@a,w
  3529  062D  120A  158A  24D8  120A  118A  	fcall	__Umul8_16
  3530  0632  0871               	movf	?__Umul8_16+1,w
  3531  0633  1283               	bcf	3,5	;RP0=0, select bank0
  3532  0634  1303               	bcf	3,6	;RP1=0, select bank0
  3533  0635  00E9               	movwf	___flmul@temp+1
  3534  0636  0870               	movf	?__Umul8_16,w
  3535  0637  00E8               	movwf	___flmul@temp
  3536  0638                     l1688:
  3537  0638  0868               	movf	___flmul@temp,w
  3538  0639  00D8               	movwf	??___flmul
  3539  063A  0869               	movf	___flmul@temp+1,w
  3540  063B  00D9               	movwf	??___flmul+1
  3541  063C  01DA               	clrf	??___flmul+2
  3542  063D  01DB               	clrf	??___flmul+3
  3543  063E  0858               	movf	??___flmul,w
  3544  063F  07DE               	addwf	___flmul@grs,f
  3545  0640  0859               	movf	??___flmul+1,w
  3546  0641  1103               	clrz
  3547  0642  1803               	skipnc
  3548  0643  3E01               	addlw	1
  3549  0644  1903               	skipnz
  3550  0645  2E47               	goto	u2011
  3551  0646  07DF               	addwf	___flmul@grs+1,f
  3552  0647                     u2011:
  3553  0647  085A               	movf	??___flmul+2,w
  3554  0648  1103               	clrz
  3555  0649  1803               	skipnc
  3556  064A  3E01               	addlw	1
  3557  064B  1903               	skipnz
  3558  064C  2E4E               	goto	u2012
  3559  064D  07E0               	addwf	___flmul@grs+2,f
  3560  064E                     u2012:
  3561  064E  085B               	movf	??___flmul+3,w
  3562  064F  1103               	clrz
  3563  0650  1803               	skipnc
  3564  0651  3E01               	addlw	1
  3565  0652  1903               	skipnz
  3566  0653  2E55               	goto	u2013
  3567  0654  07E1               	addwf	___flmul@grs+3,f
  3568  0655                     u2013:
  3569  0655                     l1690:
  3570  0655  0851               	movf	___flmul@b+1,w
  3571  0656  00D8               	movwf	??___flmul
  3572  0657  0858               	movf	??___flmul,w
  3573  0658  00F0               	movwf	__Umul8_16@multiplicand
  3574  0659  0856               	movf	___flmul@a+2,w
  3575  065A  120A  158A  24D8  120A  118A  	fcall	__Umul8_16
  3576  065F  0871               	movf	?__Umul8_16+1,w
  3577  0660  1283               	bcf	3,5	;RP0=0, select bank0
  3578  0661  1303               	bcf	3,6	;RP1=0, select bank0
  3579  0662  00E9               	movwf	___flmul@temp+1
  3580  0663  0870               	movf	?__Umul8_16,w
  3581  0664  00E8               	movwf	___flmul@temp
  3582  0665  0868               	movf	___flmul@temp,w
  3583  0666  00D8               	movwf	??___flmul
  3584  0667  0869               	movf	___flmul@temp+1,w
  3585  0668  00D9               	movwf	??___flmul+1
  3586  0669  01DA               	clrf	??___flmul+2
  3587  066A  01DB               	clrf	??___flmul+3
  3588  066B  0858               	movf	??___flmul,w
  3589  066C  07E4               	addwf	___flmul@prod,f
  3590  066D  0859               	movf	??___flmul+1,w
  3591  066E  1103               	clrz
  3592  066F  1803               	skipnc
  3593  0670  3E01               	addlw	1
  3594  0671  1903               	skipnz
  3595  0672  2E74               	goto	u2021
  3596  0673  07E5               	addwf	___flmul@prod+1,f
  3597  0674                     u2021:
  3598  0674  085A               	movf	??___flmul+2,w
  3599  0675  1103               	clrz
  3600  0676  1803               	skipnc
  3601  0677  3E01               	addlw	1
  3602  0678  1903               	skipnz
  3603  0679  2E7B               	goto	u2022
  3604  067A  07E6               	addwf	___flmul@prod+2,f
  3605  067B                     u2022:
  3606  067B  085B               	movf	??___flmul+3,w
  3607  067C  1103               	clrz
  3608  067D  1803               	skipnc
  3609  067E  3E01               	addlw	1
  3610  067F  1903               	skipnz
  3611  0680  2E82               	goto	u2023
  3612  0681  07E7               	addwf	___flmul@prod+3,f
  3613  0682                     u2023:
  3614  0682                     l1692:
  3615  0682  0852               	movf	___flmul@b+2,w
  3616  0683  00D8               	movwf	??___flmul
  3617  0684  0858               	movf	??___flmul,w
  3618  0685  00F0               	movwf	__Umul8_16@multiplicand
  3619  0686  0855               	movf	___flmul@a+1,w
  3620  0687  120A  158A  24D8  120A  118A  	fcall	__Umul8_16
  3621  068C  0871               	movf	?__Umul8_16+1,w
  3622  068D  1283               	bcf	3,5	;RP0=0, select bank0
  3623  068E  1303               	bcf	3,6	;RP1=0, select bank0
  3624  068F  00E9               	movwf	___flmul@temp+1
  3625  0690  0870               	movf	?__Umul8_16,w
  3626  0691  00E8               	movwf	___flmul@temp
  3627  0692                     l1694:
  3628  0692  0868               	movf	___flmul@temp,w
  3629  0693  00D8               	movwf	??___flmul
  3630  0694  0869               	movf	___flmul@temp+1,w
  3631  0695  00D9               	movwf	??___flmul+1
  3632  0696  01DA               	clrf	??___flmul+2
  3633  0697  01DB               	clrf	??___flmul+3
  3634  0698  0858               	movf	??___flmul,w
  3635  0699  07E4               	addwf	___flmul@prod,f
  3636  069A  0859               	movf	??___flmul+1,w
  3637  069B  1103               	clrz
  3638  069C  1803               	skipnc
  3639  069D  3E01               	addlw	1
  3640  069E  1903               	skipnz
  3641  069F  2EA1               	goto	u2031
  3642  06A0  07E5               	addwf	___flmul@prod+1,f
  3643  06A1                     u2031:
  3644  06A1  085A               	movf	??___flmul+2,w
  3645  06A2  1103               	clrz
  3646  06A3  1803               	skipnc
  3647  06A4  3E01               	addlw	1
  3648  06A5  1903               	skipnz
  3649  06A6  2EA8               	goto	u2032
  3650  06A7  07E6               	addwf	___flmul@prod+2,f
  3651  06A8                     u2032:
  3652  06A8  085B               	movf	??___flmul+3,w
  3653  06A9  1103               	clrz
  3654  06AA  1803               	skipnc
  3655  06AB  3E01               	addlw	1
  3656  06AC  1903               	skipnz
  3657  06AD  2EAF               	goto	u2033
  3658  06AE  07E7               	addwf	___flmul@prod+3,f
  3659  06AF                     u2033:
  3660  06AF  0852               	movf	___flmul@b+2,w
  3661  06B0  00D8               	movwf	??___flmul
  3662  06B1  0858               	movf	??___flmul,w
  3663  06B2  00F0               	movwf	__Umul8_16@multiplicand
  3664  06B3  0856               	movf	___flmul@a+2,w
  3665  06B4  120A  158A  24D8  120A  118A  	fcall	__Umul8_16
  3666  06B9  0871               	movf	?__Umul8_16+1,w
  3667  06BA  1283               	bcf	3,5	;RP0=0, select bank0
  3668  06BB  1303               	bcf	3,6	;RP1=0, select bank0
  3669  06BC  00E9               	movwf	___flmul@temp+1
  3670  06BD  0870               	movf	?__Umul8_16,w
  3671  06BE  00E8               	movwf	___flmul@temp
  3672  06BF                     l1696:
  3673  06BF  0868               	movf	___flmul@temp,w
  3674  06C0  00D8               	movwf	??___flmul
  3675  06C1  0869               	movf	___flmul@temp+1,w
  3676  06C2  00D9               	movwf	??___flmul+1
  3677  06C3  01DA               	clrf	??___flmul+2
  3678  06C4  01DB               	clrf	??___flmul+3
  3679  06C5  3008               	movlw	8
  3680  06C6                     u2045:
  3681  06C6  1003               	clrc
  3682  06C7  0DD8               	rlf	??___flmul,f
  3683  06C8  0DD9               	rlf	??___flmul+1,f
  3684  06C9  0DDA               	rlf	??___flmul+2,f
  3685  06CA  0DDB               	rlf	??___flmul+3,f
  3686  06CB                     u2040:
  3687  06CB  3EFF               	addlw	-1
  3688  06CC  1D03               	skipz
  3689  06CD  2EC6               	goto	u2045
  3690  06CE  0858               	movf	??___flmul,w
  3691  06CF  07E4               	addwf	___flmul@prod,f
  3692  06D0  0859               	movf	??___flmul+1,w
  3693  06D1  1103               	clrz
  3694  06D2  1803               	skipnc
  3695  06D3  3E01               	addlw	1
  3696  06D4  1903               	skipnz
  3697  06D5  2ED7               	goto	u2051
  3698  06D6  07E5               	addwf	___flmul@prod+1,f
  3699  06D7                     u2051:
  3700  06D7  085A               	movf	??___flmul+2,w
  3701  06D8  1103               	clrz
  3702  06D9  1803               	skipnc
  3703  06DA  3E01               	addlw	1
  3704  06DB  1903               	skipnz
  3705  06DC  2EDE               	goto	u2052
  3706  06DD  07E6               	addwf	___flmul@prod+2,f
  3707  06DE                     u2052:
  3708  06DE  085B               	movf	??___flmul+3,w
  3709  06DF  1103               	clrz
  3710  06E0  1803               	skipnc
  3711  06E1  3E01               	addlw	1
  3712  06E2  1903               	skipnz
  3713  06E3  2EE5               	goto	u2053
  3714  06E4  07E7               	addwf	___flmul@prod+3,f
  3715  06E5                     u2053:
  3716  06E5                     l1698:
  3717  06E5  085E               	movf	___flmul@grs,w
  3718  06E6  00D8               	movwf	??___flmul
  3719  06E7  085F               	movf	___flmul@grs+1,w
  3720  06E8  00D9               	movwf	??___flmul+1
  3721  06E9  0860               	movf	___flmul@grs+2,w
  3722  06EA  00DA               	movwf	??___flmul+2
  3723  06EB  0861               	movf	___flmul@grs+3,w
  3724  06EC  00DB               	movwf	??___flmul+3
  3725  06ED  3018               	movlw	24
  3726  06EE                     u2065:
  3727  06EE  1003               	clrc
  3728  06EF  0CDB               	rrf	??___flmul+3,f
  3729  06F0  0CDA               	rrf	??___flmul+2,f
  3730  06F1  0CD9               	rrf	??___flmul+1,f
  3731  06F2  0CD8               	rrf	??___flmul,f
  3732  06F3                     u2060:
  3733  06F3  3EFF               	addlw	-1
  3734  06F4  1D03               	skipz
  3735  06F5  2EEE               	goto	u2065
  3736  06F6  0858               	movf	??___flmul,w
  3737  06F7  07E4               	addwf	___flmul@prod,f
  3738  06F8  0859               	movf	??___flmul+1,w
  3739  06F9  1103               	clrz
  3740  06FA  1803               	skipnc
  3741  06FB  3E01               	addlw	1
  3742  06FC  1903               	skipnz
  3743  06FD  2EFF               	goto	u2071
  3744  06FE  07E5               	addwf	___flmul@prod+1,f
  3745  06FF                     u2071:
  3746  06FF  085A               	movf	??___flmul+2,w
  3747  0700  1103               	clrz
  3748  0701  1803               	skipnc
  3749  0702  3E01               	addlw	1
  3750  0703  1903               	skipnz
  3751  0704  2F06               	goto	u2072
  3752  0705  07E6               	addwf	___flmul@prod+2,f
  3753  0706                     u2072:
  3754  0706  085B               	movf	??___flmul+3,w
  3755  0707  1103               	clrz
  3756  0708  1803               	skipnc
  3757  0709  3E01               	addlw	1
  3758  070A  1903               	skipnz
  3759  070B  2F0D               	goto	u2073
  3760  070C  07E7               	addwf	___flmul@prod+3,f
  3761  070D                     u2073:
  3762  070D                     l1700:
  3763  070D  3008               	movlw	8
  3764  070E  00D8               	movwf	??___flmul
  3765  070F                     u2085:
  3766  070F  1003               	clrc
  3767  0710  0DDE               	rlf	___flmul@grs,f
  3768  0711  0DDF               	rlf	___flmul@grs+1,f
  3769  0712  0DE0               	rlf	___flmul@grs+2,f
  3770  0713  0DE1               	rlf	___flmul@grs+3,f
  3771  0714  0BD8               	decfsz	??___flmul,f
  3772  0715  2F0F               	goto	u2085
  3773  0716                     l1702:
  3774  0716  0863               	movf	___flmul@bexp,w
  3775  0717  0762               	addwf	___flmul@aexp,w
  3776  0718  00D8               	movwf	??___flmul
  3777  0719  01D9               	clrf	??___flmul+1
  3778  071A  0DD9               	rlf	??___flmul+1,f
  3779  071B  0858               	movf	??___flmul,w
  3780  071C  3E82               	addlw	130
  3781  071D  00E8               	movwf	___flmul@temp
  3782  071E  0859               	movf	??___flmul+1,w
  3783  071F  1803               	skipnc
  3784  0720  3E01               	addlw	1
  3785  0721  3EFF               	addlw	255
  3786  0722  00E9               	movwf	___flmul@temp+1
  3787  0723  2F41               	goto	l1714
  3788  0724                     l1704:
  3789  0724  3001               	movlw	1
  3790  0725  00D8               	movwf	??___flmul
  3791  0726                     u2095:
  3792  0726  1003               	clrc
  3793  0727  0DE4               	rlf	___flmul@prod,f
  3794  0728  0DE5               	rlf	___flmul@prod+1,f
  3795  0729  0DE6               	rlf	___flmul@prod+2,f
  3796  072A  0DE7               	rlf	___flmul@prod+3,f
  3797  072B  0BD8               	decfsz	??___flmul,f
  3798  072C  2F26               	goto	u2095
  3799  072D                     l1706:
  3800  072D  1FE1               	btfss	___flmul@grs+3,7
  3801  072E  2F30               	goto	u2101
  3802  072F  2F31               	goto	u2100
  3803  0730                     u2101:
  3804  0730  2F32               	goto	l1710
  3805  0731                     u2100:
  3806  0731                     l1708:
  3807  0731  1464               	bsf	___flmul@prod,0
  3808  0732                     l1710:
  3809  0732  3001               	movlw	1
  3810  0733  00D8               	movwf	??___flmul
  3811  0734                     u2115:
  3812  0734  1003               	clrc
  3813  0735  0DDE               	rlf	___flmul@grs,f
  3814  0736  0DDF               	rlf	___flmul@grs+1,f
  3815  0737  0DE0               	rlf	___flmul@grs+2,f
  3816  0738  0DE1               	rlf	___flmul@grs+3,f
  3817  0739  0BD8               	decfsz	??___flmul,f
  3818  073A  2F34               	goto	u2115
  3819  073B                     l1712:
  3820  073B  30FF               	movlw	255
  3821  073C  07E8               	addwf	___flmul@temp,f
  3822  073D  1803               	skipnc
  3823  073E  0AE9               	incf	___flmul@temp+1,f
  3824  073F  30FF               	movlw	255
  3825  0740  07E9               	addwf	___flmul@temp+1,f
  3826  0741                     l1714:
  3827  0741  1FE6               	btfss	___flmul@prod+2,7
  3828  0742  2F44               	goto	u2121
  3829  0743  2F45               	goto	u2120
  3830  0744                     u2121:
  3831  0744  2F24               	goto	l1704
  3832  0745                     u2120:
  3833  0745                     l1716:
  3834  0745  01E2               	clrf	___flmul@aexp
  3835  0746                     l1718:
  3836  0746  1FE1               	btfss	___flmul@grs+3,7
  3837  0747  2F49               	goto	u2131
  3838  0748  2F4A               	goto	u2130
  3839  0749                     u2131:
  3840  0749  2F66               	goto	l1726
  3841  074A                     u2130:
  3842  074A                     l1720:
  3843  074A  30FF               	movlw	255
  3844  074B  055E               	andwf	___flmul@grs,w
  3845  074C  00D8               	movwf	??___flmul
  3846  074D  30FF               	movlw	255
  3847  074E  055F               	andwf	___flmul@grs+1,w
  3848  074F  00D9               	movwf	??___flmul+1
  3849  0750  30FF               	movlw	255
  3850  0751  0560               	andwf	___flmul@grs+2,w
  3851  0752  00DA               	movwf	??___flmul+2
  3852  0753  307F               	movlw	127
  3853  0754  0561               	andwf	___flmul@grs+3,w
  3854  0755  00DB               	movwf	??___flmul+3
  3855  0756  085B               	movf	??___flmul+3,w
  3856  0757  045A               	iorwf	??___flmul+2,w
  3857  0758  0459               	iorwf	??___flmul+1,w
  3858  0759  0458               	iorwf	??___flmul,w
  3859  075A  1903               	skipnz
  3860  075B  2F5D               	goto	u2141
  3861  075C  2F5E               	goto	u2140
  3862  075D                     u2141:
  3863  075D  2F61               	goto	l665
  3864  075E                     u2140:
  3865  075E                     l1722:
  3866  075E  01E2               	clrf	___flmul@aexp
  3867  075F  0AE2               	incf	___flmul@aexp,f
  3868  0760  2F66               	goto	l1726
  3869  0761                     l665:
  3870  0761  1C64               	btfss	___flmul@prod,0
  3871  0762  2F64               	goto	u2151
  3872  0763  2F65               	goto	u2150
  3873  0764                     u2151:
  3874  0764  2F66               	goto	l1726
  3875  0765                     u2150:
  3876  0765  2F5E               	goto	l1722
  3877  0766                     l1726:
  3878  0766  0862               	movf	___flmul@aexp,w
  3879  0767  1903               	btfsc	3,2
  3880  0768  2F6A               	goto	u2161
  3881  0769  2F6B               	goto	u2160
  3882  076A                     u2161:
  3883  076A  2F9C               	goto	l1736
  3884  076B                     u2160:
  3885  076B                     l1728:
  3886  076B  3001               	movlw	1
  3887  076C  07E4               	addwf	___flmul@prod,f
  3888  076D  3000               	movlw	0
  3889  076E  1803               	skipnc
  3890  076F  3001               	movlw	1
  3891  0770  07E5               	addwf	___flmul@prod+1,f
  3892  0771  3000               	movlw	0
  3893  0772  1803               	skipnc
  3894  0773  3001               	movlw	1
  3895  0774  07E6               	addwf	___flmul@prod+2,f
  3896  0775  3000               	movlw	0
  3897  0776  1803               	skipnc
  3898  0777  3001               	movlw	1
  3899  0778  07E7               	addwf	___flmul@prod+3,f
  3900  0779                     l1730:
  3901  0779  1C67               	btfss	___flmul@prod+3,0
  3902  077A  2F7C               	goto	u2171
  3903  077B  2F7D               	goto	u2170
  3904  077C                     u2171:
  3905  077C  2F9C               	goto	l1736
  3906  077D                     u2170:
  3907  077D                     l1732:
  3908  077D  0864               	movf	___flmul@prod,w
  3909  077E  00D8               	movwf	??___flmul
  3910  077F  0865               	movf	___flmul@prod+1,w
  3911  0780  00D9               	movwf	??___flmul+1
  3912  0781  0866               	movf	___flmul@prod+2,w
  3913  0782  00DA               	movwf	??___flmul+2
  3914  0783  0867               	movf	___flmul@prod+3,w
  3915  0784  00DB               	movwf	??___flmul+3
  3916  0785  3001               	movlw	1
  3917  0786  00DC               	movwf	??___flmul+4
  3918  0787                     u2185:
  3919  0787  0D5B               	rlf	??___flmul+3,w
  3920  0788  0CDB               	rrf	??___flmul+3,f
  3921  0789  0CDA               	rrf	??___flmul+2,f
  3922  078A  0CD9               	rrf	??___flmul+1,f
  3923  078B  0CD8               	rrf	??___flmul,f
  3924  078C                     u2180:
  3925  078C  0BDC               	decfsz	??___flmul+4,f
  3926  078D  2F87               	goto	u2185
  3927  078E  085B               	movf	??___flmul+3,w
  3928  078F  00E7               	movwf	___flmul@prod+3
  3929  0790  085A               	movf	??___flmul+2,w
  3930  0791  00E6               	movwf	___flmul@prod+2
  3931  0792  0859               	movf	??___flmul+1,w
  3932  0793  00E5               	movwf	___flmul@prod+1
  3933  0794  0858               	movf	??___flmul,w
  3934  0795  00E4               	movwf	___flmul@prod
  3935  0796                     l1734:
  3936  0796  3001               	movlw	1
  3937  0797  07E8               	addwf	___flmul@temp,f
  3938  0798  1803               	skipnc
  3939  0799  0AE9               	incf	___flmul@temp+1,f
  3940  079A  3000               	movlw	0
  3941  079B  07E9               	addwf	___flmul@temp+1,f
  3942  079C                     l1736:
  3943  079C  0869               	movf	___flmul@temp+1,w
  3944  079D  3A80               	xorlw	128
  3945  079E  00FF               	movwf	btemp+1
  3946  079F  3080               	movlw	128
  3947  07A0  027F               	subwf	btemp+1,w
  3948  07A1  1D03               	skipz
  3949  07A2  2FA5               	goto	u2195
  3950  07A3  30FF               	movlw	255
  3951  07A4  0268               	subwf	___flmul@temp,w
  3952  07A5                     u2195:
  3953  07A5  1C03               	skipc
  3954  07A6  2FA8               	goto	u2191
  3955  07A7  2FA9               	goto	u2190
  3956  07A8                     u2191:
  3957  07A8  2FB4               	goto	l1740
  3958  07A9                     u2190:
  3959  07A9                     l1738:
  3960  07A9  307F               	movlw	127
  3961  07AA  1283               	bcf	3,5	;RP0=0, select bank0
  3962  07AB  1303               	bcf	3,6	;RP1=0, select bank0
  3963  07AC  00E7               	movwf	___flmul@prod+3
  3964  07AD  3080               	movlw	128
  3965  07AE  00E6               	movwf	___flmul@prod+2
  3966  07AF  3000               	movlw	0
  3967  07B0  00E5               	movwf	___flmul@prod+1
  3968  07B1  3000               	movlw	0
  3969  07B2  00E4               	movwf	___flmul@prod
  3970  07B3  2FE9               	goto	l671
  3971  07B4                     l1740:
  3972  07B4  1283               	bcf	3,5	;RP0=0, select bank0
  3973  07B5  1303               	bcf	3,6	;RP1=0, select bank0
  3974  07B6  0869               	movf	___flmul@temp+1,w
  3975  07B7  3A80               	xorlw	128
  3976  07B8  00FF               	movwf	btemp+1
  3977  07B9  3080               	movlw	128
  3978  07BA  027F               	subwf	btemp+1,w
  3979  07BB  1D03               	skipz
  3980  07BC  2FBF               	goto	u2205
  3981  07BD  3001               	movlw	1
  3982  07BE  0268               	subwf	___flmul@temp,w
  3983  07BF                     u2205:
  3984  07BF  1803               	skipnc
  3985  07C0  2FC2               	goto	u2201
  3986  07C1  2FC3               	goto	u2200
  3987  07C2                     u2201:
  3988  07C2  2FCF               	goto	l1746
  3989  07C3                     u2200:
  3990  07C3                     l1742:
  3991  07C3  3000               	movlw	0
  3992  07C4  1283               	bcf	3,5	;RP0=0, select bank0
  3993  07C5  1303               	bcf	3,6	;RP1=0, select bank0
  3994  07C6  00E7               	movwf	___flmul@prod+3
  3995  07C7  3000               	movlw	0
  3996  07C8  00E6               	movwf	___flmul@prod+2
  3997  07C9  3000               	movlw	0
  3998  07CA  00E5               	movwf	___flmul@prod+1
  3999  07CB  3000               	movlw	0
  4000  07CC  00E4               	movwf	___flmul@prod
  4001  07CD                     l1744:
  4002  07CD  01DD               	clrf	___flmul@sign
  4003  07CE  2FE9               	goto	l671
  4004  07CF                     l1746:
  4005  07CF  1283               	bcf	3,5	;RP0=0, select bank0
  4006  07D0  1303               	bcf	3,6	;RP1=0, select bank0
  4007  07D1  0868               	movf	___flmul@temp,w
  4008  07D2  00D8               	movwf	??___flmul
  4009  07D3  0858               	movf	??___flmul,w
  4010  07D4  00E3               	movwf	___flmul@bexp
  4011  07D5  30FF               	movlw	255
  4012  07D6  05E4               	andwf	___flmul@prod,f
  4013  07D7  30FF               	movlw	255
  4014  07D8  05E5               	andwf	___flmul@prod+1,f
  4015  07D9  307F               	movlw	127
  4016  07DA  05E6               	andwf	___flmul@prod+2,f
  4017  07DB  3000               	movlw	0
  4018  07DC  05E7               	andwf	___flmul@prod+3,f
  4019  07DD                     l1748:
  4020  07DD  1C63               	btfss	___flmul@bexp,0
  4021  07DE  2FE0               	goto	u2211
  4022  07DF  2FE1               	goto	u2210
  4023  07E0                     u2211:
  4024  07E0  2FE2               	goto	l1752
  4025  07E1                     u2210:
  4026  07E1                     l1750:
  4027  07E1  17E6               	bsf	___flmul@prod+2,7
  4028  07E2                     l1752:
  4029  07E2  0863               	movf	___flmul@bexp,w
  4030  07E3  00D8               	movwf	??___flmul
  4031  07E4  1003               	clrc
  4032  07E5  0C58               	rrf	??___flmul,w
  4033  07E6  00D9               	movwf	??___flmul+1
  4034  07E7  0859               	movf	??___flmul+1,w
  4035  07E8  00E7               	movwf	___flmul@prod+3
  4036  07E9                     l671:
  4037  07E9  085D               	movf	___flmul@sign,w
  4038  07EA  00D8               	movwf	??___flmul
  4039  07EB  0858               	movf	??___flmul,w
  4040  07EC  04E7               	iorwf	___flmul@prod+3,f
  4041  07ED                     l1754:
  4042  07ED  0867               	movf	___flmul@prod+3,w
  4043  07EE  00D3               	movwf	?___flmul+3
  4044  07EF  0866               	movf	___flmul@prod+2,w
  4045  07F0  00D2               	movwf	?___flmul+2
  4046  07F1  0865               	movf	___flmul@prod+1,w
  4047  07F2  00D1               	movwf	?___flmul+1
  4048  07F3  0864               	movf	___flmul@prod,w
  4049  07F4  00D0               	movwf	?___flmul
  4050  07F5                     l659:
  4051  07F5  0008               	return
  4052  07F6                     __end_of___flmul:
  4053                           
  4054                           	psect	text18
  4055  0CD8                     __ptext18:	
  4056 ;; *************** function __Umul8_16 *****************
  4057 ;; Defined at:
  4058 ;;		line 4 in file "C:\Program Files\Microchip\xc8\v2.32\pic\sources\c90\common\Umul8_16.c"
  4059 ;; Parameters:    Size  Location     Type
  4060 ;;  multiplier      1    wreg     unsigned char 
  4061 ;;  multiplicand    1    0[COMMON] unsigned char 
  4062 ;; Auto vars:     Size  Location     Type
  4063 ;;  multiplier      1    8[COMMON] unsigned char 
  4064 ;;  word_mpld       2    6[COMMON] unsigned int 
  4065 ;;  product         2    4[COMMON] unsigned int 
  4066 ;; Return value:  Size  Location     Type
  4067 ;;                  2    0[COMMON] unsigned int 
  4068 ;; Registers used:
  4069 ;;		wreg, status,2, status,0
  4070 ;; Tracked objects:
  4071 ;;		On entry : 0/0
  4072 ;;		On exit  : 0/0
  4073 ;;		Unchanged: 0/0
  4074 ;; Data sizes:     COMMON   BANK0   BANK1   BANK3   BANK2
  4075 ;;      Params:         2       0       0       0       0
  4076 ;;      Locals:         5       0       0       0       0
  4077 ;;      Temps:          2       0       0       0       0
  4078 ;;      Totals:         9       0       0       0       0
  4079 ;;Total ram usage:        9 bytes
  4080 ;; Hardware stack levels used: 1
  4081 ;; This function calls:
  4082 ;;		Nothing
  4083 ;; This function is called by:
  4084 ;;		___flmul
  4085 ;; This function uses a non-reentrant model
  4086 ;;
  4087                           
  4088                           
  4089                           ;psect for function __Umul8_16
  4090  0CD8                     __Umul8_16:
  4091                           
  4092                           ;incstack = 0
  4093                           ; Regs used in __Umul8_16: [wreg+status,2+status,0]
  4094                           ;__Umul8_16@multiplier stored from wreg
  4095  0CD8  00F8               	movwf	__Umul8_16@multiplier
  4096  0CD9                     l1416:
  4097  0CD9  01F4               	clrf	__Umul8_16@product
  4098  0CDA  01F5               	clrf	__Umul8_16@product+1
  4099  0CDB                     l1418:
  4100  0CDB  0870               	movf	__Umul8_16@multiplicand,w
  4101  0CDC  00F2               	movwf	??__Umul8_16
  4102  0CDD  01F3               	clrf	??__Umul8_16+1
  4103  0CDE  0872               	movf	??__Umul8_16,w
  4104  0CDF  00F6               	movwf	__Umul8_16@word_mpld
  4105  0CE0  0873               	movf	??__Umul8_16+1,w
  4106  0CE1  00F7               	movwf	__Umul8_16@word_mpld+1
  4107  0CE2                     l1420:
  4108  0CE2  1C78               	btfss	__Umul8_16@multiplier,0
  4109  0CE3  2CE5               	goto	u1401
  4110  0CE4  2CE6               	goto	u1400
  4111  0CE5                     u1401:
  4112  0CE5  2CEC               	goto	l678
  4113  0CE6                     u1400:
  4114  0CE6                     l1422:
  4115  0CE6  0876               	movf	__Umul8_16@word_mpld,w
  4116  0CE7  07F4               	addwf	__Umul8_16@product,f
  4117  0CE8  1803               	skipnc
  4118  0CE9  0AF5               	incf	__Umul8_16@product+1,f
  4119  0CEA  0877               	movf	__Umul8_16@word_mpld+1,w
  4120  0CEB  07F5               	addwf	__Umul8_16@product+1,f
  4121  0CEC                     l678:
  4122  0CEC  3001               	movlw	1
  4123  0CED                     u1415:
  4124  0CED  1003               	clrc
  4125  0CEE  0DF6               	rlf	__Umul8_16@word_mpld,f
  4126  0CEF  0DF7               	rlf	__Umul8_16@word_mpld+1,f
  4127  0CF0  3EFF               	addlw	-1
  4128  0CF1  1D03               	skipz
  4129  0CF2  2CED               	goto	u1415
  4130  0CF3  1003               	clrc
  4131  0CF4  0CF8               	rrf	__Umul8_16@multiplier,f
  4132  0CF5                     l1424:
  4133  0CF5  0878               	movf	__Umul8_16@multiplier,w
  4134  0CF6  1D03               	btfss	3,2
  4135  0CF7  2CF9               	goto	u1421
  4136  0CF8  2CFA               	goto	u1420
  4137  0CF9                     u1421:
  4138  0CF9  2CE2               	goto	l1420
  4139  0CFA                     u1420:
  4140  0CFA                     l1426:
  4141  0CFA  0875               	movf	__Umul8_16@product+1,w
  4142  0CFB  00F1               	movwf	?__Umul8_16+1
  4143  0CFC  0874               	movf	__Umul8_16@product,w
  4144  0CFD  00F0               	movwf	?__Umul8_16
  4145  0CFE                     l680:
  4146  0CFE  0008               	return
  4147  0CFF                     __end_of__Umul8_16:
  4148                           
  4149                           	psect	text19
  4150  02B8                     __ptext19:	
  4151 ;; *************** function ___fldiv *****************
  4152 ;; Defined at:
  4153 ;;		line 8 in file "C:\Program Files\Microchip\xc8\v2.32\pic\sources\c90\common\sprcdiv.c"
  4154 ;; Parameters:    Size  Location     Type
  4155 ;;  a               4   22[BANK0 ] unsigned int 
  4156 ;;  b               4   26[BANK0 ] unsigned int 
  4157 ;; Auto vars:     Size  Location     Type
  4158 ;;  grs             4   42[BANK0 ] unsigned long 
  4159 ;;  rem             4   35[BANK0 ] unsigned long 
  4160 ;;  new_exp         2   40[BANK0 ] int 
  4161 ;;  aexp            1   47[BANK0 ] unsigned char 
  4162 ;;  bexp            1   46[BANK0 ] unsigned char 
  4163 ;;  sign            1   39[BANK0 ] unsigned char 
  4164 ;; Return value:  Size  Location     Type
  4165 ;;                  4   22[BANK0 ] unsigned char 
  4166 ;; Registers used:
  4167 ;;		wreg, status,2, status,0, btemp+1
  4168 ;; Tracked objects:
  4169 ;;		On entry : 0/0
  4170 ;;		On exit  : 0/0
  4171 ;;		Unchanged: 0/0
  4172 ;; Data sizes:     COMMON   BANK0   BANK1   BANK3   BANK2
  4173 ;;      Params:         0       8       0       0       0
  4174 ;;      Locals:         0      13       0       0       0
  4175 ;;      Temps:          0       5       0       0       0
  4176 ;;      Totals:         0      26       0       0       0
  4177 ;;Total ram usage:       26 bytes
  4178 ;; Hardware stack levels used: 1
  4179 ;; This function calls:
  4180 ;;		Nothing
  4181 ;; This function is called by:
  4182 ;;		_PWM1_Duty
  4183 ;;		_PWM2_Duty
  4184 ;; This function uses a non-reentrant model
  4185 ;;
  4186                           
  4187                           
  4188                           ;psect for function ___fldiv
  4189  02B8                     ___fldiv:
  4190  02B8                     l1476:	
  4191                           ;incstack = 0
  4192                           ; Regs used in ___fldiv: [wreg+status,2+status,0+btemp+1]
  4193                           
  4194  02B8  1283               	bcf	3,5	;RP0=0, select bank0
  4195  02B9  1303               	bcf	3,6	;RP1=0, select bank0
  4196  02BA  083D               	movf	___fldiv@b+3,w
  4197  02BB  3980               	andlw	128
  4198  02BC  00BE               	movwf	??___fldiv
  4199  02BD  083E               	movf	??___fldiv,w
  4200  02BE  00C7               	movwf	___fldiv@sign
  4201  02BF                     l1478:
  4202  02BF  083D               	movf	___fldiv@b+3,w
  4203  02C0  00BE               	movwf	??___fldiv
  4204  02C1  073E               	addwf	??___fldiv,w
  4205  02C2  00BF               	movwf	??___fldiv+1
  4206  02C3  083F               	movf	??___fldiv+1,w
  4207  02C4  00CE               	movwf	___fldiv@bexp
  4208  02C5                     l1480:
  4209  02C5  1FBC               	btfss	___fldiv@b+2,7
  4210  02C6  2AC8               	goto	u1561
  4211  02C7  2AC9               	goto	u1560
  4212  02C8                     u1561:
  4213  02C8  2ACA               	goto	l1484
  4214  02C9                     u1560:
  4215  02C9                     l1482:
  4216  02C9  144E               	bsf	___fldiv@bexp,0
  4217  02CA                     l1484:
  4218  02CA  084E               	movf	___fldiv@bexp,w
  4219  02CB  1903               	btfsc	3,2
  4220  02CC  2ACE               	goto	u1571
  4221  02CD  2ACF               	goto	u1570
  4222  02CE                     u1571:
  4223  02CE  2ADF               	goto	l1494
  4224  02CF                     u1570:
  4225  02CF                     l1486:
  4226  02CF  0A4E               	incf	___fldiv@bexp,w
  4227  02D0  1D03               	btfss	3,2
  4228  02D1  2AD3               	goto	u1581
  4229  02D2  2AD4               	goto	u1580
  4230  02D3                     u1581:
  4231  02D3  2ADC               	goto	l1490
  4232  02D4                     u1580:
  4233  02D4                     l1488:
  4234  02D4  3000               	movlw	0
  4235  02D5  00BD               	movwf	___fldiv@b+3
  4236  02D6  3000               	movlw	0
  4237  02D7  00BC               	movwf	___fldiv@b+2
  4238  02D8  3000               	movlw	0
  4239  02D9  00BB               	movwf	___fldiv@b+1
  4240  02DA  3000               	movlw	0
  4241  02DB  00BA               	movwf	___fldiv@b
  4242  02DC                     l1490:
  4243  02DC  17BC               	bsf	___fldiv@b+2,7
  4244  02DD                     l1492:
  4245  02DD  01BD               	clrf	___fldiv@b+3
  4246  02DE  2AE7               	goto	l1496
  4247  02DF                     l1494:
  4248  02DF  3000               	movlw	0
  4249  02E0  00BD               	movwf	___fldiv@b+3
  4250  02E1  3000               	movlw	0
  4251  02E2  00BC               	movwf	___fldiv@b+2
  4252  02E3  3000               	movlw	0
  4253  02E4  00BB               	movwf	___fldiv@b+1
  4254  02E5  3000               	movlw	0
  4255  02E6  00BA               	movwf	___fldiv@b
  4256  02E7                     l1496:
  4257  02E7  0839               	movf	___fldiv@a+3,w
  4258  02E8  3980               	andlw	128
  4259  02E9  00BE               	movwf	??___fldiv
  4260  02EA  083E               	movf	??___fldiv,w
  4261  02EB  06C7               	xorwf	___fldiv@sign,f
  4262  02EC                     l1498:
  4263  02EC  0839               	movf	___fldiv@a+3,w
  4264  02ED  00BE               	movwf	??___fldiv
  4265  02EE  073E               	addwf	??___fldiv,w
  4266  02EF  00BF               	movwf	??___fldiv+1
  4267  02F0  083F               	movf	??___fldiv+1,w
  4268  02F1  00CF               	movwf	___fldiv@aexp
  4269  02F2                     l1500:
  4270  02F2  1FB8               	btfss	___fldiv@a+2,7
  4271  02F3  2AF5               	goto	u1591
  4272  02F4  2AF6               	goto	u1590
  4273  02F5                     u1591:
  4274  02F5  2AF7               	goto	l1504
  4275  02F6                     u1590:
  4276  02F6                     l1502:
  4277  02F6  144F               	bsf	___fldiv@aexp,0
  4278  02F7                     l1504:
  4279  02F7  084F               	movf	___fldiv@aexp,w
  4280  02F8  1903               	btfsc	3,2
  4281  02F9  2AFB               	goto	u1601
  4282  02FA  2AFC               	goto	u1600
  4283  02FB                     u1601:
  4284  02FB  2B0C               	goto	l1514
  4285  02FC                     u1600:
  4286  02FC                     l1506:
  4287  02FC  0A4F               	incf	___fldiv@aexp,w
  4288  02FD  1D03               	btfss	3,2
  4289  02FE  2B00               	goto	u1611
  4290  02FF  2B01               	goto	u1610
  4291  0300                     u1611:
  4292  0300  2B09               	goto	l1510
  4293  0301                     u1610:
  4294  0301                     l1508:
  4295  0301  3000               	movlw	0
  4296  0302  00B9               	movwf	___fldiv@a+3
  4297  0303  3000               	movlw	0
  4298  0304  00B8               	movwf	___fldiv@a+2
  4299  0305  3000               	movlw	0
  4300  0306  00B7               	movwf	___fldiv@a+1
  4301  0307  3000               	movlw	0
  4302  0308  00B6               	movwf	___fldiv@a
  4303  0309                     l1510:
  4304  0309  17B8               	bsf	___fldiv@a+2,7
  4305  030A                     l1512:
  4306  030A  01B9               	clrf	___fldiv@a+3
  4307  030B  2B14               	goto	l619
  4308  030C                     l1514:
  4309  030C  3000               	movlw	0
  4310  030D  00B9               	movwf	___fldiv@a+3
  4311  030E  3000               	movlw	0
  4312  030F  00B8               	movwf	___fldiv@a+2
  4313  0310  3000               	movlw	0
  4314  0311  00B7               	movwf	___fldiv@a+1
  4315  0312  3000               	movlw	0
  4316  0313  00B6               	movwf	___fldiv@a
  4317  0314                     l619:
  4318  0314  0839               	movf	___fldiv@a+3,w
  4319  0315  0438               	iorwf	___fldiv@a+2,w
  4320  0316  0437               	iorwf	___fldiv@a+1,w
  4321  0317  0436               	iorwf	___fldiv@a,w
  4322  0318  1D03               	skipz
  4323  0319  2B1B               	goto	u1621
  4324  031A  2B1C               	goto	u1620
  4325  031B                     u1621:
  4326  031B  2B35               	goto	l1524
  4327  031C                     u1620:
  4328  031C                     l1516:
  4329  031C  3000               	movlw	0
  4330  031D  00BD               	movwf	___fldiv@b+3
  4331  031E  3000               	movlw	0
  4332  031F  00BC               	movwf	___fldiv@b+2
  4333  0320  3000               	movlw	0
  4334  0321  00BB               	movwf	___fldiv@b+1
  4335  0322  3000               	movlw	0
  4336  0323  00BA               	movwf	___fldiv@b
  4337  0324  3080               	movlw	128
  4338  0325  04BC               	iorwf	___fldiv@b+2,f
  4339  0326  307F               	movlw	127
  4340  0327  04BD               	iorwf	___fldiv@b+3,f
  4341  0328                     l1518:
  4342  0328  0847               	movf	___fldiv@sign,w
  4343  0329  00BE               	movwf	??___fldiv
  4344  032A  083E               	movf	??___fldiv,w
  4345  032B  04BD               	iorwf	___fldiv@b+3,f
  4346  032C                     l1520:
  4347  032C  083D               	movf	___fldiv@b+3,w
  4348  032D  00B9               	movwf	?___fldiv+3
  4349  032E  083C               	movf	___fldiv@b+2,w
  4350  032F  00B8               	movwf	?___fldiv+2
  4351  0330  083B               	movf	___fldiv@b+1,w
  4352  0331  00B7               	movwf	?___fldiv+1
  4353  0332  083A               	movf	___fldiv@b,w
  4354  0333  00B6               	movwf	?___fldiv
  4355  0334  2C94               	goto	l621
  4356  0335                     l1524:
  4357  0335  084E               	movf	___fldiv@bexp,w
  4358  0336  1D03               	btfss	3,2
  4359  0337  2B39               	goto	u1631
  4360  0338  2B3A               	goto	u1630
  4361  0339                     u1631:
  4362  0339  2B43               	goto	l1530
  4363  033A                     u1630:
  4364  033A                     l1526:
  4365  033A  3000               	movlw	0
  4366  033B  00B9               	movwf	?___fldiv+3
  4367  033C  3000               	movlw	0
  4368  033D  00B8               	movwf	?___fldiv+2
  4369  033E  3000               	movlw	0
  4370  033F  00B7               	movwf	?___fldiv+1
  4371  0340  3000               	movlw	0
  4372  0341  00B6               	movwf	?___fldiv
  4373  0342  2C94               	goto	l621
  4374  0343                     l1530:
  4375  0343  084E               	movf	___fldiv@bexp,w
  4376  0344  00BE               	movwf	??___fldiv
  4377  0345  01BF               	clrf	??___fldiv+1
  4378  0346  083F               	movf	??___fldiv+1,w
  4379  0347  00C1               	movwf	??___fldiv+3
  4380  0348  084F               	movf	___fldiv@aexp,w
  4381  0349  023E               	subwf	??___fldiv,w
  4382  034A  00C0               	movwf	??___fldiv+2
  4383  034B  1C03               	skipc
  4384  034C  03C1               	decf	??___fldiv+3,f
  4385  034D  0840               	movf	??___fldiv+2,w
  4386  034E  3E7F               	addlw	127
  4387  034F  00C8               	movwf	___fldiv@new_exp
  4388  0350  0841               	movf	??___fldiv+3,w
  4389  0351  1803               	skipnc
  4390  0352  3E01               	addlw	1
  4391  0353  3E00               	addlw	0
  4392  0354  00C9               	movwf	___fldiv@new_exp+1
  4393  0355                     l1532:
  4394  0355  083D               	movf	___fldiv@b+3,w
  4395  0356  00C6               	movwf	___fldiv@rem+3
  4396  0357  083C               	movf	___fldiv@b+2,w
  4397  0358  00C5               	movwf	___fldiv@rem+2
  4398  0359  083B               	movf	___fldiv@b+1,w
  4399  035A  00C4               	movwf	___fldiv@rem+1
  4400  035B  083A               	movf	___fldiv@b,w
  4401  035C  00C3               	movwf	___fldiv@rem
  4402  035D                     l1534:
  4403  035D  3000               	movlw	0
  4404  035E  00BD               	movwf	___fldiv@b+3
  4405  035F  3000               	movlw	0
  4406  0360  00BC               	movwf	___fldiv@b+2
  4407  0361  3000               	movlw	0
  4408  0362  00BB               	movwf	___fldiv@b+1
  4409  0363  3000               	movlw	0
  4410  0364  00BA               	movwf	___fldiv@b
  4411  0365                     l1536:
  4412  0365  3000               	movlw	0
  4413  0366  00CD               	movwf	___fldiv@grs+3
  4414  0367  3000               	movlw	0
  4415  0368  00CC               	movwf	___fldiv@grs+2
  4416  0369  3000               	movlw	0
  4417  036A  00CB               	movwf	___fldiv@grs+1
  4418  036B  3000               	movlw	0
  4419  036C  00CA               	movwf	___fldiv@grs
  4420  036D                     l1538:
  4421  036D  01CF               	clrf	___fldiv@aexp
  4422  036E  2BB9               	goto	l1558
  4423  036F                     l1540:
  4424  036F  084F               	movf	___fldiv@aexp,w
  4425  0370  1903               	btfsc	3,2
  4426  0371  2B73               	goto	u1641
  4427  0372  2B74               	goto	u1640
  4428  0373                     u1641:
  4429  0373  2B94               	goto	l1550
  4430  0374                     u1640:
  4431  0374                     l1542:
  4432  0374  3001               	movlw	1
  4433  0375  00BE               	movwf	??___fldiv
  4434  0376                     u1655:
  4435  0376  1003               	clrc
  4436  0377  0DC3               	rlf	___fldiv@rem,f
  4437  0378  0DC4               	rlf	___fldiv@rem+1,f
  4438  0379  0DC5               	rlf	___fldiv@rem+2,f
  4439  037A  0DC6               	rlf	___fldiv@rem+3,f
  4440  037B  0BBE               	decfsz	??___fldiv,f
  4441  037C  2B76               	goto	u1655
  4442  037D  3001               	movlw	1
  4443  037E  00BE               	movwf	??___fldiv
  4444  037F                     u1665:
  4445  037F  1003               	clrc
  4446  0380  0DBA               	rlf	___fldiv@b,f
  4447  0381  0DBB               	rlf	___fldiv@b+1,f
  4448  0382  0DBC               	rlf	___fldiv@b+2,f
  4449  0383  0DBD               	rlf	___fldiv@b+3,f
  4450  0384  0BBE               	decfsz	??___fldiv,f
  4451  0385  2B7F               	goto	u1665
  4452  0386                     l1544:
  4453  0386  1FCD               	btfss	___fldiv@grs+3,7
  4454  0387  2B89               	goto	u1671
  4455  0388  2B8A               	goto	u1670
  4456  0389                     u1671:
  4457  0389  2B8B               	goto	l1548
  4458  038A                     u1670:
  4459  038A                     l1546:
  4460  038A  143A               	bsf	___fldiv@b,0
  4461  038B                     l1548:
  4462  038B  3001               	movlw	1
  4463  038C  00BE               	movwf	??___fldiv
  4464  038D                     u1685:
  4465  038D  1003               	clrc
  4466  038E  0DCA               	rlf	___fldiv@grs,f
  4467  038F  0DCB               	rlf	___fldiv@grs+1,f
  4468  0390  0DCC               	rlf	___fldiv@grs+2,f
  4469  0391  0DCD               	rlf	___fldiv@grs+3,f
  4470  0392  0BBE               	decfsz	??___fldiv,f
  4471  0393  2B8D               	goto	u1685
  4472  0394                     l1550:
  4473  0394  0839               	movf	___fldiv@a+3,w
  4474  0395  0246               	subwf	___fldiv@rem+3,w
  4475  0396  1D03               	skipz
  4476  0397  2BA2               	goto	u1695
  4477  0398  0838               	movf	___fldiv@a+2,w
  4478  0399  0245               	subwf	___fldiv@rem+2,w
  4479  039A  1D03               	skipz
  4480  039B  2BA2               	goto	u1695
  4481  039C  0837               	movf	___fldiv@a+1,w
  4482  039D  0244               	subwf	___fldiv@rem+1,w
  4483  039E  1D03               	skipz
  4484  039F  2BA2               	goto	u1695
  4485  03A0  0836               	movf	___fldiv@a,w
  4486  03A1  0243               	subwf	___fldiv@rem,w
  4487  03A2                     u1695:
  4488  03A2  1C03               	skipc
  4489  03A3  2BA5               	goto	u1691
  4490  03A4  2BA6               	goto	u1690
  4491  03A5                     u1691:
  4492  03A5  2BB5               	goto	l1556
  4493  03A6                     u1690:
  4494  03A6                     l1552:
  4495  03A6  174D               	bsf	___fldiv@grs+3,6
  4496  03A7                     l1554:
  4497  03A7  0836               	movf	___fldiv@a,w
  4498  03A8  02C3               	subwf	___fldiv@rem,f
  4499  03A9  0837               	movf	___fldiv@a+1,w
  4500  03AA  1C03               	skipc
  4501  03AB  0F37               	incfsz	___fldiv@a+1,w
  4502  03AC  02C4               	subwf	___fldiv@rem+1,f
  4503  03AD  0838               	movf	___fldiv@a+2,w
  4504  03AE  1C03               	skipc
  4505  03AF  0F38               	incfsz	___fldiv@a+2,w
  4506  03B0  02C5               	subwf	___fldiv@rem+2,f
  4507  03B1  0839               	movf	___fldiv@a+3,w
  4508  03B2  1C03               	skipc
  4509  03B3  0F39               	incfsz	___fldiv@a+3,w
  4510  03B4  02C6               	subwf	___fldiv@rem+3,f
  4511  03B5                     l1556:
  4512  03B5  3001               	movlw	1
  4513  03B6  00BE               	movwf	??___fldiv
  4514  03B7  083E               	movf	??___fldiv,w
  4515  03B8  07CF               	addwf	___fldiv@aexp,f
  4516  03B9                     l1558:
  4517  03B9  301A               	movlw	26
  4518  03BA  024F               	subwf	___fldiv@aexp,w
  4519  03BB  1C03               	skipc
  4520  03BC  2BBE               	goto	u1701
  4521  03BD  2BBF               	goto	u1700
  4522  03BE                     u1701:
  4523  03BE  2B6F               	goto	l1540
  4524  03BF                     u1700:
  4525  03BF                     l1560:
  4526  03BF  0846               	movf	___fldiv@rem+3,w
  4527  03C0  0445               	iorwf	___fldiv@rem+2,w
  4528  03C1  0444               	iorwf	___fldiv@rem+1,w
  4529  03C2  0443               	iorwf	___fldiv@rem,w
  4530  03C3  1903               	skipnz
  4531  03C4  2BC6               	goto	u1711
  4532  03C5  2BC7               	goto	u1710
  4533  03C6                     u1711:
  4534  03C6  2BE6               	goto	l1574
  4535  03C7                     u1710:
  4536  03C7                     l1562:
  4537  03C7  144A               	bsf	___fldiv@grs,0
  4538  03C8  2BE6               	goto	l1574
  4539  03C9                     l1564:
  4540  03C9  3001               	movlw	1
  4541  03CA  00BE               	movwf	??___fldiv
  4542  03CB                     u1725:
  4543  03CB  1003               	clrc
  4544  03CC  0DBA               	rlf	___fldiv@b,f
  4545  03CD  0DBB               	rlf	___fldiv@b+1,f
  4546  03CE  0DBC               	rlf	___fldiv@b+2,f
  4547  03CF  0DBD               	rlf	___fldiv@b+3,f
  4548  03D0  0BBE               	decfsz	??___fldiv,f
  4549  03D1  2BCB               	goto	u1725
  4550  03D2                     l1566:
  4551  03D2  1FCD               	btfss	___fldiv@grs+3,7
  4552  03D3  2BD5               	goto	u1731
  4553  03D4  2BD6               	goto	u1730
  4554  03D5                     u1731:
  4555  03D5  2BD7               	goto	l1570
  4556  03D6                     u1730:
  4557  03D6                     l1568:
  4558  03D6  143A               	bsf	___fldiv@b,0
  4559  03D7                     l1570:
  4560  03D7  3001               	movlw	1
  4561  03D8  00BE               	movwf	??___fldiv
  4562  03D9                     u1745:
  4563  03D9  1003               	clrc
  4564  03DA  0DCA               	rlf	___fldiv@grs,f
  4565  03DB  0DCB               	rlf	___fldiv@grs+1,f
  4566  03DC  0DCC               	rlf	___fldiv@grs+2,f
  4567  03DD  0DCD               	rlf	___fldiv@grs+3,f
  4568  03DE  0BBE               	decfsz	??___fldiv,f
  4569  03DF  2BD9               	goto	u1745
  4570  03E0                     l1572:
  4571  03E0  30FF               	movlw	255
  4572  03E1  07C8               	addwf	___fldiv@new_exp,f
  4573  03E2  1803               	skipnc
  4574  03E3  0AC9               	incf	___fldiv@new_exp+1,f
  4575  03E4  30FF               	movlw	255
  4576  03E5  07C9               	addwf	___fldiv@new_exp+1,f
  4577  03E6                     l1574:
  4578  03E6  1FBC               	btfss	___fldiv@b+2,7
  4579  03E7  2BE9               	goto	u1751
  4580  03E8  2BEA               	goto	u1750
  4581  03E9                     u1751:
  4582  03E9  2BC9               	goto	l1564
  4583  03EA                     u1750:
  4584  03EA                     l1576:
  4585  03EA  01CF               	clrf	___fldiv@aexp
  4586  03EB                     l1578:
  4587  03EB  1FCD               	btfss	___fldiv@grs+3,7
  4588  03EC  2BEE               	goto	u1761
  4589  03ED  2BEF               	goto	u1760
  4590  03EE                     u1761:
  4591  03EE  2C0B               	goto	l1586
  4592  03EF                     u1760:
  4593  03EF                     l1580:
  4594  03EF  30FF               	movlw	255
  4595  03F0  054A               	andwf	___fldiv@grs,w
  4596  03F1  00BE               	movwf	??___fldiv
  4597  03F2  30FF               	movlw	255
  4598  03F3  054B               	andwf	___fldiv@grs+1,w
  4599  03F4  00BF               	movwf	??___fldiv+1
  4600  03F5  30FF               	movlw	255
  4601  03F6  054C               	andwf	___fldiv@grs+2,w
  4602  03F7  00C0               	movwf	??___fldiv+2
  4603  03F8  307F               	movlw	127
  4604  03F9  054D               	andwf	___fldiv@grs+3,w
  4605  03FA  00C1               	movwf	??___fldiv+3
  4606  03FB  0841               	movf	??___fldiv+3,w
  4607  03FC  0440               	iorwf	??___fldiv+2,w
  4608  03FD  043F               	iorwf	??___fldiv+1,w
  4609  03FE  043E               	iorwf	??___fldiv,w
  4610  03FF  1903               	skipnz
  4611  0400  2C02               	goto	u1771
  4612  0401  2C03               	goto	u1770
  4613  0402                     u1771:
  4614  0402  2C06               	goto	l635
  4615  0403                     u1770:
  4616  0403                     l1582:
  4617  0403  01CF               	clrf	___fldiv@aexp
  4618  0404  0ACF               	incf	___fldiv@aexp,f
  4619  0405  2C0B               	goto	l1586
  4620  0406                     l635:
  4621  0406  1C3A               	btfss	___fldiv@b,0
  4622  0407  2C09               	goto	u1781
  4623  0408  2C0A               	goto	u1780
  4624  0409                     u1781:
  4625  0409  2C0B               	goto	l1586
  4626  040A                     u1780:
  4627  040A  2C03               	goto	l1582
  4628  040B                     l1586:
  4629  040B  084F               	movf	___fldiv@aexp,w
  4630  040C  1903               	btfsc	3,2
  4631  040D  2C0F               	goto	u1791
  4632  040E  2C10               	goto	u1790
  4633  040F                     u1791:
  4634  040F  2C41               	goto	l1596
  4635  0410                     u1790:
  4636  0410                     l1588:
  4637  0410  3001               	movlw	1
  4638  0411  07BA               	addwf	___fldiv@b,f
  4639  0412  3000               	movlw	0
  4640  0413  1803               	skipnc
  4641  0414  3001               	movlw	1
  4642  0415  07BB               	addwf	___fldiv@b+1,f
  4643  0416  3000               	movlw	0
  4644  0417  1803               	skipnc
  4645  0418  3001               	movlw	1
  4646  0419  07BC               	addwf	___fldiv@b+2,f
  4647  041A  3000               	movlw	0
  4648  041B  1803               	skipnc
  4649  041C  3001               	movlw	1
  4650  041D  07BD               	addwf	___fldiv@b+3,f
  4651  041E                     l1590:
  4652  041E  1C3D               	btfss	___fldiv@b+3,0
  4653  041F  2C21               	goto	u1801
  4654  0420  2C22               	goto	u1800
  4655  0421                     u1801:
  4656  0421  2C41               	goto	l1596
  4657  0422                     u1800:
  4658  0422                     l1592:
  4659  0422  083A               	movf	___fldiv@b,w
  4660  0423  00BE               	movwf	??___fldiv
  4661  0424  083B               	movf	___fldiv@b+1,w
  4662  0425  00BF               	movwf	??___fldiv+1
  4663  0426  083C               	movf	___fldiv@b+2,w
  4664  0427  00C0               	movwf	??___fldiv+2
  4665  0428  083D               	movf	___fldiv@b+3,w
  4666  0429  00C1               	movwf	??___fldiv+3
  4667  042A  3001               	movlw	1
  4668  042B  00C2               	movwf	??___fldiv+4
  4669  042C                     u1815:
  4670  042C  0D41               	rlf	??___fldiv+3,w
  4671  042D  0CC1               	rrf	??___fldiv+3,f
  4672  042E  0CC0               	rrf	??___fldiv+2,f
  4673  042F  0CBF               	rrf	??___fldiv+1,f
  4674  0430  0CBE               	rrf	??___fldiv,f
  4675  0431                     u1810:
  4676  0431  0BC2               	decfsz	??___fldiv+4,f
  4677  0432  2C2C               	goto	u1815
  4678  0433  0841               	movf	??___fldiv+3,w
  4679  0434  00BD               	movwf	___fldiv@b+3
  4680  0435  0840               	movf	??___fldiv+2,w
  4681  0436  00BC               	movwf	___fldiv@b+2
  4682  0437  083F               	movf	??___fldiv+1,w
  4683  0438  00BB               	movwf	___fldiv@b+1
  4684  0439  083E               	movf	??___fldiv,w
  4685  043A  00BA               	movwf	___fldiv@b
  4686  043B                     l1594:
  4687  043B  3001               	movlw	1
  4688  043C  07C8               	addwf	___fldiv@new_exp,f
  4689  043D  1803               	skipnc
  4690  043E  0AC9               	incf	___fldiv@new_exp+1,f
  4691  043F  3000               	movlw	0
  4692  0440  07C9               	addwf	___fldiv@new_exp+1,f
  4693  0441                     l1596:
  4694  0441  0849               	movf	___fldiv@new_exp+1,w
  4695  0442  3A80               	xorlw	128
  4696  0443  00FF               	movwf	btemp+1
  4697  0444  3080               	movlw	128
  4698  0445  027F               	subwf	btemp+1,w
  4699  0446  1D03               	skipz
  4700  0447  2C4A               	goto	u1825
  4701  0448  30FF               	movlw	255
  4702  0449  0248               	subwf	___fldiv@new_exp,w
  4703  044A                     u1825:
  4704  044A  1C03               	skipc
  4705  044B  2C4D               	goto	u1821
  4706  044C  2C4E               	goto	u1820
  4707  044D                     u1821:
  4708  044D  2C5C               	goto	l1600
  4709  044E                     u1820:
  4710  044E                     l1598:
  4711  044E  30FF               	movlw	255
  4712  044F  1283               	bcf	3,5	;RP0=0, select bank0
  4713  0450  1303               	bcf	3,6	;RP1=0, select bank0
  4714  0451  00C8               	movwf	___fldiv@new_exp
  4715  0452  3000               	movlw	0
  4716  0453  00C9               	movwf	___fldiv@new_exp+1
  4717  0454  3000               	movlw	0
  4718  0455  00BD               	movwf	___fldiv@b+3
  4719  0456  3000               	movlw	0
  4720  0457  00BC               	movwf	___fldiv@b+2
  4721  0458  3000               	movlw	0
  4722  0459  00BB               	movwf	___fldiv@b+1
  4723  045A  3000               	movlw	0
  4724  045B  00BA               	movwf	___fldiv@b
  4725  045C                     l1600:
  4726  045C  1283               	bcf	3,5	;RP0=0, select bank0
  4727  045D  1303               	bcf	3,6	;RP1=0, select bank0
  4728  045E  0849               	movf	___fldiv@new_exp+1,w
  4729  045F  3A80               	xorlw	128
  4730  0460  00FF               	movwf	btemp+1
  4731  0461  3080               	movlw	128
  4732  0462  027F               	subwf	btemp+1,w
  4733  0463  1D03               	skipz
  4734  0464  2C67               	goto	u1835
  4735  0465  3001               	movlw	1
  4736  0466  0248               	subwf	___fldiv@new_exp,w
  4737  0467                     u1835:
  4738  0467  1803               	skipnc
  4739  0468  2C6A               	goto	u1831
  4740  0469  2C6B               	goto	u1830
  4741  046A                     u1831:
  4742  046A  2C78               	goto	l641
  4743  046B                     u1830:
  4744  046B                     l1602:
  4745  046B  1283               	bcf	3,5	;RP0=0, select bank0
  4746  046C  1303               	bcf	3,6	;RP1=0, select bank0
  4747  046D  01C8               	clrf	___fldiv@new_exp
  4748  046E  01C9               	clrf	___fldiv@new_exp+1
  4749  046F                     l1604:
  4750  046F  3000               	movlw	0
  4751  0470  00BD               	movwf	___fldiv@b+3
  4752  0471  3000               	movlw	0
  4753  0472  00BC               	movwf	___fldiv@b+2
  4754  0473  3000               	movlw	0
  4755  0474  00BB               	movwf	___fldiv@b+1
  4756  0475  3000               	movlw	0
  4757  0476  00BA               	movwf	___fldiv@b
  4758  0477                     l1606:
  4759  0477  01C7               	clrf	___fldiv@sign
  4760  0478                     l641:
  4761  0478  1283               	bcf	3,5	;RP0=0, select bank0
  4762  0479  1303               	bcf	3,6	;RP1=0, select bank0
  4763  047A  0848               	movf	___fldiv@new_exp,w
  4764  047B  00BE               	movwf	??___fldiv
  4765  047C  083E               	movf	??___fldiv,w
  4766  047D  00CE               	movwf	___fldiv@bexp
  4767  047E                     l1608:
  4768  047E  1C4E               	btfss	___fldiv@bexp,0
  4769  047F  2C81               	goto	u1841
  4770  0480  2C82               	goto	u1840
  4771  0481                     u1841:
  4772  0481  2C84               	goto	l1612
  4773  0482                     u1840:
  4774  0482                     l1610:
  4775  0482  17BC               	bsf	___fldiv@b+2,7
  4776  0483  2C88               	goto	l643
  4777  0484                     l1612:
  4778  0484  307F               	movlw	127
  4779  0485  00BE               	movwf	??___fldiv
  4780  0486  083E               	movf	??___fldiv,w
  4781  0487  05BC               	andwf	___fldiv@b+2,f
  4782  0488                     l643:
  4783  0488  084E               	movf	___fldiv@bexp,w
  4784  0489  00BE               	movwf	??___fldiv
  4785  048A  1003               	clrc
  4786  048B  0C3E               	rrf	??___fldiv,w
  4787  048C  00BF               	movwf	??___fldiv+1
  4788  048D  083F               	movf	??___fldiv+1,w
  4789  048E  00BD               	movwf	___fldiv@b+3
  4790  048F  0847               	movf	___fldiv@sign,w
  4791  0490  00BE               	movwf	??___fldiv
  4792  0491  083E               	movf	??___fldiv,w
  4793  0492  04BD               	iorwf	___fldiv@b+3,f
  4794  0493  2B2C               	goto	l1520
  4795  0494                     l621:
  4796  0494  0008               	return
  4797  0495                     __end_of___fldiv:
  4798                           
  4799                           	psect	text20
  4800  0018                     __ptext20:	
  4801 ;; *************** function _PWM_Max_Duty *****************
  4802 ;; Defined at:
  4803 ;;		line 6 in file "./pwm.h"
  4804 ;; Parameters:    Size  Location     Type
  4805 ;;		None
  4806 ;; Auto vars:     Size  Location     Type
  4807 ;;		None
  4808 ;; Return value:  Size  Location     Type
  4809 ;;                  2    6[BANK0 ] int 
  4810 ;; Registers used:
  4811 ;;		wreg, status,2, status,0, pclath, cstack
  4812 ;; Tracked objects:
  4813 ;;		On entry : 0/0
  4814 ;;		On exit  : 0/0
  4815 ;;		Unchanged: 0/0
  4816 ;; Data sizes:     COMMON   BANK0   BANK1   BANK3   BANK2
  4817 ;;      Params:         0       2       0       0       0
  4818 ;;      Locals:         0       0       0       0       0
  4819 ;;      Temps:          4       0       0       0       0
  4820 ;;      Totals:         4       2       0       0       0
  4821 ;;Total ram usage:        6 bytes
  4822 ;; Hardware stack levels used: 1
  4823 ;; Hardware stack levels required when called: 1
  4824 ;; This function calls:
  4825 ;;		___aldiv
  4826 ;; This function is called by:
  4827 ;;		_PWM1_Duty
  4828 ;;		_PWM2_Duty
  4829 ;; This function uses a non-reentrant model
  4830 ;;
  4831                           
  4832                           
  4833                           ;psect for function _PWM_Max_Duty
  4834  0018                     _PWM_Max_Duty:
  4835  0018                     l1434:	
  4836                           ;incstack = 0
  4837                           ; Regs used in _PWM_Max_Duty: [wreg+status,2+status,0+pclath+cstack]
  4838                           
  4839                           
  4840                           ;./pwm.h: 8:   return(8000000/(freq*4));
  4841  0018  1683               	bsf	3,5	;RP0=1, select bank1
  4842  0019  1303               	bcf	3,6	;RP1=0, select bank1
  4843  001A  082E               	movf	_freq^(0+128),w
  4844  001B  00F9               	movwf	??_PWM_Max_Duty
  4845  001C  082F               	movf	(_freq+1)^(0+128),w
  4846  001D  00FA               	movwf	??_PWM_Max_Duty+1
  4847  001E  0830               	movf	(_freq+2)^(0+128),w
  4848  001F  00FB               	movwf	??_PWM_Max_Duty+2
  4849  0020  0831               	movf	(_freq+3)^(0+128),w
  4850  0021  00FC               	movwf	??_PWM_Max_Duty+3
  4851  0022  3002               	movlw	2
  4852  0023                     u1445:
  4853  0023  1003               	clrc
  4854  0024  0DF9               	rlf	??_PWM_Max_Duty,f
  4855  0025  0DFA               	rlf	??_PWM_Max_Duty+1,f
  4856  0026  0DFB               	rlf	??_PWM_Max_Duty+2,f
  4857  0027  0DFC               	rlf	??_PWM_Max_Duty+3,f
  4858  0028                     u1440:
  4859  0028  3EFF               	addlw	-1
  4860  0029  1D03               	skipz
  4861  002A  2823               	goto	u1445
  4862  002B  087C               	movf	??_PWM_Max_Duty+3,w
  4863  002C  00F3               	movwf	___aldiv@divisor+3
  4864  002D  087B               	movf	??_PWM_Max_Duty+2,w
  4865  002E  00F2               	movwf	___aldiv@divisor+2
  4866  002F  087A               	movf	??_PWM_Max_Duty+1,w
  4867  0030  00F1               	movwf	___aldiv@divisor+1
  4868  0031  0879               	movf	??_PWM_Max_Duty,w
  4869  0032  00F0               	movwf	___aldiv@divisor
  4870  0033  3000               	movlw	0
  4871  0034  00F7               	movwf	___aldiv@dividend+3
  4872  0035  307A               	movlw	122
  4873  0036  00F6               	movwf	___aldiv@dividend+2
  4874  0037  3012               	movlw	18
  4875  0038  00F5               	movwf	___aldiv@dividend+1
  4876  0039  3000               	movlw	0
  4877  003A  00F4               	movwf	___aldiv@dividend
  4878  003B  120A  158A  2763  120A  118A  	fcall	___aldiv
  4879  0040  0871               	movf	?___aldiv+1,w
  4880  0041  1283               	bcf	3,5	;RP0=0, select bank0
  4881  0042  1303               	bcf	3,6	;RP1=0, select bank0
  4882  0043  00A7               	movwf	?_PWM_Max_Duty+1
  4883  0044  0870               	movf	?___aldiv,w
  4884  0045  00A6               	movwf	?_PWM_Max_Duty
  4885  0046                     l116:
  4886  0046  0008               	return
  4887  0047                     __end_of_PWM_Max_Duty:
  4888                           
  4889                           	psect	text21
  4890  0F63                     __ptext21:	
  4891 ;; *************** function ___aldiv *****************
  4892 ;; Defined at:
  4893 ;;		line 5 in file "C:\Program Files\Microchip\xc8\v2.32\pic\sources\c90\common\aldiv.c"
  4894 ;; Parameters:    Size  Location     Type
  4895 ;;  divisor         4    0[COMMON] long 
  4896 ;;  dividend        4    4[COMMON] long 
  4897 ;; Auto vars:     Size  Location     Type
  4898 ;;  quotient        4    2[BANK0 ] long 
  4899 ;;  sign            1    1[BANK0 ] unsigned char 
  4900 ;;  counter         1    0[BANK0 ] unsigned char 
  4901 ;; Return value:  Size  Location     Type
  4902 ;;                  4    0[COMMON] long 
  4903 ;; Registers used:
  4904 ;;		wreg, status,2, status,0
  4905 ;; Tracked objects:
  4906 ;;		On entry : 0/0
  4907 ;;		On exit  : 0/0
  4908 ;;		Unchanged: 0/0
  4909 ;; Data sizes:     COMMON   BANK0   BANK1   BANK3   BANK2
  4910 ;;      Params:         8       0       0       0       0
  4911 ;;      Locals:         0       6       0       0       0
  4912 ;;      Temps:          1       0       0       0       0
  4913 ;;      Totals:         9       6       0       0       0
  4914 ;;Total ram usage:       15 bytes
  4915 ;; Hardware stack levels used: 1
  4916 ;; This function calls:
  4917 ;;		Nothing
  4918 ;; This function is called by:
  4919 ;;		_UART_Init
  4920 ;;		_PWM_Max_Duty
  4921 ;;		_PWM1_Init_Fre
  4922 ;;		_PWM2_Init_Fre
  4923 ;; This function uses a non-reentrant model
  4924 ;;
  4925                           
  4926                           
  4927                           ;psect for function ___aldiv
  4928  0F63                     ___aldiv:
  4929  0F63                     l1376:	
  4930                           ;incstack = 0
  4931                           ; Regs used in ___aldiv: [wreg+status,2+status,0]
  4932                           
  4933  0F63  1283               	bcf	3,5	;RP0=0, select bank0
  4934  0F64  1303               	bcf	3,6	;RP1=0, select bank0
  4935  0F65  01A1               	clrf	___aldiv@sign
  4936  0F66                     l1378:
  4937  0F66  1FF3               	btfss	___aldiv@divisor+3,7
  4938  0F67  2F69               	goto	u1301
  4939  0F68  2F6A               	goto	u1300
  4940  0F69                     u1301:
  4941  0F69  2F77               	goto	l335
  4942  0F6A                     u1300:
  4943  0F6A                     l1380:
  4944  0F6A  09F0               	comf	___aldiv@divisor,f
  4945  0F6B  09F1               	comf	___aldiv@divisor+1,f
  4946  0F6C  09F2               	comf	___aldiv@divisor+2,f
  4947  0F6D  09F3               	comf	___aldiv@divisor+3,f
  4948  0F6E  0AF0               	incf	___aldiv@divisor,f
  4949  0F6F  1903               	skipnz
  4950  0F70  0AF1               	incf	___aldiv@divisor+1,f
  4951  0F71  1903               	skipnz
  4952  0F72  0AF2               	incf	___aldiv@divisor+2,f
  4953  0F73  1903               	skipnz
  4954  0F74  0AF3               	incf	___aldiv@divisor+3,f
  4955  0F75  01A1               	clrf	___aldiv@sign
  4956  0F76  0AA1               	incf	___aldiv@sign,f
  4957  0F77                     l335:
  4958  0F77  1FF7               	btfss	___aldiv@dividend+3,7
  4959  0F78  2F7A               	goto	u1311
  4960  0F79  2F7B               	goto	u1310
  4961  0F7A                     u1311:
  4962  0F7A  2F8A               	goto	l1386
  4963  0F7B                     u1310:
  4964  0F7B                     l1382:
  4965  0F7B  09F4               	comf	___aldiv@dividend,f
  4966  0F7C  09F5               	comf	___aldiv@dividend+1,f
  4967  0F7D  09F6               	comf	___aldiv@dividend+2,f
  4968  0F7E  09F7               	comf	___aldiv@dividend+3,f
  4969  0F7F  0AF4               	incf	___aldiv@dividend,f
  4970  0F80  1903               	skipnz
  4971  0F81  0AF5               	incf	___aldiv@dividend+1,f
  4972  0F82  1903               	skipnz
  4973  0F83  0AF6               	incf	___aldiv@dividend+2,f
  4974  0F84  1903               	skipnz
  4975  0F85  0AF7               	incf	___aldiv@dividend+3,f
  4976  0F86                     l1384:
  4977  0F86  3001               	movlw	1
  4978  0F87  00F8               	movwf	??___aldiv
  4979  0F88  0878               	movf	??___aldiv,w
  4980  0F89  06A1               	xorwf	___aldiv@sign,f
  4981  0F8A                     l1386:
  4982  0F8A  3000               	movlw	0
  4983  0F8B  00A5               	movwf	___aldiv@quotient+3
  4984  0F8C  3000               	movlw	0
  4985  0F8D  00A4               	movwf	___aldiv@quotient+2
  4986  0F8E  3000               	movlw	0
  4987  0F8F  00A3               	movwf	___aldiv@quotient+1
  4988  0F90  3000               	movlw	0
  4989  0F91  00A2               	movwf	___aldiv@quotient
  4990  0F92                     l1388:
  4991  0F92  0873               	movf	___aldiv@divisor+3,w
  4992  0F93  0472               	iorwf	___aldiv@divisor+2,w
  4993  0F94  0471               	iorwf	___aldiv@divisor+1,w
  4994  0F95  0470               	iorwf	___aldiv@divisor,w
  4995  0F96  1903               	skipnz
  4996  0F97  2F99               	goto	u1321
  4997  0F98  2F9A               	goto	u1320
  4998  0F99                     u1321:
  4999  0F99  2FE7               	goto	l1408
  5000  0F9A                     u1320:
  5001  0F9A                     l1390:
  5002  0F9A  01A0               	clrf	___aldiv@counter
  5003  0F9B  0AA0               	incf	___aldiv@counter,f
  5004  0F9C  2FAA               	goto	l1394
  5005  0F9D                     l1392:
  5006  0F9D  3001               	movlw	1
  5007  0F9E  00F8               	movwf	??___aldiv
  5008  0F9F                     u1335:
  5009  0F9F  1003               	clrc
  5010  0FA0  0DF0               	rlf	___aldiv@divisor,f
  5011  0FA1  0DF1               	rlf	___aldiv@divisor+1,f
  5012  0FA2  0DF2               	rlf	___aldiv@divisor+2,f
  5013  0FA3  0DF3               	rlf	___aldiv@divisor+3,f
  5014  0FA4  0BF8               	decfsz	??___aldiv,f
  5015  0FA5  2F9F               	goto	u1335
  5016  0FA6  3001               	movlw	1
  5017  0FA7  00F8               	movwf	??___aldiv
  5018  0FA8  0878               	movf	??___aldiv,w
  5019  0FA9  07A0               	addwf	___aldiv@counter,f
  5020  0FAA                     l1394:
  5021  0FAA  1FF3               	btfss	___aldiv@divisor+3,7
  5022  0FAB  2FAD               	goto	u1341
  5023  0FAC  2FAE               	goto	u1340
  5024  0FAD                     u1341:
  5025  0FAD  2F9D               	goto	l1392
  5026  0FAE                     u1340:
  5027  0FAE                     l1396:
  5028  0FAE  3001               	movlw	1
  5029  0FAF  00F8               	movwf	??___aldiv
  5030  0FB0                     u1355:
  5031  0FB0  1003               	clrc
  5032  0FB1  0DA2               	rlf	___aldiv@quotient,f
  5033  0FB2  0DA3               	rlf	___aldiv@quotient+1,f
  5034  0FB3  0DA4               	rlf	___aldiv@quotient+2,f
  5035  0FB4  0DA5               	rlf	___aldiv@quotient+3,f
  5036  0FB5  0BF8               	decfsz	??___aldiv,f
  5037  0FB6  2FB0               	goto	u1355
  5038  0FB7                     l1398:
  5039  0FB7  0873               	movf	___aldiv@divisor+3,w
  5040  0FB8  0277               	subwf	___aldiv@dividend+3,w
  5041  0FB9  1D03               	skipz
  5042  0FBA  2FC5               	goto	u1365
  5043  0FBB  0872               	movf	___aldiv@divisor+2,w
  5044  0FBC  0276               	subwf	___aldiv@dividend+2,w
  5045  0FBD  1D03               	skipz
  5046  0FBE  2FC5               	goto	u1365
  5047  0FBF  0871               	movf	___aldiv@divisor+1,w
  5048  0FC0  0275               	subwf	___aldiv@dividend+1,w
  5049  0FC1  1D03               	skipz
  5050  0FC2  2FC5               	goto	u1365
  5051  0FC3  0870               	movf	___aldiv@divisor,w
  5052  0FC4  0274               	subwf	___aldiv@dividend,w
  5053  0FC5                     u1365:
  5054  0FC5  1C03               	skipc
  5055  0FC6  2FC8               	goto	u1361
  5056  0FC7  2FC9               	goto	u1360
  5057  0FC8                     u1361:
  5058  0FC8  2FD8               	goto	l1404
  5059  0FC9                     u1360:
  5060  0FC9                     l1400:
  5061  0FC9  0870               	movf	___aldiv@divisor,w
  5062  0FCA  02F4               	subwf	___aldiv@dividend,f
  5063  0FCB  0871               	movf	___aldiv@divisor+1,w
  5064  0FCC  1C03               	skipc
  5065  0FCD  0F71               	incfsz	___aldiv@divisor+1,w
  5066  0FCE  02F5               	subwf	___aldiv@dividend+1,f
  5067  0FCF  0872               	movf	___aldiv@divisor+2,w
  5068  0FD0  1C03               	skipc
  5069  0FD1  0F72               	incfsz	___aldiv@divisor+2,w
  5070  0FD2  02F6               	subwf	___aldiv@dividend+2,f
  5071  0FD3  0873               	movf	___aldiv@divisor+3,w
  5072  0FD4  1C03               	skipc
  5073  0FD5  0F73               	incfsz	___aldiv@divisor+3,w
  5074  0FD6  02F7               	subwf	___aldiv@dividend+3,f
  5075  0FD7                     l1402:
  5076  0FD7  1422               	bsf	___aldiv@quotient,0
  5077  0FD8                     l1404:
  5078  0FD8  3001               	movlw	1
  5079  0FD9                     u1375:
  5080  0FD9  1003               	clrc
  5081  0FDA  0CF3               	rrf	___aldiv@divisor+3,f
  5082  0FDB  0CF2               	rrf	___aldiv@divisor+2,f
  5083  0FDC  0CF1               	rrf	___aldiv@divisor+1,f
  5084  0FDD  0CF0               	rrf	___aldiv@divisor,f
  5085  0FDE  3EFF               	addlw	-1
  5086  0FDF  1D03               	skipz
  5087  0FE0  2FD9               	goto	u1375
  5088  0FE1                     l1406:
  5089  0FE1  3001               	movlw	1
  5090  0FE2  02A0               	subwf	___aldiv@counter,f
  5091  0FE3  1D03               	btfss	3,2
  5092  0FE4  2FE6               	goto	u1381
  5093  0FE5  2FE7               	goto	u1380
  5094  0FE6                     u1381:
  5095  0FE6  2FAE               	goto	l1396
  5096  0FE7                     u1380:
  5097  0FE7                     l1408:
  5098  0FE7  0821               	movf	___aldiv@sign,w
  5099  0FE8  1903               	btfsc	3,2
  5100  0FE9  2FEB               	goto	u1391
  5101  0FEA  2FEC               	goto	u1390
  5102  0FEB                     u1391:
  5103  0FEB  2FF7               	goto	l1412
  5104  0FEC                     u1390:
  5105  0FEC                     l1410:
  5106  0FEC  09A2               	comf	___aldiv@quotient,f
  5107  0FED  09A3               	comf	___aldiv@quotient+1,f
  5108  0FEE  09A4               	comf	___aldiv@quotient+2,f
  5109  0FEF  09A5               	comf	___aldiv@quotient+3,f
  5110  0FF0  0AA2               	incf	___aldiv@quotient,f
  5111  0FF1  1903               	skipnz
  5112  0FF2  0AA3               	incf	___aldiv@quotient+1,f
  5113  0FF3  1903               	skipnz
  5114  0FF4  0AA4               	incf	___aldiv@quotient+2,f
  5115  0FF5  1903               	skipnz
  5116  0FF6  0AA5               	incf	___aldiv@quotient+3,f
  5117  0FF7                     l1412:
  5118  0FF7  0825               	movf	___aldiv@quotient+3,w
  5119  0FF8  00F3               	movwf	?___aldiv+3
  5120  0FF9  0824               	movf	___aldiv@quotient+2,w
  5121  0FFA  00F2               	movwf	?___aldiv+2
  5122  0FFB  0823               	movf	___aldiv@quotient+1,w
  5123  0FFC  00F1               	movwf	?___aldiv+1
  5124  0FFD  0822               	movf	___aldiv@quotient,w
  5125  0FFE  00F0               	movwf	?___aldiv
  5126  0FFF                     l345:
  5127  0FFF  0008               	return
  5128  1000                     __end_of___aldiv:
  5129  007E                     btemp	set	126	;btemp
  5130  007E                     wtemp0	set	126
  5131                           
  5132                           	psect	config
  5133                           
  5134                           ;Config register CONFIG @ 0x2007
  5135                           ;	Oscillator Selection bits
  5136                           ;	FOSC = XT, XT oscillator
  5137                           ;	Watchdog Timer Enable bit
  5138                           ;	WDTE = OFF, WDT disabled
  5139                           ;	Power-up Timer Enable bit
  5140                           ;	PWRTE = OFF, PWRT disabled
  5141                           ;	Brown-out Reset Enable bit
  5142                           ;	BOREN = OFF, BOR disabled
  5143                           ;	Low-Voltage (Single-Supply) In-Circuit Serial Programming Enable bit
  5144                           ;	LVP = OFF, RB3 is digital I/O, HV on MCLR must be used for programming
  5145                           ;	Data EEPROM Memory Code Protection bit
  5146                           ;	CPD = OFF, Data EEPROM code protection off
  5147                           ;	Flash Program Memory Write Enable bits
  5148                           ;	WRT = OFF, Write protection off; all program memory may be written to by EECON control
  5149                           ;	In-Circuit Debugger Mode bit
  5150                           ;	DEBUG = 0x1, unprogrammed default
  5151                           ;	Flash Program Memory Code Protection bit
  5152                           ;	CP = OFF, Code protection off
  5153  2007                     	org	8199
  5154  2007  3F39               	dw	16185

Data Sizes:
    Strings     23
    Constant    0
    Data        0
    BSS         4
    Persistent  0
    Stack       0

Auto Spaces:
    Space          Size  Autos    Used
    COMMON           14     13      13
    BANK0            80     80      80
    BANK1            80     14      18
    BANK3            96      0       0
    BANK2            96      0       0

Pointer List with Targets:

    UART_Write_Text@text	PTR unsigned char  size(1) Largest target is 15
		 -> STR_3(CODE[3]), STR_2(CODE[8]), STR_1(CODE[15]), 


Critical Paths under _main in COMMON

    _main->_PWM1_Init_Fre
    _main->_PWM2_Init_Fre
    _UART_Write_Text->_UART_Write
    _UART_Init->___aldiv
    _PWM2_Init_Fre->___aldiv
    _PWM2_Duty->_PWM_Max_Duty
    _PWM1_Init_Fre->___aldiv
    _PWM1_Duty->_PWM_Max_Duty
    ___xxtofl->_PWM_Max_Duty
    ___fltol->_PWM_Max_Duty
    ___flmul->_PWM_Max_Duty
    _PWM_Max_Duty->___aldiv

Critical Paths under _main in BANK0

    _UART_Init->___aldiv
    _PWM2_Init_Fre->___aldiv
    _PWM2_Duty->___fltol
    _PWM1_Init_Fre->___aldiv
    _PWM1_Duty->___fltol
    ___xxtofl->_PWM_Max_Duty
    ___fltol->___flmul
    ___flmul->___fldiv
    ___fldiv->___xxtofl
    _PWM_Max_Duty->___aldiv

Critical Paths under _main in BANK1

    _main->_PWM1_Duty
    _main->_PWM2_Duty
    _PWM2_Duty->___fltol
    _PWM1_Duty->___fltol

Critical Paths under _main in BANK3

    None.

Critical Paths under _main in BANK2

    None.

Call Graph Tables:

 ---------------------------------------------------------------------------------
 (Depth) Function   	        Calls       Base Space   Used Autos Params    Refs
 ---------------------------------------------------------------------------------
 (0) _main                                                 5     5      0   16654
                                              9 BANK1      5     5      0
                          _PWM1_Duty
                      _PWM1_Init_Fre
                         _PWM1_Start
                          _PWM2_Duty
                      _PWM2_Init_Fre
                         _PWM2_Start
                          _UART_Init
                         _UART_Write
                    _UART_Write_Text
                       _spiDataReady
                            _spiInit
                            _spiRead
                           _spiWrite
 ---------------------------------------------------------------------------------
 (1) _spiWrite                                             1     1      0      22
                                              0 COMMON     1     1      0
 ---------------------------------------------------------------------------------
 (1) _spiRead                                              0     0      0       0
                     _spiReceiveWait
 ---------------------------------------------------------------------------------
 (2) _spiReceiveWait                                       0     0      0       0
 ---------------------------------------------------------------------------------
 (1) _spiInit                                              4     1      3     360
                                              0 COMMON     4     1      3
 ---------------------------------------------------------------------------------
 (1) _spiDataReady                                         2     0      2       0
                                              0 COMMON     2     0      2
 ---------------------------------------------------------------------------------
 (1) _UART_Write_Text                                      3     3      0     211
                                              1 COMMON     3     3      0
                         _UART_Write
 ---------------------------------------------------------------------------------
 (2) _UART_Write                                           1     1      0      22
                                              0 COMMON     1     1      0
 ---------------------------------------------------------------------------------
 (1) _UART_Init                                           18    14      4    1292
                                              9 COMMON     2     2      0
                                              6 BANK0     16    12      4
                            ___aldiv
 ---------------------------------------------------------------------------------
 (1) _PWM2_Start                                           0     0      0       0
 ---------------------------------------------------------------------------------
 (1) _PWM2_Init_Fre                                        8     4      4    1158
                                              9 COMMON     4     4      0
                                              6 BANK0      4     0      4
                            ___aldiv
 ---------------------------------------------------------------------------------
 (1) _PWM2_Duty                                            4     2      2    6204
                                              5 BANK1      4     2      2
                       _PWM_Max_Duty
                            ___fldiv
                            ___flmul
                            ___fltol
                           ___xxtofl
 ---------------------------------------------------------------------------------
 (1) _PWM1_Start                                           0     0      0       0
 ---------------------------------------------------------------------------------
 (1) _PWM1_Init_Fre                                        8     4      4    1158
                                              9 COMMON     4     4      0
                                              6 BANK0      4     0      4
                            ___aldiv
 ---------------------------------------------------------------------------------
 (1) _PWM1_Duty                                            4     2      2    6204
                                              5 BANK1      4     2      2
                       _PWM_Max_Duty
                            ___fldiv
                            ___flmul
                            ___fltol
                           ___xxtofl
 ---------------------------------------------------------------------------------
 (2) ___xxtofl                                            14    10      4     626
                                              8 BANK0     14    10      4
                       _PWM_Max_Duty (ARG)
 ---------------------------------------------------------------------------------
 (2) ___fltol                                             11     7      4     381
                                             74 BANK0      6     2      4
                                              0 BANK1      5     5      0
                       _PWM_Max_Duty (ARG)
                            ___fldiv (ARG)
                            ___flmul (ARG)
                           ___xxtofl (ARG)
 ---------------------------------------------------------------------------------
 (2) ___flmul                                             26    18      8    2569
                                             48 BANK0     26    18      8
                       _PWM_Max_Duty (ARG)
                          __Umul8_16
                            ___fldiv (ARG)
                           ___xxtofl (ARG)
 ---------------------------------------------------------------------------------
 (3) __Umul8_16                                            9     7      2     799
                                              0 COMMON     9     7      2
 ---------------------------------------------------------------------------------
 (2) ___fldiv                                             26    18      8    1425
                                             22 BANK0     26    18      8
                           ___xxtofl (ARG)
 ---------------------------------------------------------------------------------
 (2) _PWM_Max_Duty                                         6     4      2    1060
                                              9 COMMON     4     4      0
                                              6 BANK0      2     0      2
                            ___aldiv
 ---------------------------------------------------------------------------------
 (2) ___aldiv                                             15     7      8    1060
                                              0 COMMON     9     1      8
                                              0 BANK0      6     6      0
 ---------------------------------------------------------------------------------
 Estimated maximum stack depth 3
 ---------------------------------------------------------------------------------

 Call Graph Graphs:

 _main (ROOT)
   _PWM1_Duty
     _PWM_Max_Duty
       ___aldiv
     ___fldiv
       ___xxtofl (ARG)
         _PWM_Max_Duty (ARG)
     ___flmul
       _PWM_Max_Duty (ARG)
       __Umul8_16 (ARG)
       ___fldiv (ARG)
       ___xxtofl (ARG)
     ___fltol
       _PWM_Max_Duty (ARG)
       ___fldiv (ARG)
       ___flmul (ARG)
       ___xxtofl (ARG)
     ___xxtofl
   _PWM1_Init_Fre
     ___aldiv
   _PWM1_Start
   _PWM2_Duty
     _PWM_Max_Duty
     ___fldiv
     ___flmul
     ___fltol
     ___xxtofl
   _PWM2_Init_Fre
     ___aldiv
   _PWM2_Start
   _UART_Init
     ___aldiv
   _UART_Write
   _UART_Write_Text
     _UART_Write
   _spiDataReady
   _spiInit
   _spiRead
     _spiReceiveWait
   _spiWrite

 Address spaces:
Name               Size   Autos  Total    Cost      Usage
BITCOMMON            E      0       0       0        0.0%
EEDATA             100      0       0       0        0.0%
NULL                 0      0       0       0        0.0%
CODE                 0      0       0       0        0.0%
COMMON               E      D       D       1       92.9%
BITSFR0              0      0       0       1        0.0%
SFR0                 0      0       0       1        0.0%
BITSFR1              0      0       0       2        0.0%
SFR1                 0      0       0       2        0.0%
STACK                0      0       0       2        0.0%
ABS                  0      0      6F       3        0.0%
BITBANK0            50      0       0       4        0.0%
BITSFR3              0      0       0       4        0.0%
SFR3                 0      0       0       4        0.0%
BANK0               50     50      50       5      100.0%
BITSFR2              0      0       0       5        0.0%
SFR2                 0      0       0       5        0.0%
BITBANK1            50      0       0       6        0.0%
BANK1               50      E      12       7       22.5%
BITBANK3            60      0       0       8        0.0%
BANK3               60      0       0       9        0.0%
BITBANK2            60      0       0      10        0.0%
BANK2               60      0       0      11        0.0%
DATA                 0      0      6F      12        0.0%


Microchip Technology PIC Macro Assembler V2.32 build 20210201212658 
Symbol Table                                                                                   Wed Nov 24 22:40:56 2021

            ___fldiv@aexp 004F              ___fldiv@bexp 004E                         pc 0002  
            ___fldiv@sign 0047               _SSPSTATbits 0094                        l81 01DC  
                      fsr 0004       __Umul8_16@word_mpld 0076                       l102 0C92  
                     l111 0CD7                       l105 0C9C                       l122 0D9C  
                     l131 0C85                       l116 0046                       l125 0E31  
                     l134 0C90                       l119 0D4D                       l128 0EC6  
                     l170 0003                       l146 02AA                       l180 0017  
                     l173 0009                       l166 0CAD                       l335 0F77  
                     l167 0CB2                       l184 0C7A                       l176 0C71  
                     l345 0FFF                       l621 0494                       l463 0F4D  
                     l703 006B                       l456 0F62                       l641 0478  
                     l705 0102                       l466 0F62                       l643 0488  
                     l635 0406                       l619 0314                       l716 00CC  
                     l717 00D8                       l709 00B0                       l671 07E9  
                     l680 0CFE                       l665 0761                       l659 07F5  
                     l678 0CEC                       _GIE 005F                       _RD0 0040  
                     _PR2 0092                       fsr0 0004              ___flmul@aexp 0062  
            ___flmul@bexp 0063              ___flmul@sign 005D              ___flmul@temp 0068  
            ___flmul@prod 0064              ___fltol@exp1 006F                      l1400 0FC9  
                    l1410 0FEC                      l1402 0FD7                      l1412 0FF7  
                    l1404 0FD8                      l1500 02F2                      l1420 0CE2  
                    l1406 0FE1                      l1510 0309                      l1502 02F6  
                    l1422 0CE6                      l1430 0C92                      l1408 0FE7  
                    l1600 045C                      l1520 032C                      l1512 030A  
                    l1504 02F7                      l1424 0CF5                      l1416 0CD9  
                    l1440 0EC7                      l1432 0C98                      l1434 0018  
                    l1610 0482                      l1602 046B                      l1530 0343  
                    l1506 02FC                      l1514 030C                      l1426 0CFA  
                    l1418 0CDB                      l1450 0F07                      l1442 0ED8  
                    l1380 0F6A                      l1612 0484                      l1604 046F  
                    l1540 036F                      l1532 0355                      l1516 031C  
                    l1524 0335                      l1508 0301                      l1700 070D  
                    l1620 049C                      l1452 0F0F                      l1390 0F9A  
                    l1382 0F7B                      l1606 0477                      l1542 0374  
                    l1550 0394                      l1534 035D                      l1526 033A  
                    l1518 0328                      l1710 0732                      l1702 0716  
                    l1630 04B1                      l1622 04A2                      l1470 0F3A  
                    l1462 0F1D                      l1454 0F11                      l1446 0EE1  
                    l1438 0003                      l1392 0F9D                      l1384 0F86  
                    l1376 0F63                      l1608 047E                      l1560 03BF  
                    l1552 03A6                      l1544 0386                      l1536 0365  
                    l1480 02C5                      l1720 074A                      l1712 073B  
                    l1704 0724                      l1640 04CE                      l1632 04B9  
                    l1624 04A6                      l1472 0F52                      l1456 0F15  
                    l1464 0F33                      l1448 0F06                      l1394 0FAA  
                    l1386 0F8A                      l1378 0F66                      l1570 03D7  
                    l1562 03C7                      l1554 03A7                      l1546 038A  
                    l1538 036D                      l1490 02DC                      l1482 02C9  
                    l1730 0779                      l1722 075E                      l1706 072D  
                    l1714 0741                      l1650 04E5                      l1642 04D2  
                    l1634 04BB                      l1626 04A7                      l1618 0495  
                    l1474 0F57                      l1810 01C1                      l1802 0103  
                    l1396 0FAE                      l1388 0F92                      l1580 03EF  
                    l1572 03E0                      l1564 03C9                      l1556 03B5  
                    l1548 038B                      l1492 02DD                      l1484 02CA  
                    l1476 02B8                      l1740 07B4                      l1732 077D  
                    l1716 0745                      l1708 0731                      l1652 04E7  
                    l1644 04D3                      l1636 04C3                      l1628 04AC  
                    l1820 01D5                      l1812 01CA                      l1804 015C  
                    l1900 01E5                      l1398 0FB7                      l1590 041E  
                    l1582 0403                      l1566 03D2                      l1574 03E6  
                    l1558 03B9                      l1486 02CF                      l1494 02DF  
                    l1478 02BF                      l1750 07E1                      l1742 07C3  
                    l1734 0796                      l1726 0766                      l1718 0746  
                    l1670 0558                      l1662 0502                      l1654 04EF  
                    l1646 04D8                      l1638 04C8                      l1822 01D6  
                    l1814 01CE                      l1806 0165                      l1830 0CB7  
                    l1910 01FB                      l1902 01E6                      l1592 0422  
                    l1576 03EA                      l1568 03D6                      l1496 02E7  
                    l1488 02D4                      l1752 07E2                      l1744 07CD  
                    l1728 076B                      l1736 079C                      l1680 05D5  
                    l1672 0584                      l1664 0512                      l1656 04F4  
                    l1648 04DD                      l1760 004F                      l1840 0D4E  
                    l1824 01D9                      l1816 01CF                      l1808 01BE  
                    l1832 0CC4                      l1920 0226                      l1912 0204  
                    l1904 01E9                      l1594 043B                      l1586 040B  
                    l1578 03EB                      l1498 02EC                      l1754 07ED  
                    l1746 07CF                      l1738 07A9                      l1690 0655  
                    l1682 05F2                      l1674 05A0                      l1666 051F  
                    l1658 04F9                      l1770 007C                      l1762 0053  
                    l1850 0E21                      l1842 0D84                      l1818 01D2  
                    l1834 0CCA                      l1930 0243                      l1922 0227  
                    l1914 0213                      l1906 01EB                      l1588 0410  
                    l1596 0441                      l1748 07DD                      l1692 0682  
                    l1684 0602                      l1676 05BC                      l1668 053C  
                    l1780 00A7                      l1772 0081                      l1764 0063  
                    l1844 0D9D                      l1836 0CFF                      l1860 0C7B  
                    l1852 0E32                      l1828 0CB4                      l1940 0273  
                    l1932 0248                      l1924 0228                      l1916 0222  
                    l1908 01EC                      l1598 044E                      l1694 0692  
                    l1686 061F                      l1678 05C5                      l1790 00DA  
                    l1782 00B7                      l1774 008E                      l1766 0073  
                    l1758 004A                      l1846 0E12                      l1838 0D35  
                    l1854 0EA7                      l1862 0C86                      l1870 0CA9  
                    l1942 0279                      l1950 02A6                      l1934 024E  
                    l1926 0233                      l1918 0225                      l1696 06BF  
                    l1688 0638                      l1792 00F0                      l1784 00C2  
                    l1776 0095                      l1848 0E15                      l1856 0EAA  
                    l1872 0CAC                      l1864 0C9E                      l1952 02A9  
                    l1944 027F                      l1936 0259                      l1928 023E  
                    l1698 06E5                      l1794 00F5                      l1786 00C6  
                    l1778 0099                      l1858 0EB6                      l1882 0015  
                    l1874 000A                      l1866 0CA5                      l1946 0287  
                    l1938 0270                      l1796 00F9                      l1788 00D0  
                    l1876 0010                      l1868 0CA7                      l1892 0C6D  
                    l1948 0292                      l1798 00FA                      l1886 0C72  
                    l1894 01DD                      l1888 0C77                      l1896 01E3  
                    l1898 01E4                      STR_1 0806                      STR_2 0815  
                    STR_3 0812                      _BRGH 04C2                      _CREN 00C4  
                    u2011 0647                      u1300 0F6A                      u2100 0731  
                    u2012 064E                      u1301 0F69                      u2101 0730  
                    u2021 0674                      u2013 0655                      u2005 0621  
                    u1310 0F7B                      u2022 067B                      u1311 0F7A  
                    u2031 06A1                      u2023 0682                      u1320 0F9A  
                    u1400 0CE6                      u2200 07C3                      u2120 0745  
                    u2040 06CB                      u2032 06A8                      u1321 0F99  
                    u1401 0CE5                      u2201 07C2                      u2121 0744  
                    u2033 06AF                      u2210 07E1                      u2130 074A  
                    u2211 07E0                      u2131 0749                      u2115 0734  
                    u2051 06D7                      u1340 0FAE                      u1420 0CFA  
                    u2140 075E                      u2060 06F3                      u2052 06DE  
                    u2300 00C6                      u2220 004F                      u1341 0FAD  
                    u1421 0CF9                      u2205 07BF                      u2141 075D  
                    u2053 06E5                      u2045 06C6                      u2301 00C5  
                    u2221 004E                      u2150 0765                      u1510 0F32  
                    u2310 00CC                      u2230 0053                      u1430 0C98  
                    u1335 0F9F                      u1415 0CED                      u2151 0764  
                    u2071 06FF                      u1511 0F31                      u2311 00CB  
                    u2231 0052                      u1431 0C97                      u1360 0FC9  
                    u1440 0028                      u1600 02FC                      u2160 076B  
                    u2072 0706                      u1520 0F39                      u2320 00D0  
                    u2240 0073                      u2400 0175                      u1361 0FC8  
                    u1601 02FB                      u2161 076A                      u2073 070D  
                    u2065 06EE                      u1521 0F38                      u1505 0F1E  
                    u2321 00CF                      u2241 0072                      u1610 0301  
                    u2170 077D                      u2330 00E5                      u2410 018E  
                    u1450 0009                      u1355 0FB0                      u1611 0300  
                    u2171 077C                      u1451 0008                      u1380 0FE7  
                    u1700 03BF                      u1620 031C                      u2180 078C  
                    u1540 0F52                      u1460 0ED8                      u2340 00F5  
                    u2260 0094                      u1381 0FE6                      u1365 0FC5  
                    u1445 0023                      u1701 03BE                      u1621 031B  
                    u2085 070F                      u1541 0F51                      u1461 0ED7  
                    u2341 00F4                      u2261 0093                      u2421 01A0  
                    u2405 0170                      u1390 0FEC                      u1710 03C7  
                    u1630 033A                      u2190 07A9                      u1550 0F57  
                    u1470 0EFD                      u2350 00F9                      u2510 0EB3  
                    u2430 01CA                      u2422 01A1                      u1391 0FEB  
                    u1375 0FD9                      u1711 03C6                      u1631 0339  
                    u2191 07A8                      u2095 0726                      u1551 0F56  
                    u1535 0F3E                      u2351 00F8                      u2335 00E0  
                    u2255 0086                      u2511 0EAF                      u2431 01C9  
                    u2423 01A6                      u2415 0189                      u1800 0422  
                    u1640 0374                      u1560 02C9                      u1480 0F15  
                    u2280 00B6                      u2504 0E21                      u2424 01A7  
                    u2360 0113                      u2440 0CD7                      u1801 0421  
                    u1641 0373                      u1561 02C8                      u2185 0787  
                    u1481 0F14                      u2281 00B5                      u2425 01AC  
                    u2441 0CD6                      u1810 0431                      u1730 03D6  
                    u1570 02CF                      u1490 0F1C                      u2450 0D0F  
                    u2426 01AD                      u2370 012C                      u2530 0CA5  
                    u1731 03D5                      u1571 02CE                      u2195 07A5  
                    u1491 0F1B                      u1475 0EF8                      u2275 00A8  
                    u2531 0CA4                      u1820 044E                      u1580 02D4  
                    u1900 04DD                      u2460 0D18                      u2524 0EB6  
                    u2540 0010                      u1821 044D                      u1725 03CB  
                    u1581 02D3                      u1901 04DC                      u2381 013E  
                    u2365 010E                      u2541 000F                      u1830 046B  
                    u1750 03EA                      u1670 038A                      u1590 02F6  
                    u1910 04F4                      u2470 0D5E                      u2390 0165  
                    u2382 013F                      u2550 0259                      u1831 046A  
                    u1815 042C                      u1751 03E9                      u1671 0389  
                    u1655 0376                      u1591 02F5                      u1911 04F3  
                    u2295 00BB                      u2455 0D0A                      u2391 0164  
                    u2383 0144                      u2375 0127                      u2551 0258  
                    u1840 0482                      u1760 03EF                      u1920 04F9  
                    u2480 0D67                      u2384 0145                      u2560 0270  
                    u1841 0481                      u1825 044A                      u1761 03EE  
                    u1745 03D9                      u1665 037F                      u1921 04F8  
                    u2465 0D13                      u2385 014A                      u2561 026F  
                    u1770 0403                      u1690 03A6                      u1850 04A6  
                    u2490 0E1E                      u2386 014B                      u1835 0467  
                    u1771 0402                      u1691 03A5                      u1931 054A  
                    u1851 04A5                      u2491 0E1A                      u2475 0D59  
                    u1780 040A                      u1932 0551                      u1860 04AC  
                    u1781 0409                      u1685 038D                      u1941 0566  
                    u1933 0558                      u1861 04AB                      u2485 0D62  
                    u1790 0410                      u1942 056D                      u1870 04B1  
                    u1791 040F                      u1695 03A2                      u1951 0592  
                    u1943 0574                      u1871 04B0                      u1952 0599  
                    u1880 04D2                      u1961 05AE                      u1953 05A0  
                    u1881 04D1                      u2577 028D                      u1962 05B5  
                    u1890 04D8                      u1963 05BC                      u1891 04D7  
                    u2587 02A0                      _PEIE 005E                      u1981 05E4  
                    u2597 02B0                      u1982 05EB                      u1991 0611  
                    u1983 05F2                      u1975 05BE                      u1992 0618  
                    u1993 061F                      _RCIF 0065              _PWM_Max_Duty 0018  
                    _SPEN 00C7                      _TRMT 04C1                      _TXEN 04C5  
                    _SYNC 04C4                      _main 01DD                      _freq 00AE  
                    btemp 007E                      start 0000           ___fldiv@new_exp 0048  
 __end_of_UART_Write_Text 0CD8             ___fltol@sign1 006E           __end_of___aldiv 1000  
                   ?_main 0070                     _CCP1X 00BD           __end_of___fldiv 0495  
                   _CCP1Y 00BC                     _CCP2X 00ED                     _CCP2Y 00EC  
         __end_of___flmul 07F6           __end_of___fltol 0F63                     _RCREG 001A  
                   _SPBRG 0099                     _PORTD 0008                     _TRISD 0088  
                   _SSPIE 0463                     _SSPIF 0063                     _TXREG 0019  
             ?_UART_Write 0070        __size_of_UART_Init 00DA        __size_of_PWM1_Duty 0095  
             ?_PWM1_Start 0070        __size_of_PWM2_Duty 0095               ?_PWM2_Start 0070  
                   pclath 000A           __end_of_spiInit 0CB3           __end_of_spiRead 0C7B  
                   status 0003                     wtemp0 007E           __initialization 07F6  
            __end_of_main 02B8                    ??_main 00A9                    _ADCON1 009F  
                  _CCPR1L 0015                    _CCPR2L 001B                    _TRISA5 042D  
                  _TRISC3 043B                    _TRISC5 043D                    _TRISC6 043E  
                  _TRISC7 043F                    _SSPCON 0014                    _SSPBUF 0013  
        __end_of___xxtofl 0103         __end_of_UART_Init 01DD         __end_of_PWM1_Duty 0E32  
       __end_of_PWM2_Duty 0EC7       __size_of_UART_Write 000C                 ??___aldiv 0078  
               ??___fldiv 003E       __size_of_PWM1_Start 000B                 ??___flmul 0058  
        ?_UART_Write_Text 0070                 ??___fltol 00A0       __size_of_PWM2_Start 000B  
      __size_of__Umul8_16 0027          __end_of_spiWrite 0C72                 ??_spiInit 0073  
               ??_spiRead 0070              ___xxtofl@arg 0032              ___xxtofl@exp 0031  
            ___xxtofl@val 0028   __end_of__initialization 07FC     __end_of_PWM1_Init_Fre 0D4E  
              ___fltol@f1 006A     __end_of_PWM2_Init_Fre 0D9D            __pcstackCOMMON 0070  
              __pbssBANK1 00AE         __end_of__Umul8_16 0CFF                __pmaintext 01DD  
 __size_of_spiReceiveWait 0007             ?_spiDataReady 0070                 ?___xxtofl 0028  
            ??_UART_Write 0070              ??_PWM1_Start 0070              ??_PWM2_Start 0070  
                 _SSPSTAT 0094                __stringtab 0800                 ?_spiWrite 0070  
                 ___aldiv 0F63                   ___fldiv 02B8                   ___flmul 0495  
                 ___fltol 0EC7        __end_of_UART_Write 0C9D        __end_of_PWM1_Start 0C86  
      __end_of_PWM2_Start 0C91                   __ptext1 0C6C                   __ptext2 0C72  
                 __ptext3 0003                   __ptext4 0C9D                   __ptext5 000A  
                 __ptext6 0CB3                   __ptext7 0C91                   __ptext8 0103  
                 __ptext9 0C86            ??_spiDataReady 0072                 _T2CONbits 0012  
              ??___xxtofl 002C          ___aldiv@dividend 0074                   _spiInit 0C9D  
                 _spiRead 0C72      end_of_initialization 07FC          ___aldiv@quotient 0022  
              ??_spiWrite 0070                 _UART_Init 0103                 _PWM1_Duty 0D9D  
               _PWM2_Duty 0E32                 _PORTDbits 0008            UART_Write@data 0070  
           ___xxtofl@sign 0030                 _TRISCbits 0087               ___fldiv@grs 004A  
             ___fldiv@rem 0043               spiWrite@dat 0070               ___flmul@grs 005E  
             _CCP1CONbits 0017               _CCP2CONbits 001D            _spiReceiveWait 0003  
              ?_UART_Init 0026                ?_PWM1_Duty 00A5                ?_PWM2_Duty 00A5  
__size_of_UART_Write_Text 0025       start_initialization 07F6             ?_PWM_Max_Duty 0026  
    __end_of_spiDataReady 0018    __end_of_spiReceiveWait 000A                 __Umul8_16 0CD8  
               ___fldiv@a 0036                 ___fldiv@b 003A                 ___flmul@a 0054  
               ___flmul@b 0050    __size_of_PWM1_Init_Fre 004F                 ___latbits 0002  
           __pcstackBANK0 0020             __pcstackBANK1 00A0         __size_of___xxtofl 00BC  
  __size_of_PWM2_Init_Fre 004F            ??_PWM_Max_Duty 0079           ?_spiReceiveWait 0070  
                ?___aldiv 0070                  ?___fldiv 0036                  ?___flmul 0050  
                ?___fltol 006A                ?__Umul8_16 0070               ??_UART_Init 002A  
       __size_of_spiWrite 0006               ??_PWM1_Duty 00A7               ??_PWM2_Duty 00A7  
               __pstrings 0800                  ?_spiInit 0070                  ?_spiRead 0070  
              UART_Init@x 0079         ??_UART_Write_Text 0071           ___aldiv@divisor 0070  
    spiInit@sTransmitEdge 0072           ___aldiv@counter 0020             _PWM1_Init_Fre 0CFF  
      spiInit@sDataSample 0070             PWM1_Duty@duty 00A5             _PWM2_Init_Fre 0D4E  
       UART_Init@baudrate 0026             PWM2_Duty@duty 00A5               __stringbase 0805  
   __size_of_spiDataReady 000E            ?_PWM1_Init_Fre 0026            ?_PWM2_Init_Fre 0026  
             ??__Umul8_16 0072          __size_of___aldiv 009D      __end_of_PWM_Max_Duty 0047  
        __size_of___fldiv 01DD          __size_of___flmul 0361          __size_of___fltol 009C  
        PWM1_Init_Fre@fre 0026        __end_of__stringtab 0806              _spiDataReady 000A  
                ___xxtofl 0047                  __ptext10 0D4E                  __ptext11 0E32  
                __ptext20 0018                  __ptext12 0C7B                  __ptext21 0F63  
                __ptext13 0CFF                  __ptext14 0D9D                  __ptext15 0047  
                __ptext16 0EC7                  __ptext17 0495                  __ptext18 0CD8  
                __ptext19 02B8          __size_of_spiInit 0016          __size_of_spiRead 0009  
     UART_Write_Text@text 0073             __size_of_main 00DB                  _spiWrite 0C6C  
            spiInit@sType 0073                  main@data 00AC         spiInit@sClockIdle 0071  
         ??_PWM1_Init_Fre 0079          ??_spiReceiveWait 0070           ??_PWM2_Init_Fre 0079  
               stringcode 0800          PWM2_Init_Fre@fre 0026    __Umul8_16@multiplicand 0070  
         _UART_Write_Text 0CB3                  stringdir 0800                  stringtab 0800  
            ___aldiv@sign 0021                _UART_Write 0C91                _PWM1_Start 0C7B  
              _PWM2_Start 0C86          UART_Write_Text@i 0071      __Umul8_16@multiplier 0078  
   __size_of_PWM_Max_Duty 002F         __Umul8_16@product 0074  
