

Microchip MPLAB XC8 Assembler V2.32 build 20210201212658 
                                                                                               Mon Nov 29 11:49:08 2021

Microchip MPLAB XC8 C Compiler v2.32 (Free license) build 20210201212658 Og1 
     1                           	processor	16F877A
     2                           	pagewidth 120
     3                           	opt	flic
     4                           	psect	idataBANK3,global,class=CODE,delta=2,noexec
     5                           	psect	strings,global,class=STRING,delta=2,noexec
     6                           	psect	cinit,global,class=CODE,merge=1,delta=2
     7                           	psect	dataBANK3,global,class=BANK3,space=1,delta=1,noexec
     8                           	psect	inittext,global,class=CODE,delta=2
     9                           	psect	cstackBANK3,global,class=BANK3,space=1,delta=1,noexec
    10                           	psect	cstackBANK1,global,class=BANK1,space=1,delta=1,noexec
    11                           	psect	cstackCOMMON,global,class=COMMON,space=1,delta=1,noexec
    12                           	psect	cstackBANK0,global,class=BANK0,space=1,delta=1,noexec
    13                           	psect	maintext,global,class=CODE,split=1,delta=2
    14                           	psect	text1,local,class=CODE,merge=1,delta=2
    15                           	psect	text2,local,class=CODE,merge=1,delta=2
    16                           	psect	text3,local,class=CODE,merge=1,delta=2
    17                           	psect	text4,local,class=CODE,merge=1,delta=2
    18                           	psect	text5,local,class=CODE,merge=1,delta=2,group=2
    19                           	psect	text6,local,class=CODE,merge=1,delta=2
    20                           	psect	text7,local,class=CODE,merge=1,delta=2,group=2
    21                           	psect	text8,local,class=CODE,merge=1,delta=2
    22                           	psect	text9,local,class=CODE,merge=1,delta=2,group=1
    23                           	psect	text10,local,class=CODE,merge=1,delta=2,group=2
    24                           	psect	text11,local,class=CODE,merge=1,delta=2,group=2
    25                           	psect	text12,local,class=CODE,merge=1,delta=2,group=2
    26                           	psect	text13,local,class=CODE,merge=1,delta=2,group=2
    27                           	psect	text14,local,class=CODE,merge=1,delta=2,group=2
    28                           	psect	text15,local,class=CODE,merge=1,delta=2,group=2
    29                           	psect	text16,local,class=CODE,merge=1,delta=2,group=2
    30                           	psect	text17,local,class=CODE,merge=1,delta=2,group=2
    31                           	psect	text18,local,class=CODE,merge=1,delta=2,group=2
    32                           	psect	text19,local,class=CODE,merge=1,delta=2
    33                           	psect	text20,local,class=CODE,merge=1,delta=2
    34                           	psect	text21,local,class=CODE,merge=1,delta=2
    35                           	psect	config,global,abs,ovrld,class=CONFIG,space=4,delta=2,noexec
    36                           	dabs	1,0x7E,2
    37  0000                     
    38                           ; Version 2.20
    39                           ; Generated 12/02/2020 GMT
    40                           ; 
    41                           ; Copyright © 2020, Microchip Technology Inc. and its subsidiaries ("Microchip")
    42                           ; All rights reserved.
    43                           ; 
    44                           ; This software is developed by Microchip Technology Inc. and its subsidiaries ("Microch
      +                          ip").
    45                           ; 
    46                           ; Redistribution and use in source and binary forms, with or without modification, are
    47                           ; permitted provided that the following conditions are met:
    48                           ; 
    49                           ;     1. Redistributions of source code must retain the above copyright notice, this lis
      +                          t of
    50                           ;        conditions and the following disclaimer.
    51                           ; 
    52                           ;     2. Redistributions in binary form must reproduce the above copyright notice, this 
      +                          list
    53                           ;        of conditions and the following disclaimer in the documentation and/or other
    54                           ;        materials provided with the distribution.
    55                           ; 
    56                           ;     3. Microchip's name may not be used to endorse or promote products derived from th
      +                          is
    57                           ;        software without specific prior written permission.
    58                           ; 
    59                           ; THIS SOFTWARE IS PROVIDED BY MICROCHIP "AS IS" AND ANY EXPRESS OR IMPLIED WARRANTIES,
    60                           ; INCLUDING, BUT NOT LIMITED TO, THE IMPLIED WARRANTIES OF MERCHANTABILITY AND FITNESS F
      +                          OR
    61                           ; PURPOSE ARE DISCLAIMED.  IN NO EVENT SHALL MICROCHIP BE LIABLE FOR ANY DIRECT, INDIREC
      +                          T,
    62                           ; INCIDENTAL, SPECIAL, EXEMPLARY, OR CONSEQUENTIAL DAMAGES (INCLUDING BUT NOT LIMITED TO
    63                           ; PROCUREMENT OF SUBSTITUTE GOODS OR SERVICES; LOSS OF USE, DATA OR PROFITS; OR BUSINESS
    64                           ; INTERRUPTION) HOWSOEVER CAUSED AND ON ANY THEORY OF LIABILITY, WHETHER IN CONTRACT, ST
      +                          RICT
    65                           ; LIABILITY, OR TORT (INCLUDING NEGLIGENCE OR OTHERWISE) ARISING IN ANY WAY OUT OF THE U
      +                          SE OF
    66                           ; THIS SOFTWARE, EVEN IF ADVISED OF THE POSSIBILITY OF SUCH DAMAGE.
    67                           ; 
    68                           ; 
    69                           ; Code-generator required, PIC16F877A Definitions
    70                           ; 
    71                           ; SFR Addresses
    72  0000                     	;# 
    73  0001                     	;# 
    74  0002                     	;# 
    75  0003                     	;# 
    76  0004                     	;# 
    77  0005                     	;# 
    78  0006                     	;# 
    79  0007                     	;# 
    80  0008                     	;# 
    81  0009                     	;# 
    82  000A                     	;# 
    83  000B                     	;# 
    84  000C                     	;# 
    85  000D                     	;# 
    86  000E                     	;# 
    87  000E                     	;# 
    88  000F                     	;# 
    89  0010                     	;# 
    90  0011                     	;# 
    91  0012                     	;# 
    92  0013                     	;# 
    93  0014                     	;# 
    94  0015                     	;# 
    95  0015                     	;# 
    96  0016                     	;# 
    97  0017                     	;# 
    98  0018                     	;# 
    99  0019                     	;# 
   100  001A                     	;# 
   101  001B                     	;# 
   102  001B                     	;# 
   103  001C                     	;# 
   104  001D                     	;# 
   105  001E                     	;# 
   106  001F                     	;# 
   107  0081                     	;# 
   108  0085                     	;# 
   109  0086                     	;# 
   110  0087                     	;# 
   111  0088                     	;# 
   112  0089                     	;# 
   113  008C                     	;# 
   114  008D                     	;# 
   115  008E                     	;# 
   116  0091                     	;# 
   117  0092                     	;# 
   118  0093                     	;# 
   119  0094                     	;# 
   120  0098                     	;# 
   121  0099                     	;# 
   122  009C                     	;# 
   123  009D                     	;# 
   124  009E                     	;# 
   125  009F                     	;# 
   126  010C                     	;# 
   127  010D                     	;# 
   128  010E                     	;# 
   129  010F                     	;# 
   130  018C                     	;# 
   131  018D                     	;# 
   132  0000                     	;# 
   133  0001                     	;# 
   134  0002                     	;# 
   135  0003                     	;# 
   136  0004                     	;# 
   137  0005                     	;# 
   138  0006                     	;# 
   139  0007                     	;# 
   140  0008                     	;# 
   141  0009                     	;# 
   142  000A                     	;# 
   143  000B                     	;# 
   144  000C                     	;# 
   145  000D                     	;# 
   146  000E                     	;# 
   147  000E                     	;# 
   148  000F                     	;# 
   149  0010                     	;# 
   150  0011                     	;# 
   151  0012                     	;# 
   152  0013                     	;# 
   153  0014                     	;# 
   154  0015                     	;# 
   155  0015                     	;# 
   156  0016                     	;# 
   157  0017                     	;# 
   158  0018                     	;# 
   159  0019                     	;# 
   160  001A                     	;# 
   161  001B                     	;# 
   162  001B                     	;# 
   163  001C                     	;# 
   164  001D                     	;# 
   165  001E                     	;# 
   166  001F                     	;# 
   167  0081                     	;# 
   168  0085                     	;# 
   169  0086                     	;# 
   170  0087                     	;# 
   171  0088                     	;# 
   172  0089                     	;# 
   173  008C                     	;# 
   174  008D                     	;# 
   175  008E                     	;# 
   176  0091                     	;# 
   177  0092                     	;# 
   178  0093                     	;# 
   179  0094                     	;# 
   180  0098                     	;# 
   181  0099                     	;# 
   182  009C                     	;# 
   183  009D                     	;# 
   184  009E                     	;# 
   185  009F                     	;# 
   186  010C                     	;# 
   187  010D                     	;# 
   188  010E                     	;# 
   189  010F                     	;# 
   190  018C                     	;# 
   191  018D                     	;# 
   192  0000                     	;# 
   193  0001                     	;# 
   194  0002                     	;# 
   195  0003                     	;# 
   196  0004                     	;# 
   197  0005                     	;# 
   198  0006                     	;# 
   199  0007                     	;# 
   200  0008                     	;# 
   201  0009                     	;# 
   202  000A                     	;# 
   203  000B                     	;# 
   204  000C                     	;# 
   205  000D                     	;# 
   206  000E                     	;# 
   207  000E                     	;# 
   208  000F                     	;# 
   209  0010                     	;# 
   210  0011                     	;# 
   211  0012                     	;# 
   212  0013                     	;# 
   213  0014                     	;# 
   214  0015                     	;# 
   215  0015                     	;# 
   216  0016                     	;# 
   217  0017                     	;# 
   218  0018                     	;# 
   219  0019                     	;# 
   220  001A                     	;# 
   221  001B                     	;# 
   222  001B                     	;# 
   223  001C                     	;# 
   224  001D                     	;# 
   225  001E                     	;# 
   226  001F                     	;# 
   227  0081                     	;# 
   228  0085                     	;# 
   229  0086                     	;# 
   230  0087                     	;# 
   231  0088                     	;# 
   232  0089                     	;# 
   233  008C                     	;# 
   234  008D                     	;# 
   235  008E                     	;# 
   236  0091                     	;# 
   237  0092                     	;# 
   238  0093                     	;# 
   239  0094                     	;# 
   240  0098                     	;# 
   241  0099                     	;# 
   242  009C                     	;# 
   243  009D                     	;# 
   244  009E                     	;# 
   245  009F                     	;# 
   246  010C                     	;# 
   247  010D                     	;# 
   248  010E                     	;# 
   249  010F                     	;# 
   250  018C                     	;# 
   251  018D                     	;# 
   252                           
   253                           	psect	idataBANK3
   254  170D                     __pidataBANK3:
   255                           
   256                           ;initializer for Quadra_Al@F1224
   257  170D  3428               	retlw	40
   258  170E  342A               	retlw	42
   259  170F  3429               	retlw	41
   260  1710  3426               	retlw	38
   261  1711  3477               	retlw	119
   262  1712  347B               	retlw	123
   263  1713  34F3               	retlw	243
   264                           
   265                           	psect	strings
   266  1000                     __pstrings:
   267  1000                     stringtab:
   268  1000                     __stringtab:
   269  1000                     stringcode:	
   270                           ;	String table - string pointers are 1 byte each
   271                           
   272  1000                     stringdir:
   273  1000  3010               	movlw	high stringdir
   274  1001  008A               	movwf	10
   275  1002  0804               	movf	4,w
   276  1003  0A84               	incf	4,f
   277  1004  0782               	addwf	2,f
   278  1005                     __stringbase:
   279  1005  3400               	retlw	0
   280  1006                     __end_of__stringtab:
   281  1006                     _dpowers:
   282  1006  3401               	retlw	1
   283  1007  3400               	retlw	0
   284  1008  340A               	retlw	10
   285  1009  3400               	retlw	0
   286  100A  3464               	retlw	100
   287  100B  3400               	retlw	0
   288  100C  34E8               	retlw	232
   289  100D  3403               	retlw	3
   290  100E  3410               	retlw	16
   291  100F  3427               	retlw	39
   292  1010                     __end_of_dpowers:
   293  0013                     _SSPBUF	set	19
   294  0014                     _SSPCON	set	20
   295  0008                     _PORTD	set	8
   296  001E                     _ADRESH	set	30
   297  001F                     _ADCON0	set	31
   298  0019                     _TXREG	set	25
   299  001A                     _RCREG	set	26
   300  0040                     _RD0	set	64
   301  0063                     _SSPIF	set	99
   302  005E                     _PEIE	set	94
   303  005F                     _GIE	set	95
   304  00FA                     _GO_nDONE	set	250
   305  0065                     _RCIF	set	101
   306  00C4                     _CREN	set	196
   307  00C7                     _SPEN	set	199
   308  0094                     _SSPSTATbits	set	148
   309  0094                     _SSPSTAT	set	148
   310  0088                     _TRISD	set	136
   311  0085                     _TRISA	set	133
   312  009E                     _ADRESL	set	158
   313  009F                     _ADCON1	set	159
   314  0099                     _SPBRG	set	153
   315  043B                     _TRISC3	set	1083
   316  043D                     _TRISC5	set	1085
   317  0463                     _SSPIE	set	1123
   318  04C1                     _TRMT	set	1217
   319  04C5                     _TXEN	set	1221
   320  043E                     _TRISC6	set	1086
   321  043F                     _TRISC7	set	1087
   322  04C4                     _SYNC	set	1220
   323  04C2                     _BRGH	set	1218
   324  1010                     STR_1:
   325  1010  3425               	retlw	37	;'%'
   326  1011  3464               	retlw	100	;'d'
   327  1012  3420               	retlw	32	;' '
   328  1013  3425               	retlw	37	;'%'
   329  1014  3464               	retlw	100	;'d'
   330  1015  3420               	retlw	32	;' '
   331  1016  3425               	retlw	37	;'%'
   332  1017  3464               	retlw	100	;'d'
   333  1018  3420               	retlw	32	;' '
   334  1019  3425               	retlw	37	;'%'
   335  101A  3464               	retlw	100	;'d'
   336  101B  3420               	retlw	32	;' '
   337  101C  3425               	retlw	37	;'%'
   338  101D  3464               	retlw	100	;'d'
   339  101E  3420               	retlw	32	;' '
   340  101F  3425               	retlw	37	;'%'
   341  1020  3464               	retlw	100	;'d'
   342  1021  3420               	retlw	32	;' '
   343  1022  3425               	retlw	37	;'%'
   344  1023  3464               	retlw	100	;'d'
   345  1024  340A               	retlw	10
   346  1025  340D               	retlw	13
   347  1026  3400               	retlw	0
   348  1027                     STR_3:
   349  1027  3453               	retlw	83	;'S'
   350  1028  346C               	retlw	108	;'l'
   351  1029  3461               	retlw	97	;'a'
   352  102A  3476               	retlw	118	;'v'
   353  102B  3465               	retlw	101	;'e'
   354  102C  3420               	retlw	32	;' '
   355  102D  3431               	retlw	49	;'1'
   356  102E  3420               	retlw	32	;' '
   357  102F  343D               	retlw	61	;'='
   358  1030  3420               	retlw	32	;' '
   359  1031  3425               	retlw	37	;'%'
   360  1032  3464               	retlw	100	;'d'
   361  1033  340A               	retlw	10
   362  1034  340D               	retlw	13
   363  1035  3400               	retlw	0
   364  1036                     STR_2:
   365  1036  3464               	retlw	100	;'d'
   366  1037  3420               	retlw	32	;' '
   367  1038  343D               	retlw	61	;'='
   368  1039  3420               	retlw	32	;' '
   369  103A  3425               	retlw	37	;'%'
   370  103B  3464               	retlw	100	;'d'
   371  103C  340A               	retlw	10
   372  103D  340D               	retlw	13
   373  103E  3400               	retlw	0
   374                           
   375                           	psect	cinit
   376  07EE                     start_initialization:	
   377                           ; #config settings
   378                           
   379  07EE                     __initialization:
   380                           
   381                           ; Initialize objects allocated to BANK3
   382  07EE  1783               	bsf	3,7	;select IRP bank2
   383  07EF  30EF               	movlw	low (__pdataBANK3+7)
   384  07F0  00FD               	movwf	btemp+-1
   385  07F1  3017               	movlw	high __pidataBANK3
   386  07F2  00FE               	movwf	btemp
   387  07F3  300D               	movlw	low __pidataBANK3
   388  07F4  00FF               	movwf	btemp+1
   389  07F5  30E8               	movlw	low __pdataBANK3
   390  07F6  0084               	movwf	4
   391  07F7  160A  118A  2735  120A  118A  	fcall	init_ram0
   392  07FC                     end_of_initialization:	
   393                           ;End of C runtime variable initialization code
   394                           
   395  07FC                     __end_of__initialization:
   396  07FC  0183               	clrf	3
   397  07FD  120A  158A  2AAD   	ljmp	_main	;jump to C main() function
   398                           
   399                           	psect	dataBANK3
   400  01E8                     __pdataBANK3:
   401  01E8                     Quadra_Al@F1224:
   402  01E8                     	ds	7
   403                           
   404                           	psect	inittext
   405  1731                     init_fetch0:	
   406                           ;	Called with low address in FSR and high address in W
   407                           
   408  1731  087E               	movf	btemp,w
   409  1732  008A               	movwf	10
   410  1733  087F               	movf	btemp+1,w
   411  1734  0082               	movwf	2
   412  1735                     init_ram0:	
   413                           ;Called with:
   414                           ;	high address of idata address in btemp 
   415                           ;	low address of idata address in btemp+1 
   416                           ;	low address of data in FSR
   417                           ;	high address + 1 of data in btemp-1
   418                           
   419  1735  160A  118A  2731  160A  118A  	fcall	init_fetch0
   420  173A  0080               	movwf	0
   421  173B  0A84               	incf	4,f
   422  173C  0804               	movf	4,w
   423  173D  067D               	xorwf	btemp+-1,w
   424  173E  1903               	btfsc	3,2
   425  173F  3400               	retlw	0
   426  1740  0AFF               	incf	btemp+1,f
   427  1741  1903               	btfsc	3,2
   428  1742  0AFE               	incf	btemp,f
   429  1743  2F35               	goto	init_ram0
   430                           
   431                           	psect	cstackBANK3
   432  0190                     __pcstackBANK3:
   433  0190                     Quadra_Al@uart_logs:
   434                           
   435                           ; 50 bytes @ 0x0
   436  0190                     	ds	50
   437  01C2                     Quadra_Al@b:
   438                           
   439                           ; 4 bytes @ 0x32
   440  01C2                     	ds	4
   441  01C6                     Quadra_Al@d:
   442                           
   443                           ; 4 bytes @ 0x36
   444  01C6                     	ds	4
   445  01CA                     _Quadra_Al$925:
   446                           
   447                           ; 4 bytes @ 0x3A
   448  01CA                     	ds	4
   449  01CE                     _Quadra_Al$926:
   450                           
   451                           ; 4 bytes @ 0x3E
   452  01CE                     	ds	4
   453  01D2                     Quadra_Al@max2:
   454                           
   455                           ; 1 bytes @ 0x42
   456  01D2                     	ds	1
   457  01D3                     Quadra_Al@x:
   458                           
   459                           ; 7 bytes @ 0x43
   460  01D3                     	ds	7
   461  01DA                     Quadra_Al@out:
   462                           
   463                           ; 4 bytes @ 0x4A
   464  01DA                     	ds	4
   465  01DE                     Quadra_Al@max1:
   466                           
   467                           ; 1 bytes @ 0x4E
   468  01DE                     	ds	1
   469  01DF                     Quadra_Al@a:
   470                           
   471                           ; 4 bytes @ 0x4F
   472  01DF                     	ds	4
   473  01E3                     Quadra_Al@xmax:
   474                           
   475                           ; 2 bytes @ 0x53
   476  01E3                     	ds	2
   477  01E5                     Quadra_Al@max:
   478                           
   479                           ; 1 bytes @ 0x55
   480  01E5                     	ds	1
   481  01E6                     Quadra_Al@j:
   482                           
   483                           ; 2 bytes @ 0x56
   484  01E6                     	ds	2
   485                           
   486                           	psect	cstackBANK1
   487  00A0                     __pcstackBANK1:
   488  00A0                     ?___fltol:
   489  00A0                     ___fltol@f1:	
   490                           ; 4 bytes @ 0x0
   491                           
   492                           
   493                           ; 4 bytes @ 0x0
   494  00A0                     	ds	4
   495  00A4                     ??___fltol:
   496                           
   497                           ; 1 bytes @ 0x4
   498  00A4                     	ds	5
   499  00A9                     ___fltol@sign1:
   500                           
   501                           ; 1 bytes @ 0x9
   502  00A9                     	ds	1
   503  00AA                     ___fltol@exp1:
   504                           
   505                           ; 1 bytes @ 0xA
   506  00AA                     	ds	1
   507  00AB                     ??_main:
   508                           
   509                           ; 1 bytes @ 0xB
   510  00AB                     	ds	3
   511  00AE                     main@uart_logs:
   512                           
   513                           ; 20 bytes @ 0xE
   514  00AE                     	ds	20
   515  00C2                     main@out:
   516                           
   517                           ; 2 bytes @ 0x22
   518  00C2                     	ds	2
   519  00C4                     main@data:
   520                           
   521                           ; 2 bytes @ 0x24
   522  00C4                     	ds	2
   523                           
   524                           	psect	cstackCOMMON
   525  0070                     __pcstackCOMMON:
   526  0070                     ?_spiInit:
   527  0070                     ?_spiRead:	
   528                           ; 1 bytes @ 0x0
   529                           
   530  0070                     ??_spiRead:	
   531                           ; 1 bytes @ 0x0
   532                           
   533  0070                     ?_spiWrite:	
   534                           ; 1 bytes @ 0x0
   535                           
   536  0070                     ??_spiWrite:	
   537                           ; 1 bytes @ 0x0
   538                           
   539  0070                     ?_UART_Write:	
   540                           ; 1 bytes @ 0x0
   541                           
   542  0070                     ??_UART_Write:	
   543                           ; 1 bytes @ 0x0
   544                           
   545  0070                     ?_ADC_Init:	
   546                           ; 1 bytes @ 0x0
   547                           
   548  0070                     ??_ADC_Init:	
   549                           ; 1 bytes @ 0x0
   550                           
   551  0070                     ?_main:	
   552                           ; 1 bytes @ 0x0
   553                           
   554  0070                     ?_spiReceiveWait:	
   555                           ; 1 bytes @ 0x0
   556                           
   557  0070                     ??_spiReceiveWait:	
   558                           ; 1 bytes @ 0x0
   559                           
   560  0070                     ?__Umul8_16:	
   561                           ; 1 bytes @ 0x0
   562                           
   563  0070                     ?___lwdiv:	
   564                           ; 2 bytes @ 0x0
   565                           
   566  0070                     ?___aldiv:	
   567                           ; 2 bytes @ 0x0
   568                           
   569  0070                     ?___flneg:	
   570                           ; 4 bytes @ 0x0
   571                           
   572  0070                     ?___fladd:	
   573                           ; 4 bytes @ 0x0
   574                           
   575  0070                     ?___xxtofl:	
   576                           ; 4 bytes @ 0x0
   577                           
   578  0070                     UART_Write@data:	
   579                           ; 4 bytes @ 0x0
   580                           
   581  0070                     spiInit@sDataSample:	
   582                           ; 1 bytes @ 0x0
   583                           
   584  0070                     spiWrite@dat:	
   585                           ; 1 bytes @ 0x0
   586                           
   587  0070                     __Umul8_16@multiplicand:	
   588                           ; 1 bytes @ 0x0
   589                           
   590  0070                     ___lwdiv@divisor:	
   591                           ; 1 bytes @ 0x0
   592                           
   593  0070                     ___aldiv@divisor:	
   594                           ; 2 bytes @ 0x0
   595                           
   596  0070                     ___flneg@f1:	
   597                           ; 4 bytes @ 0x0
   598                           
   599  0070                     ___fladd@b:	
   600                           ; 4 bytes @ 0x0
   601                           
   602  0070                     ___xxtofl@val:	
   603                           ; 4 bytes @ 0x0
   604                           
   605                           
   606                           ; 4 bytes @ 0x0
   607  0070                     	ds	1
   608  0071                     ?_UART_Write_Text:
   609  0071                     spiInit@sClockIdle:	
   610                           ; 1 bytes @ 0x1
   611                           
   612  0071                     UART_Write_Text@text:	
   613                           ; 1 bytes @ 0x1
   614                           
   615                           
   616                           ; 2 bytes @ 0x1
   617  0071                     	ds	1
   618  0072                     ??__Umul8_16:
   619  0072                     spiInit@sTransmitEdge:	
   620                           ; 1 bytes @ 0x2
   621                           
   622  0072                     ___lwdiv@dividend:	
   623                           ; 1 bytes @ 0x2
   624                           
   625                           
   626                           ; 2 bytes @ 0x2
   627  0072                     	ds	1
   628  0073                     ??_spiInit:
   629  0073                     ??_UART_Write_Text:	
   630                           ; 1 bytes @ 0x3
   631                           
   632  0073                     spiInit@sType:	
   633                           ; 1 bytes @ 0x3
   634                           
   635                           
   636                           ; 1 bytes @ 0x3
   637  0073                     	ds	1
   638  0074                     ??___flneg:
   639  0074                     ??___lwdiv:	
   640                           ; 1 bytes @ 0x4
   641                           
   642  0074                     ??___xxtofl:	
   643                           ; 1 bytes @ 0x4
   644                           
   645  0074                     __Umul8_16@product:	
   646                           ; 1 bytes @ 0x4
   647                           
   648  0074                     ___aldiv@dividend:	
   649                           ; 2 bytes @ 0x4
   650                           
   651  0074                     ___fladd@a:	
   652                           ; 4 bytes @ 0x4
   653                           
   654                           
   655                           ; 4 bytes @ 0x4
   656  0074                     	ds	1
   657  0075                     ___lwdiv@quotient:
   658                           
   659                           ; 2 bytes @ 0x5
   660  0075                     	ds	1
   661  0076                     UART_Write_Text@i:
   662  0076                     __Umul8_16@word_mpld:	
   663                           ; 2 bytes @ 0x6
   664                           
   665                           
   666                           ; 2 bytes @ 0x6
   667  0076                     	ds	1
   668  0077                     ___lwdiv@counter:
   669                           
   670                           ; 1 bytes @ 0x7
   671  0077                     	ds	1
   672  0078                     ??___aldiv:
   673  0078                     ?___lwmod:	
   674                           ; 1 bytes @ 0x8
   675                           
   676  0078                     ___fladd@signs:	
   677                           ; 2 bytes @ 0x8
   678                           
   679  0078                     __Umul8_16@multiplier:	
   680                           ; 1 bytes @ 0x8
   681                           
   682  0078                     ___xxtofl@sign:	
   683                           ; 1 bytes @ 0x8
   684                           
   685  0078                     ___lwmod@divisor:	
   686                           ; 1 bytes @ 0x8
   687                           
   688                           
   689                           ; 2 bytes @ 0x8
   690  0078                     	ds	1
   691  0079                     ___fladd@aexp:
   692  0079                     ___xxtofl@exp:	
   693                           ; 1 bytes @ 0x9
   694                           
   695  0079                     UART_Init@x:	
   696                           ; 1 bytes @ 0x9
   697                           
   698                           
   699                           ; 2 bytes @ 0x9
   700  0079                     	ds	1
   701  007A                     ___fladd@bexp:
   702  007A                     ___lwmod@dividend:	
   703                           ; 1 bytes @ 0xA
   704                           
   705  007A                     ___xxtofl@arg:	
   706                           ; 2 bytes @ 0xA
   707                           
   708                           
   709                           ; 4 bytes @ 0xA
   710  007A                     	ds	1
   711  007B                     ___fladd@grs:
   712                           
   713                           ; 1 bytes @ 0xB
   714  007B                     	ds	1
   715  007C                     ??___lwmod:
   716                           
   717                           ; 1 bytes @ 0xC
   718  007C                     	ds	1
   719  007D                     ___lwmod@counter:
   720                           
   721                           ; 1 bytes @ 0xD
   722  007D                     	ds	1
   723  007E                     ??___flsub:
   724                           
   725                           	psect	cstackBANK0
   726  0020                     __pcstackBANK0:	
   727                           ; 1 bytes @ 0xE
   728                           
   729  0020                     ??___fladd:
   730  0020                     ?_sprintf:	
   731                           ; 1 bytes @ 0x0
   732                           
   733  0020                     ___aldiv@counter:	
   734                           ; 2 bytes @ 0x0
   735                           
   736  0020                     sprintf@sp:	
   737                           ; 1 bytes @ 0x0
   738                           
   739                           
   740                           ; 2 bytes @ 0x0
   741  0020                     	ds	1
   742  0021                     ___aldiv@sign:
   743                           
   744                           ; 1 bytes @ 0x1
   745  0021                     	ds	1
   746  0022                     sprintf@f:
   747  0022                     ___aldiv@quotient:	
   748                           ; 1 bytes @ 0x2
   749                           
   750                           
   751                           ; 4 bytes @ 0x2
   752  0022                     	ds	4
   753  0026                     ?_UART_Init:
   754  0026                     UART_Init@baudrate:	
   755                           ; 1 bytes @ 0x6
   756                           
   757                           
   758                           ; 4 bytes @ 0x6
   759  0026                     	ds	2
   760  0028                     ?___flmul:
   761  0028                     ___flmul@b:	
   762                           ; 4 bytes @ 0x8
   763                           
   764                           
   765                           ; 4 bytes @ 0x8
   766  0028                     	ds	2
   767  002A                     ??_UART_Init:
   768                           
   769                           ; 1 bytes @ 0xA
   770  002A                     	ds	2
   771  002C                     ___flmul@a:
   772                           
   773                           ; 4 bytes @ 0xC
   774  002C                     	ds	4
   775  0030                     ??___flmul:
   776                           
   777                           ; 1 bytes @ 0x10
   778  0030                     	ds	1
   779  0031                     ??_sprintf:
   780                           
   781                           ; 1 bytes @ 0x11
   782  0031                     	ds	3
   783  0034                     sprintf@ap:
   784                           
   785                           ; 1 bytes @ 0x14
   786  0034                     	ds	1
   787  0035                     sprintf@flag:
   788  0035                     ___flmul@sign:	
   789                           ; 1 bytes @ 0x15
   790                           
   791                           
   792                           ; 1 bytes @ 0x15
   793  0035                     	ds	1
   794  0036                     sprintf@prec:
   795  0036                     ___flmul@grs:	
   796                           ; 1 bytes @ 0x16
   797                           
   798                           
   799                           ; 4 bytes @ 0x16
   800  0036                     	ds	1
   801  0037                     sprintf@val:
   802                           
   803                           ; 2 bytes @ 0x17
   804  0037                     	ds	2
   805  0039                     sprintf@c:
   806                           
   807                           ; 1 bytes @ 0x19
   808  0039                     	ds	1
   809  003A                     ___flmul@aexp:
   810                           
   811                           ; 1 bytes @ 0x1A
   812  003A                     	ds	1
   813  003B                     ___flmul@bexp:
   814                           
   815                           ; 1 bytes @ 0x1B
   816  003B                     	ds	1
   817  003C                     ___flmul@prod:
   818                           
   819                           ; 4 bytes @ 0x1C
   820  003C                     	ds	4
   821  0040                     ___flmul@temp:
   822                           
   823                           ; 2 bytes @ 0x20
   824  0040                     	ds	2
   825  0042                     ?___flsub:
   826  0042                     ?___fldiv:	
   827                           ; 4 bytes @ 0x22
   828                           
   829  0042                     ___flsub@a:	
   830                           ; 4 bytes @ 0x22
   831                           
   832  0042                     ___fldiv@a:	
   833                           ; 4 bytes @ 0x22
   834                           
   835                           
   836                           ; 4 bytes @ 0x22
   837  0042                     	ds	4
   838  0046                     ___flsub@b:
   839  0046                     ___fldiv@b:	
   840                           ; 4 bytes @ 0x26
   841                           
   842                           
   843                           ; 4 bytes @ 0x26
   844  0046                     	ds	4
   845  004A                     ??___fldiv:
   846                           
   847                           ; 1 bytes @ 0x2A
   848  004A                     	ds	5
   849  004F                     ___fldiv@rem:
   850                           
   851                           ; 4 bytes @ 0x2F
   852  004F                     	ds	4
   853  0053                     ___fldiv@sign:
   854                           
   855                           ; 1 bytes @ 0x33
   856  0053                     	ds	1
   857  0054                     ___fldiv@new_exp:
   858                           
   859                           ; 2 bytes @ 0x34
   860  0054                     	ds	2
   861  0056                     ___fldiv@grs:
   862                           
   863                           ; 4 bytes @ 0x36
   864  0056                     	ds	4
   865  005A                     ___fldiv@bexp:
   866                           
   867                           ; 1 bytes @ 0x3A
   868  005A                     	ds	1
   869  005B                     ___fldiv@aexp:
   870                           
   871                           ; 1 bytes @ 0x3B
   872  005B                     	ds	1
   873  005C                     ?_Quadra_Al:
   874                           
   875                           ; 4 bytes @ 0x3C
   876  005C                     	ds	4
   877  0060                     ??_Quadra_Al:
   878                           
   879                           ; 1 bytes @ 0x40
   880  0060                     	ds	15
   881                           
   882                           	psect	maintext
   883  0AAD                     __pmaintext:	
   884 ;;
   885 ;;Main: autosize = 0, tempsize = 3, incstack = 0, save=0
   886 ;;
   887 ;; *************** function _main *****************
   888 ;; Defined at:
   889 ;;		line 89 in file "newmain.c"
   890 ;; Parameters:    Size  Location     Type
   891 ;;		None
   892 ;; Auto vars:     Size  Location     Type
   893 ;;  uart_logs      20   14[BANK1 ] unsigned char [20]
   894 ;;  data            2   36[BANK1 ] int 
   895 ;;  out             2   34[BANK1 ] int 
   896 ;; Return value:  Size  Location     Type
   897 ;;                  1    wreg      void 
   898 ;; Registers used:
   899 ;;		wreg, fsr0l, fsr0h, status,2, status,0, btemp+1, pclath, cstack
   900 ;; Tracked objects:
   901 ;;		On entry : B00/0
   902 ;;		On exit  : 0/0
   903 ;;		Unchanged: 0/0
   904 ;; Data sizes:     COMMON   BANK0   BANK1   BANK3   BANK2
   905 ;;      Params:         0       0       0       0       0
   906 ;;      Locals:         0       0      24       0       0
   907 ;;      Temps:          0       0       3       0       0
   908 ;;      Totals:         0       0      27       0       0
   909 ;;Total ram usage:       27 bytes
   910 ;; Hardware stack levels required when called: 3
   911 ;; This function calls:
   912 ;;		_ADC_Init
   913 ;;		_Quadra_Al
   914 ;;		_UART_Init
   915 ;;		_UART_Write_Text
   916 ;;		___fltol
   917 ;;		_spiInit
   918 ;;		_spiRead
   919 ;;		_spiWrite
   920 ;;		_sprintf
   921 ;; This function is called by:
   922 ;;		Startup code after reset
   923 ;; This function uses a non-reentrant model
   924 ;;
   925                           
   926                           
   927                           ;psect for function _main
   928  0AAD                     _main:
   929  0AAD                     l2568:	
   930                           ;incstack = 0
   931                           ; Regs used in _main: [wreg-fsr0h+status,2+status,0+btemp+1+pclath+cstack]
   932                           
   933                           
   934                           ;newmain.c: 91:    TRISA = 1;
   935  0AAD  3001               	movlw	1
   936  0AAE  1683               	bsf	3,5	;RP0=1, select bank1
   937  0AAF  1303               	bcf	3,6	;RP1=0, select bank1
   938  0AB0  0085               	movwf	5	;volatile
   939  0AB1                     l2570:
   940                           
   941                           ;newmain.c: 92:    TRISD = 0;
   942  0AB1  0188               	clrf	8	;volatile
   943  0AB2                     l2572:
   944                           
   945                           ;newmain.c: 93:    PORTD = 0;
   946  0AB2  1283               	bcf	3,5	;RP0=0, select bank0
   947  0AB3  1303               	bcf	3,6	;RP1=0, select bank0
   948  0AB4  0188               	clrf	8	;volatile
   949  0AB5                     l2574:
   950                           
   951                           ;newmain.c: 95:    GIE = 1;
   952  0AB5  178B               	bsf	11,7	;volatile
   953  0AB6                     l2576:
   954                           
   955                           ;newmain.c: 96:    PEIE = 1;
   956  0AB6  170B               	bsf	11,6	;volatile
   957  0AB7                     l2578:
   958                           
   959                           ;newmain.c: 97:    SSPIF = 0;
   960  0AB7  118C               	bcf	12,3	;volatile
   961  0AB8                     l2580:
   962                           
   963                           ;newmain.c: 98:    SSPIE = 1;
   964  0AB8  1683               	bsf	3,5	;RP0=1, select bank1
   965  0AB9  1303               	bcf	3,6	;RP1=0, select bank1
   966  0ABA  158C               	bsf	12,3	;volatile
   967                           
   968                           ;newmain.c: 99:    ADCON1 = 0x07;
   969  0ABB  3007               	movlw	7
   970  0ABC  009F               	movwf	31	;volatile
   971  0ABD                     l2582:
   972                           
   973                           ;newmain.c: 101:    ADC_Init ();
   974  0ABD  160A  118A  2714  120A  158A  	fcall	_ADC_Init
   975  0AC2                     l2584:
   976                           
   977                           ;newmain.c: 102:    UART_Init (9600);
   978  0AC2  3000               	movlw	0
   979  0AC3  1283               	bcf	3,5	;RP0=0, select bank0
   980  0AC4  1303               	bcf	3,6	;RP1=0, select bank0
   981  0AC5  00A9               	movwf	UART_Init@baudrate+3
   982  0AC6  3000               	movlw	0
   983  0AC7  00A8               	movwf	UART_Init@baudrate+2
   984  0AC8  3025               	movlw	37
   985  0AC9  00A7               	movwf	UART_Init@baudrate+1
   986  0ACA  3080               	movlw	128
   987  0ACB  00A6               	movwf	UART_Init@baudrate
   988  0ACC  120A  158A  21D3  120A  158A  	fcall	_UART_Init
   989  0AD1                     l2586:
   990                           
   991                           ;newmain.c: 103:    spiInit(SPI_SLAVE_SS_EN, SPI_DATA_SAMPLE_MIDDLE, SPI_CLOCK_IDLE_LOW,
      +                           SPI_IDLE_2_ACTIVE);
   992  0AD1  01F0               	clrf	spiInit@sDataSample
   993  0AD2  01F1               	clrf	spiInit@sClockIdle
   994  0AD3  01F2               	clrf	spiInit@sTransmitEdge
   995  0AD4  3024               	movlw	36
   996  0AD5  120A  118A  200F  120A  158A  	fcall	_spiInit
   997  0ADA                     l2588:
   998                           
   999                           ;newmain.c: 105:    {;newmain.c: 106:        if(SSPIF == 1)
  1000  0ADA  1283               	bcf	3,5	;RP0=0, select bank0
  1001  0ADB  1303               	bcf	3,6	;RP1=0, select bank0
  1002  0ADC  1D8C               	btfss	12,3	;volatile
  1003  0ADD  2ADF               	goto	u3811
  1004  0ADE  2AE0               	goto	u3810
  1005  0ADF                     u3811:
  1006  0ADF  2B7D               	goto	l2616
  1007  0AE0                     u3810:
  1008  0AE0                     l2590:
  1009                           
  1010                           ;newmain.c: 110:            int out = 0;
  1011  0AE0  1683               	bsf	3,5	;RP0=1, select bank1
  1012  0AE1  1303               	bcf	3,6	;RP1=0, select bank1
  1013  0AE2  01C2               	clrf	main@out^(0+128)
  1014  0AE3  01C3               	clrf	(main@out+1)^(0+128)
  1015  0AE4                     l2592:
  1016                           
  1017                           ;newmain.c: 111:            out = spiRead ();
  1018  0AE4  160A  118A  271D  120A  158A  	fcall	_spiRead
  1019  0AE9  1683               	bsf	3,5	;RP0=1, select bank1
  1020  0AEA  1303               	bcf	3,6	;RP1=0, select bank1
  1021  0AEB  00AB               	movwf	??_main^(0+128)
  1022  0AEC  01AC               	clrf	(??_main^(0+128)+1)
  1023  0AED  082B               	movf	??_main^(0+128),w
  1024  0AEE  00C2               	movwf	main@out^(0+128)
  1025  0AEF  082C               	movf	(??_main+1)^(0+128),w
  1026  0AF0  00C3               	movwf	(main@out+1)^(0+128)
  1027  0AF1                     l2594:
  1028                           
  1029                           ;newmain.c: 112:            if (out == 1)
  1030  0AF1  0342               	decf	main@out^(0+128),w
  1031  0AF2  0443               	iorwf	(main@out+1)^(0+128),w
  1032  0AF3  1D03               	btfss	3,2
  1033  0AF4  2AF6               	goto	u3821
  1034  0AF5  2AF7               	goto	u3820
  1035  0AF6                     u3821:
  1036  0AF6  2B79               	goto	l2612
  1037  0AF7                     u3820:
  1038  0AF7                     l2596:
  1039                           
  1040                           ;newmain.c: 113:            {;newmain.c: 114:                RD0 = 1;
  1041  0AF7  1283               	bcf	3,5	;RP0=0, select bank0
  1042  0AF8  1303               	bcf	3,6	;RP1=0, select bank0
  1043  0AF9  1408               	bsf	8,0	;volatile
  1044  0AFA                     l2598:
  1045                           
  1046                           ;newmain.c: 115:                data = Quadra_Al();
  1047  0AFA  120A  118A  215E  120A  158A  	fcall	_Quadra_Al
  1048  0AFF  1283               	bcf	3,5	;RP0=0, select bank0
  1049  0B00  1303               	bcf	3,6	;RP1=0, select bank0
  1050  0B01  085F               	movf	?_Quadra_Al+3,w
  1051  0B02  1683               	bsf	3,5	;RP0=1, select bank1
  1052  0B03  1303               	bcf	3,6	;RP1=0, select bank1
  1053  0B04  00A3               	movwf	(___fltol@f1+3)^(0+128)
  1054  0B05  1283               	bcf	3,5	;RP0=0, select bank0
  1055  0B06  1303               	bcf	3,6	;RP1=0, select bank0
  1056  0B07  085E               	movf	?_Quadra_Al+2,w
  1057  0B08  1683               	bsf	3,5	;RP0=1, select bank1
  1058  0B09  1303               	bcf	3,6	;RP1=0, select bank1
  1059  0B0A  00A2               	movwf	(___fltol@f1+2)^(0+128)
  1060  0B0B  1283               	bcf	3,5	;RP0=0, select bank0
  1061  0B0C  1303               	bcf	3,6	;RP1=0, select bank0
  1062  0B0D  085D               	movf	?_Quadra_Al+1,w
  1063  0B0E  1683               	bsf	3,5	;RP0=1, select bank1
  1064  0B0F  1303               	bcf	3,6	;RP1=0, select bank1
  1065  0B10  00A1               	movwf	(___fltol@f1+1)^(0+128)
  1066  0B11  1283               	bcf	3,5	;RP0=0, select bank0
  1067  0B12  1303               	bcf	3,6	;RP1=0, select bank0
  1068  0B13  085C               	movf	?_Quadra_Al,w
  1069  0B14  1683               	bsf	3,5	;RP0=1, select bank1
  1070  0B15  1303               	bcf	3,6	;RP1=0, select bank1
  1071  0B16  00A0               	movwf	___fltol@f1^(0+128)
  1072  0B17  120A  158A  2000  120A  158A  	fcall	___fltol
  1073  0B1C  1683               	bsf	3,5	;RP0=1, select bank1
  1074  0B1D  1303               	bcf	3,6	;RP1=0, select bank1
  1075  0B1E  0821               	movf	(?___fltol+1)^(0+128),w
  1076  0B1F  00C5               	movwf	(main@data+1)^(0+128)
  1077  0B20  0820               	movf	?___fltol^(0+128),w
  1078  0B21  00C4               	movwf	main@data^(0+128)
  1079  0B22                     l2600:
  1080                           
  1081                           ;newmain.c: 116:                _delay((unsigned long)((300)*(8000000/4000.0)));
  1082  0B22  3004               	movlw	4
  1083  0B23  1683               	bsf	3,5	;RP0=1, select bank1
  1084  0B24  1303               	bcf	3,6	;RP1=0, select bank1
  1085  0B25  00AD               	movwf	(??_main^(0+128)+2)
  1086  0B26  300C               	movlw	12
  1087  0B27  00AC               	movwf	(??_main^(0+128)+1)
  1088  0B28  3033               	movlw	51
  1089  0B29  00AB               	movwf	??_main^(0+128)
  1090  0B2A                     u3837:
  1091  0B2A  0BAB               	decfsz	??_main^(0+128),f
  1092  0B2B  2B2A               	goto	u3837
  1093  0B2C  0BAC               	decfsz	(??_main^(0+128)+1),f
  1094  0B2D  2B2A               	goto	u3837
  1095  0B2E  0BAD               	decfsz	(??_main^(0+128)+2),f
  1096  0B2F  2B2A               	goto	u3837
  1097  0B30                     l2602:
  1098                           
  1099                           ;newmain.c: 117:                sprintf(uart_logs, "Slave 1 = %d\n\r", data);
  1100  0B30  30AE               	movlw	(low (main@uart_logs| 0))& (0+255)
  1101  0B31  1283               	bcf	3,5	;RP0=0, select bank0
  1102  0B32  1303               	bcf	3,6	;RP1=0, select bank0
  1103  0B33  00A0               	movwf	sprintf@sp
  1104  0B34  3000               	movlw	0
  1105  0B35  00A1               	movwf	sprintf@sp+1
  1106  0B36  3022               	movlw	(low ((STR_3-__stringbase)| (0+32768)))& (0+255)
  1107  0B37  1683               	bsf	3,5	;RP0=1, select bank1
  1108  0B38  1303               	bcf	3,6	;RP1=0, select bank1
  1109  0B39  00AB               	movwf	??_main^(0+128)
  1110  0B3A  082B               	movf	??_main^(0+128),w
  1111  0B3B  1283               	bcf	3,5	;RP0=0, select bank0
  1112  0B3C  1303               	bcf	3,6	;RP1=0, select bank0
  1113  0B3D  00A2               	movwf	sprintf@f
  1114  0B3E  1683               	bsf	3,5	;RP0=1, select bank1
  1115  0B3F  1303               	bcf	3,6	;RP1=0, select bank1
  1116  0B40  0845               	movf	(main@data+1)^(0+128),w
  1117  0B41  1283               	bcf	3,5	;RP0=0, select bank0
  1118  0B42  1303               	bcf	3,6	;RP1=0, select bank0
  1119  0B43  00A4               	movwf	?_sprintf+4
  1120  0B44  1683               	bsf	3,5	;RP0=1, select bank1
  1121  0B45  1303               	bcf	3,6	;RP1=0, select bank1
  1122  0B46  0844               	movf	main@data^(0+128),w
  1123  0B47  1283               	bcf	3,5	;RP0=0, select bank0
  1124  0B48  1303               	bcf	3,6	;RP1=0, select bank0
  1125  0B49  00A3               	movwf	?_sprintf+3
  1126  0B4A  120A  118A  2069  120A  158A  	fcall	_sprintf
  1127  0B4F                     l2604:
  1128                           
  1129                           ;newmain.c: 118:                spiWrite(data);
  1130  0B4F  1683               	bsf	3,5	;RP0=1, select bank1
  1131  0B50  1303               	bcf	3,6	;RP1=0, select bank1
  1132  0B51  0844               	movf	main@data^(0+128),w
  1133  0B52  160A  118A  2700  120A  158A  	fcall	_spiWrite
  1134  0B57                     l2606:
  1135                           
  1136                           ;newmain.c: 119:                _delay((unsigned long)((1)*(8000000/4000.0)));
  1137  0B57  3003               	movlw	3
  1138  0B58  1683               	bsf	3,5	;RP0=1, select bank1
  1139  0B59  1303               	bcf	3,6	;RP1=0, select bank1
  1140  0B5A  00AC               	movwf	(??_main^(0+128)+1)
  1141  0B5B  3097               	movlw	151
  1142  0B5C  00AB               	movwf	??_main^(0+128)
  1143  0B5D                     u3847:
  1144  0B5D  0BAB               	decfsz	??_main^(0+128),f
  1145  0B5E  2B5D               	goto	u3847
  1146  0B5F  0BAC               	decfsz	(??_main^(0+128)+1),f
  1147  0B60  2B5D               	goto	u3847
  1148  0B61                     l2608:
  1149                           
  1150                           ;newmain.c: 120:                UART_Write_Text(uart_logs);
  1151  0B61  30AE               	movlw	(low (main@uart_logs| 0))& (0+255)
  1152  0B62  00F1               	movwf	UART_Write_Text@text
  1153  0B63  3000               	movlw	0
  1154  0B64  00F2               	movwf	UART_Write_Text@text+1
  1155  0B65  160A  118A  278F  120A  158A  	fcall	_UART_Write_Text
  1156  0B6A                     l2610:
  1157                           
  1158                           ;newmain.c: 121:                _delay((unsigned long)((100)*(8000000/4000.0)));
  1159  0B6A  3002               	movlw	2
  1160  0B6B  1683               	bsf	3,5	;RP0=1, select bank1
  1161  0B6C  1303               	bcf	3,6	;RP1=0, select bank1
  1162  0B6D  00AD               	movwf	(??_main^(0+128)+2)
  1163  0B6E  3004               	movlw	4
  1164  0B6F  00AC               	movwf	(??_main^(0+128)+1)
  1165  0B70  30B9               	movlw	185
  1166  0B71  00AB               	movwf	??_main^(0+128)
  1167  0B72                     u3857:
  1168  0B72  0BAB               	decfsz	??_main^(0+128),f
  1169  0B73  2B72               	goto	u3857
  1170  0B74  0BAC               	decfsz	(??_main^(0+128)+1),f
  1171  0B75  2B72               	goto	u3857
  1172  0B76  0BAD               	decfsz	(??_main^(0+128)+2),f
  1173  0B77  2B72               	goto	u3857
  1174  0B78  2B79               	nop2
  1175  0B79                     l2612:
  1176                           
  1177                           ;newmain.c: 123:            RD0 = 0;
  1178  0B79  1283               	bcf	3,5	;RP0=0, select bank0
  1179  0B7A  1303               	bcf	3,6	;RP1=0, select bank0
  1180  0B7B  1008               	bcf	8,0	;volatile
  1181  0B7C                     l2614:
  1182                           
  1183                           ;newmain.c: 124:            SSPIF = 0;
  1184  0B7C  118C               	bcf	12,3	;volatile
  1185  0B7D                     l2616:
  1186                           
  1187                           ;newmain.c: 126:        _delay((unsigned long)((5)*(8000000/4000.0)));
  1188  0B7D  300D               	movlw	13
  1189  0B7E  1683               	bsf	3,5	;RP0=1, select bank1
  1190  0B7F  1303               	bcf	3,6	;RP1=0, select bank1
  1191  0B80  00AC               	movwf	(??_main^(0+128)+1)
  1192  0B81  30FB               	movlw	251
  1193  0B82  00AB               	movwf	??_main^(0+128)
  1194  0B83                     u3867:
  1195  0B83  0BAB               	decfsz	??_main^(0+128),f
  1196  0B84  2B83               	goto	u3867
  1197  0B85  0BAC               	decfsz	(??_main^(0+128)+1),f
  1198  0B86  2B83               	goto	u3867
  1199  0B87  2ADA               	goto	l2588
  1200  0B88  120A  118A  2800   	ljmp	start
  1201  0B8B                     __end_of_main:
  1202                           
  1203                           	psect	text1
  1204  1700                     __ptext1:	
  1205 ;; *************** function _spiWrite *****************
  1206 ;; Defined at:
  1207 ;;		line 34 in file "spi.c"
  1208 ;; Parameters:    Size  Location     Type
  1209 ;;  dat             1    wreg     unsigned char 
  1210 ;; Auto vars:     Size  Location     Type
  1211 ;;  dat             1    0[COMMON] unsigned char 
  1212 ;; Return value:  Size  Location     Type
  1213 ;;                  1    wreg      void 
  1214 ;; Registers used:
  1215 ;;		wreg
  1216 ;; Tracked objects:
  1217 ;;		On entry : 0/0
  1218 ;;		On exit  : 0/0
  1219 ;;		Unchanged: 0/0
  1220 ;; Data sizes:     COMMON   BANK0   BANK1   BANK3   BANK2
  1221 ;;      Params:         0       0       0       0       0
  1222 ;;      Locals:         1       0       0       0       0
  1223 ;;      Temps:          0       0       0       0       0
  1224 ;;      Totals:         1       0       0       0       0
  1225 ;;Total ram usage:        1 bytes
  1226 ;; Hardware stack levels used: 1
  1227 ;; This function calls:
  1228 ;;		Nothing
  1229 ;; This function is called by:
  1230 ;;		_main
  1231 ;; This function uses a non-reentrant model
  1232 ;;
  1233                           
  1234                           
  1235                           ;psect for function _spiWrite
  1236  1700                     _spiWrite:
  1237                           
  1238                           ;incstack = 0
  1239                           ; Regs used in _spiWrite: [wreg]
  1240                           ;spiWrite@dat stored from wreg
  1241  1700  00F0               	movwf	spiWrite@dat
  1242  1701                     l2530:
  1243                           
  1244                           ;spi.c: 34: void spiWrite(char dat);spi.c: 35: {;spi.c: 36:     SSPBUF = dat;
  1245  1701  0870               	movf	spiWrite@dat,w
  1246  1702  1283               	bcf	3,5	;RP0=0, select bank0
  1247  1703  1303               	bcf	3,6	;RP1=0, select bank0
  1248  1704  0093               	movwf	19	;volatile
  1249  1705                     l148:
  1250  1705  0008               	return
  1251  1706                     __end_of_spiWrite:
  1252                           
  1253                           	psect	text2
  1254  171D                     __ptext2:	
  1255 ;; *************** function _spiRead *****************
  1256 ;; Defined at:
  1257 ;;		line 47 in file "spi.c"
  1258 ;; Parameters:    Size  Location     Type
  1259 ;;		None
  1260 ;; Auto vars:     Size  Location     Type
  1261 ;;		None
  1262 ;; Return value:  Size  Location     Type
  1263 ;;                  1    wreg      unsigned char 
  1264 ;; Registers used:
  1265 ;;		wreg, status,2, status,0, pclath, cstack
  1266 ;; Tracked objects:
  1267 ;;		On entry : 0/0
  1268 ;;		On exit  : 0/0
  1269 ;;		Unchanged: 0/0
  1270 ;; Data sizes:     COMMON   BANK0   BANK1   BANK3   BANK2
  1271 ;;      Params:         0       0       0       0       0
  1272 ;;      Locals:         0       0       0       0       0
  1273 ;;      Temps:          0       0       0       0       0
  1274 ;;      Totals:         0       0       0       0       0
  1275 ;;Total ram usage:        0 bytes
  1276 ;; Hardware stack levels used: 1
  1277 ;; Hardware stack levels required when called: 1
  1278 ;; This function calls:
  1279 ;;		_spiReceiveWait
  1280 ;; This function is called by:
  1281 ;;		_main
  1282 ;; This function uses a non-reentrant model
  1283 ;;
  1284                           
  1285                           
  1286                           ;psect for function _spiRead
  1287  171D                     _spiRead:
  1288  171D                     l2524:	
  1289                           ;incstack = 0
  1290                           ; Regs used in _spiRead: [wreg+status,2+status,0+pclath+cstack]
  1291                           
  1292                           
  1293                           ;spi.c: 49:     spiReceiveWait();
  1294  171D  160A  118A  2706  160A  118A  	fcall	_spiReceiveWait
  1295  1722                     l2526:
  1296                           
  1297                           ;spi.c: 50:     return(SSPBUF);
  1298  1722  1283               	bcf	3,5	;RP0=0, select bank0
  1299  1723  1303               	bcf	3,6	;RP1=0, select bank0
  1300  1724  0813               	movf	19,w	;volatile
  1301  1725                     l156:
  1302  1725  0008               	return
  1303  1726                     __end_of_spiRead:
  1304                           
  1305                           	psect	text3
  1306  1706                     __ptext3:	
  1307 ;; *************** function _spiReceiveWait *****************
  1308 ;; Defined at:
  1309 ;;		line 29 in file "spi.c"
  1310 ;; Parameters:    Size  Location     Type
  1311 ;;		None
  1312 ;; Auto vars:     Size  Location     Type
  1313 ;;		None
  1314 ;; Return value:  Size  Location     Type
  1315 ;;                  1    wreg      void 
  1316 ;; Registers used:
  1317 ;;		None
  1318 ;; Tracked objects:
  1319 ;;		On entry : 0/0
  1320 ;;		On exit  : 0/0
  1321 ;;		Unchanged: 0/0
  1322 ;; Data sizes:     COMMON   BANK0   BANK1   BANK3   BANK2
  1323 ;;      Params:         0       0       0       0       0
  1324 ;;      Locals:         0       0       0       0       0
  1325 ;;      Temps:          0       0       0       0       0
  1326 ;;      Totals:         0       0       0       0       0
  1327 ;;Total ram usage:        0 bytes
  1328 ;; Hardware stack levels used: 1
  1329 ;; This function calls:
  1330 ;;		Nothing
  1331 ;; This function is called by:
  1332 ;;		_spiRead
  1333 ;; This function uses a non-reentrant model
  1334 ;;
  1335                           
  1336                           
  1337                           ;psect for function _spiReceiveWait
  1338  1706                     _spiReceiveWait:
  1339  1706                     l2054:	
  1340                           ;incstack = 0
  1341                           ; Regs used in _spiReceiveWait: []
  1342                           
  1343  1706                     l142:	
  1344                           ;spi.c: 31:     while ( !SSPSTATbits.BF );
  1345                           
  1346  1706  1683               	bsf	3,5	;RP0=1, select bank1
  1347  1707  1303               	bcf	3,6	;RP1=0, select bank1
  1348  1708  1C14               	btfss	20,0	;volatile
  1349  1709  2F0B               	goto	u2671
  1350  170A  2F0C               	goto	u2670
  1351  170B                     u2671:
  1352  170B  2F06               	goto	l142
  1353  170C                     u2670:
  1354  170C                     l145:
  1355  170C  0008               	return
  1356  170D                     __end_of_spiReceiveWait:
  1357                           
  1358                           	psect	text4
  1359  000F                     __ptext4:	
  1360 ;; *************** function _spiInit *****************
  1361 ;; Defined at:
  1362 ;;		line 12 in file "spi.c"
  1363 ;; Parameters:    Size  Location     Type
  1364 ;;  sType           1    wreg     enum E850
  1365 ;;  sDataSample     1    0[COMMON] enum E858
  1366 ;;  sClockIdle      1    1[COMMON] enum E862
  1367 ;;  sTransmitEdg    1    2[COMMON] enum E866
  1368 ;; Auto vars:     Size  Location     Type
  1369 ;;  sType           1    3[COMMON] enum E850
  1370 ;; Return value:  Size  Location     Type
  1371 ;;                  1    wreg      void 
  1372 ;; Registers used:
  1373 ;;		wreg, status,2, status,0
  1374 ;; Tracked objects:
  1375 ;;		On entry : 0/0
  1376 ;;		On exit  : 0/0
  1377 ;;		Unchanged: 0/0
  1378 ;; Data sizes:     COMMON   BANK0   BANK1   BANK3   BANK2
  1379 ;;      Params:         3       0       0       0       0
  1380 ;;      Locals:         1       0       0       0       0
  1381 ;;      Temps:          0       0       0       0       0
  1382 ;;      Totals:         4       0       0       0       0
  1383 ;;Total ram usage:        4 bytes
  1384 ;; Hardware stack levels used: 1
  1385 ;; This function calls:
  1386 ;;		Nothing
  1387 ;; This function is called by:
  1388 ;;		_main
  1389 ;; This function uses a non-reentrant model
  1390 ;;
  1391                           
  1392                           
  1393                           ;psect for function _spiInit
  1394  000F                     _spiInit:
  1395                           
  1396                           ;incstack = 0
  1397                           ; Regs used in _spiInit: [wreg+status,2+status,0]
  1398                           ;spiInit@sType stored from wreg
  1399  000F  00F3               	movwf	spiInit@sType
  1400  0010                     l2514:
  1401                           
  1402                           ;spi.c: 12: void spiInit(Spi_Type sType, Spi_Data_Sample sDataSample, Spi_Clock_Idle sCl
      +                          ockIdle, Spi_Transmit_Edge sTransmitEdge);spi.c: 13: {;spi.c: 14:     TRISC5 = 0;
  1403  0010  1683               	bsf	3,5	;RP0=1, select bank1
  1404  0011  1303               	bcf	3,6	;RP1=0, select bank1
  1405  0012  1287               	bcf	7,5	;volatile
  1406                           
  1407                           ;spi.c: 15:     if(sType & 0b00000100)
  1408  0013  1D73               	btfss	spiInit@sType,2
  1409  0014  2816               	goto	u3701
  1410  0015  2817               	goto	u3700
  1411  0016                     u3701:
  1412  0016  281B               	goto	l2520
  1413  0017                     u3700:
  1414  0017                     l2516:
  1415                           
  1416                           ;spi.c: 16:     {;spi.c: 17:         SSPSTAT = sTransmitEdge;
  1417  0017  0872               	movf	spiInit@sTransmitEdge,w
  1418  0018  0094               	movwf	20	;volatile
  1419  0019                     l2518:
  1420                           
  1421                           ;spi.c: 18:         TRISC3 = 1;
  1422  0019  1587               	bsf	7,3	;volatile
  1423                           
  1424                           ;spi.c: 19:     }
  1425  001A  281F               	goto	l138
  1426  001B                     l2520:
  1427                           
  1428                           ;spi.c: 21:     {;spi.c: 22:         SSPSTAT = sDataSample | sTransmitEdge;
  1429  001B  0870               	movf	spiInit@sDataSample,w
  1430  001C  0472               	iorwf	spiInit@sTransmitEdge,w
  1431  001D  0094               	movwf	20	;volatile
  1432  001E                     l2522:
  1433                           
  1434                           ;spi.c: 23:         TRISC3 = 0;
  1435  001E  1187               	bcf	7,3	;volatile
  1436  001F                     l138:	
  1437                           ;spi.c: 24:     }
  1438                           
  1439                           
  1440                           ;spi.c: 26:     SSPCON = sType | sClockIdle;
  1441  001F  0873               	movf	spiInit@sType,w
  1442  0020  0471               	iorwf	spiInit@sClockIdle,w
  1443  0021  1283               	bcf	3,5	;RP0=0, select bank0
  1444  0022  1303               	bcf	3,6	;RP1=0, select bank0
  1445  0023  0094               	movwf	20	;volatile
  1446  0024                     l139:
  1447  0024  0008               	return
  1448  0025                     __end_of_spiInit:
  1449                           
  1450                           	psect	text5
  1451  0800                     __ptext5:	
  1452 ;; *************** function ___fltol *****************
  1453 ;; Defined at:
  1454 ;;		line 43 in file "C:\Program Files\Microchip\xc8\v2.32\pic\sources\c90\common\fltol.c"
  1455 ;; Parameters:    Size  Location     Type
  1456 ;;  f1              4    0[BANK1 ] void 
  1457 ;; Auto vars:     Size  Location     Type
  1458 ;;  exp1            1   10[BANK1 ] unsigned char 
  1459 ;;  sign1           1    9[BANK1 ] unsigned char 
  1460 ;; Return value:  Size  Location     Type
  1461 ;;                  4    0[BANK1 ] long 
  1462 ;; Registers used:
  1463 ;;		wreg, status,2, status,0
  1464 ;; Tracked objects:
  1465 ;;		On entry : 0/0
  1466 ;;		On exit  : 0/0
  1467 ;;		Unchanged: 0/0
  1468 ;; Data sizes:     COMMON   BANK0   BANK1   BANK3   BANK2
  1469 ;;      Params:         0       0       4       0       0
  1470 ;;      Locals:         0       0       2       0       0
  1471 ;;      Temps:          0       0       5       0       0
  1472 ;;      Totals:         0       0      11       0       0
  1473 ;;Total ram usage:       11 bytes
  1474 ;; Hardware stack levels used: 1
  1475 ;; This function calls:
  1476 ;;		Nothing
  1477 ;; This function is called by:
  1478 ;;		_main
  1479 ;; This function uses a non-reentrant model
  1480 ;;
  1481                           
  1482                           
  1483                           ;psect for function ___fltol
  1484  0800                     ___fltol:
  1485  0800                     l2532:	
  1486                           ;incstack = 0
  1487                           ; Regs used in ___fltol: [wreg+status,2+status,0]
  1488                           
  1489  0800  1003               	clrc
  1490  0801  1683               	bsf	3,5	;RP0=1, select bank1
  1491  0802  1303               	bcf	3,6	;RP1=0, select bank1
  1492  0803  0D22               	rlf	(___fltol@f1+2)^(0+128),w
  1493  0804  0D23               	rlf	(___fltol@f1+3)^(0+128),w
  1494  0805  00A4               	movwf	??___fltol^(0+128)
  1495  0806  0824               	movf	??___fltol^(0+128),w
  1496  0807  00AA               	movwf	___fltol@exp1^(0+128)
  1497  0808  082A               	movf	___fltol@exp1^(0+128),w
  1498  0809  1D03               	btfss	3,2
  1499  080A  280C               	goto	u3711
  1500  080B  280D               	goto	u3710
  1501  080C                     u3711:
  1502  080C  2816               	goto	l2538
  1503  080D                     u3710:
  1504  080D                     l2534:
  1505  080D  3000               	movlw	0
  1506  080E  00A3               	movwf	(?___fltol+3)^(0+128)
  1507  080F  3000               	movlw	0
  1508  0810  00A2               	movwf	(?___fltol+2)^(0+128)
  1509  0811  3000               	movlw	0
  1510  0812  00A1               	movwf	(?___fltol+1)^(0+128)
  1511  0813  3000               	movlw	0
  1512  0814  00A0               	movwf	?___fltol^(0+128)
  1513  0815  287B               	goto	l456
  1514  0816                     l2538:
  1515  0816  0820               	movf	___fltol@f1^(0+128),w
  1516  0817  00A4               	movwf	??___fltol^(0+128)
  1517  0818  0821               	movf	(___fltol@f1+1)^(0+128),w
  1518  0819  00A5               	movwf	(??___fltol^(0+128)+1)
  1519  081A  0822               	movf	(___fltol@f1+2)^(0+128),w
  1520  081B  00A6               	movwf	(??___fltol^(0+128)+2)
  1521  081C  0823               	movf	(___fltol@f1+3)^(0+128),w
  1522  081D  00A7               	movwf	(??___fltol^(0+128)+3)
  1523  081E  301F               	movlw	31
  1524  081F                     u3725:
  1525  081F  1003               	clrc
  1526  0820  0CA7               	rrf	(??___fltol^(0+128)+3),f
  1527  0821  0CA6               	rrf	(??___fltol^(0+128)+2),f
  1528  0822  0CA5               	rrf	(??___fltol^(0+128)+1),f
  1529  0823  0CA4               	rrf	??___fltol^(0+128),f
  1530  0824                     u3720:
  1531  0824  3EFF               	addlw	-1
  1532  0825  1D03               	skipz
  1533  0826  281F               	goto	u3725
  1534  0827  0824               	movf	??___fltol^(0+128),w
  1535  0828  00A8               	movwf	(??___fltol+4)^(0+128)
  1536  0829  0828               	movf	(??___fltol+4)^(0+128),w
  1537  082A  00A9               	movwf	___fltol@sign1^(0+128)
  1538  082B                     l2540:
  1539  082B  17A2               	bsf	(___fltol@f1^(0+128)+2),7
  1540  082C                     l2542:
  1541  082C  30FF               	movlw	255
  1542  082D  05A0               	andwf	___fltol@f1^(0+128),f
  1543  082E  30FF               	movlw	255
  1544  082F  05A1               	andwf	(___fltol@f1+1)^(0+128),f
  1545  0830  30FF               	movlw	255
  1546  0831  05A2               	andwf	(___fltol@f1+2)^(0+128),f
  1547  0832  3000               	movlw	0
  1548  0833  05A3               	andwf	(___fltol@f1+3)^(0+128),f
  1549  0834                     l2544:
  1550  0834  3096               	movlw	150
  1551  0835  02AA               	subwf	___fltol@exp1^(0+128),f
  1552  0836                     l2546:
  1553  0836  1FAA               	btfss	___fltol@exp1^(0+128),7
  1554  0837  2839               	goto	u3731
  1555  0838  283A               	goto	u3730
  1556  0839                     u3731:
  1557  0839  2854               	goto	l2556
  1558  083A                     u3730:
  1559  083A                     l2548:
  1560  083A  082A               	movf	___fltol@exp1^(0+128),w
  1561  083B  3A80               	xorlw	128
  1562  083C  3E97               	addlw	151
  1563  083D  1803               	skipnc
  1564  083E  2840               	goto	u3741
  1565  083F  2841               	goto	u3740
  1566  0840                     u3741:
  1567  0840  2842               	goto	l2554
  1568  0841                     u3740:
  1569  0841  280D               	goto	l2534
  1570  0842                     l2554:
  1571  0842  3001               	movlw	1
  1572  0843                     u3755:
  1573  0843  1003               	clrc
  1574  0844  0CA3               	rrf	(___fltol@f1+3)^(0+128),f
  1575  0845  0CA2               	rrf	(___fltol@f1+2)^(0+128),f
  1576  0846  0CA1               	rrf	(___fltol@f1+1)^(0+128),f
  1577  0847  0CA0               	rrf	___fltol@f1^(0+128),f
  1578  0848  3EFF               	addlw	-1
  1579  0849  1D03               	skipz
  1580  084A  2843               	goto	u3755
  1581  084B  3001               	movlw	1
  1582  084C  00A4               	movwf	??___fltol^(0+128)
  1583  084D  0824               	movf	??___fltol^(0+128),w
  1584  084E  07AA               	addwf	___fltol@exp1^(0+128),f
  1585  084F  1D03               	btfss	3,2
  1586  0850  2852               	goto	u3761
  1587  0851  2853               	goto	u3760
  1588  0852                     u3761:
  1589  0852  2842               	goto	l2554
  1590  0853                     u3760:
  1591  0853  286B               	goto	l2564
  1592  0854                     l2556:
  1593  0854  3020               	movlw	32
  1594  0855  022A               	subwf	___fltol@exp1^(0+128),w
  1595  0856  1C03               	skipc
  1596  0857  2859               	goto	u3771
  1597  0858  285A               	goto	u3770
  1598  0859                     u3771:
  1599  0859  2866               	goto	l463
  1600  085A                     u3770:
  1601  085A  280D               	goto	l2534
  1602  085B                     l2562:
  1603  085B  3001               	movlw	1
  1604  085C  00A4               	movwf	??___fltol^(0+128)
  1605  085D                     u3785:
  1606  085D  1003               	clrc
  1607  085E  0DA0               	rlf	___fltol@f1^(0+128),f
  1608  085F  0DA1               	rlf	(___fltol@f1+1)^(0+128),f
  1609  0860  0DA2               	rlf	(___fltol@f1+2)^(0+128),f
  1610  0861  0DA3               	rlf	(___fltol@f1+3)^(0+128),f
  1611  0862  0BA4               	decfsz	??___fltol^(0+128),f
  1612  0863  285D               	goto	u3785
  1613  0864  3001               	movlw	1
  1614  0865  02AA               	subwf	___fltol@exp1^(0+128),f
  1615  0866                     l463:
  1616  0866  082A               	movf	___fltol@exp1^(0+128),w
  1617  0867  1D03               	btfss	3,2
  1618  0868  286A               	goto	u3791
  1619  0869  286B               	goto	u3790
  1620  086A                     u3791:
  1621  086A  285B               	goto	l2562
  1622  086B                     u3790:
  1623  086B                     l2564:
  1624  086B  0829               	movf	___fltol@sign1^(0+128),w
  1625  086C  1903               	btfsc	3,2
  1626  086D  286F               	goto	u3801
  1627  086E  2870               	goto	u3800
  1628  086F                     u3801:
  1629  086F  287B               	goto	l466
  1630  0870                     u3800:
  1631  0870                     l2566:
  1632  0870  09A0               	comf	___fltol@f1^(0+128),f
  1633  0871  09A1               	comf	(___fltol@f1+1)^(0+128),f
  1634  0872  09A2               	comf	(___fltol@f1+2)^(0+128),f
  1635  0873  09A3               	comf	(___fltol@f1+3)^(0+128),f
  1636  0874  0AA0               	incf	___fltol@f1^(0+128),f
  1637  0875  1903               	skipnz
  1638  0876  0AA1               	incf	(___fltol@f1+1)^(0+128),f
  1639  0877  1903               	skipnz
  1640  0878  0AA2               	incf	(___fltol@f1+2)^(0+128),f
  1641  0879  1903               	skipnz
  1642  087A  0AA3               	incf	(___fltol@f1+3)^(0+128),f
  1643  087B                     l466:
  1644  087B                     l456:
  1645  087B  0008               	return
  1646  087C                     __end_of___fltol:
  1647                           
  1648                           	psect	text6
  1649  09D3                     __ptext6:	
  1650 ;; *************** function _UART_Init *****************
  1651 ;; Defined at:
  1652 ;;		line 1 in file "./uart.h"
  1653 ;; Parameters:    Size  Location     Type
  1654 ;;  baudrate        4    6[BANK0 ] const long 
  1655 ;; Auto vars:     Size  Location     Type
  1656 ;;  x               2    9[COMMON] unsigned int 
  1657 ;; Return value:  Size  Location     Type
  1658 ;;                  1    wreg      unsigned char 
  1659 ;; Registers used:
  1660 ;;		wreg, status,2, status,0, pclath, cstack
  1661 ;; Tracked objects:
  1662 ;;		On entry : 0/0
  1663 ;;		On exit  : 0/0
  1664 ;;		Unchanged: 0/0
  1665 ;; Data sizes:     COMMON   BANK0   BANK1   BANK3   BANK2
  1666 ;;      Params:         0       4       0       0       0
  1667 ;;      Locals:         2       0       0       0       0
  1668 ;;      Temps:          0      12       0       0       0
  1669 ;;      Totals:         2      16       0       0       0
  1670 ;;Total ram usage:       18 bytes
  1671 ;; Hardware stack levels used: 1
  1672 ;; Hardware stack levels required when called: 1
  1673 ;; This function calls:
  1674 ;;		___aldiv
  1675 ;; This function is called by:
  1676 ;;		_main
  1677 ;; This function uses a non-reentrant model
  1678 ;;
  1679                           
  1680                           
  1681                           ;psect for function _UART_Init
  1682  09D3                     _UART_Init:
  1683  09D3                     l2436:	
  1684                           ;incstack = 0
  1685                           ; Regs used in _UART_Init: [wreg+status,2+status,0+pclath+cstack]
  1686                           
  1687                           
  1688                           ;./uart.h: 1: char UART_Init(const long int baudrate);./uart.h: 2: {;./uart.h: 3:  unsig
      +                          ned int x;;./uart.h: 4:  x = (8000000 - baudrate*64)/(baudrate*64);
  1689  09D3  1283               	bcf	3,5	;RP0=0, select bank0
  1690  09D4  1303               	bcf	3,6	;RP1=0, select bank0
  1691  09D5  0826               	movf	UART_Init@baudrate,w
  1692  09D6  00AA               	movwf	??_UART_Init
  1693  09D7  0827               	movf	UART_Init@baudrate+1,w
  1694  09D8  00AB               	movwf	??_UART_Init+1
  1695  09D9  0828               	movf	UART_Init@baudrate+2,w
  1696  09DA  00AC               	movwf	??_UART_Init+2
  1697  09DB  0829               	movf	UART_Init@baudrate+3,w
  1698  09DC  00AD               	movwf	??_UART_Init+3
  1699  09DD  3006               	movlw	6
  1700  09DE                     u3595:
  1701  09DE  1003               	clrc
  1702  09DF  0DAA               	rlf	??_UART_Init,f
  1703  09E0  0DAB               	rlf	??_UART_Init+1,f
  1704  09E1  0DAC               	rlf	??_UART_Init+2,f
  1705  09E2  0DAD               	rlf	??_UART_Init+3,f
  1706  09E3                     u3590:
  1707  09E3  3EFF               	addlw	-1
  1708  09E4  1D03               	skipz
  1709  09E5  29DE               	goto	u3595
  1710  09E6  082D               	movf	??_UART_Init+3,w
  1711  09E7  00F3               	movwf	___aldiv@divisor+3
  1712  09E8  082C               	movf	??_UART_Init+2,w
  1713  09E9  00F2               	movwf	___aldiv@divisor+2
  1714  09EA  082B               	movf	??_UART_Init+1,w
  1715  09EB  00F1               	movwf	___aldiv@divisor+1
  1716  09EC  082A               	movf	??_UART_Init,w
  1717  09ED  00F0               	movwf	___aldiv@divisor
  1718  09EE  0826               	movf	UART_Init@baudrate,w
  1719  09EF  00AE               	movwf	??_UART_Init+4
  1720  09F0  0827               	movf	UART_Init@baudrate+1,w
  1721  09F1  00AF               	movwf	??_UART_Init+5
  1722  09F2  0828               	movf	UART_Init@baudrate+2,w
  1723  09F3  00B0               	movwf	??_UART_Init+6
  1724  09F4  0829               	movf	UART_Init@baudrate+3,w
  1725  09F5  00B1               	movwf	??_UART_Init+7
  1726  09F6  3006               	movlw	6
  1727  09F7                     u3605:
  1728  09F7  1003               	clrc
  1729  09F8  0DAE               	rlf	??_UART_Init+4,f
  1730  09F9  0DAF               	rlf	??_UART_Init+5,f
  1731  09FA  0DB0               	rlf	??_UART_Init+6,f
  1732  09FB  0DB1               	rlf	??_UART_Init+7,f
  1733  09FC                     u3600:
  1734  09FC  3EFF               	addlw	-1
  1735  09FD  1D03               	skipz
  1736  09FE  29F7               	goto	u3605
  1737  09FF  3000               	movlw	0
  1738  0A00  00B2               	movwf	??_UART_Init+8
  1739  0A01  3012               	movlw	18
  1740  0A02  00B3               	movwf	??_UART_Init+9
  1741  0A03  307A               	movlw	122
  1742  0A04  00B4               	movwf	??_UART_Init+10
  1743  0A05  3000               	movlw	0
  1744  0A06  00B5               	movwf	??_UART_Init+11
  1745  0A07  082E               	movf	??_UART_Init+4,w
  1746  0A08  02B2               	subwf	??_UART_Init+8,f
  1747  0A09  082F               	movf	??_UART_Init+5,w
  1748  0A0A  1C03               	skipc
  1749  0A0B  0F2F               	incfsz	??_UART_Init+5,w
  1750  0A0C  2A0E               	goto	u3611
  1751  0A0D  2A0F               	goto	u3612
  1752  0A0E                     u3611:
  1753  0A0E  02B3               	subwf	??_UART_Init+9,f
  1754  0A0F                     u3612:
  1755  0A0F  0830               	movf	??_UART_Init+6,w
  1756  0A10  1C03               	skipc
  1757  0A11  0F30               	incfsz	??_UART_Init+6,w
  1758  0A12  2A14               	goto	u3613
  1759  0A13  2A15               	goto	u3614
  1760  0A14                     u3613:
  1761  0A14  02B4               	subwf	??_UART_Init+10,f
  1762  0A15                     u3614:
  1763  0A15  0831               	movf	??_UART_Init+7,w
  1764  0A16  1C03               	skipc
  1765  0A17  0F31               	incfsz	??_UART_Init+7,w
  1766  0A18  2A1A               	goto	u3615
  1767  0A19  2A1B               	goto	u3616
  1768  0A1A                     u3615:
  1769  0A1A  02B5               	subwf	??_UART_Init+11,f
  1770  0A1B                     u3616:
  1771  0A1B  0835               	movf	??_UART_Init+11,w
  1772  0A1C  00F7               	movwf	___aldiv@dividend+3
  1773  0A1D  0834               	movf	??_UART_Init+10,w
  1774  0A1E  00F6               	movwf	___aldiv@dividend+2
  1775  0A1F  0833               	movf	??_UART_Init+9,w
  1776  0A20  00F5               	movwf	___aldiv@dividend+1
  1777  0A21  0832               	movf	??_UART_Init+8,w
  1778  0A22  00F4               	movwf	___aldiv@dividend
  1779  0A23  120A  158A  207C  120A  158A  	fcall	___aldiv
  1780  0A28  0871               	movf	?___aldiv+1,w
  1781  0A29  00FA               	movwf	UART_Init@x+1
  1782  0A2A  0870               	movf	?___aldiv,w
  1783  0A2B  00F9               	movwf	UART_Init@x
  1784  0A2C                     l2438:
  1785                           
  1786                           ;./uart.h: 5:  if(x>255)
  1787  0A2C  3001               	movlw	1
  1788  0A2D  027A               	subwf	UART_Init@x+1,w
  1789  0A2E  3000               	movlw	0
  1790  0A2F  1903               	skipnz
  1791  0A30  0279               	subwf	UART_Init@x,w
  1792  0A31  1C03               	skipc
  1793  0A32  2A34               	goto	u3621
  1794  0A33  2A35               	goto	u3620
  1795  0A34                     u3621:
  1796  0A34  2A91               	goto	l2444
  1797  0A35                     u3620:
  1798  0A35                     l2440:
  1799                           
  1800                           ;./uart.h: 6:  {;./uart.h: 7:   x = (8000000 - baudrate*16)/(baudrate*16);
  1801  0A35  1283               	bcf	3,5	;RP0=0, select bank0
  1802  0A36  1303               	bcf	3,6	;RP1=0, select bank0
  1803  0A37  0826               	movf	UART_Init@baudrate,w
  1804  0A38  00AA               	movwf	??_UART_Init
  1805  0A39  0827               	movf	UART_Init@baudrate+1,w
  1806  0A3A  00AB               	movwf	??_UART_Init+1
  1807  0A3B  0828               	movf	UART_Init@baudrate+2,w
  1808  0A3C  00AC               	movwf	??_UART_Init+2
  1809  0A3D  0829               	movf	UART_Init@baudrate+3,w
  1810  0A3E  00AD               	movwf	??_UART_Init+3
  1811  0A3F  3004               	movlw	4
  1812  0A40                     u3635:
  1813  0A40  1003               	clrc
  1814  0A41  0DAA               	rlf	??_UART_Init,f
  1815  0A42  0DAB               	rlf	??_UART_Init+1,f
  1816  0A43  0DAC               	rlf	??_UART_Init+2,f
  1817  0A44  0DAD               	rlf	??_UART_Init+3,f
  1818  0A45                     u3630:
  1819  0A45  3EFF               	addlw	-1
  1820  0A46  1D03               	skipz
  1821  0A47  2A40               	goto	u3635
  1822  0A48  082D               	movf	??_UART_Init+3,w
  1823  0A49  00F3               	movwf	___aldiv@divisor+3
  1824  0A4A  082C               	movf	??_UART_Init+2,w
  1825  0A4B  00F2               	movwf	___aldiv@divisor+2
  1826  0A4C  082B               	movf	??_UART_Init+1,w
  1827  0A4D  00F1               	movwf	___aldiv@divisor+1
  1828  0A4E  082A               	movf	??_UART_Init,w
  1829  0A4F  00F0               	movwf	___aldiv@divisor
  1830  0A50  0826               	movf	UART_Init@baudrate,w
  1831  0A51  00AE               	movwf	??_UART_Init+4
  1832  0A52  0827               	movf	UART_Init@baudrate+1,w
  1833  0A53  00AF               	movwf	??_UART_Init+5
  1834  0A54  0828               	movf	UART_Init@baudrate+2,w
  1835  0A55  00B0               	movwf	??_UART_Init+6
  1836  0A56  0829               	movf	UART_Init@baudrate+3,w
  1837  0A57  00B1               	movwf	??_UART_Init+7
  1838  0A58  3004               	movlw	4
  1839  0A59                     u3645:
  1840  0A59  1003               	clrc
  1841  0A5A  0DAE               	rlf	??_UART_Init+4,f
  1842  0A5B  0DAF               	rlf	??_UART_Init+5,f
  1843  0A5C  0DB0               	rlf	??_UART_Init+6,f
  1844  0A5D  0DB1               	rlf	??_UART_Init+7,f
  1845  0A5E                     u3640:
  1846  0A5E  3EFF               	addlw	-1
  1847  0A5F  1D03               	skipz
  1848  0A60  2A59               	goto	u3645
  1849  0A61  3000               	movlw	0
  1850  0A62  00B2               	movwf	??_UART_Init+8
  1851  0A63  3012               	movlw	18
  1852  0A64  00B3               	movwf	??_UART_Init+9
  1853  0A65  307A               	movlw	122
  1854  0A66  00B4               	movwf	??_UART_Init+10
  1855  0A67  3000               	movlw	0
  1856  0A68  00B5               	movwf	??_UART_Init+11
  1857  0A69  082E               	movf	??_UART_Init+4,w
  1858  0A6A  02B2               	subwf	??_UART_Init+8,f
  1859  0A6B  082F               	movf	??_UART_Init+5,w
  1860  0A6C  1C03               	skipc
  1861  0A6D  0F2F               	incfsz	??_UART_Init+5,w
  1862  0A6E  2A70               	goto	u3651
  1863  0A6F  2A71               	goto	u3652
  1864  0A70                     u3651:
  1865  0A70  02B3               	subwf	??_UART_Init+9,f
  1866  0A71                     u3652:
  1867  0A71  0830               	movf	??_UART_Init+6,w
  1868  0A72  1C03               	skipc
  1869  0A73  0F30               	incfsz	??_UART_Init+6,w
  1870  0A74  2A76               	goto	u3653
  1871  0A75  2A77               	goto	u3654
  1872  0A76                     u3653:
  1873  0A76  02B4               	subwf	??_UART_Init+10,f
  1874  0A77                     u3654:
  1875  0A77  0831               	movf	??_UART_Init+7,w
  1876  0A78  1C03               	skipc
  1877  0A79  0F31               	incfsz	??_UART_Init+7,w
  1878  0A7A  2A7C               	goto	u3655
  1879  0A7B  2A7D               	goto	u3656
  1880  0A7C                     u3655:
  1881  0A7C  02B5               	subwf	??_UART_Init+11,f
  1882  0A7D                     u3656:
  1883  0A7D  0835               	movf	??_UART_Init+11,w
  1884  0A7E  00F7               	movwf	___aldiv@dividend+3
  1885  0A7F  0834               	movf	??_UART_Init+10,w
  1886  0A80  00F6               	movwf	___aldiv@dividend+2
  1887  0A81  0833               	movf	??_UART_Init+9,w
  1888  0A82  00F5               	movwf	___aldiv@dividend+1
  1889  0A83  0832               	movf	??_UART_Init+8,w
  1890  0A84  00F4               	movwf	___aldiv@dividend
  1891  0A85  120A  158A  207C  120A  158A  	fcall	___aldiv
  1892  0A8A  0871               	movf	?___aldiv+1,w
  1893  0A8B  00FA               	movwf	UART_Init@x+1
  1894  0A8C  0870               	movf	?___aldiv,w
  1895  0A8D  00F9               	movwf	UART_Init@x
  1896  0A8E                     l2442:
  1897                           
  1898                           ;./uart.h: 8:   BRGH = 1;
  1899  0A8E  1683               	bsf	3,5	;RP0=1, select bank1
  1900  0A8F  1303               	bcf	3,6	;RP1=0, select bank1
  1901  0A90  1518               	bsf	24,2	;volatile
  1902  0A91                     l2444:
  1903                           
  1904                           ;./uart.h: 10:  if(x<256)
  1905  0A91  3001               	movlw	1
  1906  0A92  027A               	subwf	UART_Init@x+1,w
  1907  0A93  3000               	movlw	0
  1908  0A94  1903               	skipnz
  1909  0A95  0279               	subwf	UART_Init@x,w
  1910  0A96  1803               	skipnc
  1911  0A97  2A99               	goto	u3661
  1912  0A98  2A9A               	goto	u3660
  1913  0A99                     u3661:
  1914  0A99  2AAC               	goto	l65
  1915  0A9A                     u3660:
  1916  0A9A                     l2446:
  1917                           
  1918                           ;./uart.h: 11:  {;./uart.h: 12:    SPBRG = x;
  1919  0A9A  0879               	movf	UART_Init@x,w
  1920  0A9B  1683               	bsf	3,5	;RP0=1, select bank1
  1921  0A9C  1303               	bcf	3,6	;RP1=0, select bank1
  1922  0A9D  0099               	movwf	25	;volatile
  1923  0A9E                     l2448:
  1924                           
  1925                           ;./uart.h: 13:    SYNC = 0;
  1926  0A9E  1218               	bcf	24,4	;volatile
  1927  0A9F                     l2450:
  1928                           
  1929                           ;./uart.h: 14:    SPEN = 1;
  1930  0A9F  1283               	bcf	3,5	;RP0=0, select bank0
  1931  0AA0  1303               	bcf	3,6	;RP1=0, select bank0
  1932  0AA1  1798               	bsf	24,7	;volatile
  1933  0AA2                     l2452:
  1934                           
  1935                           ;./uart.h: 15:           TRISC7 = 1;
  1936  0AA2  1683               	bsf	3,5	;RP0=1, select bank1
  1937  0AA3  1303               	bcf	3,6	;RP1=0, select bank1
  1938  0AA4  1787               	bsf	7,7	;volatile
  1939  0AA5                     l2454:
  1940                           
  1941                           ;./uart.h: 16:           TRISC6 = 1;
  1942  0AA5  1707               	bsf	7,6	;volatile
  1943  0AA6                     l2456:
  1944                           
  1945                           ;./uart.h: 17:           CREN = 1;
  1946  0AA6  1283               	bcf	3,5	;RP0=0, select bank0
  1947  0AA7  1303               	bcf	3,6	;RP1=0, select bank0
  1948  0AA8  1618               	bsf	24,4	;volatile
  1949  0AA9                     l2458:
  1950                           
  1951                           ;./uart.h: 18:           TXEN = 1;
  1952  0AA9  1683               	bsf	3,5	;RP0=1, select bank1
  1953  0AAA  1303               	bcf	3,6	;RP1=0, select bank1
  1954  0AAB  1698               	bsf	24,5	;volatile
  1955  0AAC                     l65:
  1956  0AAC  0008               	return
  1957  0AAD                     __end_of_UART_Init:
  1958                           
  1959                           	psect	text7
  1960  087C                     __ptext7:	
  1961 ;; *************** function ___aldiv *****************
  1962 ;; Defined at:
  1963 ;;		line 5 in file "C:\Program Files\Microchip\xc8\v2.32\pic\sources\c90\common\aldiv.c"
  1964 ;; Parameters:    Size  Location     Type
  1965 ;;  divisor         4    0[COMMON] long 
  1966 ;;  dividend        4    4[COMMON] long 
  1967 ;; Auto vars:     Size  Location     Type
  1968 ;;  quotient        4    2[BANK0 ] long 
  1969 ;;  sign            1    1[BANK0 ] unsigned char 
  1970 ;;  counter         1    0[BANK0 ] unsigned char 
  1971 ;; Return value:  Size  Location     Type
  1972 ;;                  4    0[COMMON] long 
  1973 ;; Registers used:
  1974 ;;		wreg, status,2, status,0
  1975 ;; Tracked objects:
  1976 ;;		On entry : 0/0
  1977 ;;		On exit  : 0/0
  1978 ;;		Unchanged: 0/0
  1979 ;; Data sizes:     COMMON   BANK0   BANK1   BANK3   BANK2
  1980 ;;      Params:         8       0       0       0       0
  1981 ;;      Locals:         0       6       0       0       0
  1982 ;;      Temps:          1       0       0       0       0
  1983 ;;      Totals:         9       6       0       0       0
  1984 ;;Total ram usage:       15 bytes
  1985 ;; Hardware stack levels used: 1
  1986 ;; This function calls:
  1987 ;;		Nothing
  1988 ;; This function is called by:
  1989 ;;		_UART_Init
  1990 ;; This function uses a non-reentrant model
  1991 ;;
  1992                           
  1993                           
  1994                           ;psect for function ___aldiv
  1995  087C                     ___aldiv:
  1996  087C                     l2056:	
  1997                           ;incstack = 0
  1998                           ; Regs used in ___aldiv: [wreg+status,2+status,0]
  1999                           
  2000  087C  1283               	bcf	3,5	;RP0=0, select bank0
  2001  087D  1303               	bcf	3,6	;RP1=0, select bank0
  2002  087E  01A1               	clrf	___aldiv@sign
  2003  087F                     l2058:
  2004  087F  1FF3               	btfss	___aldiv@divisor+3,7
  2005  0880  2882               	goto	u2681
  2006  0881  2883               	goto	u2680
  2007  0882                     u2681:
  2008  0882  2890               	goto	l335
  2009  0883                     u2680:
  2010  0883                     l2060:
  2011  0883  09F0               	comf	___aldiv@divisor,f
  2012  0884  09F1               	comf	___aldiv@divisor+1,f
  2013  0885  09F2               	comf	___aldiv@divisor+2,f
  2014  0886  09F3               	comf	___aldiv@divisor+3,f
  2015  0887  0AF0               	incf	___aldiv@divisor,f
  2016  0888  1903               	skipnz
  2017  0889  0AF1               	incf	___aldiv@divisor+1,f
  2018  088A  1903               	skipnz
  2019  088B  0AF2               	incf	___aldiv@divisor+2,f
  2020  088C  1903               	skipnz
  2021  088D  0AF3               	incf	___aldiv@divisor+3,f
  2022  088E  01A1               	clrf	___aldiv@sign
  2023  088F  0AA1               	incf	___aldiv@sign,f
  2024  0890                     l335:
  2025  0890  1FF7               	btfss	___aldiv@dividend+3,7
  2026  0891  2893               	goto	u2691
  2027  0892  2894               	goto	u2690
  2028  0893                     u2691:
  2029  0893  28A3               	goto	l2066
  2030  0894                     u2690:
  2031  0894                     l2062:
  2032  0894  09F4               	comf	___aldiv@dividend,f
  2033  0895  09F5               	comf	___aldiv@dividend+1,f
  2034  0896  09F6               	comf	___aldiv@dividend+2,f
  2035  0897  09F7               	comf	___aldiv@dividend+3,f
  2036  0898  0AF4               	incf	___aldiv@dividend,f
  2037  0899  1903               	skipnz
  2038  089A  0AF5               	incf	___aldiv@dividend+1,f
  2039  089B  1903               	skipnz
  2040  089C  0AF6               	incf	___aldiv@dividend+2,f
  2041  089D  1903               	skipnz
  2042  089E  0AF7               	incf	___aldiv@dividend+3,f
  2043  089F                     l2064:
  2044  089F  3001               	movlw	1
  2045  08A0  00F8               	movwf	??___aldiv
  2046  08A1  0878               	movf	??___aldiv,w
  2047  08A2  06A1               	xorwf	___aldiv@sign,f
  2048  08A3                     l2066:
  2049  08A3  3000               	movlw	0
  2050  08A4  00A5               	movwf	___aldiv@quotient+3
  2051  08A5  3000               	movlw	0
  2052  08A6  00A4               	movwf	___aldiv@quotient+2
  2053  08A7  3000               	movlw	0
  2054  08A8  00A3               	movwf	___aldiv@quotient+1
  2055  08A9  3000               	movlw	0
  2056  08AA  00A2               	movwf	___aldiv@quotient
  2057  08AB                     l2068:
  2058  08AB  0873               	movf	___aldiv@divisor+3,w
  2059  08AC  0472               	iorwf	___aldiv@divisor+2,w
  2060  08AD  0471               	iorwf	___aldiv@divisor+1,w
  2061  08AE  0470               	iorwf	___aldiv@divisor,w
  2062  08AF  1903               	skipnz
  2063  08B0  28B2               	goto	u2701
  2064  08B1  28B3               	goto	u2700
  2065  08B2                     u2701:
  2066  08B2  2900               	goto	l2088
  2067  08B3                     u2700:
  2068  08B3                     l2070:
  2069  08B3  01A0               	clrf	___aldiv@counter
  2070  08B4  0AA0               	incf	___aldiv@counter,f
  2071  08B5  28C3               	goto	l2074
  2072  08B6                     l2072:
  2073  08B6  3001               	movlw	1
  2074  08B7  00F8               	movwf	??___aldiv
  2075  08B8                     u2715:
  2076  08B8  1003               	clrc
  2077  08B9  0DF0               	rlf	___aldiv@divisor,f
  2078  08BA  0DF1               	rlf	___aldiv@divisor+1,f
  2079  08BB  0DF2               	rlf	___aldiv@divisor+2,f
  2080  08BC  0DF3               	rlf	___aldiv@divisor+3,f
  2081  08BD  0BF8               	decfsz	??___aldiv,f
  2082  08BE  28B8               	goto	u2715
  2083  08BF  3001               	movlw	1
  2084  08C0  00F8               	movwf	??___aldiv
  2085  08C1  0878               	movf	??___aldiv,w
  2086  08C2  07A0               	addwf	___aldiv@counter,f
  2087  08C3                     l2074:
  2088  08C3  1FF3               	btfss	___aldiv@divisor+3,7
  2089  08C4  28C6               	goto	u2721
  2090  08C5  28C7               	goto	u2720
  2091  08C6                     u2721:
  2092  08C6  28B6               	goto	l2072
  2093  08C7                     u2720:
  2094  08C7                     l2076:
  2095  08C7  3001               	movlw	1
  2096  08C8  00F8               	movwf	??___aldiv
  2097  08C9                     u2735:
  2098  08C9  1003               	clrc
  2099  08CA  0DA2               	rlf	___aldiv@quotient,f
  2100  08CB  0DA3               	rlf	___aldiv@quotient+1,f
  2101  08CC  0DA4               	rlf	___aldiv@quotient+2,f
  2102  08CD  0DA5               	rlf	___aldiv@quotient+3,f
  2103  08CE  0BF8               	decfsz	??___aldiv,f
  2104  08CF  28C9               	goto	u2735
  2105  08D0                     l2078:
  2106  08D0  0873               	movf	___aldiv@divisor+3,w
  2107  08D1  0277               	subwf	___aldiv@dividend+3,w
  2108  08D2  1D03               	skipz
  2109  08D3  28DE               	goto	u2745
  2110  08D4  0872               	movf	___aldiv@divisor+2,w
  2111  08D5  0276               	subwf	___aldiv@dividend+2,w
  2112  08D6  1D03               	skipz
  2113  08D7  28DE               	goto	u2745
  2114  08D8  0871               	movf	___aldiv@divisor+1,w
  2115  08D9  0275               	subwf	___aldiv@dividend+1,w
  2116  08DA  1D03               	skipz
  2117  08DB  28DE               	goto	u2745
  2118  08DC  0870               	movf	___aldiv@divisor,w
  2119  08DD  0274               	subwf	___aldiv@dividend,w
  2120  08DE                     u2745:
  2121  08DE  1C03               	skipc
  2122  08DF  28E1               	goto	u2741
  2123  08E0  28E2               	goto	u2740
  2124  08E1                     u2741:
  2125  08E1  28F1               	goto	l2084
  2126  08E2                     u2740:
  2127  08E2                     l2080:
  2128  08E2  0870               	movf	___aldiv@divisor,w
  2129  08E3  02F4               	subwf	___aldiv@dividend,f
  2130  08E4  0871               	movf	___aldiv@divisor+1,w
  2131  08E5  1C03               	skipc
  2132  08E6  0F71               	incfsz	___aldiv@divisor+1,w
  2133  08E7  02F5               	subwf	___aldiv@dividend+1,f
  2134  08E8  0872               	movf	___aldiv@divisor+2,w
  2135  08E9  1C03               	skipc
  2136  08EA  0F72               	incfsz	___aldiv@divisor+2,w
  2137  08EB  02F6               	subwf	___aldiv@dividend+2,f
  2138  08EC  0873               	movf	___aldiv@divisor+3,w
  2139  08ED  1C03               	skipc
  2140  08EE  0F73               	incfsz	___aldiv@divisor+3,w
  2141  08EF  02F7               	subwf	___aldiv@dividend+3,f
  2142  08F0                     l2082:
  2143  08F0  1422               	bsf	___aldiv@quotient,0
  2144  08F1                     l2084:
  2145  08F1  3001               	movlw	1
  2146  08F2                     u2755:
  2147  08F2  1003               	clrc
  2148  08F3  0CF3               	rrf	___aldiv@divisor+3,f
  2149  08F4  0CF2               	rrf	___aldiv@divisor+2,f
  2150  08F5  0CF1               	rrf	___aldiv@divisor+1,f
  2151  08F6  0CF0               	rrf	___aldiv@divisor,f
  2152  08F7  3EFF               	addlw	-1
  2153  08F8  1D03               	skipz
  2154  08F9  28F2               	goto	u2755
  2155  08FA                     l2086:
  2156  08FA  3001               	movlw	1
  2157  08FB  02A0               	subwf	___aldiv@counter,f
  2158  08FC  1D03               	btfss	3,2
  2159  08FD  28FF               	goto	u2761
  2160  08FE  2900               	goto	u2760
  2161  08FF                     u2761:
  2162  08FF  28C7               	goto	l2076
  2163  0900                     u2760:
  2164  0900                     l2088:
  2165  0900  0821               	movf	___aldiv@sign,w
  2166  0901  1903               	btfsc	3,2
  2167  0902  2904               	goto	u2771
  2168  0903  2905               	goto	u2770
  2169  0904                     u2771:
  2170  0904  2910               	goto	l2092
  2171  0905                     u2770:
  2172  0905                     l2090:
  2173  0905  09A2               	comf	___aldiv@quotient,f
  2174  0906  09A3               	comf	___aldiv@quotient+1,f
  2175  0907  09A4               	comf	___aldiv@quotient+2,f
  2176  0908  09A5               	comf	___aldiv@quotient+3,f
  2177  0909  0AA2               	incf	___aldiv@quotient,f
  2178  090A  1903               	skipnz
  2179  090B  0AA3               	incf	___aldiv@quotient+1,f
  2180  090C  1903               	skipnz
  2181  090D  0AA4               	incf	___aldiv@quotient+2,f
  2182  090E  1903               	skipnz
  2183  090F  0AA5               	incf	___aldiv@quotient+3,f
  2184  0910                     l2092:
  2185  0910  0825               	movf	___aldiv@quotient+3,w
  2186  0911  00F3               	movwf	?___aldiv+3
  2187  0912  0824               	movf	___aldiv@quotient+2,w
  2188  0913  00F2               	movwf	?___aldiv+2
  2189  0914  0823               	movf	___aldiv@quotient+1,w
  2190  0915  00F1               	movwf	?___aldiv+1
  2191  0916  0822               	movf	___aldiv@quotient,w
  2192  0917  00F0               	movwf	?___aldiv
  2193  0918                     l345:
  2194  0918  0008               	return
  2195  0919                     __end_of___aldiv:
  2196                           
  2197                           	psect	text8
  2198  015E                     __ptext8:	
  2199 ;; *************** function _Quadra_Al *****************
  2200 ;; Defined at:
  2201 ;;		line 45 in file "newmain.c"
  2202 ;; Parameters:    Size  Location     Type
  2203 ;;		None
  2204 ;; Auto vars:     Size  Location     Type
  2205 ;;  uart_logs      50    0[BANK3 ] unsigned char [50]
  2206 ;;  x               7   67[BANK3 ] unsigned char [7]
  2207 ;;  a               4   79[BANK3 ] float 
  2208 ;;  out             4   74[BANK3 ] float 
  2209 ;;  d               4   54[BANK3 ] float 
  2210 ;;  b               4   50[BANK3 ] float 
  2211 ;;  j               2   86[BANK3 ] int 
  2212 ;;  xmax            2   83[BANK3 ] int 
  2213 ;;  max             1   85[BANK3 ] unsigned char 
  2214 ;;  max1            1   78[BANK3 ] unsigned char 
  2215 ;;  max2            1   66[BANK3 ] unsigned char 
  2216 ;; Return value:  Size  Location     Type
  2217 ;;                  4   60[BANK0 ] float 
  2218 ;; Registers used:
  2219 ;;		wreg, fsr0l, fsr0h, status,2, status,0, btemp+1, pclath, cstack
  2220 ;; Tracked objects:
  2221 ;;		On entry : 0/0
  2222 ;;		On exit  : 0/0
  2223 ;;		Unchanged: 0/0
  2224 ;; Data sizes:     COMMON   BANK0   BANK1   BANK3   BANK2
  2225 ;;      Params:         0       4       0       0       0
  2226 ;;      Locals:         0       0       0      88       0
  2227 ;;      Temps:          0      15       0       0       0
  2228 ;;      Totals:         0      19       0      88       0
  2229 ;;Total ram usage:      107 bytes
  2230 ;; Hardware stack levels used: 1
  2231 ;; Hardware stack levels required when called: 2
  2232 ;; This function calls:
  2233 ;;		_UART_Write_Text
  2234 ;;		___fladd
  2235 ;;		___fldiv
  2236 ;;		___flmul
  2237 ;;		___flneg
  2238 ;;		___flsub
  2239 ;;		___xxtofl
  2240 ;;		_sprintf
  2241 ;; This function is called by:
  2242 ;;		_main
  2243 ;; This function uses a non-reentrant model
  2244 ;;
  2245                           
  2246                           
  2247                           ;psect for function _Quadra_Al
  2248  015E                     _Quadra_Al:
  2249  015E                     l2464:	
  2250                           ;incstack = 0
  2251                           ; Regs used in _Quadra_Al: [wreg-fsr0h+status,2+status,0+btemp+1+pclath+cstack]
  2252                           
  2253                           
  2254                           ;newmain.c: 47:     unsigned char x[7] = {40, 42, 41, 38, 631, 891, 243};
  2255  015E  30D3               	movlw	Quadra_Al@x& (0+255)
  2256  015F  0084               	movwf	4
  2257  0160  30E8               	movlw	low Quadra_Al@F1224
  2258  0161  1283               	bcf	3,5	;RP0=0, select bank0
  2259  0162  1303               	bcf	3,6	;RP1=0, select bank0
  2260  0163  00E0               	movwf	??_Quadra_Al
  2261  0164  0804               	movf	4,w
  2262  0165  00E1               	movwf	??_Quadra_Al+1
  2263  0166  3007               	movlw	7
  2264  0167  00E2               	movwf	??_Quadra_Al+2
  2265  0168                     u3670:
  2266  0168  0860               	movf	??_Quadra_Al,w
  2267  0169  0084               	movwf	4
  2268  016A  1783               	bsf	3,7	;select IRP bank3
  2269  016B  0800               	movf	0,w
  2270  016C  00E3               	movwf	??_Quadra_Al+3
  2271  016D  0AE0               	incf	??_Quadra_Al,f
  2272  016E  0861               	movf	??_Quadra_Al+1,w
  2273  016F  0084               	movwf	4
  2274  0170  0863               	movf	??_Quadra_Al+3,w
  2275  0171  0080               	movwf	0
  2276  0172  0AE1               	incf	??_Quadra_Al+1,f
  2277  0173  0BE2               	decfsz	??_Quadra_Al+2,f
  2278  0174  2968               	goto	u3670
  2279  0175                     l2466:
  2280                           
  2281                           ;newmain.c: 48:     unsigned char max, max1, max2;;newmain.c: 49:     max = 0;
  2282  0175  1683               	bsf	3,5	;RP0=1, select bank3
  2283  0176  1703               	bsf	3,6	;RP1=1, select bank3
  2284  0177  01E5               	clrf	Quadra_Al@max^(0+384)
  2285  0178                     l2468:
  2286                           
  2287                           ;newmain.c: 50:     float a, b, d, out;;newmain.c: 51:     int j, xmax;;newmain.c: 52:  
      +                             char uart_logs[50];;newmain.c: 64:     for (j = 0; j < 7; j++)
  2288  0178  01E6               	clrf	Quadra_Al@j^(0+384)
  2289  0179  01E7               	clrf	(Quadra_Al@j+1)^(0+384)
  2290  017A                     l2474:
  2291                           
  2292                           ;newmain.c: 65:     {;newmain.c: 66:         if (x[j] > max) {
  2293  017A  1683               	bsf	3,5	;RP0=1, select bank3
  2294  017B  1703               	bsf	3,6	;RP1=1, select bank3
  2295  017C  0866               	movf	Quadra_Al@j^(0+384),w
  2296  017D  3ED3               	addlw	(low (Quadra_Al@x| (0+256)))& (0+255)
  2297  017E  0084               	movwf	4
  2298  017F  1783               	bsf	3,7	;select IRP bank3
  2299  0180  0800               	movf	0,w
  2300  0181  0265               	subwf	Quadra_Al@max^(0+384),w
  2301  0182  1803               	skipnc
  2302  0183  2985               	goto	u3681
  2303  0184  2986               	goto	u3680
  2304  0185                     u3681:
  2305  0185  2995               	goto	l2480
  2306  0186                     u3680:
  2307  0186                     l2476:
  2308                           
  2309                           ;newmain.c: 67:             max = x[j];
  2310  0186  0866               	movf	Quadra_Al@j^(0+384),w
  2311  0187  3ED3               	addlw	(low (Quadra_Al@x| (0+256)))& (0+255)
  2312  0188  0084               	movwf	4
  2313  0189  0800               	movf	0,w
  2314  018A  1283               	bcf	3,5	;RP0=0, select bank0
  2315  018B  1303               	bcf	3,6	;RP1=0, select bank0
  2316  018C  00E0               	movwf	??_Quadra_Al
  2317  018D  0860               	movf	??_Quadra_Al,w
  2318  018E  1683               	bsf	3,5	;RP0=1, select bank3
  2319  018F  1703               	bsf	3,6	;RP1=1, select bank3
  2320  0190  00E5               	movwf	Quadra_Al@max^(0+384)
  2321  0191                     l2478:
  2322                           
  2323                           ;newmain.c: 68:             xmax = j;
  2324  0191  0867               	movf	(Quadra_Al@j+1)^(0+384),w
  2325  0192  00E4               	movwf	(Quadra_Al@xmax+1)^(0+384)
  2326  0193  0866               	movf	Quadra_Al@j^(0+384),w
  2327  0194  00E3               	movwf	Quadra_Al@xmax^(0+384)
  2328  0195                     l2480:
  2329                           
  2330                           ;newmain.c: 70:     }
  2331  0195  3001               	movlw	1
  2332  0196  07E6               	addwf	Quadra_Al@j^(0+384),f
  2333  0197  1803               	skipnc
  2334  0198  0AE7               	incf	(Quadra_Al@j+1)^(0+384),f
  2335  0199  3000               	movlw	0
  2336  019A  07E7               	addwf	(Quadra_Al@j+1)^(0+384),f
  2337  019B                     l2482:
  2338  019B  0867               	movf	(Quadra_Al@j+1)^(0+384),w
  2339  019C  3A80               	xorlw	128
  2340  019D  00FF               	movwf	btemp+1
  2341  019E  3080               	movlw	128
  2342  019F  027F               	subwf	btemp+1,w
  2343  01A0  1D03               	skipz
  2344  01A1  29A4               	goto	u3695
  2345  01A2  3007               	movlw	7
  2346  01A3  0266               	subwf	Quadra_Al@j^(0+384),w
  2347  01A4                     u3695:
  2348  01A4  1C03               	skipc
  2349  01A5  29A7               	goto	u3691
  2350  01A6  29A8               	goto	u3690
  2351  01A7                     u3691:
  2352  01A7  297A               	goto	l2474
  2353  01A8                     u3690:
  2354  01A8                     l2484:
  2355                           
  2356                           ;newmain.c: 72:     max1 = x[xmax - 1];
  2357  01A8  1683               	bsf	3,5	;RP0=1, select bank3
  2358  01A9  1703               	bsf	3,6	;RP1=1, select bank3
  2359  01AA  0863               	movf	Quadra_Al@xmax^(0+384),w
  2360  01AB  3EFF               	addlw	255
  2361  01AC  3ED3               	addlw	(low (Quadra_Al@x| (0+256)))& (0+255)
  2362  01AD  0084               	movwf	4
  2363  01AE  1783               	bsf	3,7	;select IRP bank3
  2364  01AF  0800               	movf	0,w
  2365  01B0  1283               	bcf	3,5	;RP0=0, select bank0
  2366  01B1  1303               	bcf	3,6	;RP1=0, select bank0
  2367  01B2  00E0               	movwf	??_Quadra_Al
  2368  01B3  0860               	movf	??_Quadra_Al,w
  2369  01B4  1683               	bsf	3,5	;RP0=1, select bank3
  2370  01B5  1703               	bsf	3,6	;RP1=1, select bank3
  2371  01B6  00DE               	movwf	Quadra_Al@max1^(0+384)
  2372                           
  2373                           ;newmain.c: 73:     max2 = x[xmax + 1];
  2374  01B7  0863               	movf	Quadra_Al@xmax^(0+384),w
  2375  01B8  3E01               	addlw	1
  2376  01B9  3ED3               	addlw	(low (Quadra_Al@x| (0+256)))& (0+255)
  2377  01BA  0084               	movwf	4
  2378  01BB  0800               	movf	0,w
  2379  01BC  1283               	bcf	3,5	;RP0=0, select bank0
  2380  01BD  1303               	bcf	3,6	;RP1=0, select bank0
  2381  01BE  00E0               	movwf	??_Quadra_Al
  2382  01BF  0860               	movf	??_Quadra_Al,w
  2383  01C0  1683               	bsf	3,5	;RP0=1, select bank3
  2384  01C1  1703               	bsf	3,6	;RP1=1, select bank3
  2385  01C2  00D2               	movwf	Quadra_Al@max2^(0+384)
  2386  01C3                     l2486:
  2387                           
  2388                           ;newmain.c: 75:     a = (max1 + max2 - 2*max)*0.5;
  2389  01C3  303F               	movlw	63
  2390  01C4  1283               	bcf	3,5	;RP0=0, select bank0
  2391  01C5  1303               	bcf	3,6	;RP1=0, select bank0
  2392  01C6  00AB               	movwf	___flmul@b+3
  2393  01C7  3000               	movlw	0
  2394  01C8  00AA               	movwf	___flmul@b+2
  2395  01C9  3000               	movlw	0
  2396  01CA  00A9               	movwf	___flmul@b+1
  2397  01CB  3000               	movlw	0
  2398  01CC  00A8               	movwf	___flmul@b
  2399  01CD  1683               	bsf	3,5	;RP0=1, select bank3
  2400  01CE  1703               	bsf	3,6	;RP1=1, select bank3
  2401  01CF  0865               	movf	Quadra_Al@max^(0+384),w
  2402  01D0  1283               	bcf	3,5	;RP0=0, select bank0
  2403  01D1  1303               	bcf	3,6	;RP1=0, select bank0
  2404  01D2  00E0               	movwf	??_Quadra_Al
  2405  01D3  01E1               	clrf	??_Quadra_Al+1
  2406  01D4  1003               	clrc
  2407  01D5  0DE0               	rlf	??_Quadra_Al,f
  2408  01D6  0DE1               	rlf	??_Quadra_Al+1,f
  2409  01D7  1683               	bsf	3,5	;RP0=1, select bank3
  2410  01D8  1703               	bsf	3,6	;RP1=1, select bank3
  2411  01D9  085E               	movf	Quadra_Al@max1^(0+384),w
  2412  01DA  0752               	addwf	Quadra_Al@max2^(0+384),w
  2413  01DB  1283               	bcf	3,5	;RP0=0, select bank0
  2414  01DC  1303               	bcf	3,6	;RP1=0, select bank0
  2415  01DD  00E2               	movwf	??_Quadra_Al+2
  2416  01DE  01E3               	clrf	??_Quadra_Al+3
  2417  01DF  0DE3               	rlf	??_Quadra_Al+3,f
  2418  01E0  0860               	movf	??_Quadra_Al,w
  2419  01E1  0262               	subwf	??_Quadra_Al+2,w
  2420  01E2  00F0               	movwf	___xxtofl@val
  2421  01E3  0861               	movf	??_Quadra_Al+1,w
  2422  01E4  1C03               	skipc
  2423  01E5  0A61               	incf	??_Quadra_Al+1,w
  2424  01E6  0263               	subwf	??_Quadra_Al+3,w
  2425  01E7  00F1               	movwf	___xxtofl@val+1
  2426  01E8  01F2               	clrf	___xxtofl@val+2
  2427  01E9  1BF1               	btfsc	___xxtofl@val+1,7
  2428  01EA  03F2               	decf	___xxtofl@val+2,f
  2429  01EB  0872               	movf	___xxtofl@val+2,w
  2430  01EC  00F3               	movwf	___xxtofl@val+3
  2431  01ED  3001               	movlw	1
  2432  01EE  120A  158A  2119  120A  118A  	fcall	___xxtofl
  2433  01F3  0873               	movf	?___xxtofl+3,w
  2434  01F4  1283               	bcf	3,5	;RP0=0, select bank0
  2435  01F5  1303               	bcf	3,6	;RP1=0, select bank0
  2436  01F6  00AF               	movwf	___flmul@a+3
  2437  01F7  0872               	movf	?___xxtofl+2,w
  2438  01F8  00AE               	movwf	___flmul@a+2
  2439  01F9  0871               	movf	?___xxtofl+1,w
  2440  01FA  00AD               	movwf	___flmul@a+1
  2441  01FB  0870               	movf	?___xxtofl,w
  2442  01FC  00AC               	movwf	___flmul@a
  2443  01FD  120A  118A  248D  120A  118A  	fcall	___flmul
  2444  0202  1283               	bcf	3,5	;RP0=0, select bank0
  2445  0203  1303               	bcf	3,6	;RP1=0, select bank0
  2446  0204  082B               	movf	?___flmul+3,w
  2447  0205  1683               	bsf	3,5	;RP0=1, select bank3
  2448  0206  1703               	bsf	3,6	;RP1=1, select bank3
  2449  0207  00E2               	movwf	(Quadra_Al@a+3)^(0+384)
  2450  0208  1283               	bcf	3,5	;RP0=0, select bank0
  2451  0209  1303               	bcf	3,6	;RP1=0, select bank0
  2452  020A  082A               	movf	?___flmul+2,w
  2453  020B  1683               	bsf	3,5	;RP0=1, select bank3
  2454  020C  1703               	bsf	3,6	;RP1=1, select bank3
  2455  020D  00E1               	movwf	(Quadra_Al@a+2)^(0+384)
  2456  020E  1283               	bcf	3,5	;RP0=0, select bank0
  2457  020F  1303               	bcf	3,6	;RP1=0, select bank0
  2458  0210  0829               	movf	?___flmul+1,w
  2459  0211  1683               	bsf	3,5	;RP0=1, select bank3
  2460  0212  1703               	bsf	3,6	;RP1=1, select bank3
  2461  0213  00E0               	movwf	(Quadra_Al@a+1)^(0+384)
  2462  0214  1283               	bcf	3,5	;RP0=0, select bank0
  2463  0215  1303               	bcf	3,6	;RP1=0, select bank0
  2464  0216  0828               	movf	?___flmul,w
  2465  0217  1683               	bsf	3,5	;RP0=1, select bank3
  2466  0218  1703               	bsf	3,6	;RP1=1, select bank3
  2467  0219  00DF               	movwf	Quadra_Al@a^(0+384)
  2468  021A                     l2488:
  2469                           
  2470                           ;newmain.c: 76:     b = max - max1 - 2*a*(xmax - 1) - a;
  2471  021A  0862               	movf	(Quadra_Al@a+3)^(0+384),w
  2472  021B  1283               	bcf	3,5	;RP0=0, select bank0
  2473  021C  1303               	bcf	3,6	;RP1=0, select bank0
  2474  021D  00AF               	movwf	___flmul@a+3
  2475  021E  1683               	bsf	3,5	;RP0=1, select bank3
  2476  021F  1703               	bsf	3,6	;RP1=1, select bank3
  2477  0220  0861               	movf	(Quadra_Al@a+2)^(0+384),w
  2478  0221  1283               	bcf	3,5	;RP0=0, select bank0
  2479  0222  1303               	bcf	3,6	;RP1=0, select bank0
  2480  0223  00AE               	movwf	___flmul@a+2
  2481  0224  1683               	bsf	3,5	;RP0=1, select bank3
  2482  0225  1703               	bsf	3,6	;RP1=1, select bank3
  2483  0226  0860               	movf	(Quadra_Al@a+1)^(0+384),w
  2484  0227  1283               	bcf	3,5	;RP0=0, select bank0
  2485  0228  1303               	bcf	3,6	;RP1=0, select bank0
  2486  0229  00AD               	movwf	___flmul@a+1
  2487  022A  1683               	bsf	3,5	;RP0=1, select bank3
  2488  022B  1703               	bsf	3,6	;RP1=1, select bank3
  2489  022C  085F               	movf	Quadra_Al@a^(0+384),w
  2490  022D  1283               	bcf	3,5	;RP0=0, select bank0
  2491  022E  1303               	bcf	3,6	;RP1=0, select bank0
  2492  022F  00AC               	movwf	___flmul@a
  2493  0230  3040               	movlw	64
  2494  0231  00AB               	movwf	___flmul@b+3
  2495  0232  3000               	movlw	0
  2496  0233  00AA               	movwf	___flmul@b+2
  2497  0234  3000               	movlw	0
  2498  0235  00A9               	movwf	___flmul@b+1
  2499  0236  3000               	movlw	0
  2500  0237  00A8               	movwf	___flmul@b
  2501  0238  120A  118A  248D  120A  118A  	fcall	___flmul
  2502  023D  1283               	bcf	3,5	;RP0=0, select bank0
  2503  023E  1303               	bcf	3,6	;RP1=0, select bank0
  2504  023F  082B               	movf	?___flmul+3,w
  2505  0240  1683               	bsf	3,5	;RP0=1, select bank3
  2506  0241  1703               	bsf	3,6	;RP1=1, select bank3
  2507  0242  00CD               	movwf	(_Quadra_Al$925+3)^(0+384)
  2508  0243  1283               	bcf	3,5	;RP0=0, select bank0
  2509  0244  1303               	bcf	3,6	;RP1=0, select bank0
  2510  0245  082A               	movf	?___flmul+2,w
  2511  0246  1683               	bsf	3,5	;RP0=1, select bank3
  2512  0247  1703               	bsf	3,6	;RP1=1, select bank3
  2513  0248  00CC               	movwf	(_Quadra_Al$925+2)^(0+384)
  2514  0249  1283               	bcf	3,5	;RP0=0, select bank0
  2515  024A  1303               	bcf	3,6	;RP1=0, select bank0
  2516  024B  0829               	movf	?___flmul+1,w
  2517  024C  1683               	bsf	3,5	;RP0=1, select bank3
  2518  024D  1703               	bsf	3,6	;RP1=1, select bank3
  2519  024E  00CB               	movwf	(_Quadra_Al$925+1)^(0+384)
  2520  024F  1283               	bcf	3,5	;RP0=0, select bank0
  2521  0250  1303               	bcf	3,6	;RP1=0, select bank0
  2522  0251  0828               	movf	?___flmul,w
  2523  0252  1683               	bsf	3,5	;RP0=1, select bank3
  2524  0253  1703               	bsf	3,6	;RP1=1, select bank3
  2525  0254  00CA               	movwf	_Quadra_Al$925^(0+384)
  2526  0255                     l2490:
  2527                           
  2528                           ;newmain.c: 76:     b = max - max1 - 2*a*(xmax - 1) - a;
  2529  0255  084D               	movf	(_Quadra_Al$925+3)^(0+384),w
  2530  0256  1283               	bcf	3,5	;RP0=0, select bank0
  2531  0257  1303               	bcf	3,6	;RP1=0, select bank0
  2532  0258  00AF               	movwf	___flmul@a+3
  2533  0259  1683               	bsf	3,5	;RP0=1, select bank3
  2534  025A  1703               	bsf	3,6	;RP1=1, select bank3
  2535  025B  084C               	movf	(_Quadra_Al$925+2)^(0+384),w
  2536  025C  1283               	bcf	3,5	;RP0=0, select bank0
  2537  025D  1303               	bcf	3,6	;RP1=0, select bank0
  2538  025E  00AE               	movwf	___flmul@a+2
  2539  025F  1683               	bsf	3,5	;RP0=1, select bank3
  2540  0260  1703               	bsf	3,6	;RP1=1, select bank3
  2541  0261  084B               	movf	(_Quadra_Al$925+1)^(0+384),w
  2542  0262  1283               	bcf	3,5	;RP0=0, select bank0
  2543  0263  1303               	bcf	3,6	;RP1=0, select bank0
  2544  0264  00AD               	movwf	___flmul@a+1
  2545  0265  1683               	bsf	3,5	;RP0=1, select bank3
  2546  0266  1703               	bsf	3,6	;RP1=1, select bank3
  2547  0267  084A               	movf	_Quadra_Al$925^(0+384),w
  2548  0268  1283               	bcf	3,5	;RP0=0, select bank0
  2549  0269  1303               	bcf	3,6	;RP1=0, select bank0
  2550  026A  00AC               	movwf	___flmul@a
  2551  026B  1683               	bsf	3,5	;RP0=1, select bank3
  2552  026C  1703               	bsf	3,6	;RP1=1, select bank3
  2553  026D  0863               	movf	Quadra_Al@xmax^(0+384),w
  2554  026E  3EFF               	addlw	255
  2555  026F  00F0               	movwf	___xxtofl@val
  2556  0270  0864               	movf	(Quadra_Al@xmax+1)^(0+384),w
  2557  0271  1803               	skipnc
  2558  0272  3E01               	addlw	1
  2559  0273  3EFF               	addlw	255
  2560  0274  00F1               	movwf	___xxtofl@val+1
  2561  0275  01F2               	clrf	___xxtofl@val+2
  2562  0276  1BF1               	btfsc	___xxtofl@val+1,7
  2563  0277  03F2               	decf	___xxtofl@val+2,f
  2564  0278  0872               	movf	___xxtofl@val+2,w
  2565  0279  00F3               	movwf	___xxtofl@val+3
  2566  027A  3001               	movlw	1
  2567  027B  120A  158A  2119  120A  118A  	fcall	___xxtofl
  2568  0280  0873               	movf	?___xxtofl+3,w
  2569  0281  1283               	bcf	3,5	;RP0=0, select bank0
  2570  0282  1303               	bcf	3,6	;RP1=0, select bank0
  2571  0283  00AB               	movwf	___flmul@b+3
  2572  0284  0872               	movf	?___xxtofl+2,w
  2573  0285  00AA               	movwf	___flmul@b+2
  2574  0286  0871               	movf	?___xxtofl+1,w
  2575  0287  00A9               	movwf	___flmul@b+1
  2576  0288  0870               	movf	?___xxtofl,w
  2577  0289  00A8               	movwf	___flmul@b
  2578  028A  120A  118A  248D  120A  118A  	fcall	___flmul
  2579  028F  1283               	bcf	3,5	;RP0=0, select bank0
  2580  0290  1303               	bcf	3,6	;RP1=0, select bank0
  2581  0291  082B               	movf	?___flmul+3,w
  2582  0292  00C5               	movwf	___flsub@a+3
  2583  0293  082A               	movf	?___flmul+2,w
  2584  0294  00C4               	movwf	___flsub@a+2
  2585  0295  0829               	movf	?___flmul+1,w
  2586  0296  00C3               	movwf	___flsub@a+1
  2587  0297  0828               	movf	?___flmul,w
  2588  0298  00C2               	movwf	___flsub@a
  2589  0299  1683               	bsf	3,5	;RP0=1, select bank3
  2590  029A  1703               	bsf	3,6	;RP1=1, select bank3
  2591  029B  085E               	movf	Quadra_Al@max1^(0+384),w
  2592  029C  0265               	subwf	Quadra_Al@max^(0+384),w
  2593  029D  00F0               	movwf	___xxtofl@val
  2594  029E  01F1               	clrf	___xxtofl@val+1
  2595  029F  1C03               	skipc
  2596  02A0  03F1               	decf	___xxtofl@val+1,f
  2597  02A1  01F2               	clrf	___xxtofl@val+2
  2598  02A2  1BF1               	btfsc	___xxtofl@val+1,7
  2599  02A3  03F2               	decf	___xxtofl@val+2,f
  2600  02A4  0872               	movf	___xxtofl@val+2,w
  2601  02A5  00F3               	movwf	___xxtofl@val+3
  2602  02A6  3001               	movlw	1
  2603  02A7  120A  158A  2119  120A  118A  	fcall	___xxtofl
  2604  02AC  0873               	movf	?___xxtofl+3,w
  2605  02AD  1283               	bcf	3,5	;RP0=0, select bank0
  2606  02AE  1303               	bcf	3,6	;RP1=0, select bank0
  2607  02AF  00C9               	movwf	___flsub@b+3
  2608  02B0  0872               	movf	?___xxtofl+2,w
  2609  02B1  00C8               	movwf	___flsub@b+2
  2610  02B2  0871               	movf	?___xxtofl+1,w
  2611  02B3  00C7               	movwf	___flsub@b+1
  2612  02B4  0870               	movf	?___xxtofl,w
  2613  02B5  00C6               	movwf	___flsub@b
  2614  02B6  160A  118A  2744  120A  118A  	fcall	___flsub
  2615  02BB  1283               	bcf	3,5	;RP0=0, select bank0
  2616  02BC  1303               	bcf	3,6	;RP1=0, select bank0
  2617  02BD  0845               	movf	?___flsub+3,w
  2618  02BE  1683               	bsf	3,5	;RP0=1, select bank3
  2619  02BF  1703               	bsf	3,6	;RP1=1, select bank3
  2620  02C0  00D1               	movwf	(_Quadra_Al$926+3)^(0+384)
  2621  02C1  1283               	bcf	3,5	;RP0=0, select bank0
  2622  02C2  1303               	bcf	3,6	;RP1=0, select bank0
  2623  02C3  0844               	movf	?___flsub+2,w
  2624  02C4  1683               	bsf	3,5	;RP0=1, select bank3
  2625  02C5  1703               	bsf	3,6	;RP1=1, select bank3
  2626  02C6  00D0               	movwf	(_Quadra_Al$926+2)^(0+384)
  2627  02C7  1283               	bcf	3,5	;RP0=0, select bank0
  2628  02C8  1303               	bcf	3,6	;RP1=0, select bank0
  2629  02C9  0843               	movf	?___flsub+1,w
  2630  02CA  1683               	bsf	3,5	;RP0=1, select bank3
  2631  02CB  1703               	bsf	3,6	;RP1=1, select bank3
  2632  02CC  00CF               	movwf	(_Quadra_Al$926+1)^(0+384)
  2633  02CD  1283               	bcf	3,5	;RP0=0, select bank0
  2634  02CE  1303               	bcf	3,6	;RP1=0, select bank0
  2635  02CF  0842               	movf	?___flsub,w
  2636  02D0  1683               	bsf	3,5	;RP0=1, select bank3
  2637  02D1  1703               	bsf	3,6	;RP1=1, select bank3
  2638  02D2  00CE               	movwf	_Quadra_Al$926^(0+384)
  2639  02D3                     l2492:
  2640                           
  2641                           ;newmain.c: 76:     b = max - max1 - 2*a*(xmax - 1) - a;
  2642  02D3  0862               	movf	(Quadra_Al@a+3)^(0+384),w
  2643  02D4  1283               	bcf	3,5	;RP0=0, select bank0
  2644  02D5  1303               	bcf	3,6	;RP1=0, select bank0
  2645  02D6  00C5               	movwf	___flsub@a+3
  2646  02D7  1683               	bsf	3,5	;RP0=1, select bank3
  2647  02D8  1703               	bsf	3,6	;RP1=1, select bank3
  2648  02D9  0861               	movf	(Quadra_Al@a+2)^(0+384),w
  2649  02DA  1283               	bcf	3,5	;RP0=0, select bank0
  2650  02DB  1303               	bcf	3,6	;RP1=0, select bank0
  2651  02DC  00C4               	movwf	___flsub@a+2
  2652  02DD  1683               	bsf	3,5	;RP0=1, select bank3
  2653  02DE  1703               	bsf	3,6	;RP1=1, select bank3
  2654  02DF  0860               	movf	(Quadra_Al@a+1)^(0+384),w
  2655  02E0  1283               	bcf	3,5	;RP0=0, select bank0
  2656  02E1  1303               	bcf	3,6	;RP1=0, select bank0
  2657  02E2  00C3               	movwf	___flsub@a+1
  2658  02E3  1683               	bsf	3,5	;RP0=1, select bank3
  2659  02E4  1703               	bsf	3,6	;RP1=1, select bank3
  2660  02E5  085F               	movf	Quadra_Al@a^(0+384),w
  2661  02E6  1283               	bcf	3,5	;RP0=0, select bank0
  2662  02E7  1303               	bcf	3,6	;RP1=0, select bank0
  2663  02E8  00C2               	movwf	___flsub@a
  2664  02E9  1683               	bsf	3,5	;RP0=1, select bank3
  2665  02EA  1703               	bsf	3,6	;RP1=1, select bank3
  2666  02EB  0851               	movf	(_Quadra_Al$926+3)^(0+384),w
  2667  02EC  1283               	bcf	3,5	;RP0=0, select bank0
  2668  02ED  1303               	bcf	3,6	;RP1=0, select bank0
  2669  02EE  00C9               	movwf	___flsub@b+3
  2670  02EF  1683               	bsf	3,5	;RP0=1, select bank3
  2671  02F0  1703               	bsf	3,6	;RP1=1, select bank3
  2672  02F1  0850               	movf	(_Quadra_Al$926+2)^(0+384),w
  2673  02F2  1283               	bcf	3,5	;RP0=0, select bank0
  2674  02F3  1303               	bcf	3,6	;RP1=0, select bank0
  2675  02F4  00C8               	movwf	___flsub@b+2
  2676  02F5  1683               	bsf	3,5	;RP0=1, select bank3
  2677  02F6  1703               	bsf	3,6	;RP1=1, select bank3
  2678  02F7  084F               	movf	(_Quadra_Al$926+1)^(0+384),w
  2679  02F8  1283               	bcf	3,5	;RP0=0, select bank0
  2680  02F9  1303               	bcf	3,6	;RP1=0, select bank0
  2681  02FA  00C7               	movwf	___flsub@b+1
  2682  02FB  1683               	bsf	3,5	;RP0=1, select bank3
  2683  02FC  1703               	bsf	3,6	;RP1=1, select bank3
  2684  02FD  084E               	movf	_Quadra_Al$926^(0+384),w
  2685  02FE  1283               	bcf	3,5	;RP0=0, select bank0
  2686  02FF  1303               	bcf	3,6	;RP1=0, select bank0
  2687  0300  00C6               	movwf	___flsub@b
  2688  0301  160A  118A  2744  120A  118A  	fcall	___flsub
  2689  0306  1283               	bcf	3,5	;RP0=0, select bank0
  2690  0307  1303               	bcf	3,6	;RP1=0, select bank0
  2691  0308  0845               	movf	?___flsub+3,w
  2692  0309  1683               	bsf	3,5	;RP0=1, select bank3
  2693  030A  1703               	bsf	3,6	;RP1=1, select bank3
  2694  030B  00C5               	movwf	(Quadra_Al@b+3)^(0+384)
  2695  030C  1283               	bcf	3,5	;RP0=0, select bank0
  2696  030D  1303               	bcf	3,6	;RP1=0, select bank0
  2697  030E  0844               	movf	?___flsub+2,w
  2698  030F  1683               	bsf	3,5	;RP0=1, select bank3
  2699  0310  1703               	bsf	3,6	;RP1=1, select bank3
  2700  0311  00C4               	movwf	(Quadra_Al@b+2)^(0+384)
  2701  0312  1283               	bcf	3,5	;RP0=0, select bank0
  2702  0313  1303               	bcf	3,6	;RP1=0, select bank0
  2703  0314  0843               	movf	?___flsub+1,w
  2704  0315  1683               	bsf	3,5	;RP0=1, select bank3
  2705  0316  1703               	bsf	3,6	;RP1=1, select bank3
  2706  0317  00C3               	movwf	(Quadra_Al@b+1)^(0+384)
  2707  0318  1283               	bcf	3,5	;RP0=0, select bank0
  2708  0319  1303               	bcf	3,6	;RP1=0, select bank0
  2709  031A  0842               	movf	?___flsub,w
  2710  031B  1683               	bsf	3,5	;RP0=1, select bank3
  2711  031C  1703               	bsf	3,6	;RP1=1, select bank3
  2712  031D  00C2               	movwf	Quadra_Al@b^(0+384)
  2713  031E                     l2494:
  2714                           
  2715                           ;newmain.c: 77:     d = -b/(2*a);
  2716  031E  0862               	movf	(Quadra_Al@a+3)^(0+384),w
  2717  031F  1283               	bcf	3,5	;RP0=0, select bank0
  2718  0320  1303               	bcf	3,6	;RP1=0, select bank0
  2719  0321  00AF               	movwf	___flmul@a+3
  2720  0322  1683               	bsf	3,5	;RP0=1, select bank3
  2721  0323  1703               	bsf	3,6	;RP1=1, select bank3
  2722  0324  0861               	movf	(Quadra_Al@a+2)^(0+384),w
  2723  0325  1283               	bcf	3,5	;RP0=0, select bank0
  2724  0326  1303               	bcf	3,6	;RP1=0, select bank0
  2725  0327  00AE               	movwf	___flmul@a+2
  2726  0328  1683               	bsf	3,5	;RP0=1, select bank3
  2727  0329  1703               	bsf	3,6	;RP1=1, select bank3
  2728  032A  0860               	movf	(Quadra_Al@a+1)^(0+384),w
  2729  032B  1283               	bcf	3,5	;RP0=0, select bank0
  2730  032C  1303               	bcf	3,6	;RP1=0, select bank0
  2731  032D  00AD               	movwf	___flmul@a+1
  2732  032E  1683               	bsf	3,5	;RP0=1, select bank3
  2733  032F  1703               	bsf	3,6	;RP1=1, select bank3
  2734  0330  085F               	movf	Quadra_Al@a^(0+384),w
  2735  0331  1283               	bcf	3,5	;RP0=0, select bank0
  2736  0332  1303               	bcf	3,6	;RP1=0, select bank0
  2737  0333  00AC               	movwf	___flmul@a
  2738  0334  3040               	movlw	64
  2739  0335  00AB               	movwf	___flmul@b+3
  2740  0336  3000               	movlw	0
  2741  0337  00AA               	movwf	___flmul@b+2
  2742  0338  3000               	movlw	0
  2743  0339  00A9               	movwf	___flmul@b+1
  2744  033A  3000               	movlw	0
  2745  033B  00A8               	movwf	___flmul@b
  2746  033C  120A  118A  248D  120A  118A  	fcall	___flmul
  2747  0341  1283               	bcf	3,5	;RP0=0, select bank0
  2748  0342  1303               	bcf	3,6	;RP1=0, select bank0
  2749  0343  082B               	movf	?___flmul+3,w
  2750  0344  00C5               	movwf	___fldiv@a+3
  2751  0345  082A               	movf	?___flmul+2,w
  2752  0346  00C4               	movwf	___fldiv@a+2
  2753  0347  0829               	movf	?___flmul+1,w
  2754  0348  00C3               	movwf	___fldiv@a+1
  2755  0349  0828               	movf	?___flmul,w
  2756  034A  00C2               	movwf	___fldiv@a
  2757  034B  1683               	bsf	3,5	;RP0=1, select bank3
  2758  034C  1703               	bsf	3,6	;RP1=1, select bank3
  2759  034D  0845               	movf	(Quadra_Al@b+3)^(0+384),w
  2760  034E  00F3               	movwf	___flneg@f1+3
  2761  034F  0844               	movf	(Quadra_Al@b+2)^(0+384),w
  2762  0350  00F2               	movwf	___flneg@f1+2
  2763  0351  0843               	movf	(Quadra_Al@b+1)^(0+384),w
  2764  0352  00F1               	movwf	___flneg@f1+1
  2765  0353  0842               	movf	Quadra_Al@b^(0+384),w
  2766  0354  00F0               	movwf	___flneg@f1
  2767  0355  160A  118A  2726  120A  118A  	fcall	___flneg
  2768  035A  0873               	movf	?___flneg+3,w
  2769  035B  1283               	bcf	3,5	;RP0=0, select bank0
  2770  035C  1303               	bcf	3,6	;RP1=0, select bank0
  2771  035D  00C9               	movwf	___fldiv@b+3
  2772  035E  0872               	movf	?___flneg+2,w
  2773  035F  00C8               	movwf	___fldiv@b+2
  2774  0360  0871               	movf	?___flneg+1,w
  2775  0361  00C7               	movwf	___fldiv@b+1
  2776  0362  0870               	movf	?___flneg,w
  2777  0363  00C6               	movwf	___fldiv@b
  2778  0364  120A  158A  238B  120A  118A  	fcall	___fldiv
  2779  0369  1283               	bcf	3,5	;RP0=0, select bank0
  2780  036A  1303               	bcf	3,6	;RP1=0, select bank0
  2781  036B  0845               	movf	?___fldiv+3,w
  2782  036C  1683               	bsf	3,5	;RP0=1, select bank3
  2783  036D  1703               	bsf	3,6	;RP1=1, select bank3
  2784  036E  00C9               	movwf	(Quadra_Al@d+3)^(0+384)
  2785  036F  1283               	bcf	3,5	;RP0=0, select bank0
  2786  0370  1303               	bcf	3,6	;RP1=0, select bank0
  2787  0371  0844               	movf	?___fldiv+2,w
  2788  0372  1683               	bsf	3,5	;RP0=1, select bank3
  2789  0373  1703               	bsf	3,6	;RP1=1, select bank3
  2790  0374  00C8               	movwf	(Quadra_Al@d+2)^(0+384)
  2791  0375  1283               	bcf	3,5	;RP0=0, select bank0
  2792  0376  1303               	bcf	3,6	;RP1=0, select bank0
  2793  0377  0843               	movf	?___fldiv+1,w
  2794  0378  1683               	bsf	3,5	;RP0=1, select bank3
  2795  0379  1703               	bsf	3,6	;RP1=1, select bank3
  2796  037A  00C7               	movwf	(Quadra_Al@d+1)^(0+384)
  2797  037B  1283               	bcf	3,5	;RP0=0, select bank0
  2798  037C  1303               	bcf	3,6	;RP1=0, select bank0
  2799  037D  0842               	movf	?___fldiv,w
  2800  037E  1683               	bsf	3,5	;RP0=1, select bank3
  2801  037F  1703               	bsf	3,6	;RP1=1, select bank3
  2802  0380  00C6               	movwf	Quadra_Al@d^(0+384)
  2803  0381                     l2496:
  2804                           
  2805                           ;newmain.c: 78:     out = 17*(d - 3);
  2806  0381  3041               	movlw	65
  2807  0382  1283               	bcf	3,5	;RP0=0, select bank0
  2808  0383  1303               	bcf	3,6	;RP1=0, select bank0
  2809  0384  00AB               	movwf	___flmul@b+3
  2810  0385  3088               	movlw	136
  2811  0386  00AA               	movwf	___flmul@b+2
  2812  0387  3000               	movlw	0
  2813  0388  00A9               	movwf	___flmul@b+1
  2814  0389  3000               	movlw	0
  2815  038A  00A8               	movwf	___flmul@b
  2816  038B  30C0               	movlw	192
  2817  038C  00F3               	movwf	___fladd@b+3
  2818  038D  3040               	movlw	64
  2819  038E  00F2               	movwf	___fladd@b+2
  2820  038F  3000               	movlw	0
  2821  0390  00F1               	movwf	___fladd@b+1
  2822  0391  3000               	movlw	0
  2823  0392  00F0               	movwf	___fladd@b
  2824  0393  1683               	bsf	3,5	;RP0=1, select bank3
  2825  0394  1703               	bsf	3,6	;RP1=1, select bank3
  2826  0395  0849               	movf	(Quadra_Al@d+3)^(0+384),w
  2827  0396  00F7               	movwf	___fladd@a+3
  2828  0397  0848               	movf	(Quadra_Al@d+2)^(0+384),w
  2829  0398  00F6               	movwf	___fladd@a+2
  2830  0399  0847               	movf	(Quadra_Al@d+1)^(0+384),w
  2831  039A  00F5               	movwf	___fladd@a+1
  2832  039B  0846               	movf	Quadra_Al@d^(0+384),w
  2833  039C  00F4               	movwf	___fladd@a
  2834  039D  120A  158A  2568  120A  118A  	fcall	___fladd
  2835  03A2  0873               	movf	?___fladd+3,w
  2836  03A3  1283               	bcf	3,5	;RP0=0, select bank0
  2837  03A4  1303               	bcf	3,6	;RP1=0, select bank0
  2838  03A5  00AF               	movwf	___flmul@a+3
  2839  03A6  0872               	movf	?___fladd+2,w
  2840  03A7  00AE               	movwf	___flmul@a+2
  2841  03A8  0871               	movf	?___fladd+1,w
  2842  03A9  00AD               	movwf	___flmul@a+1
  2843  03AA  0870               	movf	?___fladd,w
  2844  03AB  00AC               	movwf	___flmul@a
  2845  03AC  120A  118A  248D  120A  118A  	fcall	___flmul
  2846  03B1  1283               	bcf	3,5	;RP0=0, select bank0
  2847  03B2  1303               	bcf	3,6	;RP1=0, select bank0
  2848  03B3  082B               	movf	?___flmul+3,w
  2849  03B4  1683               	bsf	3,5	;RP0=1, select bank3
  2850  03B5  1703               	bsf	3,6	;RP1=1, select bank3
  2851  03B6  00DD               	movwf	(Quadra_Al@out+3)^(0+384)
  2852  03B7  1283               	bcf	3,5	;RP0=0, select bank0
  2853  03B8  1303               	bcf	3,6	;RP1=0, select bank0
  2854  03B9  082A               	movf	?___flmul+2,w
  2855  03BA  1683               	bsf	3,5	;RP0=1, select bank3
  2856  03BB  1703               	bsf	3,6	;RP1=1, select bank3
  2857  03BC  00DC               	movwf	(Quadra_Al@out+2)^(0+384)
  2858  03BD  1283               	bcf	3,5	;RP0=0, select bank0
  2859  03BE  1303               	bcf	3,6	;RP1=0, select bank0
  2860  03BF  0829               	movf	?___flmul+1,w
  2861  03C0  1683               	bsf	3,5	;RP0=1, select bank3
  2862  03C1  1703               	bsf	3,6	;RP1=1, select bank3
  2863  03C2  00DB               	movwf	(Quadra_Al@out+1)^(0+384)
  2864  03C3  1283               	bcf	3,5	;RP0=0, select bank0
  2865  03C4  1303               	bcf	3,6	;RP1=0, select bank0
  2866  03C5  0828               	movf	?___flmul,w
  2867  03C6  1683               	bsf	3,5	;RP0=1, select bank3
  2868  03C7  1703               	bsf	3,6	;RP1=1, select bank3
  2869  03C8  00DA               	movwf	Quadra_Al@out^(0+384)
  2870  03C9                     l2498:
  2871                           
  2872                           ;newmain.c: 80:     sprintf(uart_logs, "%d %d %d %d %d %d %d\n\r", x[0], x[1], x[2], x[3
      +                          ], x[4], x[5], x[6]);
  2873  03C9  3090               	movlw	(low (Quadra_Al@uart_logs| (0+256)))& (0+255)
  2874  03CA  1283               	bcf	3,5	;RP0=0, select bank0
  2875  03CB  1303               	bcf	3,6	;RP1=0, select bank0
  2876  03CC  00A0               	movwf	sprintf@sp
  2877  03CD  3001               	movlw	1
  2878  03CE  00A1               	movwf	sprintf@sp+1
  2879  03CF  300B               	movlw	(low ((STR_1-__stringbase)| (0+32768)))& (0+255)
  2880  03D0  00E0               	movwf	??_Quadra_Al
  2881  03D1  0860               	movf	??_Quadra_Al,w
  2882  03D2  00A2               	movwf	sprintf@f
  2883  03D3  1683               	bsf	3,5	;RP0=1, select bank3
  2884  03D4  1703               	bsf	3,6	;RP1=1, select bank3
  2885  03D5  0853               	movf	Quadra_Al@x^(0+384),w
  2886  03D6  1283               	bcf	3,5	;RP0=0, select bank0
  2887  03D7  1303               	bcf	3,6	;RP1=0, select bank0
  2888  03D8  00E1               	movwf	??_Quadra_Al+1
  2889  03D9  01E2               	clrf	??_Quadra_Al+2
  2890  03DA  0861               	movf	??_Quadra_Al+1,w
  2891  03DB  00A3               	movwf	?_sprintf+3
  2892  03DC  0862               	movf	??_Quadra_Al+2,w
  2893  03DD  00A4               	movwf	?_sprintf+4
  2894  03DE  1683               	bsf	3,5	;RP0=1, select bank3
  2895  03DF  1703               	bsf	3,6	;RP1=1, select bank3
  2896  03E0  0854               	movf	(Quadra_Al@x^(0+384)+1),w
  2897  03E1  1283               	bcf	3,5	;RP0=0, select bank0
  2898  03E2  1303               	bcf	3,6	;RP1=0, select bank0
  2899  03E3  00E3               	movwf	??_Quadra_Al+3
  2900  03E4  01E4               	clrf	??_Quadra_Al+4
  2901  03E5  0863               	movf	??_Quadra_Al+3,w
  2902  03E6  00A5               	movwf	?_sprintf+5
  2903  03E7  0864               	movf	??_Quadra_Al+4,w
  2904  03E8  00A6               	movwf	?_sprintf+6
  2905  03E9  1683               	bsf	3,5	;RP0=1, select bank3
  2906  03EA  1703               	bsf	3,6	;RP1=1, select bank3
  2907  03EB  0855               	movf	(Quadra_Al@x^(0+384)+2),w
  2908  03EC  1283               	bcf	3,5	;RP0=0, select bank0
  2909  03ED  1303               	bcf	3,6	;RP1=0, select bank0
  2910  03EE  00E5               	movwf	??_Quadra_Al+5
  2911  03EF  01E6               	clrf	??_Quadra_Al+6
  2912  03F0  0865               	movf	??_Quadra_Al+5,w
  2913  03F1  00A7               	movwf	?_sprintf+7
  2914  03F2  0866               	movf	??_Quadra_Al+6,w
  2915  03F3  00A8               	movwf	?_sprintf+8
  2916  03F4  1683               	bsf	3,5	;RP0=1, select bank3
  2917  03F5  1703               	bsf	3,6	;RP1=1, select bank3
  2918  03F6  0856               	movf	(Quadra_Al@x^(0+384)+3),w
  2919  03F7  1283               	bcf	3,5	;RP0=0, select bank0
  2920  03F8  1303               	bcf	3,6	;RP1=0, select bank0
  2921  03F9  00E7               	movwf	??_Quadra_Al+7
  2922  03FA  01E8               	clrf	??_Quadra_Al+8
  2923  03FB  0867               	movf	??_Quadra_Al+7,w
  2924  03FC  00A9               	movwf	?_sprintf+9
  2925  03FD  0868               	movf	??_Quadra_Al+8,w
  2926  03FE  00AA               	movwf	?_sprintf+10
  2927  03FF  1683               	bsf	3,5	;RP0=1, select bank3
  2928  0400  1703               	bsf	3,6	;RP1=1, select bank3
  2929  0401  0857               	movf	(Quadra_Al@x^(0+384)+4),w
  2930  0402  1283               	bcf	3,5	;RP0=0, select bank0
  2931  0403  1303               	bcf	3,6	;RP1=0, select bank0
  2932  0404  00E9               	movwf	??_Quadra_Al+9
  2933  0405  01EA               	clrf	??_Quadra_Al+10
  2934  0406  0869               	movf	??_Quadra_Al+9,w
  2935  0407  00AB               	movwf	?_sprintf+11
  2936  0408  086A               	movf	??_Quadra_Al+10,w
  2937  0409  00AC               	movwf	?_sprintf+12
  2938  040A  1683               	bsf	3,5	;RP0=1, select bank3
  2939  040B  1703               	bsf	3,6	;RP1=1, select bank3
  2940  040C  0858               	movf	(Quadra_Al@x^(0+384)+5),w
  2941  040D  1283               	bcf	3,5	;RP0=0, select bank0
  2942  040E  1303               	bcf	3,6	;RP1=0, select bank0
  2943  040F  00EB               	movwf	??_Quadra_Al+11
  2944  0410  01EC               	clrf	??_Quadra_Al+12
  2945  0411  086B               	movf	??_Quadra_Al+11,w
  2946  0412  00AD               	movwf	?_sprintf+13
  2947  0413  086C               	movf	??_Quadra_Al+12,w
  2948  0414  00AE               	movwf	?_sprintf+14
  2949  0415  1683               	bsf	3,5	;RP0=1, select bank3
  2950  0416  1703               	bsf	3,6	;RP1=1, select bank3
  2951  0417  0859               	movf	(Quadra_Al@x^(0+384)+6),w
  2952  0418  1283               	bcf	3,5	;RP0=0, select bank0
  2953  0419  1303               	bcf	3,6	;RP1=0, select bank0
  2954  041A  00ED               	movwf	??_Quadra_Al+13
  2955  041B  01EE               	clrf	??_Quadra_Al+14
  2956  041C  086D               	movf	??_Quadra_Al+13,w
  2957  041D  00AF               	movwf	?_sprintf+15
  2958  041E  086E               	movf	??_Quadra_Al+14,w
  2959  041F  00B0               	movwf	?_sprintf+16
  2960  0420  120A  118A  2069  120A  118A  	fcall	_sprintf
  2961  0425                     l2500:
  2962                           
  2963                           ;newmain.c: 81:     UART_Write_Text(uart_logs);
  2964  0425  3090               	movlw	(low (Quadra_Al@uart_logs| (0+256)))& (0+255)
  2965  0426  00F1               	movwf	UART_Write_Text@text
  2966  0427  3001               	movlw	1
  2967  0428  00F2               	movwf	UART_Write_Text@text+1
  2968  0429  160A  118A  278F  120A  118A  	fcall	_UART_Write_Text
  2969  042E                     l2502:
  2970                           
  2971                           ;newmain.c: 82:     _delay((unsigned long)((90)*(8000000/4000.0)));
  2972  042E  30EA               	movlw	234
  2973  042F  1283               	bcf	3,5	;RP0=0, select bank0
  2974  0430  1303               	bcf	3,6	;RP1=0, select bank0
  2975  0431  00E1               	movwf	??_Quadra_Al+1
  2976  0432  30C2               	movlw	194
  2977  0433  00E0               	movwf	??_Quadra_Al
  2978  0434                     u3877:
  2979  0434  0BE0               	decfsz	??_Quadra_Al,f
  2980  0435  2C34               	goto	u3877
  2981  0436  0BE1               	decfsz	??_Quadra_Al+1,f
  2982  0437  2C34               	goto	u3877
  2983  0438  0000               	nop
  2984  0439                     l2504:
  2985                           
  2986                           ;newmain.c: 83:     sprintf(uart_logs, "d = %d\n\r", out);
  2987  0439  3090               	movlw	(low (Quadra_Al@uart_logs| (0+256)))& (0+255)
  2988  043A  1283               	bcf	3,5	;RP0=0, select bank0
  2989  043B  1303               	bcf	3,6	;RP1=0, select bank0
  2990  043C  00A0               	movwf	sprintf@sp
  2991  043D  3001               	movlw	1
  2992  043E  00A1               	movwf	sprintf@sp+1
  2993  043F  3031               	movlw	(low ((STR_2-__stringbase)| (0+32768)))& (0+255)
  2994  0440  00E0               	movwf	??_Quadra_Al
  2995  0441  0860               	movf	??_Quadra_Al,w
  2996  0442  00A2               	movwf	sprintf@f
  2997  0443  1683               	bsf	3,5	;RP0=1, select bank3
  2998  0444  1703               	bsf	3,6	;RP1=1, select bank3
  2999  0445  085D               	movf	(Quadra_Al@out+3)^(0+384),w
  3000  0446  1283               	bcf	3,5	;RP0=0, select bank0
  3001  0447  1303               	bcf	3,6	;RP1=0, select bank0
  3002  0448  00A6               	movwf	?_sprintf+6
  3003  0449  1683               	bsf	3,5	;RP0=1, select bank3
  3004  044A  1703               	bsf	3,6	;RP1=1, select bank3
  3005  044B  085C               	movf	(Quadra_Al@out+2)^(0+384),w
  3006  044C  1283               	bcf	3,5	;RP0=0, select bank0
  3007  044D  1303               	bcf	3,6	;RP1=0, select bank0
  3008  044E  00A5               	movwf	?_sprintf+5
  3009  044F  1683               	bsf	3,5	;RP0=1, select bank3
  3010  0450  1703               	bsf	3,6	;RP1=1, select bank3
  3011  0451  085B               	movf	(Quadra_Al@out+1)^(0+384),w
  3012  0452  1283               	bcf	3,5	;RP0=0, select bank0
  3013  0453  1303               	bcf	3,6	;RP1=0, select bank0
  3014  0454  00A4               	movwf	?_sprintf+4
  3015  0455  1683               	bsf	3,5	;RP0=1, select bank3
  3016  0456  1703               	bsf	3,6	;RP1=1, select bank3
  3017  0457  085A               	movf	Quadra_Al@out^(0+384),w
  3018  0458  1283               	bcf	3,5	;RP0=0, select bank0
  3019  0459  1303               	bcf	3,6	;RP1=0, select bank0
  3020  045A  00A3               	movwf	?_sprintf+3
  3021  045B  120A  118A  2069  120A  118A  	fcall	_sprintf
  3022  0460                     l2506:
  3023                           
  3024                           ;newmain.c: 84:     UART_Write_Text(uart_logs);
  3025  0460  3090               	movlw	(low (Quadra_Al@uart_logs| (0+256)))& (0+255)
  3026  0461  00F1               	movwf	UART_Write_Text@text
  3027  0462  3001               	movlw	1
  3028  0463  00F2               	movwf	UART_Write_Text@text+1
  3029  0464  160A  118A  278F  120A  118A  	fcall	_UART_Write_Text
  3030  0469                     l2508:
  3031                           
  3032                           ;newmain.c: 85:     _delay((unsigned long)((90)*(8000000/4000.0)));
  3033  0469  30EA               	movlw	234
  3034  046A  1283               	bcf	3,5	;RP0=0, select bank0
  3035  046B  1303               	bcf	3,6	;RP1=0, select bank0
  3036  046C  00E1               	movwf	??_Quadra_Al+1
  3037  046D  30C2               	movlw	194
  3038  046E  00E0               	movwf	??_Quadra_Al
  3039  046F                     u3887:
  3040  046F  0BE0               	decfsz	??_Quadra_Al,f
  3041  0470  2C6F               	goto	u3887
  3042  0471  0BE1               	decfsz	??_Quadra_Al+1,f
  3043  0472  2C6F               	goto	u3887
  3044  0473  0000               	nop
  3045  0474                     l2510:
  3046                           
  3047                           ;newmain.c: 86:     return out;
  3048  0474  1683               	bsf	3,5	;RP0=1, select bank3
  3049  0475  1703               	bsf	3,6	;RP1=1, select bank3
  3050  0476  085D               	movf	(Quadra_Al@out+3)^(0+384),w
  3051  0477  1283               	bcf	3,5	;RP0=0, select bank0
  3052  0478  1303               	bcf	3,6	;RP1=0, select bank0
  3053  0479  00DF               	movwf	?_Quadra_Al+3
  3054  047A  1683               	bsf	3,5	;RP0=1, select bank3
  3055  047B  1703               	bsf	3,6	;RP1=1, select bank3
  3056  047C  085C               	movf	(Quadra_Al@out+2)^(0+384),w
  3057  047D  1283               	bcf	3,5	;RP0=0, select bank0
  3058  047E  1303               	bcf	3,6	;RP1=0, select bank0
  3059  047F  00DE               	movwf	?_Quadra_Al+2
  3060  0480  1683               	bsf	3,5	;RP0=1, select bank3
  3061  0481  1703               	bsf	3,6	;RP1=1, select bank3
  3062  0482  085B               	movf	(Quadra_Al@out+1)^(0+384),w
  3063  0483  1283               	bcf	3,5	;RP0=0, select bank0
  3064  0484  1303               	bcf	3,6	;RP1=0, select bank0
  3065  0485  00DD               	movwf	?_Quadra_Al+1
  3066  0486  1683               	bsf	3,5	;RP0=1, select bank3
  3067  0487  1703               	bsf	3,6	;RP1=1, select bank3
  3068  0488  085A               	movf	Quadra_Al@out^(0+384),w
  3069  0489  1283               	bcf	3,5	;RP0=0, select bank0
  3070  048A  1303               	bcf	3,6	;RP1=0, select bank0
  3071  048B  00DC               	movwf	?_Quadra_Al
  3072  048C                     l112:
  3073  048C  0008               	return
  3074  048D                     __end_of_Quadra_Al:
  3075                           
  3076                           	psect	text9
  3077  0069                     __ptext9:	
  3078 ;; *************** function _sprintf *****************
  3079 ;; Defined at:
  3080 ;;		line 505 in file "C:\Program Files\Microchip\xc8\v2.32\pic\sources\c90\common\doprnt.c"
  3081 ;; Parameters:    Size  Location     Type
  3082 ;;  sp              2    0[BANK0 ] PTR unsigned char 
  3083 ;;		 -> main@uart_logs(20), Quadra_Al@uart_logs(50), 
  3084 ;;  f               1    2[BANK0 ] PTR const unsigned char 
  3085 ;;		 -> STR_3(15), STR_2(9), STR_1(23), 
  3086 ;; Auto vars:     Size  Location     Type
  3087 ;;  tmpval          4    0        struct .
  3088 ;;  val             2   23[BANK0 ] unsigned int 
  3089 ;;  cp              2    0        PTR const unsigned char 
  3090 ;;  len             2    0        unsigned int 
  3091 ;;  c               1   25[BANK0 ] unsigned char 
  3092 ;;  prec            1   22[BANK0 ] char 
  3093 ;;  flag            1   21[BANK0 ] unsigned char 
  3094 ;;  ap              1   20[BANK0 ] PTR void [1]
  3095 ;;		 -> ?_sprintf(2), 
  3096 ;; Return value:  Size  Location     Type
  3097 ;;                  2    0[BANK0 ] int 
  3098 ;; Registers used:
  3099 ;;		wreg, fsr0l, fsr0h, status,2, status,0, btemp+1, pclath, cstack
  3100 ;; Tracked objects:
  3101 ;;		On entry : 0/0
  3102 ;;		On exit  : 0/0
  3103 ;;		Unchanged: 0/0
  3104 ;; Data sizes:     COMMON   BANK0   BANK1   BANK3   BANK2
  3105 ;;      Params:         0      17       0       0       0
  3106 ;;      Locals:         0       6       0       0       0
  3107 ;;      Temps:          0       3       0       0       0
  3108 ;;      Totals:         0      26       0       0       0
  3109 ;;Total ram usage:       26 bytes
  3110 ;; Hardware stack levels used: 1
  3111 ;; Hardware stack levels required when called: 1
  3112 ;; This function calls:
  3113 ;;		___lwdiv
  3114 ;;		___lwmod
  3115 ;; This function is called by:
  3116 ;;		_Quadra_Al
  3117 ;;		_main
  3118 ;; This function uses a non-reentrant model
  3119 ;;
  3120                           
  3121                           
  3122                           ;psect for function _sprintf
  3123  0069                     _sprintf:
  3124  0069                     l1992:	
  3125                           ;incstack = 0
  3126                           ; Regs used in _sprintf: [wreg-fsr0h+status,2+status,0+btemp+1+pclath+cstack]
  3127                           
  3128                           
  3129                           ;C:\Program Files\Microchip\xc8\v2.32\pic\sources\c90\common\doprnt.c: 505: sprintf(char
      +                           * sp, const char * f, ...);C:\Program Files\Microchip\xc8\v2.32\pic\sources\c90\common\
      +                          doprnt.c: 506: {;C:\Program Files\Microchip\xc8\v2.32\pic\sources\c90\common\doprnt.c: 5
      +                          07:  va_list ap;;C:\Program Files\Microchip\xc8\v2.32\pic\sources\c90\common\doprnt.c: 5
      +                          12:  char c;;C:\Program Files\Microchip\xc8\v2.32\pic\sources\c90\common\doprnt.c: 521: 
      +                           signed char prec;;C:\Program Files\Microchip\xc8\v2.32\pic\sources\c90\common\doprnt.c:
      +                           525:  unsigned char flag;
  3130  0069  3023               	movlw	(low ((?_sprintf| 0+3)))& (0+255)
  3131  006A  1283               	bcf	3,5	;RP0=0, select bank0
  3132  006B  1303               	bcf	3,6	;RP1=0, select bank0
  3133  006C  00B1               	movwf	??_sprintf
  3134  006D  0831               	movf	??_sprintf,w
  3135  006E  00B4               	movwf	sprintf@ap
  3136                           
  3137                           ;C:\Program Files\Microchip\xc8\v2.32\pic\sources\c90\common\doprnt.c: 553:  while((c = 
      +                          *f++)) {
  3138  006F  2945               	goto	l2044
  3139  0070                     l1994:
  3140                           
  3141                           ;C:\Program Files\Microchip\xc8\v2.32\pic\sources\c90\common\doprnt.c: 555:   if(c != '%
      +                          ')
  3142  0070  3025               	movlw	37
  3143  0071  0639               	xorwf	sprintf@c,w
  3144  0072  1903               	btfsc	3,2
  3145  0073  2875               	goto	u2601
  3146  0074  2876               	goto	u2600
  3147  0075                     u2601:
  3148  0075  2886               	goto	l2000
  3149  0076                     u2600:
  3150  0076                     l1996:
  3151                           
  3152                           ;C:\Program Files\Microchip\xc8\v2.32\pic\sources\c90\common\doprnt.c: 557:   {;C:\Progr
      +                          am Files\Microchip\xc8\v2.32\pic\sources\c90\common\doprnt.c: 558:    ((*sp++ = (c)));
  3153  0076  0839               	movf	sprintf@c,w
  3154  0077  00B1               	movwf	??_sprintf
  3155  0078  0820               	movf	sprintf@sp,w
  3156  0079  0084               	movwf	4
  3157  007A  1783               	bsf	3,7
  3158  007B  1C21               	btfss	sprintf@sp+1,0
  3159  007C  1383               	bcf	3,7
  3160  007D  0831               	movf	??_sprintf,w
  3161  007E  0080               	movwf	0
  3162  007F                     l1998:
  3163  007F  3001               	movlw	1
  3164  0080  07A0               	addwf	sprintf@sp,f
  3165  0081  1803               	skipnc
  3166  0082  0AA1               	incf	sprintf@sp+1,f
  3167  0083  3000               	movlw	0
  3168  0084  07A1               	addwf	sprintf@sp+1,f
  3169                           
  3170                           ;C:\Program Files\Microchip\xc8\v2.32\pic\sources\c90\common\doprnt.c: 559:    continue;
  3171  0085  2945               	goto	l2044
  3172  0086                     l2000:
  3173                           
  3174                           ;C:\Program Files\Microchip\xc8\v2.32\pic\sources\c90\common\doprnt.c: 565:   flag = 0;
  3175  0086  01B5               	clrf	sprintf@flag
  3176  0087                     l2004:	
  3177                           ;C:\Program Files\Microchip\xc8\v2.32\pic\sources\c90\common\doprnt.c: 661:   switch(c =
      +                           *f++) {
  3178                           
  3179  0087  3001               	movlw	1
  3180  0088  07A2               	addwf	sprintf@f,f
  3181  0089  30FF               	movlw	-1
  3182  008A  0722               	addwf	sprintf@f,w
  3183  008B  0084               	movwf	4
  3184  008C  160A  118A  2000  120A  118A  	fcall	stringdir
  3185  0091  00B9               	movwf	sprintf@c
  3186  0092  00B1               	movwf	??_sprintf
  3187  0093  01B2               	clrf	??_sprintf+1
  3188                           
  3189                           ; Switch on 2 bytes has been partitioned into a top level switch of size 1, and 1 sub-sw
      +                          itches
  3190                           ; Switch size 1, requested type "simple"
  3191                           ; Number of cases is 1, Range of values is 0 to 0
  3192                           ; switch strategies available:
  3193                           ; Name         Instructions Cycles
  3194                           ; simple_byte            4     3 (average)
  3195                           ; direct_byte           11     8 (fixed)
  3196                           ; jumptable            260     6 (fixed)
  3197                           ;	Chosen strategy is simple_byte
  3198  0094  0832               	movf	??_sprintf+1,w
  3199  0095  3A00               	xorlw	0	; case 0
  3200  0096  1903               	skipnz
  3201  0097  2899               	goto	l2638
  3202  0098  2945               	goto	l2044
  3203  0099                     l2638:
  3204                           
  3205                           ; Switch size 1, requested type "simple"
  3206                           ; Number of cases is 3, Range of values is 0 to 105
  3207                           ; switch strategies available:
  3208                           ; Name         Instructions Cycles
  3209                           ; simple_byte           10     6 (average)
  3210                           ; jumptable            260     6 (fixed)
  3211                           ;	Chosen strategy is simple_byte
  3212  0099  0831               	movf	??_sprintf,w
  3213  009A  3A00               	xorlw	0	; case 0
  3214  009B  1903               	skipnz
  3215  009C  2957               	goto	l2046
  3216  009D  3A64               	xorlw	100	; case 100
  3217  009E  1903               	skipnz
  3218  009F  28A4               	goto	l2006
  3219  00A0  3A0D               	xorlw	13	; case 105
  3220  00A1  1903               	skipnz
  3221  00A2  28A4               	goto	l2006
  3222  00A3  2945               	goto	l2044
  3223  00A4                     l2006:
  3224                           
  3225                           ;C:\Program Files\Microchip\xc8\v2.32\pic\sources\c90\common\doprnt.c: 1279:   {;C:\Prog
      +                          ram Files\Microchip\xc8\v2.32\pic\sources\c90\common\doprnt.c: 1285:     val = (unsigned
      +                           int)(*(int *)__va_arg((*(int **)ap), (int)0));
  3226  00A4  0834               	movf	sprintf@ap,w
  3227  00A5  0084               	movwf	4
  3228  00A6  1383               	bcf	3,7	;select IRP bank0
  3229  00A7  0800               	movf	0,w
  3230  00A8  00B7               	movwf	sprintf@val
  3231  00A9  0A84               	incf	4,f
  3232  00AA  0800               	movf	0,w
  3233  00AB  00B8               	movwf	sprintf@val+1
  3234  00AC                     l2008:
  3235  00AC  3002               	movlw	2
  3236  00AD  00B1               	movwf	??_sprintf
  3237  00AE  0831               	movf	??_sprintf,w
  3238  00AF  07B4               	addwf	sprintf@ap,f
  3239  00B0                     l2010:
  3240                           
  3241                           ;C:\Program Files\Microchip\xc8\v2.32\pic\sources\c90\common\doprnt.c: 1287:    if((int)
      +                          val < 0) {
  3242  00B0  1FB8               	btfss	sprintf@val+1,7
  3243  00B1  28B3               	goto	u2611
  3244  00B2  28B4               	goto	u2610
  3245  00B3                     u2611:
  3246  00B3  28BD               	goto	l2016
  3247  00B4                     u2610:
  3248  00B4                     l2012:
  3249                           
  3250                           ;C:\Program Files\Microchip\xc8\v2.32\pic\sources\c90\common\doprnt.c: 1288:     flag |=
      +                           0x03;
  3251  00B4  3003               	movlw	3
  3252  00B5  00B1               	movwf	??_sprintf
  3253  00B6  0831               	movf	??_sprintf,w
  3254  00B7  04B5               	iorwf	sprintf@flag,f
  3255  00B8                     l2014:
  3256                           
  3257                           ;C:\Program Files\Microchip\xc8\v2.32\pic\sources\c90\common\doprnt.c: 1289:     val = -
      +                          val;
  3258  00B8  09B7               	comf	sprintf@val,f
  3259  00B9  09B8               	comf	sprintf@val+1,f
  3260  00BA  0AB7               	incf	sprintf@val,f
  3261  00BB  1903               	skipnz
  3262  00BC  0AB8               	incf	sprintf@val+1,f
  3263  00BD                     l2016:
  3264                           
  3265                           ;C:\Program Files\Microchip\xc8\v2.32\pic\sources\c90\common\doprnt.c: 1292:   };C:\Prog
      +                          ram Files\Microchip\xc8\v2.32\pic\sources\c90\common\doprnt.c: 1331:    for(c = 1 ; c !=
      +                           sizeof dpowers/sizeof dpowers[0] ; c++)
  3266  00BD  01B9               	clrf	sprintf@c
  3267  00BE  0AB9               	incf	sprintf@c,f
  3268  00BF                     l2022:
  3269                           
  3270                           ;C:\Program Files\Microchip\xc8\v2.32\pic\sources\c90\common\doprnt.c: 1332:     if(val 
      +                          < dpowers[c])
  3271  00BF  0839               	movf	sprintf@c,w
  3272  00C0  00B1               	movwf	??_sprintf
  3273  00C1  0731               	addwf	??_sprintf,w
  3274  00C2  3E01               	addlw	low ((_dpowers-__stringbase)| (0+32768))
  3275  00C3  0084               	movwf	4
  3276  00C4  160A  118A  2000  120A  118A  	fcall	stringdir
  3277  00C9  00B2               	movwf	??_sprintf+1
  3278  00CA  160A  118A  2000  120A  118A  	fcall	stringdir
  3279  00CF  00B3               	movwf	??_sprintf+2
  3280  00D0  0833               	movf	??_sprintf+2,w
  3281  00D1  0238               	subwf	sprintf@val+1,w
  3282  00D2  1D03               	skipz
  3283  00D3  28D6               	goto	u2625
  3284  00D4  0832               	movf	??_sprintf+1,w
  3285  00D5  0237               	subwf	sprintf@val,w
  3286  00D6                     u2625:
  3287  00D6  1803               	skipnc
  3288  00D7  28D9               	goto	u2621
  3289  00D8  28DA               	goto	u2620
  3290  00D9                     u2621:
  3291  00D9  28DB               	goto	l2026
  3292  00DA                     u2620:
  3293  00DA  28E5               	goto	l2028
  3294  00DB                     l2026:
  3295  00DB  3001               	movlw	1
  3296  00DC  00B1               	movwf	??_sprintf
  3297  00DD  0831               	movf	??_sprintf,w
  3298  00DE  07B9               	addwf	sprintf@c,f
  3299  00DF  3005               	movlw	5
  3300  00E0  0639               	xorwf	sprintf@c,w
  3301  00E1  1D03               	btfss	3,2
  3302  00E2  28E4               	goto	u2631
  3303  00E3  28E5               	goto	u2630
  3304  00E4                     u2631:
  3305  00E4  28BF               	goto	l2022
  3306  00E5                     u2630:
  3307  00E5                     l2028:
  3308                           
  3309                           ;C:\Program Files\Microchip\xc8\v2.32\pic\sources\c90\common\doprnt.c: 1448:   {;C:\Prog
      +                          ram Files\Microchip\xc8\v2.32\pic\sources\c90\common\doprnt.c: 1464:    if(flag & 0x03)
  3310  00E5  0835               	movf	sprintf@flag,w
  3311  00E6  3903               	andlw	3
  3312  00E7  1903               	btfsc	3,2
  3313  00E8  28EA               	goto	u2641
  3314  00E9  28EB               	goto	u2640
  3315  00EA                     u2641:
  3316  00EA  28FA               	goto	l2034
  3317  00EB                     u2640:
  3318  00EB                     l2030:
  3319                           
  3320                           ;C:\Program Files\Microchip\xc8\v2.32\pic\sources\c90\common\doprnt.c: 1465:     ((*sp++
      +                           = ('-')));
  3321  00EB  302D               	movlw	45
  3322  00EC  00B1               	movwf	??_sprintf
  3323  00ED  0820               	movf	sprintf@sp,w
  3324  00EE  0084               	movwf	4
  3325  00EF  1783               	bsf	3,7
  3326  00F0  1C21               	btfss	sprintf@sp+1,0
  3327  00F1  1383               	bcf	3,7
  3328  00F2  0831               	movf	??_sprintf,w
  3329  00F3  0080               	movwf	0
  3330  00F4                     l2032:
  3331  00F4  3001               	movlw	1
  3332  00F5  07A0               	addwf	sprintf@sp,f
  3333  00F6  1803               	skipnc
  3334  00F7  0AA1               	incf	sprintf@sp+1,f
  3335  00F8  3000               	movlw	0
  3336  00F9  07A1               	addwf	sprintf@sp+1,f
  3337  00FA                     l2034:
  3338                           
  3339                           ;C:\Program Files\Microchip\xc8\v2.32\pic\sources\c90\common\doprnt.c: 1495:   };C:\Prog
      +                          ram Files\Microchip\xc8\v2.32\pic\sources\c90\common\doprnt.c: 1498:   prec = c;
  3340  00FA  0839               	movf	sprintf@c,w
  3341  00FB  00B1               	movwf	??_sprintf
  3342  00FC  0831               	movf	??_sprintf,w
  3343  00FD  00B6               	movwf	sprintf@prec
  3344                           
  3345                           ;C:\Program Files\Microchip\xc8\v2.32\pic\sources\c90\common\doprnt.c: 1500:   while(pre
      +                          c--) {
  3346  00FE  293C               	goto	l2042
  3347  00FF                     l2036:
  3348                           
  3349                           ;C:\Program Files\Microchip\xc8\v2.32\pic\sources\c90\common\doprnt.c: 1504:    {;C:\Pro
      +                          gram Files\Microchip\xc8\v2.32\pic\sources\c90\common\doprnt.c: 1515:     c = (val / dpo
      +                          wers[(unsigned char)prec]) % 10 + '0';
  3350  00FF  300A               	movlw	10
  3351  0100  00F8               	movwf	___lwmod@divisor
  3352  0101  3000               	movlw	0
  3353  0102  00F9               	movwf	___lwmod@divisor+1
  3354  0103  0836               	movf	sprintf@prec,w
  3355  0104  00B1               	movwf	??_sprintf
  3356  0105  0731               	addwf	??_sprintf,w
  3357  0106  3E01               	addlw	low ((_dpowers-__stringbase)| (0+32768))
  3358  0107  0084               	movwf	4
  3359  0108  160A  118A  2000  120A  118A  	fcall	stringdir
  3360  010D  00F0               	movwf	___lwdiv@divisor
  3361  010E  160A  118A  2000  120A  118A  	fcall	stringdir
  3362  0113  00F1               	movwf	___lwdiv@divisor+1
  3363  0114  0838               	movf	sprintf@val+1,w
  3364  0115  00F3               	movwf	___lwdiv@dividend+1
  3365  0116  0837               	movf	sprintf@val,w
  3366  0117  00F2               	movwf	___lwdiv@dividend
  3367  0118  120A  118A  2025  120A  118A  	fcall	___lwdiv
  3368  011D  0871               	movf	?___lwdiv+1,w
  3369  011E  00FB               	movwf	___lwmod@dividend+1
  3370  011F  0870               	movf	?___lwdiv,w
  3371  0120  00FA               	movwf	___lwmod@dividend
  3372  0121  160A  118A  27C6  120A  118A  	fcall	___lwmod
  3373  0126  0878               	movf	?___lwmod,w
  3374  0127  3E30               	addlw	48
  3375  0128  1283               	bcf	3,5	;RP0=0, select bank0
  3376  0129  1303               	bcf	3,6	;RP1=0, select bank0
  3377  012A  00B2               	movwf	??_sprintf+1
  3378  012B  0832               	movf	??_sprintf+1,w
  3379  012C  00B9               	movwf	sprintf@c
  3380  012D                     l2038:
  3381                           
  3382                           ;C:\Program Files\Microchip\xc8\v2.32\pic\sources\c90\common\doprnt.c: 1549:    };C:\Pro
      +                          gram Files\Microchip\xc8\v2.32\pic\sources\c90\common\doprnt.c: 1550:    ((*sp++ = (c)))
      +                          ;
  3383  012D  0839               	movf	sprintf@c,w
  3384  012E  00B1               	movwf	??_sprintf
  3385  012F  0820               	movf	sprintf@sp,w
  3386  0130  0084               	movwf	4
  3387  0131  1783               	bsf	3,7
  3388  0132  1C21               	btfss	sprintf@sp+1,0
  3389  0133  1383               	bcf	3,7
  3390  0134  0831               	movf	??_sprintf,w
  3391  0135  0080               	movwf	0
  3392  0136                     l2040:
  3393  0136  3001               	movlw	1
  3394  0137  07A0               	addwf	sprintf@sp,f
  3395  0138  1803               	skipnc
  3396  0139  0AA1               	incf	sprintf@sp+1,f
  3397  013A  3000               	movlw	0
  3398  013B  07A1               	addwf	sprintf@sp+1,f
  3399  013C                     l2042:
  3400                           
  3401                           ;C:\Program Files\Microchip\xc8\v2.32\pic\sources\c90\common\doprnt.c: 1500:   while(pre
      +                          c--) {
  3402  013C  30FF               	movlw	255
  3403  013D  00B1               	movwf	??_sprintf
  3404  013E  0831               	movf	??_sprintf,w
  3405  013F  07B6               	addwf	sprintf@prec,f
  3406  0140  0A36               	incf	sprintf@prec,w
  3407  0141  1D03               	btfss	3,2
  3408  0142  2944               	goto	u2651
  3409  0143  2945               	goto	u2650
  3410  0144                     u2651:
  3411  0144  28FF               	goto	l2036
  3412  0145                     u2650:
  3413  0145                     l2044:
  3414                           
  3415                           ;C:\Program Files\Microchip\xc8\v2.32\pic\sources\c90\common\doprnt.c: 553:  while((c = 
      +                          *f++)) {
  3416  0145  3001               	movlw	1
  3417  0146  07A2               	addwf	sprintf@f,f
  3418  0147  30FF               	movlw	-1
  3419  0148  0722               	addwf	sprintf@f,w
  3420  0149  0084               	movwf	4
  3421  014A  160A  118A  2000  120A  118A  	fcall	stringdir
  3422  014F  00B1               	movwf	??_sprintf
  3423  0150  0831               	movf	??_sprintf,w
  3424  0151  00B9               	movwf	sprintf@c
  3425  0152  0839               	movf	sprintf@c,w
  3426  0153  1D03               	btfss	3,2
  3427  0154  2956               	goto	u2661
  3428  0155  2957               	goto	u2660
  3429  0156                     u2661:
  3430  0156  2870               	goto	l1994
  3431  0157                     u2660:
  3432  0157                     l2046:
  3433                           
  3434                           ;C:\Program Files\Microchip\xc8\v2.32\pic\sources\c90\common\doprnt.c: 1564:  *sp = 0;
  3435  0157  0820               	movf	sprintf@sp,w
  3436  0158  0084               	movwf	4
  3437  0159  1783               	bsf	3,7
  3438  015A  1C21               	btfss	sprintf@sp+1,0
  3439  015B  1383               	bcf	3,7
  3440  015C  0180               	clrf	0
  3441  015D                     l266:
  3442  015D  0008               	return
  3443  015E                     __end_of_sprintf:
  3444                           
  3445                           	psect	text10
  3446  17C6                     __ptext10:	
  3447 ;; *************** function ___lwmod *****************
  3448 ;; Defined at:
  3449 ;;		line 5 in file "C:\Program Files\Microchip\xc8\v2.32\pic\sources\c90\common\lwmod.c"
  3450 ;; Parameters:    Size  Location     Type
  3451 ;;  divisor         2    8[COMMON] unsigned int 
  3452 ;;  dividend        2   10[COMMON] unsigned int 
  3453 ;; Auto vars:     Size  Location     Type
  3454 ;;  counter         1   13[COMMON] unsigned char 
  3455 ;; Return value:  Size  Location     Type
  3456 ;;                  2    8[COMMON] unsigned int 
  3457 ;; Registers used:
  3458 ;;		wreg, status,2, status,0
  3459 ;; Tracked objects:
  3460 ;;		On entry : 0/0
  3461 ;;		On exit  : 0/0
  3462 ;;		Unchanged: 0/0
  3463 ;; Data sizes:     COMMON   BANK0   BANK1   BANK3   BANK2
  3464 ;;      Params:         4       0       0       0       0
  3465 ;;      Locals:         1       0       0       0       0
  3466 ;;      Temps:          1       0       0       0       0
  3467 ;;      Totals:         6       0       0       0       0
  3468 ;;Total ram usage:        6 bytes
  3469 ;; Hardware stack levels used: 1
  3470 ;; This function calls:
  3471 ;;		Nothing
  3472 ;; This function is called by:
  3473 ;;		_sprintf
  3474 ;; This function uses a non-reentrant model
  3475 ;;
  3476                           
  3477                           
  3478                           ;psect for function ___lwmod
  3479  17C6                     ___lwmod:
  3480  17C6                     l1754:	
  3481                           ;incstack = 0
  3482                           ; Regs used in ___lwmod: [wreg+status,2+status,0]
  3483                           
  3484  17C6  0878               	movf	___lwmod@divisor,w
  3485  17C7  0479               	iorwf	___lwmod@divisor+1,w
  3486  17C8  1903               	btfsc	3,2
  3487  17C9  2FCB               	goto	u2021
  3488  17CA  2FCC               	goto	u2020
  3489  17CB                     u2021:
  3490  17CB  2FFB               	goto	l1772
  3491  17CC                     u2020:
  3492  17CC                     l1756:
  3493  17CC  01FD               	clrf	___lwmod@counter
  3494  17CD  0AFD               	incf	___lwmod@counter,f
  3495  17CE  2FDA               	goto	l1762
  3496  17CF                     l1758:
  3497  17CF  3001               	movlw	1
  3498  17D0                     u2035:
  3499  17D0  1003               	clrc
  3500  17D1  0DF8               	rlf	___lwmod@divisor,f
  3501  17D2  0DF9               	rlf	___lwmod@divisor+1,f
  3502  17D3  3EFF               	addlw	-1
  3503  17D4  1D03               	skipz
  3504  17D5  2FD0               	goto	u2035
  3505  17D6                     l1760:
  3506  17D6  3001               	movlw	1
  3507  17D7  00FC               	movwf	??___lwmod
  3508  17D8  087C               	movf	??___lwmod,w
  3509  17D9  07FD               	addwf	___lwmod@counter,f
  3510  17DA                     l1762:
  3511  17DA  1FF9               	btfss	___lwmod@divisor+1,7
  3512  17DB  2FDD               	goto	u2041
  3513  17DC  2FDE               	goto	u2040
  3514  17DD                     u2041:
  3515  17DD  2FCF               	goto	l1758
  3516  17DE                     u2040:
  3517  17DE                     l1764:
  3518  17DE  0879               	movf	___lwmod@divisor+1,w
  3519  17DF  027B               	subwf	___lwmod@dividend+1,w
  3520  17E0  1D03               	skipz
  3521  17E1  2FE4               	goto	u2055
  3522  17E2  0878               	movf	___lwmod@divisor,w
  3523  17E3  027A               	subwf	___lwmod@dividend,w
  3524  17E4                     u2055:
  3525  17E4  1C03               	skipc
  3526  17E5  2FE7               	goto	u2051
  3527  17E6  2FE8               	goto	u2050
  3528  17E7                     u2051:
  3529  17E7  2FEE               	goto	l1768
  3530  17E8                     u2050:
  3531  17E8                     l1766:
  3532  17E8  0878               	movf	___lwmod@divisor,w
  3533  17E9  02FA               	subwf	___lwmod@dividend,f
  3534  17EA  0879               	movf	___lwmod@divisor+1,w
  3535  17EB  1C03               	skipc
  3536  17EC  03FB               	decf	___lwmod@dividend+1,f
  3537  17ED  02FB               	subwf	___lwmod@dividend+1,f
  3538  17EE                     l1768:
  3539  17EE  3001               	movlw	1
  3540  17EF                     u2065:
  3541  17EF  1003               	clrc
  3542  17F0  0CF9               	rrf	___lwmod@divisor+1,f
  3543  17F1  0CF8               	rrf	___lwmod@divisor,f
  3544  17F2  3EFF               	addlw	-1
  3545  17F3  1D03               	skipz
  3546  17F4  2FEF               	goto	u2065
  3547  17F5                     l1770:
  3548  17F5  3001               	movlw	1
  3549  17F6  02FD               	subwf	___lwmod@counter,f
  3550  17F7  1D03               	btfss	3,2
  3551  17F8  2FFA               	goto	u2071
  3552  17F9  2FFB               	goto	u2070
  3553  17FA                     u2071:
  3554  17FA  2FDE               	goto	l1764
  3555  17FB                     u2070:
  3556  17FB                     l1772:
  3557  17FB  087B               	movf	___lwmod@dividend+1,w
  3558  17FC  00F9               	movwf	?___lwmod+1
  3559  17FD  087A               	movf	___lwmod@dividend,w
  3560  17FE  00F8               	movwf	?___lwmod
  3561  17FF                     l552:
  3562  17FF  0008               	return
  3563  1800                     __end_of___lwmod:
  3564                           
  3565                           	psect	text11
  3566  0025                     __ptext11:	
  3567 ;; *************** function ___lwdiv *****************
  3568 ;; Defined at:
  3569 ;;		line 5 in file "C:\Program Files\Microchip\xc8\v2.32\pic\sources\c90\common\lwdiv.c"
  3570 ;; Parameters:    Size  Location     Type
  3571 ;;  divisor         2    0[COMMON] unsigned int 
  3572 ;;  dividend        2    2[COMMON] unsigned int 
  3573 ;; Auto vars:     Size  Location     Type
  3574 ;;  quotient        2    5[COMMON] unsigned int 
  3575 ;;  counter         1    7[COMMON] unsigned char 
  3576 ;; Return value:  Size  Location     Type
  3577 ;;                  2    0[COMMON] unsigned int 
  3578 ;; Registers used:
  3579 ;;		wreg, status,2, status,0
  3580 ;; Tracked objects:
  3581 ;;		On entry : 0/0
  3582 ;;		On exit  : 0/0
  3583 ;;		Unchanged: 0/0
  3584 ;; Data sizes:     COMMON   BANK0   BANK1   BANK3   BANK2
  3585 ;;      Params:         4       0       0       0       0
  3586 ;;      Locals:         3       0       0       0       0
  3587 ;;      Temps:          1       0       0       0       0
  3588 ;;      Totals:         8       0       0       0       0
  3589 ;;Total ram usage:        8 bytes
  3590 ;; Hardware stack levels used: 1
  3591 ;; This function calls:
  3592 ;;		Nothing
  3593 ;; This function is called by:
  3594 ;;		_sprintf
  3595 ;; This function uses a non-reentrant model
  3596 ;;
  3597                           
  3598                           
  3599                           ;psect for function ___lwdiv
  3600  0025                     ___lwdiv:
  3601  0025                     l1728:	
  3602                           ;incstack = 0
  3603                           ; Regs used in ___lwdiv: [wreg+status,2+status,0]
  3604                           
  3605  0025  01F5               	clrf	___lwdiv@quotient
  3606  0026  01F6               	clrf	___lwdiv@quotient+1
  3607  0027                     l1730:
  3608  0027  0870               	movf	___lwdiv@divisor,w
  3609  0028  0471               	iorwf	___lwdiv@divisor+1,w
  3610  0029  1903               	btfsc	3,2
  3611  002A  282C               	goto	u1951
  3612  002B  282D               	goto	u1950
  3613  002C                     u1951:
  3614  002C  2864               	goto	l1750
  3615  002D                     u1950:
  3616  002D                     l1732:
  3617  002D  01F7               	clrf	___lwdiv@counter
  3618  002E  0AF7               	incf	___lwdiv@counter,f
  3619  002F  283B               	goto	l1738
  3620  0030                     l1734:
  3621  0030  3001               	movlw	1
  3622  0031                     u1965:
  3623  0031  1003               	clrc
  3624  0032  0DF0               	rlf	___lwdiv@divisor,f
  3625  0033  0DF1               	rlf	___lwdiv@divisor+1,f
  3626  0034  3EFF               	addlw	-1
  3627  0035  1D03               	skipz
  3628  0036  2831               	goto	u1965
  3629  0037                     l1736:
  3630  0037  3001               	movlw	1
  3631  0038  00F4               	movwf	??___lwdiv
  3632  0039  0874               	movf	??___lwdiv,w
  3633  003A  07F7               	addwf	___lwdiv@counter,f
  3634  003B                     l1738:
  3635  003B  1FF1               	btfss	___lwdiv@divisor+1,7
  3636  003C  283E               	goto	u1971
  3637  003D  283F               	goto	u1970
  3638  003E                     u1971:
  3639  003E  2830               	goto	l1734
  3640  003F                     u1970:
  3641  003F                     l1740:
  3642  003F  3001               	movlw	1
  3643  0040                     u1985:
  3644  0040  1003               	clrc
  3645  0041  0DF5               	rlf	___lwdiv@quotient,f
  3646  0042  0DF6               	rlf	___lwdiv@quotient+1,f
  3647  0043  3EFF               	addlw	-1
  3648  0044  1D03               	skipz
  3649  0045  2840               	goto	u1985
  3650  0046  0871               	movf	___lwdiv@divisor+1,w
  3651  0047  0273               	subwf	___lwdiv@dividend+1,w
  3652  0048  1D03               	skipz
  3653  0049  284C               	goto	u1995
  3654  004A  0870               	movf	___lwdiv@divisor,w
  3655  004B  0272               	subwf	___lwdiv@dividend,w
  3656  004C                     u1995:
  3657  004C  1C03               	skipc
  3658  004D  284F               	goto	u1991
  3659  004E  2850               	goto	u1990
  3660  004F                     u1991:
  3661  004F  2857               	goto	l1746
  3662  0050                     u1990:
  3663  0050                     l1742:
  3664  0050  0870               	movf	___lwdiv@divisor,w
  3665  0051  02F2               	subwf	___lwdiv@dividend,f
  3666  0052  0871               	movf	___lwdiv@divisor+1,w
  3667  0053  1C03               	skipc
  3668  0054  03F3               	decf	___lwdiv@dividend+1,f
  3669  0055  02F3               	subwf	___lwdiv@dividend+1,f
  3670  0056                     l1744:
  3671  0056  1475               	bsf	___lwdiv@quotient,0
  3672  0057                     l1746:
  3673  0057  3001               	movlw	1
  3674  0058                     u2005:
  3675  0058  1003               	clrc
  3676  0059  0CF1               	rrf	___lwdiv@divisor+1,f
  3677  005A  0CF0               	rrf	___lwdiv@divisor,f
  3678  005B  3EFF               	addlw	-1
  3679  005C  1D03               	skipz
  3680  005D  2858               	goto	u2005
  3681  005E                     l1748:
  3682  005E  3001               	movlw	1
  3683  005F  02F7               	subwf	___lwdiv@counter,f
  3684  0060  1D03               	btfss	3,2
  3685  0061  2863               	goto	u2011
  3686  0062  2864               	goto	u2010
  3687  0063                     u2011:
  3688  0063  283F               	goto	l1740
  3689  0064                     u2010:
  3690  0064                     l1750:
  3691  0064  0876               	movf	___lwdiv@quotient+1,w
  3692  0065  00F1               	movwf	?___lwdiv+1
  3693  0066  0875               	movf	___lwdiv@quotient,w
  3694  0067  00F0               	movwf	?___lwdiv
  3695  0068                     l542:
  3696  0068  0008               	return
  3697  0069                     __end_of___lwdiv:
  3698                           
  3699                           	psect	text12
  3700  0919                     __ptext12:	
  3701 ;; *************** function ___xxtofl *****************
  3702 ;; Defined at:
  3703 ;;		line 10 in file "C:\Program Files\Microchip\xc8\v2.32\pic\sources\c90\common\xxtofl.c"
  3704 ;; Parameters:    Size  Location     Type
  3705 ;;  sign            1    wreg     unsigned char 
  3706 ;;  val             4    0[COMMON] long 
  3707 ;; Auto vars:     Size  Location     Type
  3708 ;;  sign            1    8[COMMON] unsigned char 
  3709 ;;  arg             4   10[COMMON] unsigned long 
  3710 ;;  exp             1    9[COMMON] unsigned char 
  3711 ;; Return value:  Size  Location     Type
  3712 ;;                  4    0[COMMON] unsigned char 
  3713 ;; Registers used:
  3714 ;;		wreg, status,2, status,0
  3715 ;; Tracked objects:
  3716 ;;		On entry : 0/0
  3717 ;;		On exit  : 0/0
  3718 ;;		Unchanged: 0/0
  3719 ;; Data sizes:     COMMON   BANK0   BANK1   BANK3   BANK2
  3720 ;;      Params:         4       0       0       0       0
  3721 ;;      Locals:         6       0       0       0       0
  3722 ;;      Temps:          4       0       0       0       0
  3723 ;;      Totals:        14       0       0       0       0
  3724 ;;Total ram usage:       14 bytes
  3725 ;; Hardware stack levels used: 1
  3726 ;; This function calls:
  3727 ;;		Nothing
  3728 ;; This function is called by:
  3729 ;;		_Quadra_Al
  3730 ;; This function uses a non-reentrant model
  3731 ;;
  3732                           
  3733                           
  3734                           ;psect for function ___xxtofl
  3735  0919                     ___xxtofl:
  3736                           
  3737                           ;incstack = 0
  3738                           ; Regs used in ___xxtofl: [wreg+status,2+status,0]
  3739                           ;___xxtofl@sign stored from wreg
  3740  0919  00F8               	movwf	___xxtofl@sign
  3741  091A                     l2392:
  3742  091A  0878               	movf	___xxtofl@sign,w
  3743  091B  1903               	btfsc	3,2
  3744  091C  291E               	goto	u3451
  3745  091D  291F               	goto	u3450
  3746  091E                     u3451:
  3747  091E  2933               	goto	l2398
  3748  091F                     u3450:
  3749  091F                     l2394:
  3750  091F  1FF3               	btfss	___xxtofl@val+3,7
  3751  0920  2922               	goto	u3461
  3752  0921  2923               	goto	u3460
  3753  0922                     u3461:
  3754  0922  2933               	goto	l2398
  3755  0923                     u3460:
  3756  0923                     l2396:
  3757  0923  0970               	comf	___xxtofl@val,w
  3758  0924  00FA               	movwf	___xxtofl@arg
  3759  0925  0971               	comf	___xxtofl@val+1,w
  3760  0926  00FB               	movwf	___xxtofl@arg+1
  3761  0927  0972               	comf	___xxtofl@val+2,w
  3762  0928  00FC               	movwf	___xxtofl@arg+2
  3763  0929  0973               	comf	___xxtofl@val+3,w
  3764  092A  00FD               	movwf	___xxtofl@arg+3
  3765  092B  0AFA               	incf	___xxtofl@arg,f
  3766  092C  1903               	skipnz
  3767  092D  0AFB               	incf	___xxtofl@arg+1,f
  3768  092E  1903               	skipnz
  3769  092F  0AFC               	incf	___xxtofl@arg+2,f
  3770  0930  1903               	skipnz
  3771  0931  0AFD               	incf	___xxtofl@arg+3,f
  3772  0932  293B               	goto	l703
  3773  0933                     l2398:
  3774  0933  0873               	movf	___xxtofl@val+3,w
  3775  0934  00FD               	movwf	___xxtofl@arg+3
  3776  0935  0872               	movf	___xxtofl@val+2,w
  3777  0936  00FC               	movwf	___xxtofl@arg+2
  3778  0937  0871               	movf	___xxtofl@val+1,w
  3779  0938  00FB               	movwf	___xxtofl@arg+1
  3780  0939  0870               	movf	___xxtofl@val,w
  3781  093A  00FA               	movwf	___xxtofl@arg
  3782  093B                     l703:
  3783  093B  0873               	movf	___xxtofl@val+3,w
  3784  093C  0472               	iorwf	___xxtofl@val+2,w
  3785  093D  0471               	iorwf	___xxtofl@val+1,w
  3786  093E  0470               	iorwf	___xxtofl@val,w
  3787  093F  1D03               	skipz
  3788  0940  2942               	goto	u3471
  3789  0941  2943               	goto	u3470
  3790  0942                     u3471:
  3791  0942  294C               	goto	l2404
  3792  0943                     u3470:
  3793  0943                     l2400:
  3794  0943  3000               	movlw	0
  3795  0944  00F3               	movwf	?___xxtofl+3
  3796  0945  3000               	movlw	0
  3797  0946  00F2               	movwf	?___xxtofl+2
  3798  0947  3000               	movlw	0
  3799  0948  00F1               	movwf	?___xxtofl+1
  3800  0949  3000               	movlw	0
  3801  094A  00F0               	movwf	?___xxtofl
  3802  094B  29D2               	goto	l705
  3803  094C                     l2404:
  3804  094C  3096               	movlw	150
  3805  094D  00F4               	movwf	??___xxtofl
  3806  094E  0874               	movf	??___xxtofl,w
  3807  094F  00F9               	movwf	___xxtofl@exp
  3808  0950  295E               	goto	l2408
  3809  0951                     l2406:
  3810  0951  3001               	movlw	1
  3811  0952  00F4               	movwf	??___xxtofl
  3812  0953  0874               	movf	??___xxtofl,w
  3813  0954  07F9               	addwf	___xxtofl@exp,f
  3814  0955  3001               	movlw	1
  3815  0956                     u3485:
  3816  0956  1003               	clrc
  3817  0957  0CFD               	rrf	___xxtofl@arg+3,f
  3818  0958  0CFC               	rrf	___xxtofl@arg+2,f
  3819  0959  0CFB               	rrf	___xxtofl@arg+1,f
  3820  095A  0CFA               	rrf	___xxtofl@arg,f
  3821  095B  3EFF               	addlw	-1
  3822  095C  1D03               	skipz
  3823  095D  2956               	goto	u3485
  3824  095E                     l2408:
  3825  095E  30FE               	movlw	254
  3826  095F  057D               	andwf	___xxtofl@arg+3,w
  3827  0960  1D03               	btfss	3,2
  3828  0961  2963               	goto	u3491
  3829  0962  2964               	goto	u3490
  3830  0963                     u3491:
  3831  0963  2951               	goto	l2406
  3832  0964                     u3490:
  3833  0964  2980               	goto	l709
  3834  0965                     l2410:
  3835  0965  3001               	movlw	1
  3836  0966  00F4               	movwf	??___xxtofl
  3837  0967  0874               	movf	??___xxtofl,w
  3838  0968  07F9               	addwf	___xxtofl@exp,f
  3839  0969                     l2412:
  3840  0969  3001               	movlw	1
  3841  096A  07FA               	addwf	___xxtofl@arg,f
  3842  096B  3000               	movlw	0
  3843  096C  1803               	skipnc
  3844  096D  3001               	movlw	1
  3845  096E  07FB               	addwf	___xxtofl@arg+1,f
  3846  096F  3000               	movlw	0
  3847  0970  1803               	skipnc
  3848  0971  3001               	movlw	1
  3849  0972  07FC               	addwf	___xxtofl@arg+2,f
  3850  0973  3000               	movlw	0
  3851  0974  1803               	skipnc
  3852  0975  3001               	movlw	1
  3853  0976  07FD               	addwf	___xxtofl@arg+3,f
  3854  0977                     l2414:
  3855  0977  3001               	movlw	1
  3856  0978                     u3505:
  3857  0978  1003               	clrc
  3858  0979  0CFD               	rrf	___xxtofl@arg+3,f
  3859  097A  0CFC               	rrf	___xxtofl@arg+2,f
  3860  097B  0CFB               	rrf	___xxtofl@arg+1,f
  3861  097C  0CFA               	rrf	___xxtofl@arg,f
  3862  097D  3EFF               	addlw	-1
  3863  097E  1D03               	skipz
  3864  097F  2978               	goto	u3505
  3865  0980                     l709:
  3866  0980  30FF               	movlw	255
  3867  0981  057D               	andwf	___xxtofl@arg+3,w
  3868  0982  1D03               	btfss	3,2
  3869  0983  2985               	goto	u3511
  3870  0984  2986               	goto	u3510
  3871  0985                     u3511:
  3872  0985  2965               	goto	l2410
  3873  0986                     u3510:
  3874  0986  2992               	goto	l2418
  3875  0987                     l2416:
  3876  0987  3001               	movlw	1
  3877  0988  02F9               	subwf	___xxtofl@exp,f
  3878  0989  3001               	movlw	1
  3879  098A  00F4               	movwf	??___xxtofl
  3880  098B                     u3525:
  3881  098B  1003               	clrc
  3882  098C  0DFA               	rlf	___xxtofl@arg,f
  3883  098D  0DFB               	rlf	___xxtofl@arg+1,f
  3884  098E  0DFC               	rlf	___xxtofl@arg+2,f
  3885  098F  0DFD               	rlf	___xxtofl@arg+3,f
  3886  0990  0BF4               	decfsz	??___xxtofl,f
  3887  0991  298B               	goto	u3525
  3888  0992                     l2418:
  3889  0992  1BFC               	btfsc	___xxtofl@arg+2,7
  3890  0993  2995               	goto	u3531
  3891  0994  2996               	goto	u3530
  3892  0995                     u3531:
  3893  0995  299C               	goto	l716
  3894  0996                     u3530:
  3895  0996                     l2420:
  3896  0996  3002               	movlw	2
  3897  0997  0279               	subwf	___xxtofl@exp,w
  3898  0998  1803               	skipnc
  3899  0999  299B               	goto	u3541
  3900  099A  299C               	goto	u3540
  3901  099B                     u3541:
  3902  099B  2987               	goto	l2416
  3903  099C                     u3540:
  3904  099C                     l716:
  3905  099C  1879               	btfsc	___xxtofl@exp,0
  3906  099D  299F               	goto	u3551
  3907  099E  29A0               	goto	u3550
  3908  099F                     u3551:
  3909  099F  29A8               	goto	l717
  3910  09A0                     u3550:
  3911  09A0                     l2422:
  3912  09A0  30FF               	movlw	255
  3913  09A1  05FA               	andwf	___xxtofl@arg,f
  3914  09A2  30FF               	movlw	255
  3915  09A3  05FB               	andwf	___xxtofl@arg+1,f
  3916  09A4  307F               	movlw	127
  3917  09A5  05FC               	andwf	___xxtofl@arg+2,f
  3918  09A6  30FF               	movlw	255
  3919  09A7  05FD               	andwf	___xxtofl@arg+3,f
  3920  09A8                     l717:
  3921  09A8  1003               	clrc
  3922  09A9  0CF9               	rrf	___xxtofl@exp,f
  3923  09AA                     l2424:
  3924  09AA  0879               	movf	___xxtofl@exp,w
  3925  09AB  00F4               	movwf	??___xxtofl
  3926  09AC  01F5               	clrf	??___xxtofl+1
  3927  09AD  01F6               	clrf	??___xxtofl+2
  3928  09AE  01F7               	clrf	??___xxtofl+3
  3929  09AF  3018               	movlw	24
  3930  09B0                     u3565:
  3931  09B0  1003               	clrc
  3932  09B1  0DF4               	rlf	??___xxtofl,f
  3933  09B2  0DF5               	rlf	??___xxtofl+1,f
  3934  09B3  0DF6               	rlf	??___xxtofl+2,f
  3935  09B4  0DF7               	rlf	??___xxtofl+3,f
  3936  09B5                     u3560:
  3937  09B5  3EFF               	addlw	-1
  3938  09B6  1D03               	skipz
  3939  09B7  29B0               	goto	u3565
  3940  09B8  0874               	movf	??___xxtofl,w
  3941  09B9  04FA               	iorwf	___xxtofl@arg,f
  3942  09BA  0875               	movf	??___xxtofl+1,w
  3943  09BB  04FB               	iorwf	___xxtofl@arg+1,f
  3944  09BC  0876               	movf	??___xxtofl+2,w
  3945  09BD  04FC               	iorwf	___xxtofl@arg+2,f
  3946  09BE  0877               	movf	??___xxtofl+3,w
  3947  09BF  04FD               	iorwf	___xxtofl@arg+3,f
  3948  09C0                     l2426:
  3949  09C0  0878               	movf	___xxtofl@sign,w
  3950  09C1  1903               	btfsc	3,2
  3951  09C2  29C4               	goto	u3571
  3952  09C3  29C5               	goto	u3570
  3953  09C4                     u3571:
  3954  09C4  29CA               	goto	l2432
  3955  09C5                     u3570:
  3956  09C5                     l2428:
  3957  09C5  1FF3               	btfss	___xxtofl@val+3,7
  3958  09C6  29C8               	goto	u3581
  3959  09C7  29C9               	goto	u3580
  3960  09C8                     u3581:
  3961  09C8  29CA               	goto	l2432
  3962  09C9                     u3580:
  3963  09C9                     l2430:
  3964  09C9  17FD               	bsf	___xxtofl@arg+3,7
  3965  09CA                     l2432:
  3966  09CA  087D               	movf	___xxtofl@arg+3,w
  3967  09CB  00F3               	movwf	?___xxtofl+3
  3968  09CC  087C               	movf	___xxtofl@arg+2,w
  3969  09CD  00F2               	movwf	?___xxtofl+2
  3970  09CE  087B               	movf	___xxtofl@arg+1,w
  3971  09CF  00F1               	movwf	?___xxtofl+1
  3972  09D0  087A               	movf	___xxtofl@arg,w
  3973  09D1  00F0               	movwf	?___xxtofl
  3974  09D2                     l705:
  3975  09D2  0008               	return
  3976  09D3                     __end_of___xxtofl:
  3977                           
  3978                           	psect	text13
  3979  1744                     __ptext13:	
  3980 ;; *************** function ___flsub *****************
  3981 ;; Defined at:
  3982 ;;		line 242 in file "C:\Program Files\Microchip\xc8\v2.32\pic\sources\c90\common\sprcadd.c"
  3983 ;; Parameters:    Size  Location     Type
  3984 ;;  a               4   34[BANK0 ] unsigned char 
  3985 ;;  b               4   38[BANK0 ] unsigned char 
  3986 ;; Auto vars:     Size  Location     Type
  3987 ;;		None
  3988 ;; Return value:  Size  Location     Type
  3989 ;;                  4   34[BANK0 ] unsigned char 
  3990 ;; Registers used:
  3991 ;;		wreg, status,2, status,0, btemp+1, pclath, cstack
  3992 ;; Tracked objects:
  3993 ;;		On entry : 0/0
  3994 ;;		On exit  : 0/0
  3995 ;;		Unchanged: 0/0
  3996 ;; Data sizes:     COMMON   BANK0   BANK1   BANK3   BANK2
  3997 ;;      Params:         0       8       0       0       0
  3998 ;;      Locals:         0       0       0       0       0
  3999 ;;      Temps:          0       0       0       0       0
  4000 ;;      Totals:         0       8       0       0       0
  4001 ;;Total ram usage:        8 bytes
  4002 ;; Hardware stack levels used: 1
  4003 ;; Hardware stack levels required when called: 1
  4004 ;; This function calls:
  4005 ;;		___fladd
  4006 ;; This function is called by:
  4007 ;;		_Quadra_Al
  4008 ;; This function uses a non-reentrant model
  4009 ;;
  4010                           
  4011                           
  4012                           ;psect for function ___flsub
  4013  1744                     ___flsub:
  4014  1744                     l2104:	
  4015                           ;incstack = 0
  4016                           ; Regs used in ___flsub: [wreg+status,2+status,0+btemp+1+pclath+cstack]
  4017                           
  4018  1744  3080               	movlw	128
  4019  1745  1283               	bcf	3,5	;RP0=0, select bank0
  4020  1746  1303               	bcf	3,6	;RP1=0, select bank0
  4021  1747  06C5               	xorwf	___flsub@a+3,f
  4022  1748                     l2106:
  4023  1748  0849               	movf	___flsub@b+3,w
  4024  1749  00F3               	movwf	___fladd@b+3
  4025  174A  0848               	movf	___flsub@b+2,w
  4026  174B  00F2               	movwf	___fladd@b+2
  4027  174C  0847               	movf	___flsub@b+1,w
  4028  174D  00F1               	movwf	___fladd@b+1
  4029  174E  0846               	movf	___flsub@b,w
  4030  174F  00F0               	movwf	___fladd@b
  4031  1750  0845               	movf	___flsub@a+3,w
  4032  1751  00F7               	movwf	___fladd@a+3
  4033  1752  0844               	movf	___flsub@a+2,w
  4034  1753  00F6               	movwf	___fladd@a+2
  4035  1754  0843               	movf	___flsub@a+1,w
  4036  1755  00F5               	movwf	___fladd@a+1
  4037  1756  0842               	movf	___flsub@a,w
  4038  1757  00F4               	movwf	___fladd@a
  4039  1758  120A  158A  2568  160A  118A  	fcall	___fladd
  4040  175D  0873               	movf	?___fladd+3,w
  4041  175E  1283               	bcf	3,5	;RP0=0, select bank0
  4042  175F  1303               	bcf	3,6	;RP1=0, select bank0
  4043  1760  00C5               	movwf	?___flsub+3
  4044  1761  0872               	movf	?___fladd+2,w
  4045  1762  00C4               	movwf	?___flsub+2
  4046  1763  0871               	movf	?___fladd+1,w
  4047  1764  00C3               	movwf	?___flsub+1
  4048  1765  0870               	movf	?___fladd,w
  4049  1766  00C2               	movwf	?___flsub
  4050  1767                     l609:
  4051  1767  0008               	return
  4052  1768                     __end_of___flsub:
  4053                           
  4054                           	psect	text14
  4055  0D68                     __ptext14:	
  4056 ;; *************** function ___fladd *****************
  4057 ;; Defined at:
  4058 ;;		line 10 in file "C:\Program Files\Microchip\xc8\v2.32\pic\sources\c90\common\sprcadd.c"
  4059 ;; Parameters:    Size  Location     Type
  4060 ;;  b               4    0[COMMON] unsigned char 
  4061 ;;  a               4    4[COMMON] unsigned char 
  4062 ;; Auto vars:     Size  Location     Type
  4063 ;;  grs             1   11[COMMON] unsigned char 
  4064 ;;  bexp            1   10[COMMON] unsigned char 
  4065 ;;  aexp            1    9[COMMON] unsigned char 
  4066 ;;  signs           1    8[COMMON] unsigned char 
  4067 ;; Return value:  Size  Location     Type
  4068 ;;                  4    0[COMMON] unsigned char 
  4069 ;; Registers used:
  4070 ;;		wreg, status,2, status,0, btemp+1
  4071 ;; Tracked objects:
  4072 ;;		On entry : 0/0
  4073 ;;		On exit  : 0/0
  4074 ;;		Unchanged: 0/0
  4075 ;; Data sizes:     COMMON   BANK0   BANK1   BANK3   BANK2
  4076 ;;      Params:         8       0       0       0       0
  4077 ;;      Locals:         4       0       0       0       0
  4078 ;;      Temps:          0       8       0       0       0
  4079 ;;      Totals:        12       8       0       0       0
  4080 ;;Total ram usage:       20 bytes
  4081 ;; Hardware stack levels used: 1
  4082 ;; This function calls:
  4083 ;;		Nothing
  4084 ;; This function is called by:
  4085 ;;		_Quadra_Al
  4086 ;;		___flsub
  4087 ;; This function uses a non-reentrant model
  4088 ;;
  4089                           
  4090                           
  4091                           ;psect for function ___fladd
  4092  0D68                     ___fladd:
  4093  0D68                     l1776:	
  4094                           ;incstack = 0
  4095                           ; Regs used in ___fladd: [wreg+status,2+status,0+btemp+1]
  4096                           
  4097  0D68  0873               	movf	___fladd@b+3,w
  4098  0D69  3980               	andlw	128
  4099  0D6A  1283               	bcf	3,5	;RP0=0, select bank0
  4100  0D6B  1303               	bcf	3,6	;RP1=0, select bank0
  4101  0D6C  00A0               	movwf	??___fladd
  4102  0D6D  0820               	movf	??___fladd,w
  4103  0D6E  00F8               	movwf	___fladd@signs
  4104  0D6F                     l1778:
  4105  0D6F  0873               	movf	___fladd@b+3,w
  4106  0D70  00A0               	movwf	??___fladd
  4107  0D71  0720               	addwf	??___fladd,w
  4108  0D72  00A1               	movwf	??___fladd+1
  4109  0D73  0821               	movf	??___fladd+1,w
  4110  0D74  00FA               	movwf	___fladd@bexp
  4111  0D75                     l1780:
  4112  0D75  1FF2               	btfss	___fladd@b+2,7
  4113  0D76  2D78               	goto	u2081
  4114  0D77  2D79               	goto	u2080
  4115  0D78                     u2081:
  4116  0D78  2D7A               	goto	l1784
  4117  0D79                     u2080:
  4118  0D79                     l1782:
  4119  0D79  147A               	bsf	___fladd@bexp,0
  4120  0D7A                     l1784:
  4121  0D7A  087A               	movf	___fladd@bexp,w
  4122  0D7B  1903               	btfsc	3,2
  4123  0D7C  2D7E               	goto	u2091
  4124  0D7D  2D7F               	goto	u2090
  4125  0D7E                     u2091:
  4126  0D7E  2D8F               	goto	l1794
  4127  0D7F                     u2090:
  4128  0D7F                     l1786:
  4129  0D7F  0A7A               	incf	___fladd@bexp,w
  4130  0D80  1D03               	btfss	3,2
  4131  0D81  2D83               	goto	u2101
  4132  0D82  2D84               	goto	u2100
  4133  0D83                     u2101:
  4134  0D83  2D8C               	goto	l1790
  4135  0D84                     u2100:
  4136  0D84                     l1788:
  4137  0D84  3000               	movlw	0
  4138  0D85  00F3               	movwf	___fladd@b+3
  4139  0D86  3000               	movlw	0
  4140  0D87  00F2               	movwf	___fladd@b+2
  4141  0D88  3000               	movlw	0
  4142  0D89  00F1               	movwf	___fladd@b+1
  4143  0D8A  3000               	movlw	0
  4144  0D8B  00F0               	movwf	___fladd@b
  4145  0D8C                     l1790:
  4146  0D8C  17F2               	bsf	___fladd@b+2,7
  4147  0D8D                     l1792:
  4148  0D8D  01F3               	clrf	___fladd@b+3
  4149  0D8E  2D97               	goto	l1796
  4150  0D8F                     l1794:
  4151  0D8F  3000               	movlw	0
  4152  0D90  00F3               	movwf	___fladd@b+3
  4153  0D91  3000               	movlw	0
  4154  0D92  00F2               	movwf	___fladd@b+2
  4155  0D93  3000               	movlw	0
  4156  0D94  00F1               	movwf	___fladd@b+1
  4157  0D95  3000               	movlw	0
  4158  0D96  00F0               	movwf	___fladd@b
  4159  0D97                     l1796:
  4160  0D97  0877               	movf	___fladd@a+3,w
  4161  0D98  3980               	andlw	128
  4162  0D99  00A0               	movwf	??___fladd
  4163  0D9A  0820               	movf	??___fladd,w
  4164  0D9B  00F9               	movwf	___fladd@aexp
  4165  0D9C                     l1798:
  4166  0D9C  0879               	movf	___fladd@aexp,w
  4167  0D9D  0678               	xorwf	___fladd@signs,w
  4168  0D9E  1903               	skipnz
  4169  0D9F  2DA1               	goto	u2111
  4170  0DA0  2DA2               	goto	u2110
  4171  0DA1                     u2111:
  4172  0DA1  2DA3               	goto	l1802
  4173  0DA2                     u2110:
  4174  0DA2                     l1800:
  4175  0DA2  1778               	bsf	___fladd@signs,6
  4176  0DA3                     l1802:
  4177  0DA3  0877               	movf	___fladd@a+3,w
  4178  0DA4  00A0               	movwf	??___fladd
  4179  0DA5  0720               	addwf	??___fladd,w
  4180  0DA6  00A1               	movwf	??___fladd+1
  4181  0DA7  0821               	movf	??___fladd+1,w
  4182  0DA8  00F9               	movwf	___fladd@aexp
  4183  0DA9                     l1804:
  4184  0DA9  1FF6               	btfss	___fladd@a+2,7
  4185  0DAA  2DAC               	goto	u2121
  4186  0DAB  2DAD               	goto	u2120
  4187  0DAC                     u2121:
  4188  0DAC  2DAE               	goto	l1808
  4189  0DAD                     u2120:
  4190  0DAD                     l1806:
  4191  0DAD  1479               	bsf	___fladd@aexp,0
  4192  0DAE                     l1808:
  4193  0DAE  0879               	movf	___fladd@aexp,w
  4194  0DAF  1903               	btfsc	3,2
  4195  0DB0  2DB2               	goto	u2131
  4196  0DB1  2DB3               	goto	u2130
  4197  0DB2                     u2131:
  4198  0DB2  2DC3               	goto	l1818
  4199  0DB3                     u2130:
  4200  0DB3                     l1810:
  4201  0DB3  0A79               	incf	___fladd@aexp,w
  4202  0DB4  1D03               	btfss	3,2
  4203  0DB5  2DB7               	goto	u2141
  4204  0DB6  2DB8               	goto	u2140
  4205  0DB7                     u2141:
  4206  0DB7  2DC0               	goto	l1814
  4207  0DB8                     u2140:
  4208  0DB8                     l1812:
  4209  0DB8  3000               	movlw	0
  4210  0DB9  00F7               	movwf	___fladd@a+3
  4211  0DBA  3000               	movlw	0
  4212  0DBB  00F6               	movwf	___fladd@a+2
  4213  0DBC  3000               	movlw	0
  4214  0DBD  00F5               	movwf	___fladd@a+1
  4215  0DBE  3000               	movlw	0
  4216  0DBF  00F4               	movwf	___fladd@a
  4217  0DC0                     l1814:
  4218  0DC0  17F6               	bsf	___fladd@a+2,7
  4219  0DC1                     l1816:
  4220  0DC1  01F7               	clrf	___fladd@a+3
  4221  0DC2  2DCB               	goto	l563
  4222  0DC3                     l1818:
  4223  0DC3  3000               	movlw	0
  4224  0DC4  00F7               	movwf	___fladd@a+3
  4225  0DC5  3000               	movlw	0
  4226  0DC6  00F6               	movwf	___fladd@a+2
  4227  0DC7  3000               	movlw	0
  4228  0DC8  00F5               	movwf	___fladd@a+1
  4229  0DC9  3000               	movlw	0
  4230  0DCA  00F4               	movwf	___fladd@a
  4231  0DCB                     l563:
  4232  0DCB  087A               	movf	___fladd@bexp,w
  4233  0DCC  0279               	subwf	___fladd@aexp,w
  4234  0DCD  1803               	skipnc
  4235  0DCE  2DD0               	goto	u2151
  4236  0DCF  2DD1               	goto	u2150
  4237  0DD0                     u2151:
  4238  0DD0  2E15               	goto	l1854
  4239  0DD1                     u2150:
  4240  0DD1                     l1820:
  4241  0DD1  1F78               	btfss	___fladd@signs,6
  4242  0DD2  2DD4               	goto	u2161
  4243  0DD3  2DD5               	goto	u2160
  4244  0DD4                     u2161:
  4245  0DD4  2DD9               	goto	l1824
  4246  0DD5                     u2160:
  4247  0DD5                     l1822:
  4248  0DD5  3080               	movlw	128
  4249  0DD6  00A0               	movwf	??___fladd
  4250  0DD7  0820               	movf	??___fladd,w
  4251  0DD8  06F8               	xorwf	___fladd@signs,f
  4252  0DD9                     l1824:
  4253  0DD9  087A               	movf	___fladd@bexp,w
  4254  0DDA  00A0               	movwf	??___fladd
  4255  0DDB  0820               	movf	??___fladd,w
  4256  0DDC  00FB               	movwf	___fladd@grs
  4257  0DDD                     l1826:
  4258  0DDD  0879               	movf	___fladd@aexp,w
  4259  0DDE  00A0               	movwf	??___fladd
  4260  0DDF  0820               	movf	??___fladd,w
  4261  0DE0  00FA               	movwf	___fladd@bexp
  4262  0DE1                     l1828:
  4263  0DE1  087B               	movf	___fladd@grs,w
  4264  0DE2  00A0               	movwf	??___fladd
  4265  0DE3  0820               	movf	??___fladd,w
  4266  0DE4  00F9               	movwf	___fladd@aexp
  4267  0DE5                     l1830:
  4268  0DE5  0870               	movf	___fladd@b,w
  4269  0DE6  00A0               	movwf	??___fladd
  4270  0DE7  0820               	movf	??___fladd,w
  4271  0DE8  00FB               	movwf	___fladd@grs
  4272  0DE9                     l1832:
  4273  0DE9  0874               	movf	___fladd@a,w
  4274  0DEA  00A0               	movwf	??___fladd
  4275  0DEB  0820               	movf	??___fladd,w
  4276  0DEC  00F0               	movwf	___fladd@b
  4277  0DED                     l1834:
  4278  0DED  087B               	movf	___fladd@grs,w
  4279  0DEE  00A0               	movwf	??___fladd
  4280  0DEF  0820               	movf	??___fladd,w
  4281  0DF0  00F4               	movwf	___fladd@a
  4282  0DF1                     l1836:
  4283  0DF1  0871               	movf	___fladd@b+1,w
  4284  0DF2  00A0               	movwf	??___fladd
  4285  0DF3  0820               	movf	??___fladd,w
  4286  0DF4  00FB               	movwf	___fladd@grs
  4287  0DF5                     l1838:
  4288  0DF5  0875               	movf	___fladd@a+1,w
  4289  0DF6  00A0               	movwf	??___fladd
  4290  0DF7  0820               	movf	??___fladd,w
  4291  0DF8  00F1               	movwf	___fladd@b+1
  4292  0DF9                     l1840:
  4293  0DF9  087B               	movf	___fladd@grs,w
  4294  0DFA  00A0               	movwf	??___fladd
  4295  0DFB  0820               	movf	??___fladd,w
  4296  0DFC  00F5               	movwf	___fladd@a+1
  4297  0DFD                     l1842:
  4298  0DFD  0872               	movf	___fladd@b+2,w
  4299  0DFE  00A0               	movwf	??___fladd
  4300  0DFF  0820               	movf	??___fladd,w
  4301  0E00  00FB               	movwf	___fladd@grs
  4302  0E01                     l1844:
  4303  0E01  0876               	movf	___fladd@a+2,w
  4304  0E02  00A0               	movwf	??___fladd
  4305  0E03  0820               	movf	??___fladd,w
  4306  0E04  00F2               	movwf	___fladd@b+2
  4307  0E05                     l1846:
  4308  0E05  087B               	movf	___fladd@grs,w
  4309  0E06  00A0               	movwf	??___fladd
  4310  0E07  0820               	movf	??___fladd,w
  4311  0E08  00F6               	movwf	___fladd@a+2
  4312  0E09                     l1848:
  4313  0E09  0873               	movf	___fladd@b+3,w
  4314  0E0A  00A0               	movwf	??___fladd
  4315  0E0B  0820               	movf	??___fladd,w
  4316  0E0C  00FB               	movwf	___fladd@grs
  4317  0E0D                     l1850:
  4318  0E0D  0877               	movf	___fladd@a+3,w
  4319  0E0E  00A0               	movwf	??___fladd
  4320  0E0F  0820               	movf	??___fladd,w
  4321  0E10  00F3               	movwf	___fladd@b+3
  4322  0E11                     l1852:
  4323  0E11  087B               	movf	___fladd@grs,w
  4324  0E12  00A0               	movwf	??___fladd
  4325  0E13  0820               	movf	??___fladd,w
  4326  0E14  00F7               	movwf	___fladd@a+3
  4327  0E15                     l1854:
  4328  0E15  01FB               	clrf	___fladd@grs
  4329  0E16                     l1856:
  4330  0E16  0879               	movf	___fladd@aexp,w
  4331  0E17  00A0               	movwf	??___fladd
  4332  0E18  01A1               	clrf	??___fladd+1
  4333  0E19  0821               	movf	??___fladd+1,w
  4334  0E1A  00A3               	movwf	??___fladd+3
  4335  0E1B  087A               	movf	___fladd@bexp,w
  4336  0E1C  0220               	subwf	??___fladd,w
  4337  0E1D  00A2               	movwf	??___fladd+2
  4338  0E1E  1C03               	skipc
  4339  0E1F  03A3               	decf	??___fladd+3,f
  4340  0E20  0823               	movf	??___fladd+3,w
  4341  0E21  3A80               	xorlw	128
  4342  0E22  00FF               	movwf	btemp+1
  4343  0E23  3080               	movlw	128
  4344  0E24  027F               	subwf	btemp+1,w
  4345  0E25  1D03               	skipz
  4346  0E26  2E29               	goto	u2175
  4347  0E27  301A               	movlw	26
  4348  0E28  0222               	subwf	??___fladd+2,w
  4349  0E29                     u2175:
  4350  0E29  1C03               	skipc
  4351  0E2A  2E2C               	goto	u2171
  4352  0E2B  2E2D               	goto	u2170
  4353  0E2C                     u2171:
  4354  0E2C  2E6E               	goto	l1872
  4355  0E2D                     u2170:
  4356  0E2D                     l1858:
  4357  0E2D  0873               	movf	___fladd@b+3,w
  4358  0E2E  0472               	iorwf	___fladd@b+2,w
  4359  0E2F  0471               	iorwf	___fladd@b+1,w
  4360  0E30  0470               	iorwf	___fladd@b,w
  4361  0E31  1D03               	skipz
  4362  0E32  2E34               	goto	u2181
  4363  0E33  2E36               	goto	u2180
  4364  0E34                     u2181:
  4365  0E34  3001               	movlw	1
  4366  0E35  2E37               	goto	u2190
  4367  0E36                     u2180:
  4368  0E36  3000               	movlw	0
  4369  0E37                     u2190:
  4370  0E37  1283               	bcf	3,5	;RP0=0, select bank0
  4371  0E38  1303               	bcf	3,6	;RP1=0, select bank0
  4372  0E39  00A0               	movwf	??___fladd
  4373  0E3A  0820               	movf	??___fladd,w
  4374  0E3B  00FB               	movwf	___fladd@grs
  4375  0E3C  3000               	movlw	0
  4376  0E3D  00F3               	movwf	___fladd@b+3
  4377  0E3E  3000               	movlw	0
  4378  0E3F  00F2               	movwf	___fladd@b+2
  4379  0E40  3000               	movlw	0
  4380  0E41  00F1               	movwf	___fladd@b+1
  4381  0E42  3000               	movlw	0
  4382  0E43  00F0               	movwf	___fladd@b
  4383  0E44  0879               	movf	___fladd@aexp,w
  4384  0E45  00A0               	movwf	??___fladd
  4385  0E46  0820               	movf	??___fladd,w
  4386  0E47  00FA               	movwf	___fladd@bexp
  4387  0E48  2E74               	goto	l567
  4388  0E49                     l569:
  4389  0E49  1C7B               	btfss	___fladd@grs,0
  4390  0E4A  2E4C               	goto	u2201
  4391  0E4B  2E4D               	goto	u2200
  4392  0E4C                     u2201:
  4393  0E4C  2E58               	goto	l1862
  4394  0E4D                     u2200:
  4395  0E4D                     l1860:
  4396  0E4D  087B               	movf	___fladd@grs,w
  4397  0E4E  1283               	bcf	3,5	;RP0=0, select bank0
  4398  0E4F  1303               	bcf	3,6	;RP1=0, select bank0
  4399  0E50  00A0               	movwf	??___fladd
  4400  0E51  1003               	clrc
  4401  0E52  0C20               	rrf	??___fladd,w
  4402  0E53  3801               	iorlw	1
  4403  0E54  00A1               	movwf	??___fladd+1
  4404  0E55  0821               	movf	??___fladd+1,w
  4405  0E56  00FB               	movwf	___fladd@grs
  4406  0E57  2E5A               	goto	l1864
  4407  0E58                     l1862:
  4408  0E58  1003               	clrc
  4409  0E59  0CFB               	rrf	___fladd@grs,f
  4410  0E5A                     l1864:
  4411  0E5A  1C70               	btfss	___fladd@b,0
  4412  0E5B  2E5D               	goto	u2211
  4413  0E5C  2E5E               	goto	u2210
  4414  0E5D                     u2211:
  4415  0E5D  2E5F               	goto	l1868
  4416  0E5E                     u2210:
  4417  0E5E                     l1866:
  4418  0E5E  17FB               	bsf	___fladd@grs,7
  4419  0E5F                     l1868:
  4420  0E5F  3001               	movlw	1
  4421  0E60  1283               	bcf	3,5	;RP0=0, select bank0
  4422  0E61  1303               	bcf	3,6	;RP1=0, select bank0
  4423  0E62  00A0               	movwf	??___fladd
  4424  0E63                     u2225:
  4425  0E63  0D73               	rlf	___fladd@b+3,w
  4426  0E64  0CF3               	rrf	___fladd@b+3,f
  4427  0E65  0CF2               	rrf	___fladd@b+2,f
  4428  0E66  0CF1               	rrf	___fladd@b+1,f
  4429  0E67  0CF0               	rrf	___fladd@b,f
  4430  0E68  0BA0               	decfsz	??___fladd& (0+127),f
  4431  0E69  2E63               	goto	u2225
  4432  0E6A                     l1870:
  4433  0E6A  3001               	movlw	1
  4434  0E6B  00A0               	movwf	??___fladd
  4435  0E6C  0820               	movf	??___fladd,w
  4436  0E6D  07FA               	addwf	___fladd@bexp,f
  4437  0E6E                     l1872:
  4438  0E6E  0879               	movf	___fladd@aexp,w
  4439  0E6F  027A               	subwf	___fladd@bexp,w
  4440  0E70  1C03               	skipc
  4441  0E71  2E73               	goto	u2231
  4442  0E72  2E74               	goto	u2230
  4443  0E73                     u2231:
  4444  0E73  2E49               	goto	l569
  4445  0E74                     u2230:
  4446  0E74                     l567:
  4447  0E74  1B78               	btfsc	___fladd@signs,6
  4448  0E75  2E77               	goto	u2241
  4449  0E76  2E78               	goto	u2240
  4450  0E77                     u2241:
  4451  0E77  2EC7               	goto	l1898
  4452  0E78                     u2240:
  4453  0E78                     l1874:
  4454  0E78  087A               	movf	___fladd@bexp,w
  4455  0E79  1D03               	btfss	3,2
  4456  0E7A  2E7C               	goto	u2251
  4457  0E7B  2E7D               	goto	u2250
  4458  0E7C                     u2251:
  4459  0E7C  2E86               	goto	l1880
  4460  0E7D                     u2250:
  4461  0E7D                     l1876:
  4462  0E7D  3000               	movlw	0
  4463  0E7E  00F3               	movwf	?___fladd+3
  4464  0E7F  3000               	movlw	0
  4465  0E80  00F2               	movwf	?___fladd+2
  4466  0E81  3000               	movlw	0
  4467  0E82  00F1               	movwf	?___fladd+1
  4468  0E83  3000               	movlw	0
  4469  0E84  00F0               	movwf	?___fladd
  4470  0E85  2FFF               	goto	l576
  4471  0E86                     l1880:
  4472  0E86  0874               	movf	___fladd@a,w
  4473  0E87  07F0               	addwf	___fladd@b,f
  4474  0E88  0875               	movf	___fladd@a+1,w
  4475  0E89  1103               	clrz
  4476  0E8A  1803               	skipnc
  4477  0E8B  3E01               	addlw	1
  4478  0E8C  1903               	skipnz
  4479  0E8D  2E8F               	goto	u2261
  4480  0E8E  07F1               	addwf	___fladd@b+1,f
  4481  0E8F                     u2261:
  4482  0E8F  0876               	movf	___fladd@a+2,w
  4483  0E90  1103               	clrz
  4484  0E91  1803               	skipnc
  4485  0E92  3E01               	addlw	1
  4486  0E93  1903               	skipnz
  4487  0E94  2E96               	goto	u2262
  4488  0E95  07F2               	addwf	___fladd@b+2,f
  4489  0E96                     u2262:
  4490  0E96  0877               	movf	___fladd@a+3,w
  4491  0E97  1103               	clrz
  4492  0E98  1803               	skipnc
  4493  0E99  3E01               	addlw	1
  4494  0E9A  1903               	skipnz
  4495  0E9B  2E9D               	goto	u2263
  4496  0E9C  07F3               	addwf	___fladd@b+3,f
  4497  0E9D                     u2263:
  4498  0E9D                     l1882:
  4499  0E9D  1C73               	btfss	___fladd@b+3,0
  4500  0E9E  2EA0               	goto	u2271
  4501  0E9F  2EA1               	goto	u2270
  4502  0EA0                     u2271:
  4503  0EA0  2F7F               	goto	l1932
  4504  0EA1                     u2270:
  4505  0EA1                     l1884:
  4506  0EA1  1C7B               	btfss	___fladd@grs,0
  4507  0EA2  2EA4               	goto	u2281
  4508  0EA3  2EA5               	goto	u2280
  4509  0EA4                     u2281:
  4510  0EA4  2EB0               	goto	l1888
  4511  0EA5                     u2280:
  4512  0EA5                     l1886:
  4513  0EA5  087B               	movf	___fladd@grs,w
  4514  0EA6  1283               	bcf	3,5	;RP0=0, select bank0
  4515  0EA7  1303               	bcf	3,6	;RP1=0, select bank0
  4516  0EA8  00A0               	movwf	??___fladd
  4517  0EA9  1003               	clrc
  4518  0EAA  0C20               	rrf	??___fladd,w
  4519  0EAB  3801               	iorlw	1
  4520  0EAC  00A1               	movwf	??___fladd+1
  4521  0EAD  0821               	movf	??___fladd+1,w
  4522  0EAE  00FB               	movwf	___fladd@grs
  4523  0EAF  2EB2               	goto	l1890
  4524  0EB0                     l1888:
  4525  0EB0  1003               	clrc
  4526  0EB1  0CFB               	rrf	___fladd@grs,f
  4527  0EB2                     l1890:
  4528  0EB2  1C70               	btfss	___fladd@b,0
  4529  0EB3  2EB5               	goto	u2291
  4530  0EB4  2EB6               	goto	u2290
  4531  0EB5                     u2291:
  4532  0EB5  2EB7               	goto	l1894
  4533  0EB6                     u2290:
  4534  0EB6                     l1892:
  4535  0EB6  17FB               	bsf	___fladd@grs,7
  4536  0EB7                     l1894:
  4537  0EB7  3001               	movlw	1
  4538  0EB8  1283               	bcf	3,5	;RP0=0, select bank0
  4539  0EB9  1303               	bcf	3,6	;RP1=0, select bank0
  4540  0EBA  00A0               	movwf	??___fladd
  4541  0EBB                     u2305:
  4542  0EBB  0D73               	rlf	___fladd@b+3,w
  4543  0EBC  0CF3               	rrf	___fladd@b+3,f
  4544  0EBD  0CF2               	rrf	___fladd@b+2,f
  4545  0EBE  0CF1               	rrf	___fladd@b+1,f
  4546  0EBF  0CF0               	rrf	___fladd@b,f
  4547  0EC0  0BA0               	decfsz	??___fladd& (0+127),f
  4548  0EC1  2EBB               	goto	u2305
  4549  0EC2                     l1896:
  4550  0EC2  3001               	movlw	1
  4551  0EC3  00A0               	movwf	??___fladd
  4552  0EC4  0820               	movf	??___fladd,w
  4553  0EC5  07FA               	addwf	___fladd@bexp,f
  4554  0EC6  2F7F               	goto	l1932
  4555  0EC7                     l1898:
  4556  0EC7  0873               	movf	___fladd@b+3,w
  4557  0EC8  3A80               	xorlw	128
  4558  0EC9  00FF               	movwf	btemp+1
  4559  0ECA  0877               	movf	___fladd@a+3,w
  4560  0ECB  3A80               	xorlw	128
  4561  0ECC  027F               	subwf	btemp+1,w
  4562  0ECD  1D03               	skipz
  4563  0ECE  2ED9               	goto	u2313
  4564  0ECF  0876               	movf	___fladd@a+2,w
  4565  0ED0  0272               	subwf	___fladd@b+2,w
  4566  0ED1  1D03               	skipz
  4567  0ED2  2ED9               	goto	u2313
  4568  0ED3  0875               	movf	___fladd@a+1,w
  4569  0ED4  0271               	subwf	___fladd@b+1,w
  4570  0ED5  1D03               	skipz
  4571  0ED6  2ED9               	goto	u2313
  4572  0ED7  0874               	movf	___fladd@a,w
  4573  0ED8  0270               	subwf	___fladd@b,w
  4574  0ED9                     u2313:
  4575  0ED9  1803               	skipnc
  4576  0EDA  2EDC               	goto	u2311
  4577  0EDB  2EDD               	goto	u2310
  4578  0EDC                     u2311:
  4579  0EDC  2F37               	goto	l1908
  4580  0EDD                     u2310:
  4581  0EDD                     l1900:
  4582  0EDD  30FF               	movlw	255
  4583  0EDE  1283               	bcf	3,5	;RP0=0, select bank0
  4584  0EDF  1303               	bcf	3,6	;RP1=0, select bank0
  4585  0EE0  00A0               	movwf	??___fladd
  4586  0EE1  30FF               	movlw	255
  4587  0EE2  00A1               	movwf	??___fladd+1
  4588  0EE3  30FF               	movlw	255
  4589  0EE4  00A2               	movwf	??___fladd+2
  4590  0EE5  30FF               	movlw	255
  4591  0EE6  00A3               	movwf	??___fladd+3
  4592  0EE7  0874               	movf	___fladd@a,w
  4593  0EE8  00A4               	movwf	??___fladd+4
  4594  0EE9  0875               	movf	___fladd@a+1,w
  4595  0EEA  00A5               	movwf	??___fladd+5
  4596  0EEB  0876               	movf	___fladd@a+2,w
  4597  0EEC  00A6               	movwf	??___fladd+6
  4598  0EED  0877               	movf	___fladd@a+3,w
  4599  0EEE  00A7               	movwf	??___fladd+7
  4600  0EEF  0870               	movf	___fladd@b,w
  4601  0EF0  02A4               	subwf	??___fladd+4,f
  4602  0EF1  0871               	movf	___fladd@b+1,w
  4603  0EF2  1C03               	skipc
  4604  0EF3  0F71               	incfsz	___fladd@b+1,w
  4605  0EF4  2EF6               	goto	u2321
  4606  0EF5  2EF7               	goto	u2322
  4607  0EF6                     u2321:
  4608  0EF6  02A5               	subwf	??___fladd+5,f
  4609  0EF7                     u2322:
  4610  0EF7  0872               	movf	___fladd@b+2,w
  4611  0EF8  1C03               	skipc
  4612  0EF9  0F72               	incfsz	___fladd@b+2,w
  4613  0EFA  2EFC               	goto	u2323
  4614  0EFB  2EFD               	goto	u2324
  4615  0EFC                     u2323:
  4616  0EFC  02A6               	subwf	??___fladd+6,f
  4617  0EFD                     u2324:
  4618  0EFD  0873               	movf	___fladd@b+3,w
  4619  0EFE  1C03               	skipc
  4620  0EFF  0F73               	incfsz	___fladd@b+3,w
  4621  0F00  2F02               	goto	u2325
  4622  0F01  2F03               	goto	u2326
  4623  0F02                     u2325:
  4624  0F02  02A7               	subwf	??___fladd+7,f
  4625  0F03                     u2326:
  4626  0F03  0824               	movf	??___fladd+4,w
  4627  0F04  07A0               	addwf	??___fladd,f
  4628  0F05  0825               	movf	??___fladd+5,w
  4629  0F06  1803               	skipnc
  4630  0F07  0F25               	incfsz	??___fladd+5,w
  4631  0F08  2F0A               	goto	u2330
  4632  0F09  2F0B               	goto	u2331
  4633  0F0A                     u2330:
  4634  0F0A  07A1               	addwf	??___fladd+1,f
  4635  0F0B                     u2331:
  4636  0F0B  0826               	movf	??___fladd+6,w
  4637  0F0C  1803               	skipnc
  4638  0F0D  0F26               	incfsz	??___fladd+6,w
  4639  0F0E  2F10               	goto	u2332
  4640  0F0F  2F11               	goto	u2333
  4641  0F10                     u2332:
  4642  0F10  07A2               	addwf	??___fladd+2,f
  4643  0F11                     u2333:
  4644  0F11  0827               	movf	??___fladd+7,w
  4645  0F12  1803               	skipnc
  4646  0F13  0A27               	incf	??___fladd+7,w
  4647  0F14  07A3               	addwf	??___fladd+3,f
  4648  0F15  0823               	movf	??___fladd+3,w
  4649  0F16  00F3               	movwf	___fladd@b+3
  4650  0F17  0822               	movf	??___fladd+2,w
  4651  0F18  00F2               	movwf	___fladd@b+2
  4652  0F19  0821               	movf	??___fladd+1,w
  4653  0F1A  00F1               	movwf	___fladd@b+1
  4654  0F1B  0820               	movf	??___fladd,w
  4655  0F1C  00F0               	movwf	___fladd@b
  4656  0F1D                     l1902:
  4657  0F1D  3080               	movlw	128
  4658  0F1E  00A0               	movwf	??___fladd
  4659  0F1F  0820               	movf	??___fladd,w
  4660  0F20  06F8               	xorwf	___fladd@signs,f
  4661  0F21  09FB               	comf	___fladd@grs,f
  4662  0F22  0AFB               	incf	___fladd@grs,f
  4663  0F23                     l1904:
  4664  0F23  087B               	movf	___fladd@grs,w
  4665  0F24  1D03               	btfss	3,2
  4666  0F25  2F27               	goto	u2341
  4667  0F26  2F28               	goto	u2340
  4668  0F27                     u2341:
  4669  0F27  2F45               	goto	l584
  4670  0F28                     u2340:
  4671  0F28                     l1906:
  4672  0F28  3001               	movlw	1
  4673  0F29  07F0               	addwf	___fladd@b,f
  4674  0F2A  3000               	movlw	0
  4675  0F2B  1803               	skipnc
  4676  0F2C  3001               	movlw	1
  4677  0F2D  07F1               	addwf	___fladd@b+1,f
  4678  0F2E  3000               	movlw	0
  4679  0F2F  1803               	skipnc
  4680  0F30  3001               	movlw	1
  4681  0F31  07F2               	addwf	___fladd@b+2,f
  4682  0F32  3000               	movlw	0
  4683  0F33  1803               	skipnc
  4684  0F34  3001               	movlw	1
  4685  0F35  07F3               	addwf	___fladd@b+3,f
  4686  0F36  2F45               	goto	l584
  4687  0F37                     l1908:
  4688  0F37  0874               	movf	___fladd@a,w
  4689  0F38  02F0               	subwf	___fladd@b,f
  4690  0F39  0875               	movf	___fladd@a+1,w
  4691  0F3A  1C03               	skipc
  4692  0F3B  0F75               	incfsz	___fladd@a+1,w
  4693  0F3C  02F1               	subwf	___fladd@b+1,f
  4694  0F3D  0876               	movf	___fladd@a+2,w
  4695  0F3E  1C03               	skipc
  4696  0F3F  0F76               	incfsz	___fladd@a+2,w
  4697  0F40  02F2               	subwf	___fladd@b+2,f
  4698  0F41  0877               	movf	___fladd@a+3,w
  4699  0F42  1C03               	skipc
  4700  0F43  0F77               	incfsz	___fladd@a+3,w
  4701  0F44  02F3               	subwf	___fladd@b+3,f
  4702  0F45                     l584:
  4703  0F45  0873               	movf	___fladd@b+3,w
  4704  0F46  0472               	iorwf	___fladd@b+2,w
  4705  0F47  0471               	iorwf	___fladd@b+1,w
  4706  0F48  0470               	iorwf	___fladd@b,w
  4707  0F49  1D03               	skipz
  4708  0F4A  2F4C               	goto	u2351
  4709  0F4B  2F4D               	goto	u2350
  4710  0F4C                     u2351:
  4711  0F4C  2F7B               	goto	l1930
  4712  0F4D                     u2350:
  4713  0F4D                     l1910:
  4714  0F4D  087B               	movf	___fladd@grs,w
  4715  0F4E  1D03               	btfss	3,2
  4716  0F4F  2F51               	goto	u2361
  4717  0F50  2F52               	goto	u2360
  4718  0F51                     u2361:
  4719  0F51  2F7B               	goto	l1930
  4720  0F52                     u2360:
  4721  0F52                     l1912:
  4722  0F52  3000               	movlw	0
  4723  0F53  00F3               	movwf	?___fladd+3
  4724  0F54  3000               	movlw	0
  4725  0F55  00F2               	movwf	?___fladd+2
  4726  0F56  3000               	movlw	0
  4727  0F57  00F1               	movwf	?___fladd+1
  4728  0F58  3000               	movlw	0
  4729  0F59  00F0               	movwf	?___fladd
  4730  0F5A  2FFF               	goto	l576
  4731  0F5B                     l1916:
  4732  0F5B  3001               	movlw	1
  4733  0F5C  1283               	bcf	3,5	;RP0=0, select bank0
  4734  0F5D  1303               	bcf	3,6	;RP1=0, select bank0
  4735  0F5E  00A0               	movwf	??___fladd
  4736  0F5F                     u2375:
  4737  0F5F  1003               	clrc
  4738  0F60  0DF0               	rlf	___fladd@b,f
  4739  0F61  0DF1               	rlf	___fladd@b+1,f
  4740  0F62  0DF2               	rlf	___fladd@b+2,f
  4741  0F63  0DF3               	rlf	___fladd@b+3,f
  4742  0F64  0BA0               	decfsz	??___fladd,f
  4743  0F65  2F5F               	goto	u2375
  4744  0F66                     l1918:
  4745  0F66  1FFB               	btfss	___fladd@grs,7
  4746  0F67  2F69               	goto	u2381
  4747  0F68  2F6A               	goto	u2380
  4748  0F69                     u2381:
  4749  0F69  2F6B               	goto	l588
  4750  0F6A                     u2380:
  4751  0F6A                     l1920:
  4752  0F6A  1470               	bsf	___fladd@b,0
  4753  0F6B                     l588:
  4754  0F6B  1C7B               	btfss	___fladd@grs,0
  4755  0F6C  2F6E               	goto	u2391
  4756  0F6D  2F6F               	goto	u2390
  4757  0F6E                     u2391:
  4758  0F6E  2F72               	goto	l1924
  4759  0F6F                     u2390:
  4760  0F6F                     l1922:
  4761  0F6F  1403               	setc
  4762  0F70  0DFB               	rlf	___fladd@grs,f
  4763  0F71  2F74               	goto	l1926
  4764  0F72                     l1924:
  4765  0F72  1003               	clrc
  4766  0F73  0DFB               	rlf	___fladd@grs,f
  4767  0F74                     l1926:
  4768  0F74  087A               	movf	___fladd@bexp,w
  4769  0F75  1903               	btfsc	3,2
  4770  0F76  2F78               	goto	u2401
  4771  0F77  2F79               	goto	u2400
  4772  0F78                     u2401:
  4773  0F78  2F7B               	goto	l1930
  4774  0F79                     u2400:
  4775  0F79                     l1928:
  4776  0F79  3001               	movlw	1
  4777  0F7A  02FA               	subwf	___fladd@bexp,f
  4778  0F7B                     l1930:
  4779  0F7B  1FF2               	btfss	___fladd@b+2,7
  4780  0F7C  2F7E               	goto	u2411
  4781  0F7D  2F7F               	goto	u2410
  4782  0F7E                     u2411:
  4783  0F7E  2F5B               	goto	l1916
  4784  0F7F                     u2410:
  4785  0F7F                     l1932:
  4786  0F7F  01F9               	clrf	___fladd@aexp
  4787  0F80                     l1934:
  4788  0F80  1FFB               	btfss	___fladd@grs,7
  4789  0F81  2F83               	goto	u2421
  4790  0F82  2F84               	goto	u2420
  4791  0F83                     u2421:
  4792  0F83  2F92               	goto	l1942
  4793  0F84                     u2420:
  4794  0F84                     l1936:
  4795  0F84  087B               	movf	___fladd@grs,w
  4796  0F85  397F               	andlw	127
  4797  0F86  1903               	btfsc	3,2
  4798  0F87  2F89               	goto	u2431
  4799  0F88  2F8A               	goto	u2430
  4800  0F89                     u2431:
  4801  0F89  2F8D               	goto	l594
  4802  0F8A                     u2430:
  4803  0F8A                     l1938:
  4804  0F8A  01F9               	clrf	___fladd@aexp
  4805  0F8B  0AF9               	incf	___fladd@aexp,f
  4806  0F8C  2F92               	goto	l1942
  4807  0F8D                     l594:
  4808  0F8D  1C70               	btfss	___fladd@b,0
  4809  0F8E  2F90               	goto	u2441
  4810  0F8F  2F91               	goto	u2440
  4811  0F90                     u2441:
  4812  0F90  2F92               	goto	l1942
  4813  0F91                     u2440:
  4814  0F91  2F8A               	goto	l1938
  4815  0F92                     l1942:
  4816  0F92  0879               	movf	___fladd@aexp,w
  4817  0F93  1903               	btfsc	3,2
  4818  0F94  2F96               	goto	u2451
  4819  0F95  2F97               	goto	u2450
  4820  0F96                     u2451:
  4821  0F96  2FCD               	goto	l597
  4822  0F97                     u2450:
  4823  0F97                     l1944:
  4824  0F97  3001               	movlw	1
  4825  0F98  07F0               	addwf	___fladd@b,f
  4826  0F99  3000               	movlw	0
  4827  0F9A  1803               	skipnc
  4828  0F9B  3001               	movlw	1
  4829  0F9C  07F1               	addwf	___fladd@b+1,f
  4830  0F9D  3000               	movlw	0
  4831  0F9E  1803               	skipnc
  4832  0F9F  3001               	movlw	1
  4833  0FA0  07F2               	addwf	___fladd@b+2,f
  4834  0FA1  3000               	movlw	0
  4835  0FA2  1803               	skipnc
  4836  0FA3  3001               	movlw	1
  4837  0FA4  07F3               	addwf	___fladd@b+3,f
  4838  0FA5                     l1946:
  4839  0FA5  1C73               	btfss	___fladd@b+3,0
  4840  0FA6  2FA8               	goto	u2461
  4841  0FA7  2FA9               	goto	u2460
  4842  0FA8                     u2461:
  4843  0FA8  2FCD               	goto	l597
  4844  0FA9                     u2460:
  4845  0FA9                     l1948:
  4846  0FA9  0870               	movf	___fladd@b,w
  4847  0FAA  1283               	bcf	3,5	;RP0=0, select bank0
  4848  0FAB  1303               	bcf	3,6	;RP1=0, select bank0
  4849  0FAC  00A0               	movwf	??___fladd
  4850  0FAD  0871               	movf	___fladd@b+1,w
  4851  0FAE  00A1               	movwf	??___fladd+1
  4852  0FAF  0872               	movf	___fladd@b+2,w
  4853  0FB0  00A2               	movwf	??___fladd+2
  4854  0FB1  0873               	movf	___fladd@b+3,w
  4855  0FB2  00A3               	movwf	??___fladd+3
  4856  0FB3  3001               	movlw	1
  4857  0FB4  00A4               	movwf	??___fladd+4
  4858  0FB5                     u2475:
  4859  0FB5  0D23               	rlf	??___fladd+3,w
  4860  0FB6  0CA3               	rrf	??___fladd+3,f
  4861  0FB7  0CA2               	rrf	??___fladd+2,f
  4862  0FB8  0CA1               	rrf	??___fladd+1,f
  4863  0FB9  0CA0               	rrf	??___fladd,f
  4864  0FBA                     u2470:
  4865  0FBA  0BA4               	decfsz	??___fladd+4,f
  4866  0FBB  2FB5               	goto	u2475
  4867  0FBC  0823               	movf	??___fladd+3,w
  4868  0FBD  00F3               	movwf	___fladd@b+3
  4869  0FBE  0822               	movf	??___fladd+2,w
  4870  0FBF  00F2               	movwf	___fladd@b+2
  4871  0FC0  0821               	movf	??___fladd+1,w
  4872  0FC1  00F1               	movwf	___fladd@b+1
  4873  0FC2  0820               	movf	??___fladd,w
  4874  0FC3  00F0               	movwf	___fladd@b
  4875  0FC4  0A7A               	incf	___fladd@bexp,w
  4876  0FC5  1903               	btfsc	3,2
  4877  0FC6  2FC8               	goto	u2481
  4878  0FC7  2FC9               	goto	u2480
  4879  0FC8                     u2481:
  4880  0FC8  2FCD               	goto	l597
  4881  0FC9                     u2480:
  4882  0FC9                     l1950:
  4883  0FC9  3001               	movlw	1
  4884  0FCA  00A0               	movwf	??___fladd
  4885  0FCB  0820               	movf	??___fladd,w
  4886  0FCC  07FA               	addwf	___fladd@bexp,f
  4887  0FCD                     l597:
  4888  0FCD  0A7A               	incf	___fladd@bexp,w
  4889  0FCE  1903               	btfsc	3,2
  4890  0FCF  2FD1               	goto	u2491
  4891  0FD0  2FD2               	goto	u2490
  4892  0FD1                     u2491:
  4893  0FD1  2FD7               	goto	l1954
  4894  0FD2                     u2490:
  4895  0FD2                     l1952:
  4896  0FD2  087A               	movf	___fladd@bexp,w
  4897  0FD3  1D03               	btfss	3,2
  4898  0FD4  2FD6               	goto	u2501
  4899  0FD5  2FD7               	goto	u2500
  4900  0FD6                     u2501:
  4901  0FD6  2FE5               	goto	l1960
  4902  0FD7                     u2500:
  4903  0FD7                     l1954:
  4904  0FD7  3000               	movlw	0
  4905  0FD8  00F3               	movwf	___fladd@b+3
  4906  0FD9  3000               	movlw	0
  4907  0FDA  00F2               	movwf	___fladd@b+2
  4908  0FDB  3000               	movlw	0
  4909  0FDC  00F1               	movwf	___fladd@b+1
  4910  0FDD  3000               	movlw	0
  4911  0FDE  00F0               	movwf	___fladd@b
  4912  0FDF                     l1956:
  4913  0FDF  087A               	movf	___fladd@bexp,w
  4914  0FE0  1D03               	btfss	3,2
  4915  0FE1  2FE3               	goto	u2511
  4916  0FE2  2FE4               	goto	u2510
  4917  0FE3                     u2511:
  4918  0FE3  2FE5               	goto	l1960
  4919  0FE4                     u2510:
  4920  0FE4                     l1958:
  4921  0FE4  01F8               	clrf	___fladd@signs
  4922  0FE5                     l1960:
  4923  0FE5  1C7A               	btfss	___fladd@bexp,0
  4924  0FE6  2FE8               	goto	u2521
  4925  0FE7  2FE9               	goto	u2520
  4926  0FE8                     u2521:
  4927  0FE8  2FEB               	goto	l1964
  4928  0FE9                     u2520:
  4929  0FE9                     l1962:
  4930  0FE9  17F2               	bsf	___fladd@b+2,7
  4931  0FEA  2FF1               	goto	l605
  4932  0FEB                     l1964:
  4933  0FEB  307F               	movlw	127
  4934  0FEC  1283               	bcf	3,5	;RP0=0, select bank0
  4935  0FED  1303               	bcf	3,6	;RP1=0, select bank0
  4936  0FEE  00A0               	movwf	??___fladd
  4937  0FEF  0820               	movf	??___fladd,w
  4938  0FF0  05F2               	andwf	___fladd@b+2,f
  4939  0FF1                     l605:
  4940  0FF1  087A               	movf	___fladd@bexp,w
  4941  0FF2  1283               	bcf	3,5	;RP0=0, select bank0
  4942  0FF3  1303               	bcf	3,6	;RP1=0, select bank0
  4943  0FF4  00A0               	movwf	??___fladd
  4944  0FF5  1003               	clrc
  4945  0FF6  0C20               	rrf	??___fladd,w
  4946  0FF7  00A1               	movwf	??___fladd+1
  4947  0FF8  0821               	movf	??___fladd+1,w
  4948  0FF9  00F3               	movwf	___fladd@b+3
  4949  0FFA                     l1966:
  4950  0FFA  1FF8               	btfss	___fladd@signs,7
  4951  0FFB  2FFD               	goto	u2531
  4952  0FFC  2FFE               	goto	u2530
  4953  0FFD                     u2531:
  4954  0FFD  2FFF               	goto	l606
  4955  0FFE                     u2530:
  4956  0FFE                     l1968:
  4957  0FFE  17F3               	bsf	___fladd@b+3,7
  4958  0FFF                     l606:
  4959  0FFF                     l576:
  4960  0FFF  0008               	return
  4961  1000                     __end_of___fladd:
  4962                           
  4963                           	psect	text15
  4964  1726                     __ptext15:	
  4965 ;; *************** function ___flneg *****************
  4966 ;; Defined at:
  4967 ;;		line 15 in file "C:\Program Files\Microchip\xc8\v2.32\pic\sources\c90\common\flneg.c"
  4968 ;; Parameters:    Size  Location     Type
  4969 ;;  f1              4    0[COMMON] unsigned char 
  4970 ;; Auto vars:     Size  Location     Type
  4971 ;;		None
  4972 ;; Return value:  Size  Location     Type
  4973 ;;                  4    0[COMMON] unsigned char 
  4974 ;; Registers used:
  4975 ;;		wreg
  4976 ;; Tracked objects:
  4977 ;;		On entry : 0/0
  4978 ;;		On exit  : 0/0
  4979 ;;		Unchanged: 0/0
  4980 ;; Data sizes:     COMMON   BANK0   BANK1   BANK3   BANK2
  4981 ;;      Params:         4       0       0       0       0
  4982 ;;      Locals:         0       0       0       0       0
  4983 ;;      Temps:          0       0       0       0       0
  4984 ;;      Totals:         4       0       0       0       0
  4985 ;;Total ram usage:        4 bytes
  4986 ;; Hardware stack levels used: 1
  4987 ;; This function calls:
  4988 ;;		Nothing
  4989 ;; This function is called by:
  4990 ;;		_Quadra_Al
  4991 ;; This function uses a non-reentrant model
  4992 ;;
  4993                           
  4994                           
  4995                           ;psect for function ___flneg
  4996  1726                     ___flneg:
  4997  1726                     l2096:	
  4998                           ;incstack = 0
  4999                           ; Regs used in ___flneg: [wreg]
  5000                           
  5001  1726  0873               	movf	___flneg@f1+3,w
  5002  1727  0472               	iorwf	___flneg@f1+2,w
  5003  1728  0471               	iorwf	___flneg@f1+1,w
  5004  1729  0470               	iorwf	___flneg@f1,w
  5005  172A  1903               	skipnz
  5006  172B  2F2D               	goto	u2781
  5007  172C  2F2E               	goto	u2780
  5008  172D                     u2781:
  5009  172D  2F30               	goto	l2100
  5010  172E                     u2780:
  5011  172E                     l2098:
  5012  172E  3080               	movlw	128
  5013  172F  06F3               	xorwf	___flneg@f1+3,f
  5014  1730                     l2100:
  5015  1730                     l452:
  5016  1730  0008               	return
  5017  1731                     __end_of___flneg:
  5018                           
  5019                           	psect	text16
  5020  048D                     __ptext16:	
  5021 ;; *************** function ___flmul *****************
  5022 ;; Defined at:
  5023 ;;		line 8 in file "C:\Program Files\Microchip\xc8\v2.32\pic\sources\c90\common\sprcmul.c"
  5024 ;; Parameters:    Size  Location     Type
  5025 ;;  b               4    8[BANK0 ] unsigned char 
  5026 ;;  a               4   12[BANK0 ] unsigned char 
  5027 ;; Auto vars:     Size  Location     Type
  5028 ;;  prod            4   28[BANK0 ] struct .
  5029 ;;  grs             4   22[BANK0 ] unsigned long 
  5030 ;;  temp            2   32[BANK0 ] struct .
  5031 ;;  bexp            1   27[BANK0 ] unsigned char 
  5032 ;;  aexp            1   26[BANK0 ] unsigned char 
  5033 ;;  sign            1   21[BANK0 ] unsigned char 
  5034 ;; Return value:  Size  Location     Type
  5035 ;;                  4    8[BANK0 ] unsigned char 
  5036 ;; Registers used:
  5037 ;;		wreg, status,2, status,0, btemp+1, pclath, cstack
  5038 ;; Tracked objects:
  5039 ;;		On entry : 0/0
  5040 ;;		On exit  : 0/0
  5041 ;;		Unchanged: 0/0
  5042 ;; Data sizes:     COMMON   BANK0   BANK1   BANK3   BANK2
  5043 ;;      Params:         0       8       0       0       0
  5044 ;;      Locals:         0      13       0       0       0
  5045 ;;      Temps:          0       5       0       0       0
  5046 ;;      Totals:         0      26       0       0       0
  5047 ;;Total ram usage:       26 bytes
  5048 ;; Hardware stack levels used: 1
  5049 ;; Hardware stack levels required when called: 1
  5050 ;; This function calls:
  5051 ;;		__Umul8_16
  5052 ;; This function is called by:
  5053 ;;		_Quadra_Al
  5054 ;; This function uses a non-reentrant model
  5055 ;;
  5056                           
  5057                           
  5058                           ;psect for function ___flmul
  5059  048D                     ___flmul:
  5060  048D                     l2252:	
  5061                           ;incstack = 0
  5062                           ; Regs used in ___flmul: [wreg+status,2+status,0+btemp+1+pclath+cstack]
  5063                           
  5064  048D  1283               	bcf	3,5	;RP0=0, select bank0
  5065  048E  1303               	bcf	3,6	;RP1=0, select bank0
  5066  048F  082B               	movf	___flmul@b+3,w
  5067  0490  3980               	andlw	128
  5068  0491  00B0               	movwf	??___flmul
  5069  0492  0830               	movf	??___flmul,w
  5070  0493  00B5               	movwf	___flmul@sign
  5071  0494                     l2254:
  5072  0494  082B               	movf	___flmul@b+3,w
  5073  0495  00B0               	movwf	??___flmul
  5074  0496  0730               	addwf	??___flmul,w
  5075  0497  00B1               	movwf	??___flmul+1
  5076  0498  0831               	movf	??___flmul+1,w
  5077  0499  00BB               	movwf	___flmul@bexp
  5078  049A                     l2256:
  5079  049A  1FAA               	btfss	___flmul@b+2,7
  5080  049B  2C9D               	goto	u3081
  5081  049C  2C9E               	goto	u3080
  5082  049D                     u3081:
  5083  049D  2C9F               	goto	l2260
  5084  049E                     u3080:
  5085  049E                     l2258:
  5086  049E  143B               	bsf	___flmul@bexp,0
  5087  049F                     l2260:
  5088  049F  083B               	movf	___flmul@bexp,w
  5089  04A0  1903               	btfsc	3,2
  5090  04A1  2CA3               	goto	u3091
  5091  04A2  2CA4               	goto	u3090
  5092  04A3                     u3091:
  5093  04A3  2CB3               	goto	l2268
  5094  04A4                     u3090:
  5095  04A4                     l2262:
  5096  04A4  0A3B               	incf	___flmul@bexp,w
  5097  04A5  1D03               	btfss	3,2
  5098  04A6  2CA8               	goto	u3101
  5099  04A7  2CA9               	goto	u3100
  5100  04A8                     u3101:
  5101  04A8  2CB1               	goto	l2266
  5102  04A9                     u3100:
  5103  04A9                     l2264:
  5104  04A9  3000               	movlw	0
  5105  04AA  00AB               	movwf	___flmul@b+3
  5106  04AB  3000               	movlw	0
  5107  04AC  00AA               	movwf	___flmul@b+2
  5108  04AD  3000               	movlw	0
  5109  04AE  00A9               	movwf	___flmul@b+1
  5110  04AF  3000               	movlw	0
  5111  04B0  00A8               	movwf	___flmul@b
  5112  04B1                     l2266:
  5113  04B1  17AA               	bsf	___flmul@b+2,7
  5114  04B2  2CBB               	goto	l2270
  5115  04B3                     l2268:
  5116  04B3  3000               	movlw	0
  5117  04B4  00AB               	movwf	___flmul@b+3
  5118  04B5  3000               	movlw	0
  5119  04B6  00AA               	movwf	___flmul@b+2
  5120  04B7  3000               	movlw	0
  5121  04B8  00A9               	movwf	___flmul@b+1
  5122  04B9  3000               	movlw	0
  5123  04BA  00A8               	movwf	___flmul@b
  5124  04BB                     l2270:
  5125  04BB  082F               	movf	___flmul@a+3,w
  5126  04BC  3980               	andlw	128
  5127  04BD  00B0               	movwf	??___flmul
  5128  04BE  0830               	movf	??___flmul,w
  5129  04BF  06B5               	xorwf	___flmul@sign,f
  5130  04C0                     l2272:
  5131  04C0  082F               	movf	___flmul@a+3,w
  5132  04C1  00B0               	movwf	??___flmul
  5133  04C2  0730               	addwf	??___flmul,w
  5134  04C3  00B1               	movwf	??___flmul+1
  5135  04C4  0831               	movf	??___flmul+1,w
  5136  04C5  00BA               	movwf	___flmul@aexp
  5137  04C6                     l2274:
  5138  04C6  1FAE               	btfss	___flmul@a+2,7
  5139  04C7  2CC9               	goto	u3111
  5140  04C8  2CCA               	goto	u3110
  5141  04C9                     u3111:
  5142  04C9  2CCB               	goto	l2278
  5143  04CA                     u3110:
  5144  04CA                     l2276:
  5145  04CA  143A               	bsf	___flmul@aexp,0
  5146  04CB                     l2278:
  5147  04CB  083A               	movf	___flmul@aexp,w
  5148  04CC  1903               	btfsc	3,2
  5149  04CD  2CCF               	goto	u3121
  5150  04CE  2CD0               	goto	u3120
  5151  04CF                     u3121:
  5152  04CF  2CDF               	goto	l2286
  5153  04D0                     u3120:
  5154  04D0                     l2280:
  5155  04D0  0A3A               	incf	___flmul@aexp,w
  5156  04D1  1D03               	btfss	3,2
  5157  04D2  2CD4               	goto	u3131
  5158  04D3  2CD5               	goto	u3130
  5159  04D4                     u3131:
  5160  04D4  2CDD               	goto	l2284
  5161  04D5                     u3130:
  5162  04D5                     l2282:
  5163  04D5  3000               	movlw	0
  5164  04D6  00AF               	movwf	___flmul@a+3
  5165  04D7  3000               	movlw	0
  5166  04D8  00AE               	movwf	___flmul@a+2
  5167  04D9  3000               	movlw	0
  5168  04DA  00AD               	movwf	___flmul@a+1
  5169  04DB  3000               	movlw	0
  5170  04DC  00AC               	movwf	___flmul@a
  5171  04DD                     l2284:
  5172  04DD  17AE               	bsf	___flmul@a+2,7
  5173  04DE  2CE7               	goto	l2288
  5174  04DF                     l2286:
  5175  04DF  3000               	movlw	0
  5176  04E0  00AF               	movwf	___flmul@a+3
  5177  04E1  3000               	movlw	0
  5178  04E2  00AE               	movwf	___flmul@a+2
  5179  04E3  3000               	movlw	0
  5180  04E4  00AD               	movwf	___flmul@a+1
  5181  04E5  3000               	movlw	0
  5182  04E6  00AC               	movwf	___flmul@a
  5183  04E7                     l2288:
  5184  04E7  083A               	movf	___flmul@aexp,w
  5185  04E8  1903               	btfsc	3,2
  5186  04E9  2CEB               	goto	u3141
  5187  04EA  2CEC               	goto	u3140
  5188  04EB                     u3141:
  5189  04EB  2CF1               	goto	l2292
  5190  04EC                     u3140:
  5191  04EC                     l2290:
  5192  04EC  083B               	movf	___flmul@bexp,w
  5193  04ED  1D03               	btfss	3,2
  5194  04EE  2CF0               	goto	u3151
  5195  04EF  2CF1               	goto	u3150
  5196  04F0                     u3151:
  5197  04F0  2CFA               	goto	l2296
  5198  04F1                     u3150:
  5199  04F1                     l2292:
  5200  04F1  3000               	movlw	0
  5201  04F2  00AB               	movwf	?___flmul+3
  5202  04F3  3000               	movlw	0
  5203  04F4  00AA               	movwf	?___flmul+2
  5204  04F5  3000               	movlw	0
  5205  04F6  00A9               	movwf	?___flmul+1
  5206  04F7  3000               	movlw	0
  5207  04F8  00A8               	movwf	?___flmul
  5208  04F9  2FED               	goto	l659
  5209  04FA                     l2296:
  5210  04FA  0828               	movf	___flmul@b,w
  5211  04FB  00B0               	movwf	??___flmul
  5212  04FC  0830               	movf	??___flmul,w
  5213  04FD  00F0               	movwf	__Umul8_16@multiplicand
  5214  04FE  082E               	movf	___flmul@a+2,w
  5215  04FF  160A  118A  2768  120A  118A  	fcall	__Umul8_16
  5216  0504  0871               	movf	?__Umul8_16+1,w
  5217  0505  1283               	bcf	3,5	;RP0=0, select bank0
  5218  0506  1303               	bcf	3,6	;RP1=0, select bank0
  5219  0507  00C1               	movwf	___flmul@temp+1
  5220  0508  0870               	movf	?__Umul8_16,w
  5221  0509  00C0               	movwf	___flmul@temp
  5222  050A                     l2298:
  5223  050A  0840               	movf	___flmul@temp,w
  5224  050B  00B0               	movwf	??___flmul
  5225  050C  01B1               	clrf	??___flmul+1
  5226  050D  01B2               	clrf	??___flmul+2
  5227  050E  01B3               	clrf	??___flmul+3
  5228  050F  0833               	movf	??___flmul+3,w
  5229  0510  00B9               	movwf	___flmul@grs+3
  5230  0511  0832               	movf	??___flmul+2,w
  5231  0512  00B8               	movwf	___flmul@grs+2
  5232  0513  0831               	movf	??___flmul+1,w
  5233  0514  00B7               	movwf	___flmul@grs+1
  5234  0515  0830               	movf	??___flmul,w
  5235  0516  00B6               	movwf	___flmul@grs
  5236  0517                     l2300:
  5237  0517  0841               	movf	___flmul@temp+1,w
  5238  0518  00B0               	movwf	??___flmul
  5239  0519  01B1               	clrf	??___flmul+1
  5240  051A  01B2               	clrf	??___flmul+2
  5241  051B  01B3               	clrf	??___flmul+3
  5242  051C  0833               	movf	??___flmul+3,w
  5243  051D  00BF               	movwf	___flmul@prod+3
  5244  051E  0832               	movf	??___flmul+2,w
  5245  051F  00BE               	movwf	___flmul@prod+2
  5246  0520  0831               	movf	??___flmul+1,w
  5247  0521  00BD               	movwf	___flmul@prod+1
  5248  0522  0830               	movf	??___flmul,w
  5249  0523  00BC               	movwf	___flmul@prod
  5250  0524  0829               	movf	___flmul@b+1,w
  5251  0525  00B0               	movwf	??___flmul
  5252  0526  0830               	movf	??___flmul,w
  5253  0527  00F0               	movwf	__Umul8_16@multiplicand
  5254  0528  082D               	movf	___flmul@a+1,w
  5255  0529  160A  118A  2768  120A  118A  	fcall	__Umul8_16
  5256  052E  0871               	movf	?__Umul8_16+1,w
  5257  052F  1283               	bcf	3,5	;RP0=0, select bank0
  5258  0530  1303               	bcf	3,6	;RP1=0, select bank0
  5259  0531  00C1               	movwf	___flmul@temp+1
  5260  0532  0870               	movf	?__Umul8_16,w
  5261  0533  00C0               	movwf	___flmul@temp
  5262  0534                     l2302:
  5263  0534  0840               	movf	___flmul@temp,w
  5264  0535  00B0               	movwf	??___flmul
  5265  0536  01B1               	clrf	??___flmul+1
  5266  0537  01B2               	clrf	??___flmul+2
  5267  0538  01B3               	clrf	??___flmul+3
  5268  0539  0830               	movf	??___flmul,w
  5269  053A  07B6               	addwf	___flmul@grs,f
  5270  053B  0831               	movf	??___flmul+1,w
  5271  053C  1103               	clrz
  5272  053D  1803               	skipnc
  5273  053E  3E01               	addlw	1
  5274  053F  1903               	skipnz
  5275  0540  2D42               	goto	u3161
  5276  0541  07B7               	addwf	___flmul@grs+1,f
  5277  0542                     u3161:
  5278  0542  0832               	movf	??___flmul+2,w
  5279  0543  1103               	clrz
  5280  0544  1803               	skipnc
  5281  0545  3E01               	addlw	1
  5282  0546  1903               	skipnz
  5283  0547  2D49               	goto	u3162
  5284  0548  07B8               	addwf	___flmul@grs+2,f
  5285  0549                     u3162:
  5286  0549  0833               	movf	??___flmul+3,w
  5287  054A  1103               	clrz
  5288  054B  1803               	skipnc
  5289  054C  3E01               	addlw	1
  5290  054D  1903               	skipnz
  5291  054E  2D50               	goto	u3163
  5292  054F  07B9               	addwf	___flmul@grs+3,f
  5293  0550                     u3163:
  5294  0550                     l2304:
  5295  0550  0841               	movf	___flmul@temp+1,w
  5296  0551  00B0               	movwf	??___flmul
  5297  0552  01B1               	clrf	??___flmul+1
  5298  0553  01B2               	clrf	??___flmul+2
  5299  0554  01B3               	clrf	??___flmul+3
  5300  0555  0830               	movf	??___flmul,w
  5301  0556  07BC               	addwf	___flmul@prod,f
  5302  0557  0831               	movf	??___flmul+1,w
  5303  0558  1103               	clrz
  5304  0559  1803               	skipnc
  5305  055A  3E01               	addlw	1
  5306  055B  1903               	skipnz
  5307  055C  2D5E               	goto	u3171
  5308  055D  07BD               	addwf	___flmul@prod+1,f
  5309  055E                     u3171:
  5310  055E  0832               	movf	??___flmul+2,w
  5311  055F  1103               	clrz
  5312  0560  1803               	skipnc
  5313  0561  3E01               	addlw	1
  5314  0562  1903               	skipnz
  5315  0563  2D65               	goto	u3172
  5316  0564  07BE               	addwf	___flmul@prod+2,f
  5317  0565                     u3172:
  5318  0565  0833               	movf	??___flmul+3,w
  5319  0566  1103               	clrz
  5320  0567  1803               	skipnc
  5321  0568  3E01               	addlw	1
  5322  0569  1903               	skipnz
  5323  056A  2D6C               	goto	u3173
  5324  056B  07BF               	addwf	___flmul@prod+3,f
  5325  056C                     u3173:
  5326  056C  082A               	movf	___flmul@b+2,w
  5327  056D  00B0               	movwf	??___flmul
  5328  056E  0830               	movf	??___flmul,w
  5329  056F  00F0               	movwf	__Umul8_16@multiplicand
  5330  0570  082C               	movf	___flmul@a,w
  5331  0571  160A  118A  2768  120A  118A  	fcall	__Umul8_16
  5332  0576  0871               	movf	?__Umul8_16+1,w
  5333  0577  1283               	bcf	3,5	;RP0=0, select bank0
  5334  0578  1303               	bcf	3,6	;RP1=0, select bank0
  5335  0579  00C1               	movwf	___flmul@temp+1
  5336  057A  0870               	movf	?__Umul8_16,w
  5337  057B  00C0               	movwf	___flmul@temp
  5338  057C                     l2306:
  5339  057C  0840               	movf	___flmul@temp,w
  5340  057D  00B0               	movwf	??___flmul
  5341  057E  01B1               	clrf	??___flmul+1
  5342  057F  01B2               	clrf	??___flmul+2
  5343  0580  01B3               	clrf	??___flmul+3
  5344  0581  0830               	movf	??___flmul,w
  5345  0582  07B6               	addwf	___flmul@grs,f
  5346  0583  0831               	movf	??___flmul+1,w
  5347  0584  1103               	clrz
  5348  0585  1803               	skipnc
  5349  0586  3E01               	addlw	1
  5350  0587  1903               	skipnz
  5351  0588  2D8A               	goto	u3181
  5352  0589  07B7               	addwf	___flmul@grs+1,f
  5353  058A                     u3181:
  5354  058A  0832               	movf	??___flmul+2,w
  5355  058B  1103               	clrz
  5356  058C  1803               	skipnc
  5357  058D  3E01               	addlw	1
  5358  058E  1903               	skipnz
  5359  058F  2D91               	goto	u3182
  5360  0590  07B8               	addwf	___flmul@grs+2,f
  5361  0591                     u3182:
  5362  0591  0833               	movf	??___flmul+3,w
  5363  0592  1103               	clrz
  5364  0593  1803               	skipnc
  5365  0594  3E01               	addlw	1
  5366  0595  1903               	skipnz
  5367  0596  2D98               	goto	u3183
  5368  0597  07B9               	addwf	___flmul@grs+3,f
  5369  0598                     u3183:
  5370  0598                     l2308:
  5371  0598  0841               	movf	___flmul@temp+1,w
  5372  0599  00B0               	movwf	??___flmul
  5373  059A  01B1               	clrf	??___flmul+1
  5374  059B  01B2               	clrf	??___flmul+2
  5375  059C  01B3               	clrf	??___flmul+3
  5376  059D  0830               	movf	??___flmul,w
  5377  059E  07BC               	addwf	___flmul@prod,f
  5378  059F  0831               	movf	??___flmul+1,w
  5379  05A0  1103               	clrz
  5380  05A1  1803               	skipnc
  5381  05A2  3E01               	addlw	1
  5382  05A3  1903               	skipnz
  5383  05A4  2DA6               	goto	u3191
  5384  05A5  07BD               	addwf	___flmul@prod+1,f
  5385  05A6                     u3191:
  5386  05A6  0832               	movf	??___flmul+2,w
  5387  05A7  1103               	clrz
  5388  05A8  1803               	skipnc
  5389  05A9  3E01               	addlw	1
  5390  05AA  1903               	skipnz
  5391  05AB  2DAD               	goto	u3192
  5392  05AC  07BE               	addwf	___flmul@prod+2,f
  5393  05AD                     u3192:
  5394  05AD  0833               	movf	??___flmul+3,w
  5395  05AE  1103               	clrz
  5396  05AF  1803               	skipnc
  5397  05B0  3E01               	addlw	1
  5398  05B1  1903               	skipnz
  5399  05B2  2DB4               	goto	u3193
  5400  05B3  07BF               	addwf	___flmul@prod+3,f
  5401  05B4                     u3193:
  5402  05B4                     l2310:
  5403  05B4  3008               	movlw	8
  5404  05B5  00B0               	movwf	??___flmul
  5405  05B6                     u3205:
  5406  05B6  1003               	clrc
  5407  05B7  0DB6               	rlf	___flmul@grs,f
  5408  05B8  0DB7               	rlf	___flmul@grs+1,f
  5409  05B9  0DB8               	rlf	___flmul@grs+2,f
  5410  05BA  0DB9               	rlf	___flmul@grs+3,f
  5411  05BB  0BB0               	decfsz	??___flmul,f
  5412  05BC  2DB6               	goto	u3205
  5413  05BD                     l2312:
  5414  05BD  0829               	movf	___flmul@b+1,w
  5415  05BE  00B0               	movwf	??___flmul
  5416  05BF  0830               	movf	??___flmul,w
  5417  05C0  00F0               	movwf	__Umul8_16@multiplicand
  5418  05C1  082C               	movf	___flmul@a,w
  5419  05C2  160A  118A  2768  120A  118A  	fcall	__Umul8_16
  5420  05C7  0871               	movf	?__Umul8_16+1,w
  5421  05C8  1283               	bcf	3,5	;RP0=0, select bank0
  5422  05C9  1303               	bcf	3,6	;RP1=0, select bank0
  5423  05CA  00C1               	movwf	___flmul@temp+1
  5424  05CB  0870               	movf	?__Umul8_16,w
  5425  05CC  00C0               	movwf	___flmul@temp
  5426  05CD                     l2314:
  5427  05CD  0840               	movf	___flmul@temp,w
  5428  05CE  00B0               	movwf	??___flmul
  5429  05CF  0841               	movf	___flmul@temp+1,w
  5430  05D0  00B1               	movwf	??___flmul+1
  5431  05D1  01B2               	clrf	??___flmul+2
  5432  05D2  01B3               	clrf	??___flmul+3
  5433  05D3  0830               	movf	??___flmul,w
  5434  05D4  07B6               	addwf	___flmul@grs,f
  5435  05D5  0831               	movf	??___flmul+1,w
  5436  05D6  1103               	clrz
  5437  05D7  1803               	skipnc
  5438  05D8  3E01               	addlw	1
  5439  05D9  1903               	skipnz
  5440  05DA  2DDC               	goto	u3211
  5441  05DB  07B7               	addwf	___flmul@grs+1,f
  5442  05DC                     u3211:
  5443  05DC  0832               	movf	??___flmul+2,w
  5444  05DD  1103               	clrz
  5445  05DE  1803               	skipnc
  5446  05DF  3E01               	addlw	1
  5447  05E0  1903               	skipnz
  5448  05E1  2DE3               	goto	u3212
  5449  05E2  07B8               	addwf	___flmul@grs+2,f
  5450  05E3                     u3212:
  5451  05E3  0833               	movf	??___flmul+3,w
  5452  05E4  1103               	clrz
  5453  05E5  1803               	skipnc
  5454  05E6  3E01               	addlw	1
  5455  05E7  1903               	skipnz
  5456  05E8  2DEA               	goto	u3213
  5457  05E9  07B9               	addwf	___flmul@grs+3,f
  5458  05EA                     u3213:
  5459  05EA                     l2316:
  5460  05EA  0828               	movf	___flmul@b,w
  5461  05EB  00B0               	movwf	??___flmul
  5462  05EC  0830               	movf	??___flmul,w
  5463  05ED  00F0               	movwf	__Umul8_16@multiplicand
  5464  05EE  082D               	movf	___flmul@a+1,w
  5465  05EF  160A  118A  2768  120A  118A  	fcall	__Umul8_16
  5466  05F4  0871               	movf	?__Umul8_16+1,w
  5467  05F5  1283               	bcf	3,5	;RP0=0, select bank0
  5468  05F6  1303               	bcf	3,6	;RP1=0, select bank0
  5469  05F7  00C1               	movwf	___flmul@temp+1
  5470  05F8  0870               	movf	?__Umul8_16,w
  5471  05F9  00C0               	movwf	___flmul@temp
  5472  05FA                     l2318:
  5473  05FA  0840               	movf	___flmul@temp,w
  5474  05FB  00B0               	movwf	??___flmul
  5475  05FC  0841               	movf	___flmul@temp+1,w
  5476  05FD  00B1               	movwf	??___flmul+1
  5477  05FE  01B2               	clrf	??___flmul+2
  5478  05FF  01B3               	clrf	??___flmul+3
  5479  0600  0830               	movf	??___flmul,w
  5480  0601  07B6               	addwf	___flmul@grs,f
  5481  0602  0831               	movf	??___flmul+1,w
  5482  0603  1103               	clrz
  5483  0604  1803               	skipnc
  5484  0605  3E01               	addlw	1
  5485  0606  1903               	skipnz
  5486  0607  2E09               	goto	u3221
  5487  0608  07B7               	addwf	___flmul@grs+1,f
  5488  0609                     u3221:
  5489  0609  0832               	movf	??___flmul+2,w
  5490  060A  1103               	clrz
  5491  060B  1803               	skipnc
  5492  060C  3E01               	addlw	1
  5493  060D  1903               	skipnz
  5494  060E  2E10               	goto	u3222
  5495  060F  07B8               	addwf	___flmul@grs+2,f
  5496  0610                     u3222:
  5497  0610  0833               	movf	??___flmul+3,w
  5498  0611  1103               	clrz
  5499  0612  1803               	skipnc
  5500  0613  3E01               	addlw	1
  5501  0614  1903               	skipnz
  5502  0615  2E17               	goto	u3223
  5503  0616  07B9               	addwf	___flmul@grs+3,f
  5504  0617                     u3223:
  5505  0617                     l2320:
  5506  0617  3008               	movlw	8
  5507  0618  00B0               	movwf	??___flmul
  5508  0619                     u3235:
  5509  0619  1003               	clrc
  5510  061A  0DB6               	rlf	___flmul@grs,f
  5511  061B  0DB7               	rlf	___flmul@grs+1,f
  5512  061C  0DB8               	rlf	___flmul@grs+2,f
  5513  061D  0DB9               	rlf	___flmul@grs+3,f
  5514  061E  0BB0               	decfsz	??___flmul,f
  5515  061F  2E19               	goto	u3235
  5516  0620  0828               	movf	___flmul@b,w
  5517  0621  00B0               	movwf	??___flmul
  5518  0622  0830               	movf	??___flmul,w
  5519  0623  00F0               	movwf	__Umul8_16@multiplicand
  5520  0624  082C               	movf	___flmul@a,w
  5521  0625  160A  118A  2768  120A  118A  	fcall	__Umul8_16
  5522  062A  0871               	movf	?__Umul8_16+1,w
  5523  062B  1283               	bcf	3,5	;RP0=0, select bank0
  5524  062C  1303               	bcf	3,6	;RP1=0, select bank0
  5525  062D  00C1               	movwf	___flmul@temp+1
  5526  062E  0870               	movf	?__Umul8_16,w
  5527  062F  00C0               	movwf	___flmul@temp
  5528  0630                     l2322:
  5529  0630  0840               	movf	___flmul@temp,w
  5530  0631  00B0               	movwf	??___flmul
  5531  0632  0841               	movf	___flmul@temp+1,w
  5532  0633  00B1               	movwf	??___flmul+1
  5533  0634  01B2               	clrf	??___flmul+2
  5534  0635  01B3               	clrf	??___flmul+3
  5535  0636  0830               	movf	??___flmul,w
  5536  0637  07B6               	addwf	___flmul@grs,f
  5537  0638  0831               	movf	??___flmul+1,w
  5538  0639  1103               	clrz
  5539  063A  1803               	skipnc
  5540  063B  3E01               	addlw	1
  5541  063C  1903               	skipnz
  5542  063D  2E3F               	goto	u3241
  5543  063E  07B7               	addwf	___flmul@grs+1,f
  5544  063F                     u3241:
  5545  063F  0832               	movf	??___flmul+2,w
  5546  0640  1103               	clrz
  5547  0641  1803               	skipnc
  5548  0642  3E01               	addlw	1
  5549  0643  1903               	skipnz
  5550  0644  2E46               	goto	u3242
  5551  0645  07B8               	addwf	___flmul@grs+2,f
  5552  0646                     u3242:
  5553  0646  0833               	movf	??___flmul+3,w
  5554  0647  1103               	clrz
  5555  0648  1803               	skipnc
  5556  0649  3E01               	addlw	1
  5557  064A  1903               	skipnz
  5558  064B  2E4D               	goto	u3243
  5559  064C  07B9               	addwf	___flmul@grs+3,f
  5560  064D                     u3243:
  5561  064D                     l2324:
  5562  064D  0829               	movf	___flmul@b+1,w
  5563  064E  00B0               	movwf	??___flmul
  5564  064F  0830               	movf	??___flmul,w
  5565  0650  00F0               	movwf	__Umul8_16@multiplicand
  5566  0651  082E               	movf	___flmul@a+2,w
  5567  0652  160A  118A  2768  120A  118A  	fcall	__Umul8_16
  5568  0657  0871               	movf	?__Umul8_16+1,w
  5569  0658  1283               	bcf	3,5	;RP0=0, select bank0
  5570  0659  1303               	bcf	3,6	;RP1=0, select bank0
  5571  065A  00C1               	movwf	___flmul@temp+1
  5572  065B  0870               	movf	?__Umul8_16,w
  5573  065C  00C0               	movwf	___flmul@temp
  5574  065D  0840               	movf	___flmul@temp,w
  5575  065E  00B0               	movwf	??___flmul
  5576  065F  0841               	movf	___flmul@temp+1,w
  5577  0660  00B1               	movwf	??___flmul+1
  5578  0661  01B2               	clrf	??___flmul+2
  5579  0662  01B3               	clrf	??___flmul+3
  5580  0663  0830               	movf	??___flmul,w
  5581  0664  07BC               	addwf	___flmul@prod,f
  5582  0665  0831               	movf	??___flmul+1,w
  5583  0666  1103               	clrz
  5584  0667  1803               	skipnc
  5585  0668  3E01               	addlw	1
  5586  0669  1903               	skipnz
  5587  066A  2E6C               	goto	u3251
  5588  066B  07BD               	addwf	___flmul@prod+1,f
  5589  066C                     u3251:
  5590  066C  0832               	movf	??___flmul+2,w
  5591  066D  1103               	clrz
  5592  066E  1803               	skipnc
  5593  066F  3E01               	addlw	1
  5594  0670  1903               	skipnz
  5595  0671  2E73               	goto	u3252
  5596  0672  07BE               	addwf	___flmul@prod+2,f
  5597  0673                     u3252:
  5598  0673  0833               	movf	??___flmul+3,w
  5599  0674  1103               	clrz
  5600  0675  1803               	skipnc
  5601  0676  3E01               	addlw	1
  5602  0677  1903               	skipnz
  5603  0678  2E7A               	goto	u3253
  5604  0679  07BF               	addwf	___flmul@prod+3,f
  5605  067A                     u3253:
  5606  067A                     l2326:
  5607  067A  082A               	movf	___flmul@b+2,w
  5608  067B  00B0               	movwf	??___flmul
  5609  067C  0830               	movf	??___flmul,w
  5610  067D  00F0               	movwf	__Umul8_16@multiplicand
  5611  067E  082D               	movf	___flmul@a+1,w
  5612  067F  160A  118A  2768  120A  118A  	fcall	__Umul8_16
  5613  0684  0871               	movf	?__Umul8_16+1,w
  5614  0685  1283               	bcf	3,5	;RP0=0, select bank0
  5615  0686  1303               	bcf	3,6	;RP1=0, select bank0
  5616  0687  00C1               	movwf	___flmul@temp+1
  5617  0688  0870               	movf	?__Umul8_16,w
  5618  0689  00C0               	movwf	___flmul@temp
  5619  068A                     l2328:
  5620  068A  0840               	movf	___flmul@temp,w
  5621  068B  00B0               	movwf	??___flmul
  5622  068C  0841               	movf	___flmul@temp+1,w
  5623  068D  00B1               	movwf	??___flmul+1
  5624  068E  01B2               	clrf	??___flmul+2
  5625  068F  01B3               	clrf	??___flmul+3
  5626  0690  0830               	movf	??___flmul,w
  5627  0691  07BC               	addwf	___flmul@prod,f
  5628  0692  0831               	movf	??___flmul+1,w
  5629  0693  1103               	clrz
  5630  0694  1803               	skipnc
  5631  0695  3E01               	addlw	1
  5632  0696  1903               	skipnz
  5633  0697  2E99               	goto	u3261
  5634  0698  07BD               	addwf	___flmul@prod+1,f
  5635  0699                     u3261:
  5636  0699  0832               	movf	??___flmul+2,w
  5637  069A  1103               	clrz
  5638  069B  1803               	skipnc
  5639  069C  3E01               	addlw	1
  5640  069D  1903               	skipnz
  5641  069E  2EA0               	goto	u3262
  5642  069F  07BE               	addwf	___flmul@prod+2,f
  5643  06A0                     u3262:
  5644  06A0  0833               	movf	??___flmul+3,w
  5645  06A1  1103               	clrz
  5646  06A2  1803               	skipnc
  5647  06A3  3E01               	addlw	1
  5648  06A4  1903               	skipnz
  5649  06A5  2EA7               	goto	u3263
  5650  06A6  07BF               	addwf	___flmul@prod+3,f
  5651  06A7                     u3263:
  5652  06A7  082A               	movf	___flmul@b+2,w
  5653  06A8  00B0               	movwf	??___flmul
  5654  06A9  0830               	movf	??___flmul,w
  5655  06AA  00F0               	movwf	__Umul8_16@multiplicand
  5656  06AB  082E               	movf	___flmul@a+2,w
  5657  06AC  160A  118A  2768  120A  118A  	fcall	__Umul8_16
  5658  06B1  0871               	movf	?__Umul8_16+1,w
  5659  06B2  1283               	bcf	3,5	;RP0=0, select bank0
  5660  06B3  1303               	bcf	3,6	;RP1=0, select bank0
  5661  06B4  00C1               	movwf	___flmul@temp+1
  5662  06B5  0870               	movf	?__Umul8_16,w
  5663  06B6  00C0               	movwf	___flmul@temp
  5664  06B7                     l2330:
  5665  06B7  0840               	movf	___flmul@temp,w
  5666  06B8  00B0               	movwf	??___flmul
  5667  06B9  0841               	movf	___flmul@temp+1,w
  5668  06BA  00B1               	movwf	??___flmul+1
  5669  06BB  01B2               	clrf	??___flmul+2
  5670  06BC  01B3               	clrf	??___flmul+3
  5671  06BD  3008               	movlw	8
  5672  06BE                     u3275:
  5673  06BE  1003               	clrc
  5674  06BF  0DB0               	rlf	??___flmul,f
  5675  06C0  0DB1               	rlf	??___flmul+1,f
  5676  06C1  0DB2               	rlf	??___flmul+2,f
  5677  06C2  0DB3               	rlf	??___flmul+3,f
  5678  06C3                     u3270:
  5679  06C3  3EFF               	addlw	-1
  5680  06C4  1D03               	skipz
  5681  06C5  2EBE               	goto	u3275
  5682  06C6  0830               	movf	??___flmul,w
  5683  06C7  07BC               	addwf	___flmul@prod,f
  5684  06C8  0831               	movf	??___flmul+1,w
  5685  06C9  1103               	clrz
  5686  06CA  1803               	skipnc
  5687  06CB  3E01               	addlw	1
  5688  06CC  1903               	skipnz
  5689  06CD  2ECF               	goto	u3281
  5690  06CE  07BD               	addwf	___flmul@prod+1,f
  5691  06CF                     u3281:
  5692  06CF  0832               	movf	??___flmul+2,w
  5693  06D0  1103               	clrz
  5694  06D1  1803               	skipnc
  5695  06D2  3E01               	addlw	1
  5696  06D3  1903               	skipnz
  5697  06D4  2ED6               	goto	u3282
  5698  06D5  07BE               	addwf	___flmul@prod+2,f
  5699  06D6                     u3282:
  5700  06D6  0833               	movf	??___flmul+3,w
  5701  06D7  1103               	clrz
  5702  06D8  1803               	skipnc
  5703  06D9  3E01               	addlw	1
  5704  06DA  1903               	skipnz
  5705  06DB  2EDD               	goto	u3283
  5706  06DC  07BF               	addwf	___flmul@prod+3,f
  5707  06DD                     u3283:
  5708  06DD                     l2332:
  5709  06DD  0836               	movf	___flmul@grs,w
  5710  06DE  00B0               	movwf	??___flmul
  5711  06DF  0837               	movf	___flmul@grs+1,w
  5712  06E0  00B1               	movwf	??___flmul+1
  5713  06E1  0838               	movf	___flmul@grs+2,w
  5714  06E2  00B2               	movwf	??___flmul+2
  5715  06E3  0839               	movf	___flmul@grs+3,w
  5716  06E4  00B3               	movwf	??___flmul+3
  5717  06E5  3018               	movlw	24
  5718  06E6                     u3295:
  5719  06E6  1003               	clrc
  5720  06E7  0CB3               	rrf	??___flmul+3,f
  5721  06E8  0CB2               	rrf	??___flmul+2,f
  5722  06E9  0CB1               	rrf	??___flmul+1,f
  5723  06EA  0CB0               	rrf	??___flmul,f
  5724  06EB                     u3290:
  5725  06EB  3EFF               	addlw	-1
  5726  06EC  1D03               	skipz
  5727  06ED  2EE6               	goto	u3295
  5728  06EE  0830               	movf	??___flmul,w
  5729  06EF  07BC               	addwf	___flmul@prod,f
  5730  06F0  0831               	movf	??___flmul+1,w
  5731  06F1  1103               	clrz
  5732  06F2  1803               	skipnc
  5733  06F3  3E01               	addlw	1
  5734  06F4  1903               	skipnz
  5735  06F5  2EF7               	goto	u3301
  5736  06F6  07BD               	addwf	___flmul@prod+1,f
  5737  06F7                     u3301:
  5738  06F7  0832               	movf	??___flmul+2,w
  5739  06F8  1103               	clrz
  5740  06F9  1803               	skipnc
  5741  06FA  3E01               	addlw	1
  5742  06FB  1903               	skipnz
  5743  06FC  2EFE               	goto	u3302
  5744  06FD  07BE               	addwf	___flmul@prod+2,f
  5745  06FE                     u3302:
  5746  06FE  0833               	movf	??___flmul+3,w
  5747  06FF  1103               	clrz
  5748  0700  1803               	skipnc
  5749  0701  3E01               	addlw	1
  5750  0702  1903               	skipnz
  5751  0703  2F05               	goto	u3303
  5752  0704  07BF               	addwf	___flmul@prod+3,f
  5753  0705                     u3303:
  5754  0705                     l2334:
  5755  0705  3008               	movlw	8
  5756  0706  00B0               	movwf	??___flmul
  5757  0707                     u3315:
  5758  0707  1003               	clrc
  5759  0708  0DB6               	rlf	___flmul@grs,f
  5760  0709  0DB7               	rlf	___flmul@grs+1,f
  5761  070A  0DB8               	rlf	___flmul@grs+2,f
  5762  070B  0DB9               	rlf	___flmul@grs+3,f
  5763  070C  0BB0               	decfsz	??___flmul,f
  5764  070D  2F07               	goto	u3315
  5765  070E                     l2336:
  5766  070E  083B               	movf	___flmul@bexp,w
  5767  070F  073A               	addwf	___flmul@aexp,w
  5768  0710  00B0               	movwf	??___flmul
  5769  0711  01B1               	clrf	??___flmul+1
  5770  0712  0DB1               	rlf	??___flmul+1,f
  5771  0713  0830               	movf	??___flmul,w
  5772  0714  3E82               	addlw	130
  5773  0715  00C0               	movwf	___flmul@temp
  5774  0716  0831               	movf	??___flmul+1,w
  5775  0717  1803               	skipnc
  5776  0718  3E01               	addlw	1
  5777  0719  3EFF               	addlw	255
  5778  071A  00C1               	movwf	___flmul@temp+1
  5779  071B  2F39               	goto	l2348
  5780  071C                     l2338:
  5781  071C  3001               	movlw	1
  5782  071D  00B0               	movwf	??___flmul
  5783  071E                     u3325:
  5784  071E  1003               	clrc
  5785  071F  0DBC               	rlf	___flmul@prod,f
  5786  0720  0DBD               	rlf	___flmul@prod+1,f
  5787  0721  0DBE               	rlf	___flmul@prod+2,f
  5788  0722  0DBF               	rlf	___flmul@prod+3,f
  5789  0723  0BB0               	decfsz	??___flmul,f
  5790  0724  2F1E               	goto	u3325
  5791  0725                     l2340:
  5792  0725  1FB9               	btfss	___flmul@grs+3,7
  5793  0726  2F28               	goto	u3331
  5794  0727  2F29               	goto	u3330
  5795  0728                     u3331:
  5796  0728  2F2A               	goto	l2344
  5797  0729                     u3330:
  5798  0729                     l2342:
  5799  0729  143C               	bsf	___flmul@prod,0
  5800  072A                     l2344:
  5801  072A  3001               	movlw	1
  5802  072B  00B0               	movwf	??___flmul
  5803  072C                     u3345:
  5804  072C  1003               	clrc
  5805  072D  0DB6               	rlf	___flmul@grs,f
  5806  072E  0DB7               	rlf	___flmul@grs+1,f
  5807  072F  0DB8               	rlf	___flmul@grs+2,f
  5808  0730  0DB9               	rlf	___flmul@grs+3,f
  5809  0731  0BB0               	decfsz	??___flmul,f
  5810  0732  2F2C               	goto	u3345
  5811  0733                     l2346:
  5812  0733  30FF               	movlw	255
  5813  0734  07C0               	addwf	___flmul@temp,f
  5814  0735  1803               	skipnc
  5815  0736  0AC1               	incf	___flmul@temp+1,f
  5816  0737  30FF               	movlw	255
  5817  0738  07C1               	addwf	___flmul@temp+1,f
  5818  0739                     l2348:
  5819  0739  1FBE               	btfss	___flmul@prod+2,7
  5820  073A  2F3C               	goto	u3351
  5821  073B  2F3D               	goto	u3350
  5822  073C                     u3351:
  5823  073C  2F1C               	goto	l2338
  5824  073D                     u3350:
  5825  073D                     l2350:
  5826  073D  01BA               	clrf	___flmul@aexp
  5827  073E                     l2352:
  5828  073E  1FB9               	btfss	___flmul@grs+3,7
  5829  073F  2F41               	goto	u3361
  5830  0740  2F42               	goto	u3360
  5831  0741                     u3361:
  5832  0741  2F5E               	goto	l2360
  5833  0742                     u3360:
  5834  0742                     l2354:
  5835  0742  30FF               	movlw	255
  5836  0743  0536               	andwf	___flmul@grs,w
  5837  0744  00B0               	movwf	??___flmul
  5838  0745  30FF               	movlw	255
  5839  0746  0537               	andwf	___flmul@grs+1,w
  5840  0747  00B1               	movwf	??___flmul+1
  5841  0748  30FF               	movlw	255
  5842  0749  0538               	andwf	___flmul@grs+2,w
  5843  074A  00B2               	movwf	??___flmul+2
  5844  074B  307F               	movlw	127
  5845  074C  0539               	andwf	___flmul@grs+3,w
  5846  074D  00B3               	movwf	??___flmul+3
  5847  074E  0833               	movf	??___flmul+3,w
  5848  074F  0432               	iorwf	??___flmul+2,w
  5849  0750  0431               	iorwf	??___flmul+1,w
  5850  0751  0430               	iorwf	??___flmul,w
  5851  0752  1903               	skipnz
  5852  0753  2F55               	goto	u3371
  5853  0754  2F56               	goto	u3370
  5854  0755                     u3371:
  5855  0755  2F59               	goto	l665
  5856  0756                     u3370:
  5857  0756                     l2356:
  5858  0756  01BA               	clrf	___flmul@aexp
  5859  0757  0ABA               	incf	___flmul@aexp,f
  5860  0758  2F5E               	goto	l2360
  5861  0759                     l665:
  5862  0759  1C3C               	btfss	___flmul@prod,0
  5863  075A  2F5C               	goto	u3381
  5864  075B  2F5D               	goto	u3380
  5865  075C                     u3381:
  5866  075C  2F5E               	goto	l2360
  5867  075D                     u3380:
  5868  075D  2F56               	goto	l2356
  5869  075E                     l2360:
  5870  075E  083A               	movf	___flmul@aexp,w
  5871  075F  1903               	btfsc	3,2
  5872  0760  2F62               	goto	u3391
  5873  0761  2F63               	goto	u3390
  5874  0762                     u3391:
  5875  0762  2F94               	goto	l2370
  5876  0763                     u3390:
  5877  0763                     l2362:
  5878  0763  3001               	movlw	1
  5879  0764  07BC               	addwf	___flmul@prod,f
  5880  0765  3000               	movlw	0
  5881  0766  1803               	skipnc
  5882  0767  3001               	movlw	1
  5883  0768  07BD               	addwf	___flmul@prod+1,f
  5884  0769  3000               	movlw	0
  5885  076A  1803               	skipnc
  5886  076B  3001               	movlw	1
  5887  076C  07BE               	addwf	___flmul@prod+2,f
  5888  076D  3000               	movlw	0
  5889  076E  1803               	skipnc
  5890  076F  3001               	movlw	1
  5891  0770  07BF               	addwf	___flmul@prod+3,f
  5892  0771                     l2364:
  5893  0771  1C3F               	btfss	___flmul@prod+3,0
  5894  0772  2F74               	goto	u3401
  5895  0773  2F75               	goto	u3400
  5896  0774                     u3401:
  5897  0774  2F94               	goto	l2370
  5898  0775                     u3400:
  5899  0775                     l2366:
  5900  0775  083C               	movf	___flmul@prod,w
  5901  0776  00B0               	movwf	??___flmul
  5902  0777  083D               	movf	___flmul@prod+1,w
  5903  0778  00B1               	movwf	??___flmul+1
  5904  0779  083E               	movf	___flmul@prod+2,w
  5905  077A  00B2               	movwf	??___flmul+2
  5906  077B  083F               	movf	___flmul@prod+3,w
  5907  077C  00B3               	movwf	??___flmul+3
  5908  077D  3001               	movlw	1
  5909  077E  00B4               	movwf	??___flmul+4
  5910  077F                     u3415:
  5911  077F  0D33               	rlf	??___flmul+3,w
  5912  0780  0CB3               	rrf	??___flmul+3,f
  5913  0781  0CB2               	rrf	??___flmul+2,f
  5914  0782  0CB1               	rrf	??___flmul+1,f
  5915  0783  0CB0               	rrf	??___flmul,f
  5916  0784                     u3410:
  5917  0784  0BB4               	decfsz	??___flmul+4,f
  5918  0785  2F7F               	goto	u3415
  5919  0786  0833               	movf	??___flmul+3,w
  5920  0787  00BF               	movwf	___flmul@prod+3
  5921  0788  0832               	movf	??___flmul+2,w
  5922  0789  00BE               	movwf	___flmul@prod+2
  5923  078A  0831               	movf	??___flmul+1,w
  5924  078B  00BD               	movwf	___flmul@prod+1
  5925  078C  0830               	movf	??___flmul,w
  5926  078D  00BC               	movwf	___flmul@prod
  5927  078E                     l2368:
  5928  078E  3001               	movlw	1
  5929  078F  07C0               	addwf	___flmul@temp,f
  5930  0790  1803               	skipnc
  5931  0791  0AC1               	incf	___flmul@temp+1,f
  5932  0792  3000               	movlw	0
  5933  0793  07C1               	addwf	___flmul@temp+1,f
  5934  0794                     l2370:
  5935  0794  0841               	movf	___flmul@temp+1,w
  5936  0795  3A80               	xorlw	128
  5937  0796  00FF               	movwf	btemp+1
  5938  0797  3080               	movlw	128
  5939  0798  027F               	subwf	btemp+1,w
  5940  0799  1D03               	skipz
  5941  079A  2F9D               	goto	u3425
  5942  079B  30FF               	movlw	255
  5943  079C  0240               	subwf	___flmul@temp,w
  5944  079D                     u3425:
  5945  079D  1C03               	skipc
  5946  079E  2FA0               	goto	u3421
  5947  079F  2FA1               	goto	u3420
  5948  07A0                     u3421:
  5949  07A0  2FAC               	goto	l2374
  5950  07A1                     u3420:
  5951  07A1                     l2372:
  5952  07A1  307F               	movlw	127
  5953  07A2  1283               	bcf	3,5	;RP0=0, select bank0
  5954  07A3  1303               	bcf	3,6	;RP1=0, select bank0
  5955  07A4  00BF               	movwf	___flmul@prod+3
  5956  07A5  3080               	movlw	128
  5957  07A6  00BE               	movwf	___flmul@prod+2
  5958  07A7  3000               	movlw	0
  5959  07A8  00BD               	movwf	___flmul@prod+1
  5960  07A9  3000               	movlw	0
  5961  07AA  00BC               	movwf	___flmul@prod
  5962  07AB  2FE1               	goto	l671
  5963  07AC                     l2374:
  5964  07AC  1283               	bcf	3,5	;RP0=0, select bank0
  5965  07AD  1303               	bcf	3,6	;RP1=0, select bank0
  5966  07AE  0841               	movf	___flmul@temp+1,w
  5967  07AF  3A80               	xorlw	128
  5968  07B0  00FF               	movwf	btemp+1
  5969  07B1  3080               	movlw	128
  5970  07B2  027F               	subwf	btemp+1,w
  5971  07B3  1D03               	skipz
  5972  07B4  2FB7               	goto	u3435
  5973  07B5  3001               	movlw	1
  5974  07B6  0240               	subwf	___flmul@temp,w
  5975  07B7                     u3435:
  5976  07B7  1803               	skipnc
  5977  07B8  2FBA               	goto	u3431
  5978  07B9  2FBB               	goto	u3430
  5979  07BA                     u3431:
  5980  07BA  2FC7               	goto	l2380
  5981  07BB                     u3430:
  5982  07BB                     l2376:
  5983  07BB  3000               	movlw	0
  5984  07BC  1283               	bcf	3,5	;RP0=0, select bank0
  5985  07BD  1303               	bcf	3,6	;RP1=0, select bank0
  5986  07BE  00BF               	movwf	___flmul@prod+3
  5987  07BF  3000               	movlw	0
  5988  07C0  00BE               	movwf	___flmul@prod+2
  5989  07C1  3000               	movlw	0
  5990  07C2  00BD               	movwf	___flmul@prod+1
  5991  07C3  3000               	movlw	0
  5992  07C4  00BC               	movwf	___flmul@prod
  5993  07C5                     l2378:
  5994  07C5  01B5               	clrf	___flmul@sign
  5995  07C6  2FE1               	goto	l671
  5996  07C7                     l2380:
  5997  07C7  1283               	bcf	3,5	;RP0=0, select bank0
  5998  07C8  1303               	bcf	3,6	;RP1=0, select bank0
  5999  07C9  0840               	movf	___flmul@temp,w
  6000  07CA  00B0               	movwf	??___flmul
  6001  07CB  0830               	movf	??___flmul,w
  6002  07CC  00BB               	movwf	___flmul@bexp
  6003  07CD  30FF               	movlw	255
  6004  07CE  05BC               	andwf	___flmul@prod,f
  6005  07CF  30FF               	movlw	255
  6006  07D0  05BD               	andwf	___flmul@prod+1,f
  6007  07D1  307F               	movlw	127
  6008  07D2  05BE               	andwf	___flmul@prod+2,f
  6009  07D3  3000               	movlw	0
  6010  07D4  05BF               	andwf	___flmul@prod+3,f
  6011  07D5                     l2382:
  6012  07D5  1C3B               	btfss	___flmul@bexp,0
  6013  07D6  2FD8               	goto	u3441
  6014  07D7  2FD9               	goto	u3440
  6015  07D8                     u3441:
  6016  07D8  2FDA               	goto	l2386
  6017  07D9                     u3440:
  6018  07D9                     l2384:
  6019  07D9  17BE               	bsf	___flmul@prod+2,7
  6020  07DA                     l2386:
  6021  07DA  083B               	movf	___flmul@bexp,w
  6022  07DB  00B0               	movwf	??___flmul
  6023  07DC  1003               	clrc
  6024  07DD  0C30               	rrf	??___flmul,w
  6025  07DE  00B1               	movwf	??___flmul+1
  6026  07DF  0831               	movf	??___flmul+1,w
  6027  07E0  00BF               	movwf	___flmul@prod+3
  6028  07E1                     l671:
  6029  07E1  0835               	movf	___flmul@sign,w
  6030  07E2  00B0               	movwf	??___flmul
  6031  07E3  0830               	movf	??___flmul,w
  6032  07E4  04BF               	iorwf	___flmul@prod+3,f
  6033  07E5                     l2388:
  6034  07E5  083F               	movf	___flmul@prod+3,w
  6035  07E6  00AB               	movwf	?___flmul+3
  6036  07E7  083E               	movf	___flmul@prod+2,w
  6037  07E8  00AA               	movwf	?___flmul+2
  6038  07E9  083D               	movf	___flmul@prod+1,w
  6039  07EA  00A9               	movwf	?___flmul+1
  6040  07EB  083C               	movf	___flmul@prod,w
  6041  07EC  00A8               	movwf	?___flmul
  6042  07ED                     l659:
  6043  07ED  0008               	return
  6044  07EE                     __end_of___flmul:
  6045                           
  6046                           	psect	text17
  6047  1768                     __ptext17:	
  6048 ;; *************** function __Umul8_16 *****************
  6049 ;; Defined at:
  6050 ;;		line 4 in file "C:\Program Files\Microchip\xc8\v2.32\pic\sources\c90\common\Umul8_16.c"
  6051 ;; Parameters:    Size  Location     Type
  6052 ;;  multiplier      1    wreg     unsigned char 
  6053 ;;  multiplicand    1    0[COMMON] unsigned char 
  6054 ;; Auto vars:     Size  Location     Type
  6055 ;;  multiplier      1    8[COMMON] unsigned char 
  6056 ;;  word_mpld       2    6[COMMON] unsigned int 
  6057 ;;  product         2    4[COMMON] unsigned int 
  6058 ;; Return value:  Size  Location     Type
  6059 ;;                  2    0[COMMON] unsigned int 
  6060 ;; Registers used:
  6061 ;;		wreg, status,2, status,0
  6062 ;; Tracked objects:
  6063 ;;		On entry : 0/0
  6064 ;;		On exit  : 0/0
  6065 ;;		Unchanged: 0/0
  6066 ;; Data sizes:     COMMON   BANK0   BANK1   BANK3   BANK2
  6067 ;;      Params:         2       0       0       0       0
  6068 ;;      Locals:         5       0       0       0       0
  6069 ;;      Temps:          2       0       0       0       0
  6070 ;;      Totals:         9       0       0       0       0
  6071 ;;Total ram usage:        9 bytes
  6072 ;; Hardware stack levels used: 1
  6073 ;; This function calls:
  6074 ;;		Nothing
  6075 ;; This function is called by:
  6076 ;;		___flmul
  6077 ;; This function uses a non-reentrant model
  6078 ;;
  6079                           
  6080                           
  6081                           ;psect for function __Umul8_16
  6082  1768                     __Umul8_16:
  6083                           
  6084                           ;incstack = 0
  6085                           ; Regs used in __Umul8_16: [wreg+status,2+status,0]
  6086                           ;__Umul8_16@multiplier stored from wreg
  6087  1768  00F8               	movwf	__Umul8_16@multiplier
  6088  1769                     l1970:
  6089  1769  01F4               	clrf	__Umul8_16@product
  6090  176A  01F5               	clrf	__Umul8_16@product+1
  6091  176B                     l1972:
  6092  176B  0870               	movf	__Umul8_16@multiplicand,w
  6093  176C  00F2               	movwf	??__Umul8_16
  6094  176D  01F3               	clrf	??__Umul8_16+1
  6095  176E  0872               	movf	??__Umul8_16,w
  6096  176F  00F6               	movwf	__Umul8_16@word_mpld
  6097  1770  0873               	movf	??__Umul8_16+1,w
  6098  1771  00F7               	movwf	__Umul8_16@word_mpld+1
  6099  1772                     l1974:
  6100  1772  1C78               	btfss	__Umul8_16@multiplier,0
  6101  1773  2F75               	goto	u2541
  6102  1774  2F76               	goto	u2540
  6103  1775                     u2541:
  6104  1775  2F7C               	goto	l678
  6105  1776                     u2540:
  6106  1776                     l1976:
  6107  1776  0876               	movf	__Umul8_16@word_mpld,w
  6108  1777  07F4               	addwf	__Umul8_16@product,f
  6109  1778  1803               	skipnc
  6110  1779  0AF5               	incf	__Umul8_16@product+1,f
  6111  177A  0877               	movf	__Umul8_16@word_mpld+1,w
  6112  177B  07F5               	addwf	__Umul8_16@product+1,f
  6113  177C                     l678:
  6114  177C  3001               	movlw	1
  6115  177D                     u2555:
  6116  177D  1003               	clrc
  6117  177E  0DF6               	rlf	__Umul8_16@word_mpld,f
  6118  177F  0DF7               	rlf	__Umul8_16@word_mpld+1,f
  6119  1780  3EFF               	addlw	-1
  6120  1781  1D03               	skipz
  6121  1782  2F7D               	goto	u2555
  6122  1783  1003               	clrc
  6123  1784  0CF8               	rrf	__Umul8_16@multiplier,f
  6124  1785                     l1978:
  6125  1785  0878               	movf	__Umul8_16@multiplier,w
  6126  1786  1D03               	btfss	3,2
  6127  1787  2F89               	goto	u2561
  6128  1788  2F8A               	goto	u2560
  6129  1789                     u2561:
  6130  1789  2F72               	goto	l1974
  6131  178A                     u2560:
  6132  178A                     l1980:
  6133  178A  0875               	movf	__Umul8_16@product+1,w
  6134  178B  00F1               	movwf	?__Umul8_16+1
  6135  178C  0874               	movf	__Umul8_16@product,w
  6136  178D  00F0               	movwf	?__Umul8_16
  6137  178E                     l680:
  6138  178E  0008               	return
  6139  178F                     __end_of__Umul8_16:
  6140                           
  6141                           	psect	text18
  6142  0B8B                     __ptext18:	
  6143 ;; *************** function ___fldiv *****************
  6144 ;; Defined at:
  6145 ;;		line 8 in file "C:\Program Files\Microchip\xc8\v2.32\pic\sources\c90\common\sprcdiv.c"
  6146 ;; Parameters:    Size  Location     Type
  6147 ;;  a               4   34[BANK0 ] unsigned int 
  6148 ;;  b               4   38[BANK0 ] unsigned int 
  6149 ;; Auto vars:     Size  Location     Type
  6150 ;;  grs             4   54[BANK0 ] unsigned long 
  6151 ;;  rem             4   47[BANK0 ] unsigned long 
  6152 ;;  new_exp         2   52[BANK0 ] int 
  6153 ;;  aexp            1   59[BANK0 ] unsigned char 
  6154 ;;  bexp            1   58[BANK0 ] unsigned char 
  6155 ;;  sign            1   51[BANK0 ] unsigned char 
  6156 ;; Return value:  Size  Location     Type
  6157 ;;                  4   34[BANK0 ] unsigned char 
  6158 ;; Registers used:
  6159 ;;		wreg, status,2, status,0, btemp+1
  6160 ;; Tracked objects:
  6161 ;;		On entry : 0/0
  6162 ;;		On exit  : 0/0
  6163 ;;		Unchanged: 0/0
  6164 ;; Data sizes:     COMMON   BANK0   BANK1   BANK3   BANK2
  6165 ;;      Params:         0       8       0       0       0
  6166 ;;      Locals:         0      13       0       0       0
  6167 ;;      Temps:          0       5       0       0       0
  6168 ;;      Totals:         0      26       0       0       0
  6169 ;;Total ram usage:       26 bytes
  6170 ;; Hardware stack levels used: 1
  6171 ;; This function calls:
  6172 ;;		Nothing
  6173 ;; This function is called by:
  6174 ;;		_Quadra_Al
  6175 ;; This function uses a non-reentrant model
  6176 ;;
  6177                           
  6178                           
  6179                           ;psect for function ___fldiv
  6180  0B8B                     ___fldiv:
  6181  0B8B                     l2110:	
  6182                           ;incstack = 0
  6183                           ; Regs used in ___fldiv: [wreg+status,2+status,0+btemp+1]
  6184                           
  6185  0B8B  1283               	bcf	3,5	;RP0=0, select bank0
  6186  0B8C  1303               	bcf	3,6	;RP1=0, select bank0
  6187  0B8D  0849               	movf	___fldiv@b+3,w
  6188  0B8E  3980               	andlw	128
  6189  0B8F  00CA               	movwf	??___fldiv
  6190  0B90  084A               	movf	??___fldiv,w
  6191  0B91  00D3               	movwf	___fldiv@sign
  6192  0B92                     l2112:
  6193  0B92  0849               	movf	___fldiv@b+3,w
  6194  0B93  00CA               	movwf	??___fldiv
  6195  0B94  074A               	addwf	??___fldiv,w
  6196  0B95  00CB               	movwf	??___fldiv+1
  6197  0B96  084B               	movf	??___fldiv+1,w
  6198  0B97  00DA               	movwf	___fldiv@bexp
  6199  0B98                     l2114:
  6200  0B98  1FC8               	btfss	___fldiv@b+2,7
  6201  0B99  2B9B               	goto	u2791
  6202  0B9A  2B9C               	goto	u2790
  6203  0B9B                     u2791:
  6204  0B9B  2B9D               	goto	l2118
  6205  0B9C                     u2790:
  6206  0B9C                     l2116:
  6207  0B9C  145A               	bsf	___fldiv@bexp,0
  6208  0B9D                     l2118:
  6209  0B9D  085A               	movf	___fldiv@bexp,w
  6210  0B9E  1903               	btfsc	3,2
  6211  0B9F  2BA1               	goto	u2801
  6212  0BA0  2BA2               	goto	u2800
  6213  0BA1                     u2801:
  6214  0BA1  2BB2               	goto	l2128
  6215  0BA2                     u2800:
  6216  0BA2                     l2120:
  6217  0BA2  0A5A               	incf	___fldiv@bexp,w
  6218  0BA3  1D03               	btfss	3,2
  6219  0BA4  2BA6               	goto	u2811
  6220  0BA5  2BA7               	goto	u2810
  6221  0BA6                     u2811:
  6222  0BA6  2BAF               	goto	l2124
  6223  0BA7                     u2810:
  6224  0BA7                     l2122:
  6225  0BA7  3000               	movlw	0
  6226  0BA8  00C9               	movwf	___fldiv@b+3
  6227  0BA9  3000               	movlw	0
  6228  0BAA  00C8               	movwf	___fldiv@b+2
  6229  0BAB  3000               	movlw	0
  6230  0BAC  00C7               	movwf	___fldiv@b+1
  6231  0BAD  3000               	movlw	0
  6232  0BAE  00C6               	movwf	___fldiv@b
  6233  0BAF                     l2124:
  6234  0BAF  17C8               	bsf	___fldiv@b+2,7
  6235  0BB0                     l2126:
  6236  0BB0  01C9               	clrf	___fldiv@b+3
  6237  0BB1  2BBA               	goto	l2130
  6238  0BB2                     l2128:
  6239  0BB2  3000               	movlw	0
  6240  0BB3  00C9               	movwf	___fldiv@b+3
  6241  0BB4  3000               	movlw	0
  6242  0BB5  00C8               	movwf	___fldiv@b+2
  6243  0BB6  3000               	movlw	0
  6244  0BB7  00C7               	movwf	___fldiv@b+1
  6245  0BB8  3000               	movlw	0
  6246  0BB9  00C6               	movwf	___fldiv@b
  6247  0BBA                     l2130:
  6248  0BBA  0845               	movf	___fldiv@a+3,w
  6249  0BBB  3980               	andlw	128
  6250  0BBC  00CA               	movwf	??___fldiv
  6251  0BBD  084A               	movf	??___fldiv,w
  6252  0BBE  06D3               	xorwf	___fldiv@sign,f
  6253  0BBF                     l2132:
  6254  0BBF  0845               	movf	___fldiv@a+3,w
  6255  0BC0  00CA               	movwf	??___fldiv
  6256  0BC1  074A               	addwf	??___fldiv,w
  6257  0BC2  00CB               	movwf	??___fldiv+1
  6258  0BC3  084B               	movf	??___fldiv+1,w
  6259  0BC4  00DB               	movwf	___fldiv@aexp
  6260  0BC5                     l2134:
  6261  0BC5  1FC4               	btfss	___fldiv@a+2,7
  6262  0BC6  2BC8               	goto	u2821
  6263  0BC7  2BC9               	goto	u2820
  6264  0BC8                     u2821:
  6265  0BC8  2BCA               	goto	l2138
  6266  0BC9                     u2820:
  6267  0BC9                     l2136:
  6268  0BC9  145B               	bsf	___fldiv@aexp,0
  6269  0BCA                     l2138:
  6270  0BCA  085B               	movf	___fldiv@aexp,w
  6271  0BCB  1903               	btfsc	3,2
  6272  0BCC  2BCE               	goto	u2831
  6273  0BCD  2BCF               	goto	u2830
  6274  0BCE                     u2831:
  6275  0BCE  2BDF               	goto	l2148
  6276  0BCF                     u2830:
  6277  0BCF                     l2140:
  6278  0BCF  0A5B               	incf	___fldiv@aexp,w
  6279  0BD0  1D03               	btfss	3,2
  6280  0BD1  2BD3               	goto	u2841
  6281  0BD2  2BD4               	goto	u2840
  6282  0BD3                     u2841:
  6283  0BD3  2BDC               	goto	l2144
  6284  0BD4                     u2840:
  6285  0BD4                     l2142:
  6286  0BD4  3000               	movlw	0
  6287  0BD5  00C5               	movwf	___fldiv@a+3
  6288  0BD6  3000               	movlw	0
  6289  0BD7  00C4               	movwf	___fldiv@a+2
  6290  0BD8  3000               	movlw	0
  6291  0BD9  00C3               	movwf	___fldiv@a+1
  6292  0BDA  3000               	movlw	0
  6293  0BDB  00C2               	movwf	___fldiv@a
  6294  0BDC                     l2144:
  6295  0BDC  17C4               	bsf	___fldiv@a+2,7
  6296  0BDD                     l2146:
  6297  0BDD  01C5               	clrf	___fldiv@a+3
  6298  0BDE  2BE7               	goto	l619
  6299  0BDF                     l2148:
  6300  0BDF  3000               	movlw	0
  6301  0BE0  00C5               	movwf	___fldiv@a+3
  6302  0BE1  3000               	movlw	0
  6303  0BE2  00C4               	movwf	___fldiv@a+2
  6304  0BE3  3000               	movlw	0
  6305  0BE4  00C3               	movwf	___fldiv@a+1
  6306  0BE5  3000               	movlw	0
  6307  0BE6  00C2               	movwf	___fldiv@a
  6308  0BE7                     l619:
  6309  0BE7  0845               	movf	___fldiv@a+3,w
  6310  0BE8  0444               	iorwf	___fldiv@a+2,w
  6311  0BE9  0443               	iorwf	___fldiv@a+1,w
  6312  0BEA  0442               	iorwf	___fldiv@a,w
  6313  0BEB  1D03               	skipz
  6314  0BEC  2BEE               	goto	u2851
  6315  0BED  2BEF               	goto	u2850
  6316  0BEE                     u2851:
  6317  0BEE  2C08               	goto	l2158
  6318  0BEF                     u2850:
  6319  0BEF                     l2150:
  6320  0BEF  3000               	movlw	0
  6321  0BF0  00C9               	movwf	___fldiv@b+3
  6322  0BF1  3000               	movlw	0
  6323  0BF2  00C8               	movwf	___fldiv@b+2
  6324  0BF3  3000               	movlw	0
  6325  0BF4  00C7               	movwf	___fldiv@b+1
  6326  0BF5  3000               	movlw	0
  6327  0BF6  00C6               	movwf	___fldiv@b
  6328  0BF7  3080               	movlw	128
  6329  0BF8  04C8               	iorwf	___fldiv@b+2,f
  6330  0BF9  307F               	movlw	127
  6331  0BFA  04C9               	iorwf	___fldiv@b+3,f
  6332  0BFB                     l2152:
  6333  0BFB  0853               	movf	___fldiv@sign,w
  6334  0BFC  00CA               	movwf	??___fldiv
  6335  0BFD  084A               	movf	??___fldiv,w
  6336  0BFE  04C9               	iorwf	___fldiv@b+3,f
  6337  0BFF                     l2154:
  6338  0BFF  0849               	movf	___fldiv@b+3,w
  6339  0C00  00C5               	movwf	?___fldiv+3
  6340  0C01  0848               	movf	___fldiv@b+2,w
  6341  0C02  00C4               	movwf	?___fldiv+2
  6342  0C03  0847               	movf	___fldiv@b+1,w
  6343  0C04  00C3               	movwf	?___fldiv+1
  6344  0C05  0846               	movf	___fldiv@b,w
  6345  0C06  00C2               	movwf	?___fldiv
  6346  0C07  2D67               	goto	l621
  6347  0C08                     l2158:
  6348  0C08  085A               	movf	___fldiv@bexp,w
  6349  0C09  1D03               	btfss	3,2
  6350  0C0A  2C0C               	goto	u2861
  6351  0C0B  2C0D               	goto	u2860
  6352  0C0C                     u2861:
  6353  0C0C  2C16               	goto	l2164
  6354  0C0D                     u2860:
  6355  0C0D                     l2160:
  6356  0C0D  3000               	movlw	0
  6357  0C0E  00C5               	movwf	?___fldiv+3
  6358  0C0F  3000               	movlw	0
  6359  0C10  00C4               	movwf	?___fldiv+2
  6360  0C11  3000               	movlw	0
  6361  0C12  00C3               	movwf	?___fldiv+1
  6362  0C13  3000               	movlw	0
  6363  0C14  00C2               	movwf	?___fldiv
  6364  0C15  2D67               	goto	l621
  6365  0C16                     l2164:
  6366  0C16  085A               	movf	___fldiv@bexp,w
  6367  0C17  00CA               	movwf	??___fldiv
  6368  0C18  01CB               	clrf	??___fldiv+1
  6369  0C19  084B               	movf	??___fldiv+1,w
  6370  0C1A  00CD               	movwf	??___fldiv+3
  6371  0C1B  085B               	movf	___fldiv@aexp,w
  6372  0C1C  024A               	subwf	??___fldiv,w
  6373  0C1D  00CC               	movwf	??___fldiv+2
  6374  0C1E  1C03               	skipc
  6375  0C1F  03CD               	decf	??___fldiv+3,f
  6376  0C20  084C               	movf	??___fldiv+2,w
  6377  0C21  3E7F               	addlw	127
  6378  0C22  00D4               	movwf	___fldiv@new_exp
  6379  0C23  084D               	movf	??___fldiv+3,w
  6380  0C24  1803               	skipnc
  6381  0C25  3E01               	addlw	1
  6382  0C26  3E00               	addlw	0
  6383  0C27  00D5               	movwf	___fldiv@new_exp+1
  6384  0C28                     l2166:
  6385  0C28  0849               	movf	___fldiv@b+3,w
  6386  0C29  00D2               	movwf	___fldiv@rem+3
  6387  0C2A  0848               	movf	___fldiv@b+2,w
  6388  0C2B  00D1               	movwf	___fldiv@rem+2
  6389  0C2C  0847               	movf	___fldiv@b+1,w
  6390  0C2D  00D0               	movwf	___fldiv@rem+1
  6391  0C2E  0846               	movf	___fldiv@b,w
  6392  0C2F  00CF               	movwf	___fldiv@rem
  6393  0C30                     l2168:
  6394  0C30  3000               	movlw	0
  6395  0C31  00C9               	movwf	___fldiv@b+3
  6396  0C32  3000               	movlw	0
  6397  0C33  00C8               	movwf	___fldiv@b+2
  6398  0C34  3000               	movlw	0
  6399  0C35  00C7               	movwf	___fldiv@b+1
  6400  0C36  3000               	movlw	0
  6401  0C37  00C6               	movwf	___fldiv@b
  6402  0C38                     l2170:
  6403  0C38  3000               	movlw	0
  6404  0C39  00D9               	movwf	___fldiv@grs+3
  6405  0C3A  3000               	movlw	0
  6406  0C3B  00D8               	movwf	___fldiv@grs+2
  6407  0C3C  3000               	movlw	0
  6408  0C3D  00D7               	movwf	___fldiv@grs+1
  6409  0C3E  3000               	movlw	0
  6410  0C3F  00D6               	movwf	___fldiv@grs
  6411  0C40                     l2172:
  6412  0C40  01DB               	clrf	___fldiv@aexp
  6413  0C41  2C8C               	goto	l2192
  6414  0C42                     l2174:
  6415  0C42  085B               	movf	___fldiv@aexp,w
  6416  0C43  1903               	btfsc	3,2
  6417  0C44  2C46               	goto	u2871
  6418  0C45  2C47               	goto	u2870
  6419  0C46                     u2871:
  6420  0C46  2C67               	goto	l2184
  6421  0C47                     u2870:
  6422  0C47                     l2176:
  6423  0C47  3001               	movlw	1
  6424  0C48  00CA               	movwf	??___fldiv
  6425  0C49                     u2885:
  6426  0C49  1003               	clrc
  6427  0C4A  0DCF               	rlf	___fldiv@rem,f
  6428  0C4B  0DD0               	rlf	___fldiv@rem+1,f
  6429  0C4C  0DD1               	rlf	___fldiv@rem+2,f
  6430  0C4D  0DD2               	rlf	___fldiv@rem+3,f
  6431  0C4E  0BCA               	decfsz	??___fldiv,f
  6432  0C4F  2C49               	goto	u2885
  6433  0C50  3001               	movlw	1
  6434  0C51  00CA               	movwf	??___fldiv
  6435  0C52                     u2895:
  6436  0C52  1003               	clrc
  6437  0C53  0DC6               	rlf	___fldiv@b,f
  6438  0C54  0DC7               	rlf	___fldiv@b+1,f
  6439  0C55  0DC8               	rlf	___fldiv@b+2,f
  6440  0C56  0DC9               	rlf	___fldiv@b+3,f
  6441  0C57  0BCA               	decfsz	??___fldiv,f
  6442  0C58  2C52               	goto	u2895
  6443  0C59                     l2178:
  6444  0C59  1FD9               	btfss	___fldiv@grs+3,7
  6445  0C5A  2C5C               	goto	u2901
  6446  0C5B  2C5D               	goto	u2900
  6447  0C5C                     u2901:
  6448  0C5C  2C5E               	goto	l2182
  6449  0C5D                     u2900:
  6450  0C5D                     l2180:
  6451  0C5D  1446               	bsf	___fldiv@b,0
  6452  0C5E                     l2182:
  6453  0C5E  3001               	movlw	1
  6454  0C5F  00CA               	movwf	??___fldiv
  6455  0C60                     u2915:
  6456  0C60  1003               	clrc
  6457  0C61  0DD6               	rlf	___fldiv@grs,f
  6458  0C62  0DD7               	rlf	___fldiv@grs+1,f
  6459  0C63  0DD8               	rlf	___fldiv@grs+2,f
  6460  0C64  0DD9               	rlf	___fldiv@grs+3,f
  6461  0C65  0BCA               	decfsz	??___fldiv,f
  6462  0C66  2C60               	goto	u2915
  6463  0C67                     l2184:
  6464  0C67  0845               	movf	___fldiv@a+3,w
  6465  0C68  0252               	subwf	___fldiv@rem+3,w
  6466  0C69  1D03               	skipz
  6467  0C6A  2C75               	goto	u2925
  6468  0C6B  0844               	movf	___fldiv@a+2,w
  6469  0C6C  0251               	subwf	___fldiv@rem+2,w
  6470  0C6D  1D03               	skipz
  6471  0C6E  2C75               	goto	u2925
  6472  0C6F  0843               	movf	___fldiv@a+1,w
  6473  0C70  0250               	subwf	___fldiv@rem+1,w
  6474  0C71  1D03               	skipz
  6475  0C72  2C75               	goto	u2925
  6476  0C73  0842               	movf	___fldiv@a,w
  6477  0C74  024F               	subwf	___fldiv@rem,w
  6478  0C75                     u2925:
  6479  0C75  1C03               	skipc
  6480  0C76  2C78               	goto	u2921
  6481  0C77  2C79               	goto	u2920
  6482  0C78                     u2921:
  6483  0C78  2C88               	goto	l2190
  6484  0C79                     u2920:
  6485  0C79                     l2186:
  6486  0C79  1759               	bsf	___fldiv@grs+3,6
  6487  0C7A                     l2188:
  6488  0C7A  0842               	movf	___fldiv@a,w
  6489  0C7B  02CF               	subwf	___fldiv@rem,f
  6490  0C7C  0843               	movf	___fldiv@a+1,w
  6491  0C7D  1C03               	skipc
  6492  0C7E  0F43               	incfsz	___fldiv@a+1,w
  6493  0C7F  02D0               	subwf	___fldiv@rem+1,f
  6494  0C80  0844               	movf	___fldiv@a+2,w
  6495  0C81  1C03               	skipc
  6496  0C82  0F44               	incfsz	___fldiv@a+2,w
  6497  0C83  02D1               	subwf	___fldiv@rem+2,f
  6498  0C84  0845               	movf	___fldiv@a+3,w
  6499  0C85  1C03               	skipc
  6500  0C86  0F45               	incfsz	___fldiv@a+3,w
  6501  0C87  02D2               	subwf	___fldiv@rem+3,f
  6502  0C88                     l2190:
  6503  0C88  3001               	movlw	1
  6504  0C89  00CA               	movwf	??___fldiv
  6505  0C8A  084A               	movf	??___fldiv,w
  6506  0C8B  07DB               	addwf	___fldiv@aexp,f
  6507  0C8C                     l2192:
  6508  0C8C  301A               	movlw	26
  6509  0C8D  025B               	subwf	___fldiv@aexp,w
  6510  0C8E  1C03               	skipc
  6511  0C8F  2C91               	goto	u2931
  6512  0C90  2C92               	goto	u2930
  6513  0C91                     u2931:
  6514  0C91  2C42               	goto	l2174
  6515  0C92                     u2930:
  6516  0C92                     l2194:
  6517  0C92  0852               	movf	___fldiv@rem+3,w
  6518  0C93  0451               	iorwf	___fldiv@rem+2,w
  6519  0C94  0450               	iorwf	___fldiv@rem+1,w
  6520  0C95  044F               	iorwf	___fldiv@rem,w
  6521  0C96  1903               	skipnz
  6522  0C97  2C99               	goto	u2941
  6523  0C98  2C9A               	goto	u2940
  6524  0C99                     u2941:
  6525  0C99  2CB9               	goto	l2208
  6526  0C9A                     u2940:
  6527  0C9A                     l2196:
  6528  0C9A  1456               	bsf	___fldiv@grs,0
  6529  0C9B  2CB9               	goto	l2208
  6530  0C9C                     l2198:
  6531  0C9C  3001               	movlw	1
  6532  0C9D  00CA               	movwf	??___fldiv
  6533  0C9E                     u2955:
  6534  0C9E  1003               	clrc
  6535  0C9F  0DC6               	rlf	___fldiv@b,f
  6536  0CA0  0DC7               	rlf	___fldiv@b+1,f
  6537  0CA1  0DC8               	rlf	___fldiv@b+2,f
  6538  0CA2  0DC9               	rlf	___fldiv@b+3,f
  6539  0CA3  0BCA               	decfsz	??___fldiv,f
  6540  0CA4  2C9E               	goto	u2955
  6541  0CA5                     l2200:
  6542  0CA5  1FD9               	btfss	___fldiv@grs+3,7
  6543  0CA6  2CA8               	goto	u2961
  6544  0CA7  2CA9               	goto	u2960
  6545  0CA8                     u2961:
  6546  0CA8  2CAA               	goto	l2204
  6547  0CA9                     u2960:
  6548  0CA9                     l2202:
  6549  0CA9  1446               	bsf	___fldiv@b,0
  6550  0CAA                     l2204:
  6551  0CAA  3001               	movlw	1
  6552  0CAB  00CA               	movwf	??___fldiv
  6553  0CAC                     u2975:
  6554  0CAC  1003               	clrc
  6555  0CAD  0DD6               	rlf	___fldiv@grs,f
  6556  0CAE  0DD7               	rlf	___fldiv@grs+1,f
  6557  0CAF  0DD8               	rlf	___fldiv@grs+2,f
  6558  0CB0  0DD9               	rlf	___fldiv@grs+3,f
  6559  0CB1  0BCA               	decfsz	??___fldiv,f
  6560  0CB2  2CAC               	goto	u2975
  6561  0CB3                     l2206:
  6562  0CB3  30FF               	movlw	255
  6563  0CB4  07D4               	addwf	___fldiv@new_exp,f
  6564  0CB5  1803               	skipnc
  6565  0CB6  0AD5               	incf	___fldiv@new_exp+1,f
  6566  0CB7  30FF               	movlw	255
  6567  0CB8  07D5               	addwf	___fldiv@new_exp+1,f
  6568  0CB9                     l2208:
  6569  0CB9  1FC8               	btfss	___fldiv@b+2,7
  6570  0CBA  2CBC               	goto	u2981
  6571  0CBB  2CBD               	goto	u2980
  6572  0CBC                     u2981:
  6573  0CBC  2C9C               	goto	l2198
  6574  0CBD                     u2980:
  6575  0CBD                     l2210:
  6576  0CBD  01DB               	clrf	___fldiv@aexp
  6577  0CBE                     l2212:
  6578  0CBE  1FD9               	btfss	___fldiv@grs+3,7
  6579  0CBF  2CC1               	goto	u2991
  6580  0CC0  2CC2               	goto	u2990
  6581  0CC1                     u2991:
  6582  0CC1  2CDE               	goto	l2220
  6583  0CC2                     u2990:
  6584  0CC2                     l2214:
  6585  0CC2  30FF               	movlw	255
  6586  0CC3  0556               	andwf	___fldiv@grs,w
  6587  0CC4  00CA               	movwf	??___fldiv
  6588  0CC5  30FF               	movlw	255
  6589  0CC6  0557               	andwf	___fldiv@grs+1,w
  6590  0CC7  00CB               	movwf	??___fldiv+1
  6591  0CC8  30FF               	movlw	255
  6592  0CC9  0558               	andwf	___fldiv@grs+2,w
  6593  0CCA  00CC               	movwf	??___fldiv+2
  6594  0CCB  307F               	movlw	127
  6595  0CCC  0559               	andwf	___fldiv@grs+3,w
  6596  0CCD  00CD               	movwf	??___fldiv+3
  6597  0CCE  084D               	movf	??___fldiv+3,w
  6598  0CCF  044C               	iorwf	??___fldiv+2,w
  6599  0CD0  044B               	iorwf	??___fldiv+1,w
  6600  0CD1  044A               	iorwf	??___fldiv,w
  6601  0CD2  1903               	skipnz
  6602  0CD3  2CD5               	goto	u3001
  6603  0CD4  2CD6               	goto	u3000
  6604  0CD5                     u3001:
  6605  0CD5  2CD9               	goto	l635
  6606  0CD6                     u3000:
  6607  0CD6                     l2216:
  6608  0CD6  01DB               	clrf	___fldiv@aexp
  6609  0CD7  0ADB               	incf	___fldiv@aexp,f
  6610  0CD8  2CDE               	goto	l2220
  6611  0CD9                     l635:
  6612  0CD9  1C46               	btfss	___fldiv@b,0
  6613  0CDA  2CDC               	goto	u3011
  6614  0CDB  2CDD               	goto	u3010
  6615  0CDC                     u3011:
  6616  0CDC  2CDE               	goto	l2220
  6617  0CDD                     u3010:
  6618  0CDD  2CD6               	goto	l2216
  6619  0CDE                     l2220:
  6620  0CDE  085B               	movf	___fldiv@aexp,w
  6621  0CDF  1903               	btfsc	3,2
  6622  0CE0  2CE2               	goto	u3021
  6623  0CE1  2CE3               	goto	u3020
  6624  0CE2                     u3021:
  6625  0CE2  2D14               	goto	l2230
  6626  0CE3                     u3020:
  6627  0CE3                     l2222:
  6628  0CE3  3001               	movlw	1
  6629  0CE4  07C6               	addwf	___fldiv@b,f
  6630  0CE5  3000               	movlw	0
  6631  0CE6  1803               	skipnc
  6632  0CE7  3001               	movlw	1
  6633  0CE8  07C7               	addwf	___fldiv@b+1,f
  6634  0CE9  3000               	movlw	0
  6635  0CEA  1803               	skipnc
  6636  0CEB  3001               	movlw	1
  6637  0CEC  07C8               	addwf	___fldiv@b+2,f
  6638  0CED  3000               	movlw	0
  6639  0CEE  1803               	skipnc
  6640  0CEF  3001               	movlw	1
  6641  0CF0  07C9               	addwf	___fldiv@b+3,f
  6642  0CF1                     l2224:
  6643  0CF1  1C49               	btfss	___fldiv@b+3,0
  6644  0CF2  2CF4               	goto	u3031
  6645  0CF3  2CF5               	goto	u3030
  6646  0CF4                     u3031:
  6647  0CF4  2D14               	goto	l2230
  6648  0CF5                     u3030:
  6649  0CF5                     l2226:
  6650  0CF5  0846               	movf	___fldiv@b,w
  6651  0CF6  00CA               	movwf	??___fldiv
  6652  0CF7  0847               	movf	___fldiv@b+1,w
  6653  0CF8  00CB               	movwf	??___fldiv+1
  6654  0CF9  0848               	movf	___fldiv@b+2,w
  6655  0CFA  00CC               	movwf	??___fldiv+2
  6656  0CFB  0849               	movf	___fldiv@b+3,w
  6657  0CFC  00CD               	movwf	??___fldiv+3
  6658  0CFD  3001               	movlw	1
  6659  0CFE  00CE               	movwf	??___fldiv+4
  6660  0CFF                     u3045:
  6661  0CFF  0D4D               	rlf	??___fldiv+3,w
  6662  0D00  0CCD               	rrf	??___fldiv+3,f
  6663  0D01  0CCC               	rrf	??___fldiv+2,f
  6664  0D02  0CCB               	rrf	??___fldiv+1,f
  6665  0D03  0CCA               	rrf	??___fldiv,f
  6666  0D04                     u3040:
  6667  0D04  0BCE               	decfsz	??___fldiv+4,f
  6668  0D05  2CFF               	goto	u3045
  6669  0D06  084D               	movf	??___fldiv+3,w
  6670  0D07  00C9               	movwf	___fldiv@b+3
  6671  0D08  084C               	movf	??___fldiv+2,w
  6672  0D09  00C8               	movwf	___fldiv@b+2
  6673  0D0A  084B               	movf	??___fldiv+1,w
  6674  0D0B  00C7               	movwf	___fldiv@b+1
  6675  0D0C  084A               	movf	??___fldiv,w
  6676  0D0D  00C6               	movwf	___fldiv@b
  6677  0D0E                     l2228:
  6678  0D0E  3001               	movlw	1
  6679  0D0F  07D4               	addwf	___fldiv@new_exp,f
  6680  0D10  1803               	skipnc
  6681  0D11  0AD5               	incf	___fldiv@new_exp+1,f
  6682  0D12  3000               	movlw	0
  6683  0D13  07D5               	addwf	___fldiv@new_exp+1,f
  6684  0D14                     l2230:
  6685  0D14  0855               	movf	___fldiv@new_exp+1,w
  6686  0D15  3A80               	xorlw	128
  6687  0D16  00FF               	movwf	btemp+1
  6688  0D17  3080               	movlw	128
  6689  0D18  027F               	subwf	btemp+1,w
  6690  0D19  1D03               	skipz
  6691  0D1A  2D1D               	goto	u3055
  6692  0D1B  30FF               	movlw	255
  6693  0D1C  0254               	subwf	___fldiv@new_exp,w
  6694  0D1D                     u3055:
  6695  0D1D  1C03               	skipc
  6696  0D1E  2D20               	goto	u3051
  6697  0D1F  2D21               	goto	u3050
  6698  0D20                     u3051:
  6699  0D20  2D2F               	goto	l2234
  6700  0D21                     u3050:
  6701  0D21                     l2232:
  6702  0D21  30FF               	movlw	255
  6703  0D22  1283               	bcf	3,5	;RP0=0, select bank0
  6704  0D23  1303               	bcf	3,6	;RP1=0, select bank0
  6705  0D24  00D4               	movwf	___fldiv@new_exp
  6706  0D25  3000               	movlw	0
  6707  0D26  00D5               	movwf	___fldiv@new_exp+1
  6708  0D27  3000               	movlw	0
  6709  0D28  00C9               	movwf	___fldiv@b+3
  6710  0D29  3000               	movlw	0
  6711  0D2A  00C8               	movwf	___fldiv@b+2
  6712  0D2B  3000               	movlw	0
  6713  0D2C  00C7               	movwf	___fldiv@b+1
  6714  0D2D  3000               	movlw	0
  6715  0D2E  00C6               	movwf	___fldiv@b
  6716  0D2F                     l2234:
  6717  0D2F  1283               	bcf	3,5	;RP0=0, select bank0
  6718  0D30  1303               	bcf	3,6	;RP1=0, select bank0
  6719  0D31  0855               	movf	___fldiv@new_exp+1,w
  6720  0D32  3A80               	xorlw	128
  6721  0D33  00FF               	movwf	btemp+1
  6722  0D34  3080               	movlw	128
  6723  0D35  027F               	subwf	btemp+1,w
  6724  0D36  1D03               	skipz
  6725  0D37  2D3A               	goto	u3065
  6726  0D38  3001               	movlw	1
  6727  0D39  0254               	subwf	___fldiv@new_exp,w
  6728  0D3A                     u3065:
  6729  0D3A  1803               	skipnc
  6730  0D3B  2D3D               	goto	u3061
  6731  0D3C  2D3E               	goto	u3060
  6732  0D3D                     u3061:
  6733  0D3D  2D4B               	goto	l641
  6734  0D3E                     u3060:
  6735  0D3E                     l2236:
  6736  0D3E  1283               	bcf	3,5	;RP0=0, select bank0
  6737  0D3F  1303               	bcf	3,6	;RP1=0, select bank0
  6738  0D40  01D4               	clrf	___fldiv@new_exp
  6739  0D41  01D5               	clrf	___fldiv@new_exp+1
  6740  0D42                     l2238:
  6741  0D42  3000               	movlw	0
  6742  0D43  00C9               	movwf	___fldiv@b+3
  6743  0D44  3000               	movlw	0
  6744  0D45  00C8               	movwf	___fldiv@b+2
  6745  0D46  3000               	movlw	0
  6746  0D47  00C7               	movwf	___fldiv@b+1
  6747  0D48  3000               	movlw	0
  6748  0D49  00C6               	movwf	___fldiv@b
  6749  0D4A                     l2240:
  6750  0D4A  01D3               	clrf	___fldiv@sign
  6751  0D4B                     l641:
  6752  0D4B  1283               	bcf	3,5	;RP0=0, select bank0
  6753  0D4C  1303               	bcf	3,6	;RP1=0, select bank0
  6754  0D4D  0854               	movf	___fldiv@new_exp,w
  6755  0D4E  00CA               	movwf	??___fldiv
  6756  0D4F  084A               	movf	??___fldiv,w
  6757  0D50  00DA               	movwf	___fldiv@bexp
  6758  0D51                     l2242:
  6759  0D51  1C5A               	btfss	___fldiv@bexp,0
  6760  0D52  2D54               	goto	u3071
  6761  0D53  2D55               	goto	u3070
  6762  0D54                     u3071:
  6763  0D54  2D57               	goto	l2246
  6764  0D55                     u3070:
  6765  0D55                     l2244:
  6766  0D55  17C8               	bsf	___fldiv@b+2,7
  6767  0D56  2D5B               	goto	l643
  6768  0D57                     l2246:
  6769  0D57  307F               	movlw	127
  6770  0D58  00CA               	movwf	??___fldiv
  6771  0D59  084A               	movf	??___fldiv,w
  6772  0D5A  05C8               	andwf	___fldiv@b+2,f
  6773  0D5B                     l643:
  6774  0D5B  085A               	movf	___fldiv@bexp,w
  6775  0D5C  00CA               	movwf	??___fldiv
  6776  0D5D  1003               	clrc
  6777  0D5E  0C4A               	rrf	??___fldiv,w
  6778  0D5F  00CB               	movwf	??___fldiv+1
  6779  0D60  084B               	movf	??___fldiv+1,w
  6780  0D61  00C9               	movwf	___fldiv@b+3
  6781  0D62  0853               	movf	___fldiv@sign,w
  6782  0D63  00CA               	movwf	??___fldiv
  6783  0D64  084A               	movf	??___fldiv,w
  6784  0D65  04C9               	iorwf	___fldiv@b+3,f
  6785  0D66  2BFF               	goto	l2154
  6786  0D67                     l621:
  6787  0D67  0008               	return
  6788  0D68                     __end_of___fldiv:
  6789                           
  6790                           	psect	text19
  6791  178F                     __ptext19:	
  6792 ;; *************** function _UART_Write_Text *****************
  6793 ;; Defined at:
  6794 ;;		line 53 in file "./uart.h"
  6795 ;; Parameters:    Size  Location     Type
  6796 ;;  text            2    1[COMMON] PTR unsigned char 
  6797 ;;		 -> main@uart_logs(20), Quadra_Al@uart_logs(50), 
  6798 ;; Auto vars:     Size  Location     Type
  6799 ;;  i               2    6[COMMON] int 
  6800 ;; Return value:  Size  Location     Type
  6801 ;;                  1    wreg      void 
  6802 ;; Registers used:
  6803 ;;		wreg, fsr0l, fsr0h, status,2, status,0, pclath, cstack
  6804 ;; Tracked objects:
  6805 ;;		On entry : 0/0
  6806 ;;		On exit  : 0/0
  6807 ;;		Unchanged: 0/0
  6808 ;; Data sizes:     COMMON   BANK0   BANK1   BANK3   BANK2
  6809 ;;      Params:         2       0       0       0       0
  6810 ;;      Locals:         2       0       0       0       0
  6811 ;;      Temps:          3       0       0       0       0
  6812 ;;      Totals:         7       0       0       0       0
  6813 ;;Total ram usage:        7 bytes
  6814 ;; Hardware stack levels used: 1
  6815 ;; Hardware stack levels required when called: 1
  6816 ;; This function calls:
  6817 ;;		_UART_Write
  6818 ;; This function is called by:
  6819 ;;		_Quadra_Al
  6820 ;;		_main
  6821 ;; This function uses a non-reentrant model
  6822 ;;
  6823                           
  6824                           
  6825                           ;psect for function _UART_Write_Text
  6826  178F                     _UART_Write_Text:
  6827  178F                     l1984:	
  6828                           ;incstack = 0
  6829                           ; Regs used in _UART_Write_Text: [wreg-fsr0h+status,2+status,0+pclath+cstack]
  6830                           
  6831                           
  6832                           ;./uart.h: 53: void UART_Write_Text(char *text);./uart.h: 54: {;./uart.h: 55:   int i;;.
      +                          /uart.h: 56:   for(i=0;text[i]!='\0';i++)
  6833  178F  01F6               	clrf	UART_Write_Text@i
  6834  1790  01F7               	clrf	UART_Write_Text@i+1
  6835  1791  2FAF               	goto	l1990
  6836  1792                     l1986:
  6837                           
  6838                           ;./uart.h: 57:    UART_Write(text[i]);
  6839  1792  0876               	movf	UART_Write_Text@i,w
  6840  1793  0771               	addwf	UART_Write_Text@text,w
  6841  1794  00F4               	movwf	??_UART_Write_Text+1
  6842  1795  0872               	movf	UART_Write_Text@text+1,w
  6843  1796  00F3               	movwf	??_UART_Write_Text
  6844  1797  1803               	skipnc
  6845  1798  0AF3               	incf	??_UART_Write_Text,f
  6846  1799  1FF6               	btfss	UART_Write_Text@i,7
  6847  179A  2F9C               	goto	u2570
  6848  179B  03F3               	decf	??_UART_Write_Text,f
  6849  179C                     u2570:
  6850  179C  0873               	movf	??_UART_Write_Text,w
  6851  179D  00F5               	movwf	??_UART_Write_Text+2
  6852  179E  0874               	movf	??_UART_Write_Text+1,w
  6853  179F  0084               	movwf	4
  6854  17A0  1783               	bsf	3,7
  6855  17A1  1C75               	btfss	??_UART_Write_Text+2,0
  6856  17A2  1383               	bcf	3,7
  6857  17A3  0800               	movf	0,w
  6858  17A4  120A  118A  2003  160A  118A  	fcall	_UART_Write
  6859  17A9                     l1988:
  6860  17A9  3001               	movlw	1
  6861  17AA  07F6               	addwf	UART_Write_Text@i,f
  6862  17AB  1803               	skipnc
  6863  17AC  0AF7               	incf	UART_Write_Text@i+1,f
  6864  17AD  3000               	movlw	0
  6865  17AE  07F7               	addwf	UART_Write_Text@i+1,f
  6866  17AF                     l1990:
  6867  17AF  0876               	movf	UART_Write_Text@i,w
  6868  17B0  0771               	addwf	UART_Write_Text@text,w
  6869  17B1  00F4               	movwf	??_UART_Write_Text+1
  6870  17B2  0872               	movf	UART_Write_Text@text+1,w
  6871  17B3  00F3               	movwf	??_UART_Write_Text
  6872  17B4  1803               	skipnc
  6873  17B5  0AF3               	incf	??_UART_Write_Text,f
  6874  17B6  1FF6               	btfss	UART_Write_Text@i,7
  6875  17B7  2FB9               	goto	u2580
  6876  17B8  03F3               	decf	??_UART_Write_Text,f
  6877  17B9                     u2580:
  6878  17B9  0873               	movf	??_UART_Write_Text,w
  6879  17BA  00F5               	movwf	??_UART_Write_Text+2
  6880  17BB  0874               	movf	??_UART_Write_Text+1,w
  6881  17BC  0084               	movwf	4
  6882  17BD  1783               	bsf	3,7
  6883  17BE  1C75               	btfss	??_UART_Write_Text+2,0
  6884  17BF  1383               	bcf	3,7
  6885  17C0  0800               	movf	0,w
  6886  17C1  1D03               	btfss	3,2
  6887  17C2  2FC4               	goto	u2591
  6888  17C3  2FC5               	goto	u2590
  6889  17C4                     u2591:
  6890  17C4  2F92               	goto	l1986
  6891  17C5                     u2590:
  6892  17C5                     l95:
  6893  17C5  0008               	return
  6894  17C6                     __end_of_UART_Write_Text:
  6895                           
  6896                           	psect	text20
  6897  0003                     __ptext20:	
  6898 ;; *************** function _UART_Write *****************
  6899 ;; Defined at:
  6900 ;;		line 47 in file "./uart.h"
  6901 ;; Parameters:    Size  Location     Type
  6902 ;;  data            1    wreg     unsigned char 
  6903 ;; Auto vars:     Size  Location     Type
  6904 ;;  data            1    0[COMMON] unsigned char 
  6905 ;; Return value:  Size  Location     Type
  6906 ;;                  1    wreg      void 
  6907 ;; Registers used:
  6908 ;;		wreg
  6909 ;; Tracked objects:
  6910 ;;		On entry : 0/0
  6911 ;;		On exit  : 0/0
  6912 ;;		Unchanged: 0/0
  6913 ;; Data sizes:     COMMON   BANK0   BANK1   BANK3   BANK2
  6914 ;;      Params:         0       0       0       0       0
  6915 ;;      Locals:         1       0       0       0       0
  6916 ;;      Temps:          0       0       0       0       0
  6917 ;;      Totals:         1       0       0       0       0
  6918 ;;Total ram usage:        1 bytes
  6919 ;; Hardware stack levels used: 1
  6920 ;; This function calls:
  6921 ;;		Nothing
  6922 ;; This function is called by:
  6923 ;;		_UART_Write_Text
  6924 ;; This function uses a non-reentrant model
  6925 ;;
  6926                           
  6927                           
  6928                           ;psect for function _UART_Write
  6929  0003                     _UART_Write:
  6930                           
  6931                           ;incstack = 0
  6932                           ; Regs used in _UART_Write: [wreg]
  6933                           ;UART_Write@data stored from wreg
  6934  0003  00F0               	movwf	UART_Write@data
  6935  0004                     l1724:
  6936  0004                     l86:	
  6937                           ;./uart.h: 47: void UART_Write(char data);./uart.h: 48: {;./uart.h: 49:   while(!TRMT);
  6938                           
  6939  0004  1683               	bsf	3,5	;RP0=1, select bank1
  6940  0005  1303               	bcf	3,6	;RP1=0, select bank1
  6941  0006  1C98               	btfss	24,1	;volatile
  6942  0007  2809               	goto	u1941
  6943  0008  280A               	goto	u1940
  6944  0009                     u1941:
  6945  0009  2804               	goto	l86
  6946  000A                     u1940:
  6947  000A                     l1726:
  6948                           
  6949                           ;./uart.h: 50:   TXREG = data;
  6950  000A  0870               	movf	UART_Write@data,w
  6951  000B  1283               	bcf	3,5	;RP0=0, select bank0
  6952  000C  1303               	bcf	3,6	;RP1=0, select bank0
  6953  000D  0099               	movwf	25	;volatile
  6954  000E                     l89:
  6955  000E  0008               	return
  6956  000F                     __end_of_UART_Write:
  6957                           
  6958                           	psect	text21
  6959  1714                     __ptext21:	
  6960 ;; *************** function _ADC_Init *****************
  6961 ;; Defined at:
  6962 ;;		line 29 in file "newmain.c"
  6963 ;; Parameters:    Size  Location     Type
  6964 ;;		None
  6965 ;; Auto vars:     Size  Location     Type
  6966 ;;		None
  6967 ;; Return value:  Size  Location     Type
  6968 ;;                  1    wreg      void 
  6969 ;; Registers used:
  6970 ;;		wreg
  6971 ;; Tracked objects:
  6972 ;;		On entry : 0/0
  6973 ;;		On exit  : 0/0
  6974 ;;		Unchanged: 0/0
  6975 ;; Data sizes:     COMMON   BANK0   BANK1   BANK3   BANK2
  6976 ;;      Params:         0       0       0       0       0
  6977 ;;      Locals:         0       0       0       0       0
  6978 ;;      Temps:          0       0       0       0       0
  6979 ;;      Totals:         0       0       0       0       0
  6980 ;;Total ram usage:        0 bytes
  6981 ;; Hardware stack levels used: 1
  6982 ;; This function calls:
  6983 ;;		Nothing
  6984 ;; This function is called by:
  6985 ;;		_main
  6986 ;; This function uses a non-reentrant model
  6987 ;;
  6988                           
  6989                           
  6990                           ;psect for function _ADC_Init
  6991  1714                     _ADC_Init:
  6992  1714                     l2462:	
  6993                           ;incstack = 0
  6994                           ; Regs used in _ADC_Init: [wreg]
  6995                           
  6996                           
  6997                           ;newmain.c: 31:    ADCON0 = 0b1000001;
  6998  1714  3041               	movlw	65
  6999  1715  1283               	bcf	3,5	;RP0=0, select bank0
  7000  1716  1303               	bcf	3,6	;RP1=0, select bank0
  7001  1717  009F               	movwf	31	;volatile
  7002                           
  7003                           ;newmain.c: 32:    ADCON1 = 0b11000000;
  7004  1718  30C0               	movlw	192
  7005  1719  1683               	bsf	3,5	;RP0=1, select bank1
  7006  171A  1303               	bcf	3,6	;RP1=0, select bank1
  7007  171B  009F               	movwf	31	;volatile
  7008  171C                     l98:
  7009  171C  0008               	return
  7010  171D                     __end_of_ADC_Init:
  7011  007E                     btemp	set	126	;btemp
  7012  007E                     wtemp0	set	126
  7013                           
  7014                           	psect	config
  7015                           
  7016                           ;Config register CONFIG @ 0x2007
  7017                           ;	Oscillator Selection bits
  7018                           ;	FOSC = XT, XT oscillator
  7019                           ;	Watchdog Timer Enable bit
  7020                           ;	WDTE = OFF, WDT disabled
  7021                           ;	Power-up Timer Enable bit
  7022                           ;	PWRTE = OFF, PWRT disabled
  7023                           ;	Brown-out Reset Enable bit
  7024                           ;	BOREN = OFF, BOR disabled
  7025                           ;	Low-Voltage (Single-Supply) In-Circuit Serial Programming Enable bit
  7026                           ;	LVP = OFF, RB3 is digital I/O, HV on MCLR must be used for programming
  7027                           ;	Data EEPROM Memory Code Protection bit
  7028                           ;	CPD = OFF, Data EEPROM code protection off
  7029                           ;	Flash Program Memory Write Enable bits
  7030                           ;	WRT = OFF, Write protection off; all program memory may be written to by EECON control
  7031                           ;	In-Circuit Debugger Mode bit
  7032                           ;	DEBUG = 0x1, unprogrammed default
  7033                           ;	Flash Program Memory Code Protection bit
  7034                           ;	CP = OFF, Code protection off
  7035  2007                     	org	8199
  7036  2007  3F39               	dw	16185

Data Sizes:
    Strings     47
    Constant    10
    Data        7
    BSS         0
    Persistent  0
    Stack       0

Auto Spaces:
    Space          Size  Autos    Used
    COMMON           14     14      14
    BANK0            80     79      79
    BANK1            80     38      38
    BANK3            96     88      95
    BANK2            96      0       0

Pointer List with Targets:

    sprintf@f	PTR const unsigned char  size(1) Largest target is 23
		 -> STR_3(CODE[15]), STR_2(CODE[9]), STR_1(CODE[23]), 

    sprintf@sp	PTR unsigned char  size(2) Largest target is 50
		 -> main@uart_logs(BANK1[20]), Quadra_Al@uart_logs(BANK3[50]), 

    sprintf@ap	PTR void [1] size(1) Largest target is 2
		 -> ?_sprintf(BANK0[2]), 

    UART_Write_Text@text	PTR unsigned char  size(2) Largest target is 50
		 -> main@uart_logs(BANK1[20]), Quadra_Al@uart_logs(BANK3[50]), 


Critical Paths under _main in COMMON

    _UART_Init->___aldiv
    _Quadra_Al->___xxtofl
    _sprintf->___lwmod
    ___lwmod->___lwdiv
    ___flsub->___xxtofl
    ___flmul->___xxtofl
    _UART_Write_Text->_UART_Write

Critical Paths under _main in BANK0

    _main->_Quadra_Al
    ___fltol->_Quadra_Al
    _UART_Init->___aldiv
    _Quadra_Al->___fldiv
    ___flsub->___flmul
    ___flmul->___fladd
    ___fldiv->___flmul

Critical Paths under _main in BANK1

    _main->___fltol

Critical Paths under _main in BANK3

    _main->_Quadra_Al
    ___fltol->_Quadra_Al

Critical Paths under _main in BANK2

    None.

Call Graph Tables:

 ---------------------------------------------------------------------------------
 (Depth) Function   	        Calls       Base Space   Used Autos Params    Refs
 ---------------------------------------------------------------------------------
 (0) _main                                                27    27      0   15739
                                             11 BANK1     27    27      0
                           _ADC_Init
                          _Quadra_Al
                          _UART_Init
                    _UART_Write_Text
                            ___fltol
                            _spiInit
                            _spiRead
                           _spiWrite
                            _sprintf
 ---------------------------------------------------------------------------------
 (1) _spiWrite                                             1     1      0      22
                                              0 COMMON     1     1      0
 ---------------------------------------------------------------------------------
 (1) _spiRead                                              0     0      0       0
                     _spiReceiveWait
 ---------------------------------------------------------------------------------
 (2) _spiReceiveWait                                       0     0      0       0
 ---------------------------------------------------------------------------------
 (1) _spiInit                                              4     1      3     360
                                              0 COMMON     4     1      3
 ---------------------------------------------------------------------------------
 (1) ___fltol                                             11     7      4     305
                                              0 BANK1     11     7      4
                          _Quadra_Al (ARG)
 ---------------------------------------------------------------------------------
 (1) _UART_Init                                           18    14      4     836
                                              9 COMMON     2     2      0
                                              6 BANK0     16    12      4
                            ___aldiv
 ---------------------------------------------------------------------------------
 (2) ___aldiv                                             15     7      8     604
                                              0 COMMON     9     1      8
                                              0 BANK0      6     6      0
 ---------------------------------------------------------------------------------
 (1) _Quadra_Al                                          107   103      4   12428
                                             60 BANK0     19    15      4
                                              0 BANK3     88    88      0
                    _UART_Write_Text
                            ___fladd
                            ___fldiv
                            ___flmul
                            ___flneg
                            ___flsub
                           ___xxtofl
                            _sprintf
 ---------------------------------------------------------------------------------
 (1) _sprintf                                             34    17     17    1441
                                              0 BANK0     26     9     17
                            ___lwdiv
                            ___lwmod
 ---------------------------------------------------------------------------------
 (2) ___lwmod                                              6     2      4     311
                                              8 COMMON     6     2      4
                            ___lwdiv (ARG)
 ---------------------------------------------------------------------------------
 (2) ___lwdiv                                              8     4      4     314
                                              0 COMMON     8     4      4
 ---------------------------------------------------------------------------------
 (2) ___xxtofl                                            14    10      4     550
                                              0 COMMON    14    10      4
 ---------------------------------------------------------------------------------
 (2) ___flsub                                              8     0      8    2637
                                             34 BANK0      8     0      8
                            ___fladd
                            ___flmul (ARG)
                           ___xxtofl (ARG)
 ---------------------------------------------------------------------------------
 (3) ___fladd                                             20    12      8    2288
                                              0 COMMON    12     4      8
                                              0 BANK0      8     8      0
 ---------------------------------------------------------------------------------
 (2) ___flneg                                              4     0      4     121
                                              0 COMMON     4     0      4
 ---------------------------------------------------------------------------------
 (2) ___flmul                                             26    18      8    3025
                                              8 BANK0     26    18      8
                          __Umul8_16
                            ___fladd (ARG)
                           ___xxtofl (ARG)
 ---------------------------------------------------------------------------------
 (3) __Umul8_16                                            9     7      2     799
                                              0 COMMON     9     7      2
 ---------------------------------------------------------------------------------
 (2) ___fldiv                                             26    18      8    1273
                                             34 BANK0     26    18      8
                            ___flmul (ARG)
                            ___flneg (ARG)
 ---------------------------------------------------------------------------------
 (1) _UART_Write_Text                                      7     5      2     223
                                              1 COMMON     7     5      2
                         _UART_Write
 ---------------------------------------------------------------------------------
 (2) _UART_Write                                           1     1      0      22
                                              0 COMMON     1     1      0
 ---------------------------------------------------------------------------------
 (1) _ADC_Init                                             0     0      0       0
 ---------------------------------------------------------------------------------
 Estimated maximum stack depth 3
 ---------------------------------------------------------------------------------

 Call Graph Graphs:

 _main (ROOT)
   _ADC_Init
   _Quadra_Al
     _UART_Write_Text
       _UART_Write
     ___fladd
     ___fldiv
       ___flmul (ARG)
         __Umul8_16
         ___fladd (ARG)
         ___xxtofl (ARG)
       ___flneg (ARG)
     ___flmul
     ___flneg
     ___flsub
       ___fladd
       ___flmul (ARG)
       ___xxtofl (ARG)
     ___xxtofl
     _sprintf
       ___lwdiv
       ___lwmod
         ___lwdiv (ARG)
   _UART_Init
     ___aldiv
   _UART_Write_Text
   ___fltol
     _Quadra_Al (ARG)
   _spiInit
   _spiRead
     _spiReceiveWait
   _spiWrite
   _sprintf

 Address spaces:
Name               Size   Autos  Total    Cost      Usage
BANK3               60     58      5F       9       99.0%
BITBANK3            60      0       0       8        0.0%
SFR3                 0      0       0       4        0.0%
BITSFR3              0      0       0       4        0.0%
BANK2               60      0       0      11        0.0%
BITBANK2            60      0       0      10        0.0%
SFR2                 0      0       0       5        0.0%
BITSFR2              0      0       0       5        0.0%
BANK1               50     26      26       7       47.5%
BITBANK1            50      0       0       6        0.0%
SFR1                 0      0       0       2        0.0%
BITSFR1              0      0       0       2        0.0%
BANK0               50     4F      4F       5       98.8%
BITBANK0            50      0       0       4        0.0%
SFR0                 0      0       0       1        0.0%
BITSFR0              0      0       0       1        0.0%
COMMON               E      E       E       1      100.0%
BITCOMMON            E      0       0       0        0.0%
CODE                 0      0       0       0        0.0%
DATA                 0      0      E2      12        0.0%
ABS                  0      0      E2       3        0.0%
NULL                 0      0       0       0        0.0%
STACK                0      0       0       2        0.0%
EEDATA             100      0       0       0        0.0%


Microchip Technology PIC Macro Assembler V2.32 build 20210201212658 
Symbol Table                                                                                   Mon Nov 29 11:49:08 2021

            ___fldiv@aexp 005B              ___fldiv@bexp 005A                         pc 0002  
            ___fldiv@sign 0053               _SSPSTATbits 0094                        l65 0AAC  
                      l86 0004                        l95 17C5                        l89 000E  
                      l98 171C                        fsr 0004       __Umul8_16@word_mpld 0076  
                     l112 048C                       l142 1706                       l145 170C  
                     l138 001F                       l139 0024                       l156 1725  
                     l148 1705                       l335 0890                       l345 0918  
                     l266 015D                       l452 1730                       l621 0D67  
                     l605 0FF1                       l606 0FFF                       l542 0068  
                     l703 093B                       l463 0866                       l552 17FF  
                     l456 087B                       l641 0D4B                       l609 1767  
                     l705 09D2                       l466 087B                       l643 0D5B  
                     l635 0CD9                       l619 0BE7                       l563 0DCB  
                     l716 099C                       l717 09A8                       l709 0980  
                     l671 07E1                       l567 0E74                       l680 178E  
                     l584 0F45                       l576 0FFF                       l665 0759  
                     l569 0E49                       l594 0F8D                       l659 07ED  
                     l588 0F6B                       l597 0FCD                       l678 177C  
                     _GIE 005F                       _RD0 0040                       fsr0 0004  
                     indf 0000              ___flmul@aexp 003A              ___flmul@bexp 003B  
            ___flmul@sign 0035              ___flmul@temp 0040              ___flmul@prod 003C  
            ___fltol@exp1 00AA                      l2000 0086                      l2010 00B0  
                    l2100 1730                      l2012 00B4                      l2004 0087  
                    l2110 0B8B                      l2030 00EB                      l2022 00BF  
                    l2014 00B8                      l2006 00A4                      l2200 0CA5  
                    l2120 0BA2                      l2112 0B92                      l2104 1744  
                    l2040 0136                      l2032 00F4                      l2016 00BD  
                    l2008 00AC                      l2210 0CBD                      l2202 0CA9  
                    l2130 0BBA                      l2122 0BA7                      l2114 0B98  
                    l2106 1748                      l2042 013C                      l2034 00FA  
                    l2026 00DB                      l2220 0CDE                      l2212 0CBE  
                    l2204 0CAA                      l2140 0BCF                      l2132 0BBF  
                    l2124 0BAF                      l2116 0B9C                      l2300 0517  
                    l2036 00FF                      l2028 00E5                      l2044 0145  
                    l2060 0883                      l2222 0CE3                      l2230 0D14  
                    l2214 0CC2                      l2206 0CB3                      l2150 0BEF  
                    l2142 0BD4                      l2134 0BC5                      l2126 0BB0  
                    l2118 0B9D                      l2310 05B4                      l2302 0534  
                    l2038 012D                      l2046 0157                      l2070 08B3  
                    l2062 0894                      l2054 1706                      l2240 0D4A  
                    l2232 0D21                      l2224 0CF1                      l2216 0CD6  
                    l2208 0CB9                      l2160 0C0D                      l2152 0BFB  
                    l2144 0BDC                      l2136 0BC9                      l2128 0BB2  
                    l2320 0617                      l2312 05BD                      l2304 0550  
                    l2400 0943                      l2080 08E2                      l2072 08B6  
                    l2064 089F                      l2056 087C                      l2242 0D51  
                    l2234 0D2F                      l2226 0CF5                      l2170 0C38  
                    l2154 0BFF                      l2146 0BDD                      l2138 0BCA  
                    l2330 06B7                      l2322 0630                      l2314 05CD  
                    l2306 057C                      l2410 0965                      l2090 0905  
                    l2082 08F0                      l2074 08C3                      l2066 08A3  
                    l2058 087F                      l2244 0D55                      l2236 0D3E  
                    l2228 0D0E                      l2180 0C5D                      l2172 0C40  
                    l2164 0C16                      l2148 0BDF                      l2340 0725  
                    l2332 06DD                      l2324 064D                      l2316 05EA  
                    l2308 0598                      l2260 049F                      l2252 048D  
                    l2420 0996                      l2412 0969                      l2404 094C  
                    l2500 0425                      l2092 0910                      l2084 08F1  
                    l2076 08C7                      l2068 08AB                      l2246 0D57  
                    l2238 0D42                      l2190 0C88                      l2182 0C5E  
                    l2174 0C42                      l2166 0C28                      l2158 0C08  
                    l2350 073D                      l2342 0729                      l2334 0705  
                    l2326 067A                      l2318 05FA                      l2270 04BB  
                    l2262 04A4                      l2254 0494                      l2430 09C9  
                    l2422 09A0                      l2414 0977                      l2406 0951  
                    l2510 0474                      l2502 042E                      l2086 08FA  
                    l2078 08D0                      l2176 0C47                      l2184 0C67  
                    l2192 0C8C                      l2168 0C30                      l2360 075E  
                    l2352 073E                      l2344 072A                      l2336 070E  
                    l2328 068A                      l2280 04D0                      l2272 04C0  
                    l2264 04A9                      l2256 049A                      l2096 1726  
                    l1800 0DA2                      l2432 09CA                      l2424 09AA  
                    l2416 0987                      l2408 095E                      l2504 0439  
                    l2088 0900                      l2440 0A35                      l2520 001B  
                    l2600 0B22                      l2194 0C92                      l2186 0C79  
                    l2178 0C59                      l2362 0763                      l2370 0794  
                    l2354 0742                      l2346 0733                      l2338 071C  
                    l2290 04EC                      l2282 04D5                      l2274 04C6  
                    l2266 04B1                      l2258 049E                      l2098 172E  
                    l1810 0DB3                      l1802 0DA3                      l2426 09C0  
                    l2418 0992                      l1730 0027                      l2506 0460  
                    l2450 0A9F                      l2442 0A8E                      l2522 001E  
                    l2514 0010                      l2530 1701                      l2610 0B6A  
                    l2602 0B30                      l1724 0004                      l2196 0C9A  
                    l2188 0C7A                      l2380 07C7                      l2372 07A1  
                    l2364 0771                      l2356 0756                      l2348 0739  
                    l2292 04F1                      l2284 04DD                      l2276 04CA  
                    l2268 04B3                      l1900 0EDD                      l1820 0DD1  
                    l1812 0DB8                      l1804 0DA9                      l2428 09C5  
                    l1740 003F                      l1732 002D                      l2508 0469  
                    l2452 0AA2                      l2444 0A91                      l2436 09D3  
                    l2540 082B                      l2532 0800                      l2516 0017  
                    l2524 171D                      l2604 0B4F                      l2612 0B79  
                    l2462 1714                      l1726 000A                      l2198 0C9C  
                    l2382 07D5                      l2374 07AC                      l2366 0775  
                    l2286 04DF                      l2278 04CB                      l1910 0F4D  
                    l1902 0F1D                      l1830 0DE5                      l1822 0DD5  
                    l1814 0DC0                      l1806 0DAD                      l1742 0050  
                    l1734 0030                      l1750 0064                      l2454 0AA5  
                    l2446 0A9A                      l2438 0A2C                      l2542 082C  
                    l2534 080D                      l2518 0019                      l2526 1722  
                    l2614 0B7C                      l2606 0B57                      l2384 07D9  
                    l2376 07BB                      l2368 078E                      l2296 04FA  
                    l2288 04E7                      l1920 0F6A                      l1912 0F52  
                    l1904 0F23                      l1840 0DF9                      l1832 0DE9  
                    l1824 0DD9                      l1816 0DC1                      l1808 0DAE  
                    l2392 091A                      l1744 0056                      l1736 0037  
                    l1728 0025                      l1760 17D6                      l2480 0195  
                    l2464 015E                      l2456 0AA6                      l2448 0A9E  
                    l2544 0834                      l2608 0B61                      l2616 0B7D  
                    l2386 07DA                      l2378 07C5                      l2298 050A  
                    l1922 0F6F                      l1930 0F7B                      l1906 0F28  
                    l1850 0E0D                      l1842 0DFD                      l1834 0DED  
                    l1826 0DDD                      l1818 0DC3                      l2394 091F  
                    l1746 0057                      l1738 003B                      l1770 17F5  
                    l1762 17DA                      l1754 17C6                      l2490 0255  
                    l2482 019B                      l2474 017A                      l2466 0175  
                    l2458 0AA9                      l2562 085B                      l2554 0842  
                    l2546 0836                      l2538 0816                      l2570 0AB1  
                    l2388 07E5                      l1924 0F72                      l1916 0F5B  
                    l1908 0F37                      l1932 0F7F                      l1860 0E4D  
                    l1852 0E11                      l1844 0E01                      l1836 0DF1  
                    l1828 0DE1                      l1780 0D75                      l2396 0923  
                    l1748 005E                      l1764 17DE                      l1756 17CC  
                    l1772 17FB                      l2492 02D3                      l2484 01A8  
                    l2476 0186                      l2468 0178                      l2564 086B  
                    l2548 083A                      l2556 0854                      l2580 0AB8  
                    l2572 0AB2                      l1950 0FC9                      l1942 0F92  
                    l1934 0F80                      l1926 0F74                      l1918 0F66  
                    l1870 0E6A                      l1862 0E58                      l1846 0E05  
                    l1838 0DF5                      l1854 0E15                      l1790 0D8C  
                    l1782 0D79                      l2398 0933                      l1766 17E8  
                    l1758 17CF                      l2638 0099                      l2494 031E  
                    l2486 01C3                      l2478 0191                      l2566 0870  
                    l2590 0AE0                      l2582 0ABD                      l2574 0AB5  
                    l1960 0FE5                      l1952 0FD2                      l1944 0F97  
                    l1936 0F84                      l1928 0F79                      l1880 0E86  
                    l1864 0E5A                      l1872 0E6E                      l1856 0E16  
                    l1848 0E09                      l1792 0D8D                      l1784 0D7A  
                    l1776 0D68                      l1768 17EE                      l2496 0381  
                    l2488 021A                      l2592 0AE4                      l2584 0AC2  
                    l2576 0AB6                      l2568 0AAD                      l1970 1769  
                    l1962 0FE9                      l1954 0FD7                      l1946 0FA5  
                    l1938 0F8A                      l1890 0EB2                      l1882 0E9D  
                    l1874 0E78                      l1866 0E5E                      l1858 0E2D  
                    l1786 0D7F                      l1794 0D8F                      l1778 0D6F  
                    l2498 03C9                      l2594 0AF1                      l2586 0AD1  
                    l2578 0AB7                      l1980 178A                      l1972 176B  
                    l1964 0FEB                      l1956 0FDF                      l1948 0FA9  
                    l1892 0EB6                      l1884 0EA1                      l1876 0E7D  
                    l1868 0E5F                      l1796 0D97                      l1788 0D84  
                    l2596 0AF7                      l2588 0ADA                      l1990 17AF  
                    l1974 1772                      l1966 0FFA                      l1958 0FE4  
                    l1894 0EB7                      l1886 0EA5                      l1798 0D9C  
                    l2598 0AFA                      l1984 178F                      l1976 1776  
                    l1968 0FFE                      l1896 0EC2                      l1888 0EB0  
                    l1992 0069                      l1986 1792                      l1978 1785  
                    l1898 0EC7                      l1994 0070                      l1988 17A9  
                    l1996 0076                      l1998 007F                      STR_1 1010  
                    STR_2 1036                      STR_3 1027                      _BRGH 04C2  
                    _CREN 00C4                      u2010 0064                      u2011 0063  
                    u2100 0D84                      u2020 17CC                      u2101 0D83  
                    u2005 0058                      u2021 17CB                      u2110 0DA2  
                    u2111 0DA1                      u3000 0CD6                      u2200 0E4D  
                    u2120 0DAD                      u2040 17DE                      u3001 0CD5  
                    u2201 0E4C                      u2121 0DAC                      u2041 17DD  
                    u3010 0CDD                      u2210 0E5E                      u2130 0DB3  
                    u2050 17E8                      u3011 0CDC                      u2211 0E5D  
                    u2131 0DB2                      u2051 17E7                      u2035 17D0  
                    u3020 0CE3                      u3100 04A9                      u2140 0DB8  
                    u3021 0CE2                      u3101 04A8                      u2141 0DB7  
                    u3030 0CF5                      u3110 04CA                      u2310 0EDD  
                    u2230 0E74                      u2150 0DD1                      u2070 17FB  
                    u3031 0CF4                      u3111 04C9                      u2311 0EDC  
                    u2231 0E73                      u2151 0DD0                      u2071 17FA  
                    u2055 17E4                      u3040 0D04                      u3120 04D0  
                    u2400 0F79                      u2240 0E78                      u2160 0DD5  
                    u2080 0D79                      u3121 04CF                      u2401 0F78  
                    u2321 0EF6                      u2313 0ED9                      u2305 0EBB  
                    u2241 0E77                      u2225 0E63                      u2161 0DD4  
                    u2081 0D78                      u2065 17EF                      u3050 0D21  
                    u3130 04D5                      u2410 0F7F                      u2330 0F0A  
                    u2322 0EF7                      u2250 0E7D                      u2170 0E2D  
                    u2090 0D7F                      u3051 0D20                      u3211 05DC  
                    u3131 04D4                      u2411 0F7E                      u2331 0F0B  
                    u2323 0EFC                      u2251 0E7C                      u2171 0E2C  
                    u2091 0D7E                      u3060 0D3E                      u3212 05E3  
                    u3140 04EC                      u2500 0FD7                      u2420 0F84  
                    u2340 0F28                      u2332 0F10                      u2324 0EFD  
                    u2180 0E36                      u3061 0D3D                      u3045 0CFF  
                    u3301 06F7                      u3221 0609                      u3213 05EA  
                    u3205 05B6                      u3141 04EB                      u2501 0FD6  
                    u2421 0F83                      u2341 0F27                      u2333 0F11  
                    u2325 0F02                      u2261 0E8F                      u2181 0E34  
                    u3070 0D55                      u3302 06FE                      u3222 0610  
                    u3150 04F1                      u2510 0FE4                      u2430 0F8A  
                    u2350 0F4D                      u2326 0F03                      u2270 0EA1  
                    u2262 0E96                      u2190 0E37                      u3071 0D54  
                    u3055 0D1D                      u3303 0705                      u3223 0617  
                    u3151 04F0                      u2511 0FE3                      u2431 0F89  
                    u2351 0F4C                      u2271 0EA0                      u2263 0E9D  
                    u2175 0E29                      u3400 0775                      u3080 049E  
                    u2520 0FE9                      u2440 0F91                      u2360 0F52  
                    u2280 0EA5                      u2600 0076                      u3065 0D3A  
                    u3401 0774                      u3241 063F                      u3161 0542  
                    u3081 049D                      u2521 0FE8                      u2441 0F90  
                    u2361 0F51                      u2281 0EA4                      u2601 0075  
                    u3410 0784                      u3330 0729                      u3242 0646  
                    u3162 0549                      u3090 04A4                      u2530 0FFE  
                    u2450 0F97                      u2290 0EB6                      u2610 00B4  
                    u3331 0728                      u3315 0707                      u3251 066C  
                    u3243 064D                      u3235 0619                      u3171 055E  
                    u3163 0550                      u3091 04A3                      u2531 0FFD  
                    u2451 0F96                      u2291 0EB5                      u2611 00B3  
                    u2540 1776                      u3420 07A1                      u3252 0673  
                    u3172 0565                      u2460 0FA9                      u2380 0F6A  
                    u2620 00DA                      u2700 08B3                      u2541 1775  
                    u3421 07A0                      u3325 071E                      u3261 0699  
                    u3253 067A                      u3181 058A                      u3173 056C  
                    u2461 0FA8                      u2381 0F69                      u2621 00D9  
                    u2701 08B2                      u3430 07BB                      u3350 073D  
                    u3270 06C3                      u3262 06A0                      u3182 0591  
                    u2470 0FBA                      u2390 0F6F                      u3510 0986  
                    u2630 00E5                      u3431 07BA                      u3415 077F  
                    u3351 073C                      u3263 06A7                      u3191 05A6  
                    u3183 0598                      u2391 0F6E                      u2375 0F5F  
                    u3511 0985                      u2631 00E4                      u2800 0BA2  
                    u2560 178A                      u3440 07D9                      u3360 0742  
                    u3192 05AD                      u2480 0FC9                      u2640 00EB  
                    u2720 08C7                      u3600 09FC                      u2801 0BA1  
                    u2561 1789                      u3441 07D8                      u3425 079D  
                    u3361 0741                      u3345 072C                      u3281 06CF  
                    u3193 05B4                      u2481 0FC8                      u3505 0978  
                    u2641 00EA                      u2625 00D6                      u2721 08C6  
                    u2570 179C                      u2810 0BA7                      u3370 0756  
                    u3290 06EB                      u3282 06D6                      u2490 0FD2  
                    u3530 0996                      u3450 091F                      u2650 0145  
                    u2811 0BA6                      u2555 177D                      u3435 07B7  
                    u3371 0755                      u3283 06DD                      u3275 06BE  
                    u2491 0FD1                      u2475 0FB5                      u3531 0995  
                    u3451 091E                      u2651 0144                      u2715 08B8  
                    u3611 0A0E                      u1940 000A                      u2580 17B9  
                    u2900 0C5D                      u2820 0BC9                      u3380 075D  
                    u3540 099C                      u3460 0923                      u2660 0157  
                    u2740 08E2                      u3620 0A35                      u3612 0A0F  
                    u3700 0017                      u1941 0009                      u2901 0C5C  
                    u2821 0BC8                      u3381 075C                      u3541 099B  
                    u3525 098B                      u3461 0922                      u2661 0156  
                    u2741 08E1                      u3621 0A34                      u3613 0A14  
                    u3605 09F7                      u3701 0016                      u2590 17C5  
                    u2830 0BCF                      u3390 0763                      u3550 09A0  
                    u3470 0943                      u1950 002D                      u3630 0A45  
                    u3614 0A15                      u3710 080D                      u2670 170C  
                    u2591 17C4                      u2831 0BCE                      u3391 0762  
                    u3295 06E6                      u3551 099F                      u3471 0942  
                    u1951 002C                      u2735 08C9                      u3615 0A1A  
                    u3711 080C                      u2671 170B                      u2920 0C79  
                    u2840 0BD4                      u3560 09B5                      u2760 0900  
                    u2680 0883                      u3640 0A5E                      u3616 0A1B  
                    u3800 0870                      u3720 0824                      u2921 0C78  
                    u2841 0BD3                      u2761 08FF                      u2745 08DE  
                    u2681 0882                      u3801 086F                      u2930 0C92  
                    u2850 0BEF                      u3570 09C5                      u3490 0964  
                    u1970 003F                      u2770 0905                      u2690 0894  
                    u3730 083A                      u3810 0AE0                      u2931 0C91  
                    u2915 0C60                      u2851 0BEE                      u3571 09C4  
                    u3491 0963                      u1971 003E                      u2771 0904  
                    u2755 08F2                      u2691 0893                      u3651 0A70  
                    u3635 0A40                      u3731 0839                      u3811 0ADF  
                    _PEIE 005E                      u2940 0C9A                      u2860 0C0D  
                    u2780 172E                      u3580 09C9                      u3660 0A9A  
                    u3652 0A71                      u3740 0841                      u3820 0AF7  
                    u2941 0C99                      u2925 0C75                      u2861 0C0C  
                    u2781 172D                      u3581 09C8                      u3565 09B0  
                    u3485 0956                      u1965 0031                      u3661 0A99  
                    u3653 0A76                      u3645 0A59                      u3741 0840  
                    u3725 081F                      u3821 0AF6                      u2870 0C47  
                    u2790 0B9C                      u1990 0050                      u3670 0168  
                    u3654 0A77                      u3590 09E3                      u2871 0C46  
                    u2791 0B9B                      u1991 004F                      u3655 0A7C  
                    u2960 0CA9                      u3680 0186                      u3656 0A7D  
                    u3760 0853                      u2961 0CA8                      u1985 0040  
                    u3681 0185                      u3761 0852                      u3690 01A8  
                    u3770 085A                      u2955 0C9E                      u1995 004C  
                    u3691 01A7                      u3595 09DE                      u3771 0859  
                    u3755 0843                      u2980 0CBD                      _RCIF 0065  
                    u2981 0CBC                      u2885 0C49                      u3837 0B2A  
                    u2990 0CC2                      u3790 086B                      u2991 0CC1  
                    u2975 0CAC                      u2895 0C52                      u3695 01A4  
                    u3791 086A                      u3847 0B5D                      u3785 085D  
                    u3857 0B72                      u3867 0B83                      u3877 0434  
                    u3887 046F                      _SPEN 00C7                      _TRMT 04C1  
                    _TXEN 04C5                      _SYNC 04C4                      _main 0AAD  
                    btemp 007E          __end_of_ADC_Init 171D                      start 0000  
         ___fldiv@new_exp 0054   __end_of_UART_Write_Text 17C6             ___fltol@sign1 00A9  
         __end_of___aldiv 0919           __end_of___fladd 1000                     ?_main 0070  
         __end_of___fldiv 0D68           __end_of___flneg 1731           __end_of___flmul 07EE  
         __end_of___flsub 1768           __end_of___fltol 087C           __end_of___lwdiv 0069  
         __end_of___lwmod 1800                     _RCREG 001A                     _SPBRG 0099  
                   _PORTD 0008                     _TRISA 0085                     _TRISD 0088  
                   _SSPIE 0463                     _SSPIF 0063                     _TXREG 0019  
             ?_UART_Write 0070        __size_of_UART_Init 00DA           __end_of_dpowers 1010  
                   pclath 000A           __end_of_spiInit 0025           __end_of_spiRead 1726  
                   status 0003                     wtemp0 007E           __end_of_sprintf 015E  
         __initialization 07EE              __end_of_main 0B8B                    ??_main 00AB  
                  _ADCON0 001F                    _ADCON1 009F                    _ADRESH 001E  
                  _ADRESL 009E                    _TRISC3 043B                    _TRISC5 043D  
                  _TRISC6 043E                    _TRISC7 043F                    _SSPCON 0014  
                  _SSPBUF 0013          __end_of___xxtofl 09D3                Quadra_Al@a 01DF  
              Quadra_Al@b 01C2                Quadra_Al@d 01C6                Quadra_Al@j 01E6  
              Quadra_Al@x 01D3         __end_of_UART_Init 0AAD       __size_of_UART_Write 000C  
               ??___aldiv 0078                 ??___fladd 0020                 ??___fldiv 004A  
          Quadra_Al@F1224 01E8                 ??___flneg 0074                 ??___flmul 0030  
        ?_UART_Write_Text 0071                 ??___flsub 007E                 ??___fltol 00A4  
               ??___lwdiv 0074                 ??___lwmod 007C             main@uart_logs 00AE  
      __size_of_Quadra_Al 032F        __size_of__Umul8_16 0027                 ?_ADC_Init 0070  
        __end_of_spiWrite 1706                 ??_spiInit 0073                 ??_spiRead 0070  
               ??_sprintf 0031              ___xxtofl@arg 007A              ___xxtofl@exp 0079  
            ___xxtofl@val 0070   __end_of__initialization 07FC                ___flneg@f1 0070  
              ___fltol@f1 00A0            __pcstackCOMMON 0070              __pidataBANK3 170D  
              ??_ADC_Init 0070         __end_of_Quadra_Al 048D         __end_of__Umul8_16 178F  
              __pmaintext 0AAD   __size_of_spiReceiveWait 0007                 ?___xxtofl 0070  
            ??_UART_Write 0070                   _SSPSTAT 0094                __stringtab 1000  
               ?_spiWrite 0070                   ___aldiv 087C                   ___fladd 0D68  
                 ___fldiv 0B8B                   ___flneg 1726                   ___flmul 048D  
                 ___flsub 1744                   ___fltol 0800        __end_of_UART_Write 000F  
                 ___lwdiv 0025                   ___lwmod 17C6                   __ptext1 1700  
                 __ptext2 171D                   __ptext3 1706                   __ptext4 000F  
                 __ptext5 0800                   __ptext6 09D3                   __ptext7 087C  
                 __ptext8 015E                   __ptext9 0069                   _dpowers 1006  
              ??___xxtofl 0074          ___aldiv@dividend 0074                   _spiInit 000F  
                 _spiRead 171D                   _sprintf 0069                   main@out 00C2  
    end_of_initialization 07FC          ___aldiv@quotient 0022                ??_spiWrite 0070  
               _UART_Init 09D3            UART_Write@data 0070               ___fladd@grs 007B  
           ___xxtofl@sign 0078               ___fldiv@grs 0056               ___fldiv@rem 004F  
       __size_of_ADC_Init 0009               spiWrite@dat 0070               ___flmul@grs 0036  
          _spiReceiveWait 1706                ?_UART_Init 0026  __size_of_UART_Write_Text 0037  
     start_initialization 07EE    __end_of_spiReceiveWait 170D                 _Quadra_Al 015E  
              init_fetch0 1731                 __Umul8_16 1768               __pdataBANK3 01E8  
           Quadra_Al@max1 01DE             Quadra_Al@max2 01D2             Quadra_Al@xmax 01E3  
               ___fladd@a 0074                 ___fladd@b 0070                 ___fldiv@a 0042  
               ___fldiv@b 0046                 ___flmul@a 002C                 ___flmul@b 0028  
               ___flsub@a 0042                 ___flsub@b 0046                 ___latbits 0002  
           __pcstackBANK0 0020             __pcstackBANK1 00A0             __pcstackBANK3 0190  
       __size_of___xxtofl 00BA               sprintf@flag 0035               sprintf@prec 0036  
           _Quadra_Al$925 01CA             _Quadra_Al$926 01CE          ___lwdiv@dividend 0072  
         ?_spiReceiveWait 0070                ?_Quadra_Al 005C                  ?___aldiv 0070  
                ?___fladd 0070                  ?___fldiv 0042                  ?___flneg 0070  
                ?___flmul 0028                  ?___flsub 0042                  ?___fltol 00A0  
              ?__Umul8_16 0070                  ?___lwdiv 0070                  ?___lwmod 0078  
             ??_UART_Init 002A         __size_of_spiWrite 0006                 __pstrings 1000  
                _ADC_Init 1714                  ?_spiInit 0070                  ?_spiRead 0070  
        ___lwdiv@quotient 0075                  ?_sprintf 0020                UART_Init@x 0079  
       ??_UART_Write_Text 0073           ___aldiv@divisor 0070      spiInit@sTransmitEdge 0072  
         ___aldiv@counter 0020        Quadra_Al@uart_logs 0190        spiInit@sDataSample 0070  
                _GO_nDONE 00FA         UART_Init@baudrate 0026               __stringbase 1005  
             ??_Quadra_Al 0060              Quadra_Al@max 01E5              Quadra_Al@out 01DA  
             ??__Umul8_16 0072          __size_of___aldiv 009D          __size_of___fladd 0298  
        __size_of___fldiv 01DD          __size_of___flneg 000B          __size_of___flmul 0361  
        __size_of___flsub 0024          __size_of___fltol 007C          __size_of___lwdiv 0044  
        __size_of___lwmod 003A        __end_of__stringtab 1006                sprintf@val 0037  
                ___xxtofl 0919           ___lwdiv@divisor 0070           ___lwdiv@counter 0077  
                __ptext10 17C6                  __ptext11 0025                  __ptext20 0003  
                __ptext12 0919                  __ptext21 1714                  __ptext13 1744  
                __ptext14 0D68                  __ptext15 1726                  __ptext16 048D  
                __ptext17 1768                  __ptext18 0B8B                  __ptext19 178F  
        __size_of_spiInit 0016          __size_of_spiRead 0009          __size_of_sprintf 00F5  
     UART_Write_Text@text 0071             __size_of_main 00DE                  _spiWrite 1700  
            spiInit@sType 0073                  main@data 00C4         spiInit@sClockIdle 0071  
                init_ram0 1735                 sprintf@ap 0034                 sprintf@sp 0020  
        ___lwmod@dividend 007A          ??_spiReceiveWait 0070                 stringcode 1000  
  __Umul8_16@multiplicand 0070           _UART_Write_Text 178F                  sprintf@c 0039  
                sprintf@f 0022           ___lwmod@divisor 0078           ___lwmod@counter 007D  
                stringdir 1000                  stringtab 1000              ___aldiv@sign 0021  
              _UART_Write 0003             ___fladd@signs 0078          UART_Write_Text@i 0076  
            ___fladd@aexp 0079              ___fladd@bexp 007A      __Umul8_16@multiplier 0078  
       __Umul8_16@product 0074  
