

Microchip MPLAB XC8 Assembler V2.32 build 20210201212658 
                                                                                               Thu Nov 25 14:17:40 2021

Microchip MPLAB XC8 C Compiler v2.32 (Free license) build 20210201212658 Og1 
     1                           	processor	16F877A
     2                           	pagewidth 120
     3                           	opt	flic
     4                           	psect	strings,global,class=STRING,delta=2,noexec
     5                           	psect	cinit,global,class=CODE,merge=1,delta=2
     6                           	psect	bssBANK1,global,class=BANK1,space=1,delta=1,noexec
     7                           	psect	clrtext,global,class=CODE,delta=2
     8                           	psect	cstackBANK3,global,class=BANK3,space=1,delta=1,noexec
     9                           	psect	cstackCOMMON,global,class=COMMON,space=1,delta=1,noexec
    10                           	psect	cstackBANK0,global,class=BANK0,space=1,delta=1,noexec
    11                           	psect	maintext,global,class=CODE,split=1,delta=2
    12                           	psect	text1,local,class=CODE,merge=1,delta=2
    13                           	psect	text2,local,class=CODE,merge=1,delta=2
    14                           	psect	text3,local,class=CODE,merge=1,delta=2
    15                           	psect	text4,local,class=CODE,merge=1,delta=2
    16                           	psect	text5,local,class=CODE,merge=1,delta=2
    17                           	psect	text6,local,class=CODE,merge=1,delta=2,group=2
    18                           	psect	text7,local,class=CODE,merge=1,delta=2
    19                           	psect	text8,local,class=CODE,merge=1,delta=2,group=2
    20                           	psect	text9,local,class=CODE,merge=1,delta=2
    21                           	psect	text10,local,class=CODE,merge=1,delta=2,group=1
    22                           	psect	text11,local,class=CODE,merge=1,delta=2,group=2
    23                           	psect	text12,local,class=CODE,merge=1,delta=2,group=2
    24                           	psect	text13,local,class=CODE,merge=1,delta=2,group=2
    25                           	psect	text14,local,class=CODE,merge=1,delta=2,group=2
    26                           	psect	text15,local,class=CODE,merge=1,delta=2,group=2
    27                           	psect	text16,local,class=CODE,merge=1,delta=2,group=2
    28                           	psect	text17,local,class=CODE,merge=1,delta=2,group=2
    29                           	psect	text18,local,class=CODE,merge=1,delta=2,group=2
    30                           	psect	text19,local,class=CODE,merge=1,delta=2,group=2
    31                           	psect	text20,local,class=CODE,merge=1,delta=2,group=2
    32                           	psect	text21,local,class=CODE,merge=1,delta=2
    33                           	psect	text22,local,class=CODE,merge=1,delta=2
    34                           	psect	text23,local,class=CODE,merge=1,delta=2
    35                           	psect	text24,local,class=CODE,merge=1,delta=2
    36                           	psect	config,global,abs,ovrld,class=CONFIG,space=4,delta=2,noexec
    37                           	dabs	1,0x7E,2
    38  0000                     
    39                           ; Version 2.20
    40                           ; Generated 12/02/2020 GMT
    41                           ; 
    42                           ; Copyright © 2020, Microchip Technology Inc. and its subsidiaries ("Microchip")
    43                           ; All rights reserved.
    44                           ; 
    45                           ; This software is developed by Microchip Technology Inc. and its subsidiaries ("Microch
      +                          ip").
    46                           ; 
    47                           ; Redistribution and use in source and binary forms, with or without modification, are
    48                           ; permitted provided that the following conditions are met:
    49                           ; 
    50                           ;     1. Redistributions of source code must retain the above copyright notice, this lis
      +                          t of
    51                           ;        conditions and the following disclaimer.
    52                           ; 
    53                           ;     2. Redistributions in binary form must reproduce the above copyright notice, this 
      +                          list
    54                           ;        of conditions and the following disclaimer in the documentation and/or other
    55                           ;        materials provided with the distribution.
    56                           ; 
    57                           ;     3. Microchip's name may not be used to endorse or promote products derived from th
      +                          is
    58                           ;        software without specific prior written permission.
    59                           ; 
    60                           ; THIS SOFTWARE IS PROVIDED BY MICROCHIP "AS IS" AND ANY EXPRESS OR IMPLIED WARRANTIES,
    61                           ; INCLUDING, BUT NOT LIMITED TO, THE IMPLIED WARRANTIES OF MERCHANTABILITY AND FITNESS F
      +                          OR
    62                           ; PURPOSE ARE DISCLAIMED.  IN NO EVENT SHALL MICROCHIP BE LIABLE FOR ANY DIRECT, INDIREC
      +                          T,
    63                           ; INCIDENTAL, SPECIAL, EXEMPLARY, OR CONSEQUENTIAL DAMAGES (INCLUDING BUT NOT LIMITED TO
    64                           ; PROCUREMENT OF SUBSTITUTE GOODS OR SERVICES; LOSS OF USE, DATA OR PROFITS; OR BUSINESS
    65                           ; INTERRUPTION) HOWSOEVER CAUSED AND ON ANY THEORY OF LIABILITY, WHETHER IN CONTRACT, ST
      +                          RICT
    66                           ; LIABILITY, OR TORT (INCLUDING NEGLIGENCE OR OTHERWISE) ARISING IN ANY WAY OUT OF THE U
      +                          SE OF
    67                           ; THIS SOFTWARE, EVEN IF ADVISED OF THE POSSIBILITY OF SUCH DAMAGE.
    68                           ; 
    69                           ; 
    70                           ; Code-generator required, PIC16F877A Definitions
    71                           ; 
    72                           ; SFR Addresses
    73  0000                     	;# 
    74  0001                     	;# 
    75  0002                     	;# 
    76  0003                     	;# 
    77  0004                     	;# 
    78  0005                     	;# 
    79  0006                     	;# 
    80  0007                     	;# 
    81  0008                     	;# 
    82  0009                     	;# 
    83  000A                     	;# 
    84  000B                     	;# 
    85  000C                     	;# 
    86  000D                     	;# 
    87  000E                     	;# 
    88  000E                     	;# 
    89  000F                     	;# 
    90  0010                     	;# 
    91  0011                     	;# 
    92  0012                     	;# 
    93  0013                     	;# 
    94  0014                     	;# 
    95  0015                     	;# 
    96  0015                     	;# 
    97  0016                     	;# 
    98  0017                     	;# 
    99  0018                     	;# 
   100  0019                     	;# 
   101  001A                     	;# 
   102  001B                     	;# 
   103  001B                     	;# 
   104  001C                     	;# 
   105  001D                     	;# 
   106  001E                     	;# 
   107  001F                     	;# 
   108  0081                     	;# 
   109  0085                     	;# 
   110  0086                     	;# 
   111  0087                     	;# 
   112  0088                     	;# 
   113  0089                     	;# 
   114  008C                     	;# 
   115  008D                     	;# 
   116  008E                     	;# 
   117  0091                     	;# 
   118  0092                     	;# 
   119  0093                     	;# 
   120  0094                     	;# 
   121  0098                     	;# 
   122  0099                     	;# 
   123  009C                     	;# 
   124  009D                     	;# 
   125  009E                     	;# 
   126  009F                     	;# 
   127  010C                     	;# 
   128  010D                     	;# 
   129  010E                     	;# 
   130  010F                     	;# 
   131  018C                     	;# 
   132  018D                     	;# 
   133  0000                     	;# 
   134  0001                     	;# 
   135  0002                     	;# 
   136  0003                     	;# 
   137  0004                     	;# 
   138  0005                     	;# 
   139  0006                     	;# 
   140  0007                     	;# 
   141  0008                     	;# 
   142  0009                     	;# 
   143  000A                     	;# 
   144  000B                     	;# 
   145  000C                     	;# 
   146  000D                     	;# 
   147  000E                     	;# 
   148  000E                     	;# 
   149  000F                     	;# 
   150  0010                     	;# 
   151  0011                     	;# 
   152  0012                     	;# 
   153  0013                     	;# 
   154  0014                     	;# 
   155  0015                     	;# 
   156  0015                     	;# 
   157  0016                     	;# 
   158  0017                     	;# 
   159  0018                     	;# 
   160  0019                     	;# 
   161  001A                     	;# 
   162  001B                     	;# 
   163  001B                     	;# 
   164  001C                     	;# 
   165  001D                     	;# 
   166  001E                     	;# 
   167  001F                     	;# 
   168  0081                     	;# 
   169  0085                     	;# 
   170  0086                     	;# 
   171  0087                     	;# 
   172  0088                     	;# 
   173  0089                     	;# 
   174  008C                     	;# 
   175  008D                     	;# 
   176  008E                     	;# 
   177  0091                     	;# 
   178  0092                     	;# 
   179  0093                     	;# 
   180  0094                     	;# 
   181  0098                     	;# 
   182  0099                     	;# 
   183  009C                     	;# 
   184  009D                     	;# 
   185  009E                     	;# 
   186  009F                     	;# 
   187  010C                     	;# 
   188  010D                     	;# 
   189  010E                     	;# 
   190  010F                     	;# 
   191  018C                     	;# 
   192  018D                     	;# 
   193  0000                     	;# 
   194  0001                     	;# 
   195  0002                     	;# 
   196  0003                     	;# 
   197  0004                     	;# 
   198  0005                     	;# 
   199  0006                     	;# 
   200  0007                     	;# 
   201  0008                     	;# 
   202  0009                     	;# 
   203  000A                     	;# 
   204  000B                     	;# 
   205  000C                     	;# 
   206  000D                     	;# 
   207  000E                     	;# 
   208  000E                     	;# 
   209  000F                     	;# 
   210  0010                     	;# 
   211  0011                     	;# 
   212  0012                     	;# 
   213  0013                     	;# 
   214  0014                     	;# 
   215  0015                     	;# 
   216  0015                     	;# 
   217  0016                     	;# 
   218  0017                     	;# 
   219  0018                     	;# 
   220  0019                     	;# 
   221  001A                     	;# 
   222  001B                     	;# 
   223  001B                     	;# 
   224  001C                     	;# 
   225  001D                     	;# 
   226  001E                     	;# 
   227  001F                     	;# 
   228  0081                     	;# 
   229  0085                     	;# 
   230  0086                     	;# 
   231  0087                     	;# 
   232  0088                     	;# 
   233  0089                     	;# 
   234  008C                     	;# 
   235  008D                     	;# 
   236  008E                     	;# 
   237  0091                     	;# 
   238  0092                     	;# 
   239  0093                     	;# 
   240  0094                     	;# 
   241  0098                     	;# 
   242  0099                     	;# 
   243  009C                     	;# 
   244  009D                     	;# 
   245  009E                     	;# 
   246  009F                     	;# 
   247  010C                     	;# 
   248  010D                     	;# 
   249  010E                     	;# 
   250  010F                     	;# 
   251  018C                     	;# 
   252  018D                     	;# 
   253                           
   254                           	psect	strings
   255  1000                     __pstrings:
   256  1000                     stringtab:
   257  1000                     __stringtab:
   258                           
   259                           ;	String table - string pointers are 1 byte each
   260  1000  1BFF               	btfsc	btemp+1,7
   261  1001  280A               	ljmp	stringcode
   262  1002  1383               	bcf	3,7
   263  1003  187F               	btfsc	btemp+1,0
   264  1004  1783               	bsf	3,7
   265  1005  0800               	movf	0,w
   266  1006  0A84               	incf	4,f
   267  1007  1903               	skipnz
   268  1008  0AFF               	incf	btemp+1,f
   269  1009  0008               	return
   270  100A                     stringcode:
   271  100A                     stringdir:
   272  100A  3010               	movlw	high stringdir
   273  100B  008A               	movwf	10
   274  100C  0804               	movf	4,w
   275  100D  0A84               	incf	4,f
   276  100E  0782               	addwf	2,f
   277  100F                     __stringbase:
   278  100F  3400               	retlw	0
   279  1010                     __end_of__stringtab:
   280  1010                     _dpowers:
   281  1010  3401               	retlw	1
   282  1011  3400               	retlw	0
   283  1012  340A               	retlw	10
   284  1013  3400               	retlw	0
   285  1014  3464               	retlw	100
   286  1015  3400               	retlw	0
   287  1016  34E8               	retlw	232
   288  1017  3403               	retlw	3
   289  1018  3410               	retlw	16
   290  1019  3427               	retlw	39
   291  101A                     __end_of_dpowers:
   292  0013                     _SSPBUF	set	19
   293  0014                     _SSPCON	set	20
   294  0008                     _PORTD	set	8
   295  001E                     _ADRESH	set	30
   296  001F                     _ADCON0	set	31
   297  0019                     _TXREG	set	25
   298  001A                     _RCREG	set	26
   299  0040                     _RD0	set	64
   300  0063                     _SSPIF	set	99
   301  005E                     _PEIE	set	94
   302  005F                     _GIE	set	95
   303  00FA                     _GO_nDONE	set	250
   304  0065                     _RCIF	set	101
   305  00C4                     _CREN	set	196
   306  00C7                     _SPEN	set	199
   307  0094                     _SSPSTATbits	set	148
   308  0094                     _SSPSTAT	set	148
   309  0088                     _TRISD	set	136
   310  0085                     _TRISA	set	133
   311  009E                     _ADRESL	set	158
   312  009F                     _ADCON1	set	159
   313  0099                     _SPBRG	set	153
   314  043B                     _TRISC3	set	1083
   315  043D                     _TRISC5	set	1085
   316  0463                     _SSPIE	set	1123
   317  04C1                     _TRMT	set	1217
   318  04C5                     _TXEN	set	1221
   319  043E                     _TRISC6	set	1086
   320  043F                     _TRISC7	set	1087
   321  04C4                     _SYNC	set	1220
   322  04C2                     _BRGH	set	1218
   323  101A                     STR_6:
   324  101A  344B               	retlw	75	;'K'
   325  101B  3468               	retlw	104	;'h'
   326  101C  346F               	retlw	111	;'o'
   327  101D  3461               	retlw	97	;'a'
   328  101E  346E               	retlw	110	;'n'
   329  101F  3467               	retlw	103	;'g'
   330  1020  3420               	retlw	32	;' '
   331  1021  3463               	retlw	99	;'c'
   332  1022  3461               	retlw	97	;'a'
   333  1023  3463               	retlw	99	;'c'
   334  1024  3468               	retlw	104	;'h'
   335  1025  3420               	retlw	32	;' '
   336  1026  343D               	retlw	61	;'='
   337  1027  3420               	retlw	32	;' '
   338  1028  3400               	retlw	0
   339  1029                     STR_2:
   340  1029  3425               	retlw	37	;'%'
   341  102A  3464               	retlw	100	;'d'
   342  102B  340A               	retlw	10
   343  102C  3400               	retlw	0
   344  102D                     STR_5:
   345  102D  340A               	retlw	10
   346  102E  340D               	retlw	13
   347  102F  3400               	retlw	0
   348  1030                     STR_1:
   349  1030  3443               	retlw	67	;'C'
   350  1031  3442               	retlw	66	;'B'
   351  1032  3400               	retlw	0
   352  1029                     
   353                           	psect	cinit
   354  07F3                     start_initialization:	
   355                           ; #config settings
   356                           
   357  07F3                     __initialization:
   358                           
   359                           ; Clear objects allocated to BANK1
   360  07F3  1383               	bcf	3,7	;select IRP bank0
   361  07F4  30A0               	movlw	low __pbssBANK1
   362  07F5  0084               	movwf	4
   363  07F6  30BC               	movlw	low (__pbssBANK1+28)
   364  07F7  160A  118A  24C7  120A  118A  	fcall	clear_ram0
   365  07FC                     end_of_initialization:	
   366                           ;End of C runtime variable initialization code
   367                           
   368  07FC                     __end_of__initialization:
   369  07FC  0183               	clrf	3
   370  07FD  160A  118A  2E3A   	ljmp	_main	;jump to C main() function
   371                           
   372                           	psect	bssBANK1
   373  00A0                     __pbssBANK1:
   374  00A0                     Quadra_Al@F1140:
   375  00A0                     	ds	28
   376                           
   377                           	psect	clrtext
   378  14C7                     clear_ram0:	
   379                           ;	Called with FSR containing the base address, and
   380                           ;	W with the last address+1
   381                           
   382  14C7  0064               	clrwdt	;clear the watchdog before getting into this loop
   383  14C8                     clrloop0:
   384  14C8  0180               	clrf	0	;clear RAM location pointed to by FSR
   385  14C9  0A84               	incf	4,f	;increment pointer
   386  14CA  0604               	xorwf	4,w	;XOR with final address
   387  14CB  1903               	btfsc	3,2	;have we reached the end yet?
   388  14CC  3400               	retlw	0	;all done for this memory range, return
   389  14CD  0604               	xorwf	4,w	;XOR again to restore value
   390  14CE  2CC8               	goto	clrloop0	;do the next byte
   391                           
   392                           	psect	cstackBANK3
   393  0190                     __pcstackBANK3:
   394  0190                     Quadra_Al@data:
   395                           
   396                           ; 10 bytes @ 0x0
   397  0190                     	ds	10
   398  019A                     Quadra_Al@x:
   399                           
   400                           ; 28 bytes @ 0xA
   401  019A                     	ds	28
   402  01B6                     Quadra_Al@b:
   403                           
   404                           ; 4 bytes @ 0x26
   405  01B6                     	ds	4
   406  01BA                     Quadra_Al@d:
   407                           
   408                           ; 4 bytes @ 0x2A
   409  01BA                     	ds	4
   410  01BE                     _Quadra_Al$929:
   411                           
   412                           ; 4 bytes @ 0x2E
   413  01BE                     	ds	4
   414  01C2                     _Quadra_Al$930:
   415                           
   416                           ; 4 bytes @ 0x32
   417  01C2                     	ds	4
   418  01C6                     _Quadra_Al$931:
   419                           
   420                           ; 4 bytes @ 0x36
   421  01C6                     	ds	4
   422  01CA                     _Quadra_Al$932:
   423                           
   424                           ; 4 bytes @ 0x3A
   425  01CA                     	ds	4
   426  01CE                     _Quadra_Al$933:
   427                           
   428                           ; 4 bytes @ 0x3E
   429  01CE                     	ds	4
   430  01D2                     Quadra_Al@max2:
   431                           
   432                           ; 4 bytes @ 0x42
   433  01D2                     	ds	4
   434  01D6                     Quadra_Al@max1:
   435                           
   436                           ; 4 bytes @ 0x46
   437  01D6                     	ds	4
   438  01DA                     Quadra_Al@out:
   439                           
   440                           ; 4 bytes @ 0x4A
   441  01DA                     	ds	4
   442  01DE                     Quadra_Al@max:
   443                           
   444                           ; 4 bytes @ 0x4E
   445  01DE                     	ds	4
   446  01E2                     Quadra_Al@a:
   447                           
   448                           ; 4 bytes @ 0x52
   449  01E2                     	ds	4
   450  01E6                     Quadra_Al@xmax:
   451                           
   452                           ; 2 bytes @ 0x56
   453  01E6                     	ds	2
   454  01E8                     Quadra_Al@j:
   455                           
   456                           ; 2 bytes @ 0x58
   457  01E8                     	ds	2
   458                           
   459                           	psect	cstackCOMMON
   460  0070                     __pcstackCOMMON:
   461  0070                     ?___flge:
   462  0070                     ?_spiInit:	
   463                           ; 1 bit 
   464                           
   465  0070                     ?_spiRead:	
   466                           ; 1 bytes @ 0x0
   467                           
   468  0070                     ??_spiRead:	
   469                           ; 1 bytes @ 0x0
   470                           
   471  0070                     ?_spiWrite:	
   472                           ; 1 bytes @ 0x0
   473                           
   474  0070                     ??_spiWrite:	
   475                           ; 1 bytes @ 0x0
   476                           
   477  0070                     ?_UART_Write:	
   478                           ; 1 bytes @ 0x0
   479                           
   480  0070                     ??_UART_Write:	
   481                           ; 1 bytes @ 0x0
   482                           
   483  0070                     ?_ADC_Init:	
   484                           ; 1 bytes @ 0x0
   485                           
   486  0070                     ??_ADC_Init:	
   487                           ; 1 bytes @ 0x0
   488                           
   489  0070                     ?_main:	
   490                           ; 1 bytes @ 0x0
   491                           
   492  0070                     ?_spiReceiveWait:	
   493                           ; 1 bytes @ 0x0
   494                           
   495  0070                     ??_spiReceiveWait:	
   496                           ; 1 bytes @ 0x0
   497                           
   498  0070                     ?_spiDataReady:	
   499                           ; 1 bytes @ 0x0
   500                           
   501  0070                     ?__Umul8_16:	
   502                           ; 2 bytes @ 0x0
   503                           
   504  0070                     ?_ADC_Read:	
   505                           ; 2 bytes @ 0x0
   506                           
   507  0070                     ?___lwdiv:	
   508                           ; 2 bytes @ 0x0
   509                           
   510  0070                     ?___aldiv:	
   511                           ; 2 bytes @ 0x0
   512                           
   513  0070                     ?___flneg:	
   514                           ; 4 bytes @ 0x0
   515                           
   516  0070                     ?___fltol:	
   517                           ; 4 bytes @ 0x0
   518                           
   519  0070                     ?___fladd:	
   520                           ; 4 bytes @ 0x0
   521                           
   522  0070                     UART_Write@data:	
   523                           ; 4 bytes @ 0x0
   524                           
   525  0070                     spiInit@sDataSample:	
   526                           ; 1 bytes @ 0x0
   527                           
   528  0070                     spiWrite@dat:	
   529                           ; 1 bytes @ 0x0
   530                           
   531  0070                     __Umul8_16@multiplicand:	
   532                           ; 1 bytes @ 0x0
   533                           
   534  0070                     ___lwdiv@divisor:	
   535                           ; 1 bytes @ 0x0
   536                           
   537  0070                     ___aldiv@divisor:	
   538                           ; 2 bytes @ 0x0
   539                           
   540  0070                     ___flge@ff1:	
   541                           ; 4 bytes @ 0x0
   542                           
   543  0070                     ___flneg@f1:	
   544                           ; 4 bytes @ 0x0
   545                           
   546  0070                     ___fltol@f1:	
   547                           ; 4 bytes @ 0x0
   548                           
   549  0070                     ___fladd@b:	
   550                           ; 4 bytes @ 0x0
   551                           
   552                           
   553                           ; 4 bytes @ 0x0
   554  0070                     	ds	1
   555  0071                     ?_UART_Write_Text:
   556  0071                     spiInit@sClockIdle:	
   557                           ; 1 bytes @ 0x1
   558                           
   559  0071                     UART_Write_Text@text:	
   560                           ; 1 bytes @ 0x1
   561                           
   562                           
   563                           ; 2 bytes @ 0x1
   564  0071                     	ds	1
   565  0072                     ??_spiDataReady:
   566  0072                     ??__Umul8_16:	
   567                           ; 1 bytes @ 0x2
   568                           
   569  0072                     ??_ADC_Read:	
   570                           ; 1 bytes @ 0x2
   571                           
   572  0072                     spiInit@sTransmitEdge:	
   573                           ; 1 bytes @ 0x2
   574                           
   575  0072                     ___lwdiv@dividend:	
   576                           ; 1 bytes @ 0x2
   577                           
   578                           
   579                           ; 2 bytes @ 0x2
   580  0072                     	ds	1
   581  0073                     ??_spiInit:
   582  0073                     ??_UART_Write_Text:	
   583                           ; 1 bytes @ 0x3
   584                           
   585  0073                     spiInit@sType:	
   586                           ; 1 bytes @ 0x3
   587                           
   588                           
   589                           ; 1 bytes @ 0x3
   590  0073                     	ds	1
   591  0074                     ??___flneg:
   592  0074                     ??___fltol:	
   593                           ; 1 bytes @ 0x4
   594                           
   595  0074                     ??___lwdiv:	
   596                           ; 1 bytes @ 0x4
   597                           
   598  0074                     ADC_Read@channel:	
   599                           ; 1 bytes @ 0x4
   600                           
   601  0074                     __Umul8_16@product:	
   602                           ; 1 bytes @ 0x4
   603                           
   604  0074                     ___aldiv@dividend:	
   605                           ; 2 bytes @ 0x4
   606                           
   607  0074                     ___flge@ff2:	
   608                           ; 4 bytes @ 0x4
   609                           
   610  0074                     ___fladd@a:	
   611                           ; 4 bytes @ 0x4
   612                           
   613                           
   614                           ; 4 bytes @ 0x4
   615  0074                     	ds	1
   616  0075                     ?___xxtofl:
   617  0075                     ___lwdiv@quotient:	
   618                           ; 4 bytes @ 0x5
   619                           
   620  0075                     ___xxtofl@val:	
   621                           ; 2 bytes @ 0x5
   622                           
   623                           
   624                           ; 4 bytes @ 0x5
   625  0075                     	ds	1
   626  0076                     UART_Write_Text@i:
   627  0076                     __Umul8_16@word_mpld:	
   628                           ; 2 bytes @ 0x6
   629                           
   630                           
   631                           ; 2 bytes @ 0x6
   632  0076                     	ds	1
   633  0077                     ___lwdiv@counter:
   634                           
   635                           ; 1 bytes @ 0x7
   636  0077                     	ds	1
   637  0078                     ??___aldiv:
   638  0078                     ??___flge:	
   639                           ; 1 bytes @ 0x8
   640                           
   641  0078                     ?___lwmod:	
   642                           ; 1 bytes @ 0x8
   643                           
   644  0078                     ___fladd@signs:	
   645                           ; 2 bytes @ 0x8
   646                           
   647  0078                     __Umul8_16@multiplier:	
   648                           ; 1 bytes @ 0x8
   649                           
   650  0078                     ___lwmod@divisor:	
   651                           ; 1 bytes @ 0x8
   652                           
   653                           
   654                           ; 2 bytes @ 0x8
   655  0078                     	ds	1
   656  0079                     ??___xxtofl:
   657  0079                     ___fltol@sign1:	
   658                           ; 1 bytes @ 0x9
   659                           
   660  0079                     ___fladd@aexp:	
   661                           ; 1 bytes @ 0x9
   662                           
   663  0079                     UART_Init@x:	
   664                           ; 1 bytes @ 0x9
   665                           
   666                           
   667                           ; 2 bytes @ 0x9
   668  0079                     	ds	1
   669  007A                     ___fltol@exp1:
   670  007A                     ___fladd@bexp:	
   671                           ; 1 bytes @ 0xA
   672                           
   673  007A                     ___lwmod@dividend:	
   674                           ; 1 bytes @ 0xA
   675                           
   676                           
   677                           ; 2 bytes @ 0xA
   678  007A                     	ds	1
   679  007B                     ___fladd@grs:
   680                           
   681                           ; 1 bytes @ 0xB
   682  007B                     	ds	1
   683  007C                     ??___lwmod:
   684                           
   685                           ; 1 bytes @ 0xC
   686  007C                     	ds	1
   687  007D                     ??___flsub:
   688  007D                     ___lwmod@counter:	
   689                           ; 1 bytes @ 0xD
   690                           
   691                           
   692                           ; 1 bytes @ 0xD
   693  007D                     	ds	1
   694                           
   695                           	psect	cstackBANK0
   696  0020                     __pcstackBANK0:
   697  0020                     ??___fladd:
   698  0020                     ?_sprintf:	
   699                           ; 1 bytes @ 0x0
   700                           
   701  0020                     sprintf@f:	
   702                           ; 2 bytes @ 0x0
   703                           
   704  0020                     ___aldiv@counter:	
   705                           ; 1 bytes @ 0x0
   706                           
   707  0020                     ___xxtofl@sign:	
   708                           ; 1 bytes @ 0x0
   709                           
   710                           
   711                           ; 1 bytes @ 0x0
   712  0020                     	ds	1
   713  0021                     ___aldiv@sign:
   714  0021                     ___xxtofl@exp:	
   715                           ; 1 bytes @ 0x1
   716                           
   717                           
   718                           ; 1 bytes @ 0x1
   719  0021                     	ds	1
   720  0022                     ___aldiv@quotient:
   721  0022                     ___xxtofl@arg:	
   722                           ; 4 bytes @ 0x2
   723                           
   724                           
   725                           ; 4 bytes @ 0x2
   726  0022                     	ds	3
   727  0025                     ??_sprintf:
   728                           
   729                           ; 1 bytes @ 0x5
   730  0025                     	ds	1
   731  0026                     ?_UART_Init:
   732  0026                     UART_Init@baudrate:	
   733                           ; 1 bytes @ 0x6
   734                           
   735                           
   736                           ; 4 bytes @ 0x6
   737  0026                     	ds	2
   738  0028                     ?___flmul:
   739  0028                     sprintf@ap:	
   740                           ; 4 bytes @ 0x8
   741                           
   742  0028                     ___flmul@b:	
   743                           ; 1 bytes @ 0x8
   744                           
   745                           
   746                           ; 4 bytes @ 0x8
   747  0028                     	ds	1
   748  0029                     sprintf@flag:
   749                           
   750                           ; 1 bytes @ 0x9
   751  0029                     	ds	1
   752  002A                     ??_UART_Init:
   753  002A                     sprintf@prec:	
   754                           ; 1 bytes @ 0xA
   755                           
   756                           
   757                           ; 1 bytes @ 0xA
   758  002A                     	ds	1
   759  002B                     sprintf@val:
   760                           
   761                           ; 2 bytes @ 0xB
   762  002B                     	ds	1
   763  002C                     ___flmul@a:
   764                           
   765                           ; 4 bytes @ 0xC
   766  002C                     	ds	1
   767  002D                     sprintf@sp:
   768                           
   769                           ; 1 bytes @ 0xD
   770  002D                     	ds	1
   771  002E                     sprintf@c:
   772                           
   773                           ; 1 bytes @ 0xE
   774  002E                     	ds	2
   775  0030                     ??___flmul:
   776                           
   777                           ; 1 bytes @ 0x10
   778  0030                     	ds	5
   779  0035                     ___flmul@sign:
   780                           
   781                           ; 1 bytes @ 0x15
   782  0035                     	ds	1
   783  0036                     ___flmul@grs:
   784                           
   785                           ; 4 bytes @ 0x16
   786  0036                     	ds	4
   787  003A                     ___flmul@aexp:
   788                           
   789                           ; 1 bytes @ 0x1A
   790  003A                     	ds	1
   791  003B                     ___flmul@bexp:
   792                           
   793                           ; 1 bytes @ 0x1B
   794  003B                     	ds	1
   795  003C                     ___flmul@prod:
   796                           
   797                           ; 4 bytes @ 0x1C
   798  003C                     	ds	4
   799  0040                     ___flmul@temp:
   800                           
   801                           ; 2 bytes @ 0x20
   802  0040                     	ds	2
   803  0042                     ?___flsub:
   804  0042                     ?___fldiv:	
   805                           ; 4 bytes @ 0x22
   806                           
   807  0042                     ___flsub@a:	
   808                           ; 4 bytes @ 0x22
   809                           
   810  0042                     ___fldiv@a:	
   811                           ; 4 bytes @ 0x22
   812                           
   813                           
   814                           ; 4 bytes @ 0x22
   815  0042                     	ds	4
   816  0046                     ___flsub@b:
   817  0046                     ___fldiv@b:	
   818                           ; 4 bytes @ 0x26
   819                           
   820                           
   821                           ; 4 bytes @ 0x26
   822  0046                     	ds	4
   823  004A                     ??___fldiv:
   824                           
   825                           ; 1 bytes @ 0x2A
   826  004A                     	ds	5
   827  004F                     ___fldiv@rem:
   828                           
   829                           ; 4 bytes @ 0x2F
   830  004F                     	ds	4
   831  0053                     ___fldiv@sign:
   832                           
   833                           ; 1 bytes @ 0x33
   834  0053                     	ds	1
   835  0054                     ___fldiv@new_exp:
   836                           
   837                           ; 2 bytes @ 0x34
   838  0054                     	ds	2
   839  0056                     ___fldiv@grs:
   840                           
   841                           ; 4 bytes @ 0x36
   842  0056                     	ds	4
   843  005A                     ___fldiv@bexp:
   844                           
   845                           ; 1 bytes @ 0x3A
   846  005A                     	ds	1
   847  005B                     ___fldiv@aexp:
   848                           
   849                           ; 1 bytes @ 0x3B
   850  005B                     	ds	1
   851  005C                     ?_Quadra_Al:
   852                           
   853                           ; 4 bytes @ 0x3C
   854  005C                     	ds	4
   855  0060                     ??_Quadra_Al:
   856                           
   857                           ; 1 bytes @ 0x40
   858  0060                     	ds	5
   859  0065                     ??_main:
   860                           
   861                           ; 1 bytes @ 0x45
   862  0065                     	ds	3
   863  0068                     main@data:
   864                           
   865                           ; 4 bytes @ 0x48
   866  0068                     	ds	4
   867                           
   868                           	psect	maintext
   869  163A                     __pmaintext:	
   870 ;;
   871 ;;Main: autosize = 0, tempsize = 3, incstack = 0, save=0
   872 ;;
   873 ;; *************** function _main *****************
   874 ;; Defined at:
   875 ;;		line 98 in file "newmain.c"
   876 ;; Parameters:    Size  Location     Type
   877 ;;		None
   878 ;; Auto vars:     Size  Location     Type
   879 ;;  data            4   72[BANK0 ] float 
   880 ;; Return value:  Size  Location     Type
   881 ;;                  1    wreg      void 
   882 ;; Registers used:
   883 ;;		wreg, fsr0l, fsr0h, status,2, status,0, btemp+1, pclath, cstack
   884 ;; Tracked objects:
   885 ;;		On entry : B00/0
   886 ;;		On exit  : 0/0
   887 ;;		Unchanged: 0/0
   888 ;; Data sizes:     COMMON   BANK0   BANK1   BANK3   BANK2
   889 ;;      Params:         0       0       0       0       0
   890 ;;      Locals:         0       4       0       0       0
   891 ;;      Temps:          0       3       0       0       0
   892 ;;      Totals:         0       7       0       0       0
   893 ;;Total ram usage:        7 bytes
   894 ;; Hardware stack levels required when called: 3
   895 ;; This function calls:
   896 ;;		_ADC_Init
   897 ;;		_Quadra_Al
   898 ;;		_UART_Init
   899 ;;		___fltol
   900 ;;		_spiDataReady
   901 ;;		_spiInit
   902 ;;		_spiRead
   903 ;;		_spiWrite
   904 ;; This function is called by:
   905 ;;		Startup code after reset
   906 ;; This function uses a non-reentrant model
   907 ;;
   908                           
   909                           
   910                           ;psect for function _main
   911  163A                     _main:
   912  163A                     l2708:	
   913                           ;incstack = 0
   914                           ; Regs used in _main: [wreg-fsr0h+status,2+status,0+btemp+1+pclath+cstack]
   915                           
   916                           
   917                           ;newmain.c: 100:    TRISA = 1;
   918  163A  3001               	movlw	1
   919  163B  1683               	bsf	3,5	;RP0=1, select bank1
   920  163C  1303               	bcf	3,6	;RP1=0, select bank1
   921  163D  0085               	movwf	5	;volatile
   922  163E                     l2710:
   923                           
   924                           ;newmain.c: 101:    TRISD = 0;
   925  163E  0188               	clrf	8	;volatile
   926  163F                     l2712:
   927                           
   928                           ;newmain.c: 102:    PORTD = 0;
   929  163F  1283               	bcf	3,5	;RP0=0, select bank0
   930  1640  1303               	bcf	3,6	;RP1=0, select bank0
   931  1641  0188               	clrf	8	;volatile
   932  1642                     l2714:
   933                           
   934                           ;newmain.c: 104:    GIE = 1;
   935  1642  178B               	bsf	11,7	;volatile
   936  1643                     l2716:
   937                           
   938                           ;newmain.c: 105:    PEIE = 1;
   939  1643  170B               	bsf	11,6	;volatile
   940  1644                     l2718:
   941                           
   942                           ;newmain.c: 106:    SSPIF = 0;
   943  1644  118C               	bcf	12,3	;volatile
   944  1645                     l2720:
   945                           
   946                           ;newmain.c: 107:    SSPIE = 1;
   947  1645  1683               	bsf	3,5	;RP0=1, select bank1
   948  1646  1303               	bcf	3,6	;RP1=0, select bank1
   949  1647  158C               	bsf	12,3	;volatile
   950                           
   951                           ;newmain.c: 108:    ADCON1 = 0x07;
   952  1648  3007               	movlw	7
   953  1649  009F               	movwf	31	;volatile
   954  164A                     l2722:
   955                           
   956                           ;newmain.c: 110:    ADC_Init ();
   957  164A  160A  118A  24CF  160A  118A  	fcall	_ADC_Init
   958  164F                     l2724:
   959                           
   960                           ;newmain.c: 111:    UART_Init (9600);
   961  164F  3000               	movlw	0
   962  1650  1283               	bcf	3,5	;RP0=0, select bank0
   963  1651  1303               	bcf	3,6	;RP1=0, select bank0
   964  1652  00A9               	movwf	UART_Init@baudrate+3
   965  1653  3000               	movlw	0
   966  1654  00A8               	movwf	UART_Init@baudrate+2
   967  1655  3025               	movlw	37
   968  1656  00A7               	movwf	UART_Init@baudrate+1
   969  1657  3080               	movlw	128
   970  1658  00A6               	movwf	UART_Init@baudrate
   971  1659  120A  158A  2100  160A  118A  	fcall	_UART_Init
   972  165E                     l2726:
   973                           
   974                           ;newmain.c: 112:    spiInit(SPI_SLAVE_SS_EN, SPI_DATA_SAMPLE_MIDDLE, SPI_CLOCK_IDLE_LOW,
      +                           SPI_IDLE_2_ACTIVE);
   975  165E  01F0               	clrf	spiInit@sDataSample
   976  165F  01F1               	clrf	spiInit@sClockIdle
   977  1660  01F2               	clrf	spiInit@sTransmitEdge
   978  1661  3024               	movlw	36
   979  1662  160A  118A  24FA  160A  118A  	fcall	_spiInit
   980  1667                     l2728:
   981                           
   982                           ;newmain.c: 114:    {;newmain.c: 115:        if(spiDataReady())
   983  1667  160A  118A  24EC  160A  118A  	fcall	_spiDataReady
   984  166C  0870               	movf	?_spiDataReady,w
   985  166D  0471               	iorwf	?_spiDataReady+1,w
   986  166E  1903               	btfsc	3,2
   987  166F  2E71               	goto	u4211
   988  1670  2E72               	goto	u4210
   989  1671                     u4211:
   990  1671  2EB3               	goto	l2744
   991  1672                     u4210:
   992  1672                     l2730:
   993                           
   994                           ;newmain.c: 116:        {;newmain.c: 117:            float data;;newmain.c: 118:        
      +                              if (spiRead ())
   995  1672  160A  118A  24D8  160A  118A  	fcall	_spiRead
   996  1677  3A00               	xorlw	0
   997  1678  1903               	skipnz
   998  1679  2E7B               	goto	u4221
   999  167A  2E7C               	goto	u4220
  1000  167B                     u4221:
  1001  167B  2EAF               	goto	l2740
  1002  167C                     u4220:
  1003  167C                     l2732:
  1004                           
  1005                           ;newmain.c: 119:            {;newmain.c: 120:                RD0 = 1;
  1006  167C  1283               	bcf	3,5	;RP0=0, select bank0
  1007  167D  1303               	bcf	3,6	;RP1=0, select bank0
  1008  167E  1408               	bsf	8,0	;volatile
  1009  167F                     l2734:
  1010                           
  1011                           ;newmain.c: 121:                data = Quadra_Al ();
  1012  167F  120A  118A  22EC  160A  118A  	fcall	_Quadra_Al
  1013  1684  1283               	bcf	3,5	;RP0=0, select bank0
  1014  1685  1303               	bcf	3,6	;RP1=0, select bank0
  1015  1686  085F               	movf	?_Quadra_Al+3,w
  1016  1687  00EB               	movwf	main@data+3
  1017  1688  085E               	movf	?_Quadra_Al+2,w
  1018  1689  00EA               	movwf	main@data+2
  1019  168A  085D               	movf	?_Quadra_Al+1,w
  1020  168B  00E9               	movwf	main@data+1
  1021  168C  085C               	movf	?_Quadra_Al,w
  1022  168D  00E8               	movwf	main@data
  1023  168E                     l2736:
  1024                           
  1025                           ;newmain.c: 122:                spiWrite (data);
  1026  168E  086B               	movf	main@data+3,w
  1027  168F  00F3               	movwf	___fltol@f1+3
  1028  1690  086A               	movf	main@data+2,w
  1029  1691  00F2               	movwf	___fltol@f1+2
  1030  1692  0869               	movf	main@data+1,w
  1031  1693  00F1               	movwf	___fltol@f1+1
  1032  1694  0868               	movf	main@data,w
  1033  1695  00F0               	movwf	___fltol@f1
  1034  1696  160A  118A  25C0  160A  118A  	fcall	___fltol
  1035  169B  0870               	movf	?___fltol,w
  1036  169C  160A  118A  24BA  160A  118A  	fcall	_spiWrite
  1037  16A1                     l2738:
  1038                           
  1039                           ;newmain.c: 123:                _delay((unsigned long)((1000)*(8000000/4000.0)));
  1040  16A1  300B               	movlw	11
  1041  16A2  1283               	bcf	3,5	;RP0=0, select bank0
  1042  16A3  1303               	bcf	3,6	;RP1=0, select bank0
  1043  16A4  00E7               	movwf	??_main+2
  1044  16A5  3026               	movlw	38
  1045  16A6  00E6               	movwf	??_main+1
  1046  16A7  305D               	movlw	93
  1047  16A8  00E5               	movwf	??_main
  1048  16A9                     u4237:
  1049  16A9  0BE5               	decfsz	??_main,f
  1050  16AA  2EA9               	goto	u4237
  1051  16AB  0BE6               	decfsz	??_main+1,f
  1052  16AC  2EA9               	goto	u4237
  1053  16AD  0BE7               	decfsz	??_main+2,f
  1054  16AE  2EA9               	goto	u4237
  1055  16AF                     l2740:
  1056                           
  1057                           ;newmain.c: 125:            RD0 = 0;
  1058  16AF  1283               	bcf	3,5	;RP0=0, select bank0
  1059  16B0  1303               	bcf	3,6	;RP1=0, select bank0
  1060  16B1  1008               	bcf	8,0	;volatile
  1061  16B2                     l2742:
  1062                           
  1063                           ;newmain.c: 126:            SSPIF = 0;
  1064  16B2  118C               	bcf	12,3	;volatile
  1065  16B3                     l2744:
  1066                           
  1067                           ;newmain.c: 128:        _delay((unsigned long)((5)*(8000000/4000.0)));
  1068  16B3  300D               	movlw	13
  1069  16B4  1283               	bcf	3,5	;RP0=0, select bank0
  1070  16B5  1303               	bcf	3,6	;RP1=0, select bank0
  1071  16B6  00E6               	movwf	??_main+1
  1072  16B7  30FB               	movlw	251
  1073  16B8  00E5               	movwf	??_main
  1074  16B9                     u4247:
  1075  16B9  0BE5               	decfsz	??_main,f
  1076  16BA  2EB9               	goto	u4247
  1077  16BB  0BE6               	decfsz	??_main+1,f
  1078  16BC  2EB9               	goto	u4247
  1079  16BD  2E67               	goto	l2728
  1080  16BE  120A  118A  2800   	ljmp	start
  1081  16C1                     __end_of_main:
  1082                           
  1083                           	psect	text1
  1084  14BA                     __ptext1:	
  1085 ;; *************** function _spiWrite *****************
  1086 ;; Defined at:
  1087 ;;		line 34 in file "spi.c"
  1088 ;; Parameters:    Size  Location     Type
  1089 ;;  dat             1    wreg     unsigned char 
  1090 ;; Auto vars:     Size  Location     Type
  1091 ;;  dat             1    0[COMMON] unsigned char 
  1092 ;; Return value:  Size  Location     Type
  1093 ;;                  1    wreg      void 
  1094 ;; Registers used:
  1095 ;;		wreg
  1096 ;; Tracked objects:
  1097 ;;		On entry : 0/0
  1098 ;;		On exit  : 0/0
  1099 ;;		Unchanged: 0/0
  1100 ;; Data sizes:     COMMON   BANK0   BANK1   BANK3   BANK2
  1101 ;;      Params:         0       0       0       0       0
  1102 ;;      Locals:         1       0       0       0       0
  1103 ;;      Temps:          0       0       0       0       0
  1104 ;;      Totals:         1       0       0       0       0
  1105 ;;Total ram usage:        1 bytes
  1106 ;; Hardware stack levels used: 1
  1107 ;; This function calls:
  1108 ;;		Nothing
  1109 ;; This function is called by:
  1110 ;;		_main
  1111 ;; This function uses a non-reentrant model
  1112 ;;
  1113                           
  1114                           
  1115                           ;psect for function _spiWrite
  1116  14BA                     _spiWrite:
  1117                           
  1118                           ;incstack = 0
  1119                           ; Regs used in _spiWrite: [wreg]
  1120                           ;spiWrite@dat stored from wreg
  1121  14BA  00F0               	movwf	spiWrite@dat
  1122  14BB                     l2670:
  1123                           
  1124                           ;spi.c: 34: void spiWrite(char dat);spi.c: 35: {;spi.c: 36:     SSPBUF = dat;
  1125  14BB  0870               	movf	spiWrite@dat,w
  1126  14BC  1283               	bcf	3,5	;RP0=0, select bank0
  1127  14BD  1303               	bcf	3,6	;RP1=0, select bank0
  1128  14BE  0093               	movwf	19	;volatile
  1129  14BF                     l156:
  1130  14BF  0008               	return
  1131  14C0                     __end_of_spiWrite:
  1132                           
  1133                           	psect	text2
  1134  14D8                     __ptext2:	
  1135 ;; *************** function _spiRead *****************
  1136 ;; Defined at:
  1137 ;;		line 47 in file "spi.c"
  1138 ;; Parameters:    Size  Location     Type
  1139 ;;		None
  1140 ;; Auto vars:     Size  Location     Type
  1141 ;;		None
  1142 ;; Return value:  Size  Location     Type
  1143 ;;                  1    wreg      unsigned char 
  1144 ;; Registers used:
  1145 ;;		wreg, status,2, status,0, pclath, cstack
  1146 ;; Tracked objects:
  1147 ;;		On entry : 0/0
  1148 ;;		On exit  : 0/0
  1149 ;;		Unchanged: 0/0
  1150 ;; Data sizes:     COMMON   BANK0   BANK1   BANK3   BANK2
  1151 ;;      Params:         0       0       0       0       0
  1152 ;;      Locals:         0       0       0       0       0
  1153 ;;      Temps:          0       0       0       0       0
  1154 ;;      Totals:         0       0       0       0       0
  1155 ;;Total ram usage:        0 bytes
  1156 ;; Hardware stack levels used: 1
  1157 ;; Hardware stack levels required when called: 1
  1158 ;; This function calls:
  1159 ;;		_spiReceiveWait
  1160 ;; This function is called by:
  1161 ;;		_main
  1162 ;; This function uses a non-reentrant model
  1163 ;;
  1164                           
  1165                           
  1166                           ;psect for function _spiRead
  1167  14D8                     _spiRead:
  1168  14D8                     l2664:	
  1169                           ;incstack = 0
  1170                           ; Regs used in _spiRead: [wreg+status,2+status,0+pclath+cstack]
  1171                           
  1172                           
  1173                           ;spi.c: 49:     spiReceiveWait();
  1174  14D8  160A  118A  24C0  160A  118A  	fcall	_spiReceiveWait
  1175  14DD                     l2666:
  1176                           
  1177                           ;spi.c: 50:     return(SSPBUF);
  1178  14DD  1283               	bcf	3,5	;RP0=0, select bank0
  1179  14DE  1303               	bcf	3,6	;RP1=0, select bank0
  1180  14DF  0813               	movf	19,w	;volatile
  1181  14E0                     l164:
  1182  14E0  0008               	return
  1183  14E1                     __end_of_spiRead:
  1184                           
  1185                           	psect	text3
  1186  14C0                     __ptext3:	
  1187 ;; *************** function _spiReceiveWait *****************
  1188 ;; Defined at:
  1189 ;;		line 29 in file "spi.c"
  1190 ;; Parameters:    Size  Location     Type
  1191 ;;		None
  1192 ;; Auto vars:     Size  Location     Type
  1193 ;;		None
  1194 ;; Return value:  Size  Location     Type
  1195 ;;                  1    wreg      void 
  1196 ;; Registers used:
  1197 ;;		None
  1198 ;; Tracked objects:
  1199 ;;		On entry : 0/0
  1200 ;;		On exit  : 0/0
  1201 ;;		Unchanged: 0/0
  1202 ;; Data sizes:     COMMON   BANK0   BANK1   BANK3   BANK2
  1203 ;;      Params:         0       0       0       0       0
  1204 ;;      Locals:         0       0       0       0       0
  1205 ;;      Temps:          0       0       0       0       0
  1206 ;;      Totals:         0       0       0       0       0
  1207 ;;Total ram usage:        0 bytes
  1208 ;; Hardware stack levels used: 1
  1209 ;; This function calls:
  1210 ;;		Nothing
  1211 ;; This function is called by:
  1212 ;;		_spiRead
  1213 ;; This function uses a non-reentrant model
  1214 ;;
  1215                           
  1216                           
  1217                           ;psect for function _spiReceiveWait
  1218  14C0                     _spiReceiveWait:
  1219  14C0                     l2132:	
  1220                           ;incstack = 0
  1221                           ; Regs used in _spiReceiveWait: []
  1222                           
  1223  14C0                     l150:	
  1224                           ;spi.c: 31:     while ( !SSPSTATbits.BF );
  1225                           
  1226  14C0  1683               	bsf	3,5	;RP0=1, select bank1
  1227  14C1  1303               	bcf	3,6	;RP1=0, select bank1
  1228  14C2  1C14               	btfss	20,0	;volatile
  1229  14C3  2CC5               	goto	u2881
  1230  14C4  2CC6               	goto	u2880
  1231  14C5                     u2881:
  1232  14C5  2CC0               	goto	l150
  1233  14C6                     u2880:
  1234  14C6                     l153:
  1235  14C6  0008               	return
  1236  14C7                     __end_of_spiReceiveWait:
  1237                           
  1238                           	psect	text4
  1239  14FA                     __ptext4:	
  1240 ;; *************** function _spiInit *****************
  1241 ;; Defined at:
  1242 ;;		line 12 in file "spi.c"
  1243 ;; Parameters:    Size  Location     Type
  1244 ;;  sType           1    wreg     enum E850
  1245 ;;  sDataSample     1    0[COMMON] enum E858
  1246 ;;  sClockIdle      1    1[COMMON] enum E862
  1247 ;;  sTransmitEdg    1    2[COMMON] enum E866
  1248 ;; Auto vars:     Size  Location     Type
  1249 ;;  sType           1    3[COMMON] enum E850
  1250 ;; Return value:  Size  Location     Type
  1251 ;;                  1    wreg      void 
  1252 ;; Registers used:
  1253 ;;		wreg, status,2, status,0
  1254 ;; Tracked objects:
  1255 ;;		On entry : 0/0
  1256 ;;		On exit  : 0/0
  1257 ;;		Unchanged: 0/0
  1258 ;; Data sizes:     COMMON   BANK0   BANK1   BANK3   BANK2
  1259 ;;      Params:         3       0       0       0       0
  1260 ;;      Locals:         1       0       0       0       0
  1261 ;;      Temps:          0       0       0       0       0
  1262 ;;      Totals:         4       0       0       0       0
  1263 ;;Total ram usage:        4 bytes
  1264 ;; Hardware stack levels used: 1
  1265 ;; This function calls:
  1266 ;;		Nothing
  1267 ;; This function is called by:
  1268 ;;		_main
  1269 ;; This function uses a non-reentrant model
  1270 ;;
  1271                           
  1272                           
  1273                           ;psect for function _spiInit
  1274  14FA                     _spiInit:
  1275                           
  1276                           ;incstack = 0
  1277                           ; Regs used in _spiInit: [wreg+status,2+status,0]
  1278                           ;spiInit@sType stored from wreg
  1279  14FA  00F3               	movwf	spiInit@sType
  1280  14FB                     l2642:
  1281                           
  1282                           ;spi.c: 12: void spiInit(Spi_Type sType, Spi_Data_Sample sDataSample, Spi_Clock_Idle sCl
      +                          ockIdle, Spi_Transmit_Edge sTransmitEdge);spi.c: 13: {;spi.c: 14:     TRISC5 = 0;
  1283  14FB  1683               	bsf	3,5	;RP0=1, select bank1
  1284  14FC  1303               	bcf	3,6	;RP1=0, select bank1
  1285  14FD  1287               	bcf	7,5	;volatile
  1286                           
  1287                           ;spi.c: 15:     if(sType & 0b00000100)
  1288  14FE  1D73               	btfss	spiInit@sType,2
  1289  14FF  2D01               	goto	u4091
  1290  1500  2D02               	goto	u4090
  1291  1501                     u4091:
  1292  1501  2D06               	goto	l2648
  1293  1502                     u4090:
  1294  1502                     l2644:
  1295                           
  1296                           ;spi.c: 16:     {;spi.c: 17:         SSPSTAT = sTransmitEdge;
  1297  1502  0872               	movf	spiInit@sTransmitEdge,w
  1298  1503  0094               	movwf	20	;volatile
  1299  1504                     l2646:
  1300                           
  1301                           ;spi.c: 18:         TRISC3 = 1;
  1302  1504  1587               	bsf	7,3	;volatile
  1303                           
  1304                           ;spi.c: 19:     }
  1305  1505  2D0A               	goto	l146
  1306  1506                     l2648:
  1307                           
  1308                           ;spi.c: 21:     {;spi.c: 22:         SSPSTAT = sDataSample | sTransmitEdge;
  1309  1506  0870               	movf	spiInit@sDataSample,w
  1310  1507  0472               	iorwf	spiInit@sTransmitEdge,w
  1311  1508  0094               	movwf	20	;volatile
  1312  1509                     l2650:
  1313                           
  1314                           ;spi.c: 23:         TRISC3 = 0;
  1315  1509  1187               	bcf	7,3	;volatile
  1316  150A                     l146:	
  1317                           ;spi.c: 24:     }
  1318                           
  1319                           
  1320                           ;spi.c: 26:     SSPCON = sType | sClockIdle;
  1321  150A  0873               	movf	spiInit@sType,w
  1322  150B  0471               	iorwf	spiInit@sClockIdle,w
  1323  150C  1283               	bcf	3,5	;RP0=0, select bank0
  1324  150D  1303               	bcf	3,6	;RP1=0, select bank0
  1325  150E  0094               	movwf	20	;volatile
  1326  150F                     l147:
  1327  150F  0008               	return
  1328  1510                     __end_of_spiInit:
  1329                           
  1330                           	psect	text5
  1331  14EC                     __ptext5:	
  1332 ;; *************** function _spiDataReady *****************
  1333 ;; Defined at:
  1334 ;;		line 39 in file "spi.c"
  1335 ;; Parameters:    Size  Location     Type
  1336 ;;		None
  1337 ;; Auto vars:     Size  Location     Type
  1338 ;;		None
  1339 ;; Return value:  Size  Location     Type
  1340 ;;                  2    0[COMMON] unsigned int 
  1341 ;; Registers used:
  1342 ;;		wreg, status,2
  1343 ;; Tracked objects:
  1344 ;;		On entry : 0/0
  1345 ;;		On exit  : 0/0
  1346 ;;		Unchanged: 0/0
  1347 ;; Data sizes:     COMMON   BANK0   BANK1   BANK3   BANK2
  1348 ;;      Params:         2       0       0       0       0
  1349 ;;      Locals:         0       0       0       0       0
  1350 ;;      Temps:          0       0       0       0       0
  1351 ;;      Totals:         2       0       0       0       0
  1352 ;;Total ram usage:        2 bytes
  1353 ;; Hardware stack levels used: 1
  1354 ;; This function calls:
  1355 ;;		Nothing
  1356 ;; This function is called by:
  1357 ;;		_main
  1358 ;; This function uses a non-reentrant model
  1359 ;;
  1360                           
  1361                           
  1362                           ;psect for function _spiDataReady
  1363  14EC                     _spiDataReady:
  1364  14EC                     l2652:	
  1365                           ;incstack = 0
  1366                           ; Regs used in _spiDataReady: [wreg+status,2]
  1367                           
  1368                           
  1369                           ;spi.c: 41:     if(SSPSTATbits.BF)
  1370  14EC  1683               	bsf	3,5	;RP0=1, select bank1
  1371  14ED  1303               	bcf	3,6	;RP1=0, select bank1
  1372  14EE  1C14               	btfss	20,0	;volatile
  1373  14EF  2CF1               	goto	u4101
  1374  14F0  2CF2               	goto	u4100
  1375  14F1                     u4101:
  1376  14F1  2CF7               	goto	l2660
  1377  14F2                     u4100:
  1378  14F2                     l2654:
  1379                           
  1380                           ;spi.c: 42:         return 1;
  1381  14F2  3001               	movlw	1
  1382  14F3  00F0               	movwf	?_spiDataReady
  1383  14F4  3000               	movlw	0
  1384  14F5  00F1               	movwf	?_spiDataReady+1
  1385  14F6  2CF9               	goto	l160
  1386  14F7                     l2660:
  1387                           
  1388                           ;spi.c: 44:         return 0;
  1389  14F7  01F0               	clrf	?_spiDataReady
  1390  14F8  01F1               	clrf	?_spiDataReady+1
  1391  14F9                     l160:
  1392  14F9  0008               	return
  1393  14FA                     __end_of_spiDataReady:
  1394                           
  1395                           	psect	text6
  1396  15C0                     __ptext6:	
  1397 ;; *************** function ___fltol *****************
  1398 ;; Defined at:
  1399 ;;		line 43 in file "C:\Program Files\Microchip\xc8\v2.32\pic\sources\c90\common\fltol.c"
  1400 ;; Parameters:    Size  Location     Type
  1401 ;;  f1              4    0[COMMON] unsigned int 
  1402 ;; Auto vars:     Size  Location     Type
  1403 ;;  exp1            1   10[COMMON] unsigned char 
  1404 ;;  sign1           1    9[COMMON] unsigned char 
  1405 ;; Return value:  Size  Location     Type
  1406 ;;                  4    0[COMMON] long 
  1407 ;; Registers used:
  1408 ;;		wreg, status,2, status,0
  1409 ;; Tracked objects:
  1410 ;;		On entry : 0/0
  1411 ;;		On exit  : 0/0
  1412 ;;		Unchanged: 0/0
  1413 ;; Data sizes:     COMMON   BANK0   BANK1   BANK3   BANK2
  1414 ;;      Params:         4       0       0       0       0
  1415 ;;      Locals:         2       0       0       0       0
  1416 ;;      Temps:          5       0       0       0       0
  1417 ;;      Totals:        11       0       0       0       0
  1418 ;;Total ram usage:       11 bytes
  1419 ;; Hardware stack levels used: 1
  1420 ;; This function calls:
  1421 ;;		Nothing
  1422 ;; This function is called by:
  1423 ;;		_main
  1424 ;; This function uses a non-reentrant model
  1425 ;;
  1426                           
  1427                           
  1428                           ;psect for function ___fltol
  1429  15C0                     ___fltol:
  1430  15C0                     l2672:	
  1431                           ;incstack = 0
  1432                           ; Regs used in ___fltol: [wreg+status,2+status,0]
  1433                           
  1434  15C0  1003               	clrc
  1435  15C1  0D72               	rlf	___fltol@f1+2,w
  1436  15C2  0D73               	rlf	___fltol@f1+3,w
  1437  15C3  00F4               	movwf	??___fltol
  1438  15C4  0874               	movf	??___fltol,w
  1439  15C5  00FA               	movwf	___fltol@exp1
  1440  15C6  087A               	movf	___fltol@exp1,w
  1441  15C7  1D03               	btfss	3,2
  1442  15C8  2DCA               	goto	u4111
  1443  15C9  2DCB               	goto	u4110
  1444  15CA                     u4111:
  1445  15CA  2DD4               	goto	l2678
  1446  15CB                     u4110:
  1447  15CB                     l2674:
  1448  15CB  3000               	movlw	0
  1449  15CC  00F3               	movwf	?___fltol+3
  1450  15CD  3000               	movlw	0
  1451  15CE  00F2               	movwf	?___fltol+2
  1452  15CF  3000               	movlw	0
  1453  15D0  00F1               	movwf	?___fltol+1
  1454  15D1  3000               	movlw	0
  1455  15D2  00F0               	movwf	?___fltol
  1456  15D3  2E39               	goto	l464
  1457  15D4                     l2678:
  1458  15D4  0870               	movf	___fltol@f1,w
  1459  15D5  00F4               	movwf	??___fltol
  1460  15D6  0871               	movf	___fltol@f1+1,w
  1461  15D7  00F5               	movwf	??___fltol+1
  1462  15D8  0872               	movf	___fltol@f1+2,w
  1463  15D9  00F6               	movwf	??___fltol+2
  1464  15DA  0873               	movf	___fltol@f1+3,w
  1465  15DB  00F7               	movwf	??___fltol+3
  1466  15DC  301F               	movlw	31
  1467  15DD                     u4125:
  1468  15DD  1003               	clrc
  1469  15DE  0CF7               	rrf	??___fltol+3,f
  1470  15DF  0CF6               	rrf	??___fltol+2,f
  1471  15E0  0CF5               	rrf	??___fltol+1,f
  1472  15E1  0CF4               	rrf	??___fltol,f
  1473  15E2                     u4120:
  1474  15E2  3EFF               	addlw	-1
  1475  15E3  1D03               	skipz
  1476  15E4  2DDD               	goto	u4125
  1477  15E5  0874               	movf	??___fltol,w
  1478  15E6  00F8               	movwf	??___fltol+4
  1479  15E7  0878               	movf	??___fltol+4,w
  1480  15E8  00F9               	movwf	___fltol@sign1
  1481  15E9                     l2680:
  1482  15E9  17F2               	bsf	___fltol@f1+2,7
  1483  15EA                     l2682:
  1484  15EA  30FF               	movlw	255
  1485  15EB  05F0               	andwf	___fltol@f1,f
  1486  15EC  30FF               	movlw	255
  1487  15ED  05F1               	andwf	___fltol@f1+1,f
  1488  15EE  30FF               	movlw	255
  1489  15EF  05F2               	andwf	___fltol@f1+2,f
  1490  15F0  3000               	movlw	0
  1491  15F1  05F3               	andwf	___fltol@f1+3,f
  1492  15F2                     l2684:
  1493  15F2  3096               	movlw	150
  1494  15F3  02FA               	subwf	___fltol@exp1,f
  1495  15F4                     l2686:
  1496  15F4  1FFA               	btfss	___fltol@exp1,7
  1497  15F5  2DF7               	goto	u4131
  1498  15F6  2DF8               	goto	u4130
  1499  15F7                     u4131:
  1500  15F7  2E12               	goto	l2696
  1501  15F8                     u4130:
  1502  15F8                     l2688:
  1503  15F8  087A               	movf	___fltol@exp1,w
  1504  15F9  3A80               	xorlw	128
  1505  15FA  3E97               	addlw	151
  1506  15FB  1803               	skipnc
  1507  15FC  2DFE               	goto	u4141
  1508  15FD  2DFF               	goto	u4140
  1509  15FE                     u4141:
  1510  15FE  2E00               	goto	l2694
  1511  15FF                     u4140:
  1512  15FF  2DCB               	goto	l2674
  1513  1600                     l2694:
  1514  1600  3001               	movlw	1
  1515  1601                     u4155:
  1516  1601  1003               	clrc
  1517  1602  0CF3               	rrf	___fltol@f1+3,f
  1518  1603  0CF2               	rrf	___fltol@f1+2,f
  1519  1604  0CF1               	rrf	___fltol@f1+1,f
  1520  1605  0CF0               	rrf	___fltol@f1,f
  1521  1606  3EFF               	addlw	-1
  1522  1607  1D03               	skipz
  1523  1608  2E01               	goto	u4155
  1524  1609  3001               	movlw	1
  1525  160A  00F4               	movwf	??___fltol
  1526  160B  0874               	movf	??___fltol,w
  1527  160C  07FA               	addwf	___fltol@exp1,f
  1528  160D  1D03               	btfss	3,2
  1529  160E  2E10               	goto	u4161
  1530  160F  2E11               	goto	u4160
  1531  1610                     u4161:
  1532  1610  2E00               	goto	l2694
  1533  1611                     u4160:
  1534  1611  2E29               	goto	l2704
  1535  1612                     l2696:
  1536  1612  3020               	movlw	32
  1537  1613  027A               	subwf	___fltol@exp1,w
  1538  1614  1C03               	skipc
  1539  1615  2E17               	goto	u4171
  1540  1616  2E18               	goto	u4170
  1541  1617                     u4171:
  1542  1617  2E24               	goto	l471
  1543  1618                     u4170:
  1544  1618  2DCB               	goto	l2674
  1545  1619                     l2702:
  1546  1619  3001               	movlw	1
  1547  161A  00F4               	movwf	??___fltol
  1548  161B                     u4185:
  1549  161B  1003               	clrc
  1550  161C  0DF0               	rlf	___fltol@f1,f
  1551  161D  0DF1               	rlf	___fltol@f1+1,f
  1552  161E  0DF2               	rlf	___fltol@f1+2,f
  1553  161F  0DF3               	rlf	___fltol@f1+3,f
  1554  1620  0BF4               	decfsz	??___fltol,f
  1555  1621  2E1B               	goto	u4185
  1556  1622  3001               	movlw	1
  1557  1623  02FA               	subwf	___fltol@exp1,f
  1558  1624                     l471:
  1559  1624  087A               	movf	___fltol@exp1,w
  1560  1625  1D03               	btfss	3,2
  1561  1626  2E28               	goto	u4191
  1562  1627  2E29               	goto	u4190
  1563  1628                     u4191:
  1564  1628  2E19               	goto	l2702
  1565  1629                     u4190:
  1566  1629                     l2704:
  1567  1629  0879               	movf	___fltol@sign1,w
  1568  162A  1903               	btfsc	3,2
  1569  162B  2E2D               	goto	u4201
  1570  162C  2E2E               	goto	u4200
  1571  162D                     u4201:
  1572  162D  2E39               	goto	l474
  1573  162E                     u4200:
  1574  162E                     l2706:
  1575  162E  09F0               	comf	___fltol@f1,f
  1576  162F  09F1               	comf	___fltol@f1+1,f
  1577  1630  09F2               	comf	___fltol@f1+2,f
  1578  1631  09F3               	comf	___fltol@f1+3,f
  1579  1632  0AF0               	incf	___fltol@f1,f
  1580  1633  1903               	skipnz
  1581  1634  0AF1               	incf	___fltol@f1+1,f
  1582  1635  1903               	skipnz
  1583  1636  0AF2               	incf	___fltol@f1+2,f
  1584  1637  1903               	skipnz
  1585  1638  0AF3               	incf	___fltol@f1+3,f
  1586  1639                     l474:
  1587  1639                     l464:
  1588  1639  0008               	return
  1589  163A                     __end_of___fltol:
  1590                           
  1591                           	psect	text7
  1592  0900                     __ptext7:	
  1593 ;; *************** function _UART_Init *****************
  1594 ;; Defined at:
  1595 ;;		line 1 in file "./uart.h"
  1596 ;; Parameters:    Size  Location     Type
  1597 ;;  baudrate        4    6[BANK0 ] const long 
  1598 ;; Auto vars:     Size  Location     Type
  1599 ;;  x               2    9[COMMON] unsigned int 
  1600 ;; Return value:  Size  Location     Type
  1601 ;;                  1    wreg      unsigned char 
  1602 ;; Registers used:
  1603 ;;		wreg, status,2, status,0, pclath, cstack
  1604 ;; Tracked objects:
  1605 ;;		On entry : 0/0
  1606 ;;		On exit  : 0/0
  1607 ;;		Unchanged: 0/0
  1608 ;; Data sizes:     COMMON   BANK0   BANK1   BANK3   BANK2
  1609 ;;      Params:         0       4       0       0       0
  1610 ;;      Locals:         2       0       0       0       0
  1611 ;;      Temps:          0      12       0       0       0
  1612 ;;      Totals:         2      16       0       0       0
  1613 ;;Total ram usage:       18 bytes
  1614 ;; Hardware stack levels used: 1
  1615 ;; Hardware stack levels required when called: 1
  1616 ;; This function calls:
  1617 ;;		___aldiv
  1618 ;; This function is called by:
  1619 ;;		_main
  1620 ;; This function uses a non-reentrant model
  1621 ;;
  1622                           
  1623                           
  1624                           ;psect for function _UART_Init
  1625  0900                     _UART_Init:
  1626  0900                     l2534:	
  1627                           ;incstack = 0
  1628                           ; Regs used in _UART_Init: [wreg+status,2+status,0+pclath+cstack]
  1629                           
  1630                           
  1631                           ;./uart.h: 1: char UART_Init(const long int baudrate);./uart.h: 2: {;./uart.h: 3:  unsig
      +                          ned int x;;./uart.h: 4:  x = (8000000 - baudrate*64)/(baudrate*64);
  1632  0900  1283               	bcf	3,5	;RP0=0, select bank0
  1633  0901  1303               	bcf	3,6	;RP1=0, select bank0
  1634  0902  0826               	movf	UART_Init@baudrate,w
  1635  0903  00AA               	movwf	??_UART_Init
  1636  0904  0827               	movf	UART_Init@baudrate+1,w
  1637  0905  00AB               	movwf	??_UART_Init+1
  1638  0906  0828               	movf	UART_Init@baudrate+2,w
  1639  0907  00AC               	movwf	??_UART_Init+2
  1640  0908  0829               	movf	UART_Init@baudrate+3,w
  1641  0909  00AD               	movwf	??_UART_Init+3
  1642  090A  3006               	movlw	6
  1643  090B                     u3875:
  1644  090B  1003               	clrc
  1645  090C  0DAA               	rlf	??_UART_Init,f
  1646  090D  0DAB               	rlf	??_UART_Init+1,f
  1647  090E  0DAC               	rlf	??_UART_Init+2,f
  1648  090F  0DAD               	rlf	??_UART_Init+3,f
  1649  0910                     u3870:
  1650  0910  3EFF               	addlw	-1
  1651  0911  1D03               	skipz
  1652  0912  290B               	goto	u3875
  1653  0913  082D               	movf	??_UART_Init+3,w
  1654  0914  00F3               	movwf	___aldiv@divisor+3
  1655  0915  082C               	movf	??_UART_Init+2,w
  1656  0916  00F2               	movwf	___aldiv@divisor+2
  1657  0917  082B               	movf	??_UART_Init+1,w
  1658  0918  00F1               	movwf	___aldiv@divisor+1
  1659  0919  082A               	movf	??_UART_Init,w
  1660  091A  00F0               	movwf	___aldiv@divisor
  1661  091B  0826               	movf	UART_Init@baudrate,w
  1662  091C  00AE               	movwf	??_UART_Init+4
  1663  091D  0827               	movf	UART_Init@baudrate+1,w
  1664  091E  00AF               	movwf	??_UART_Init+5
  1665  091F  0828               	movf	UART_Init@baudrate+2,w
  1666  0920  00B0               	movwf	??_UART_Init+6
  1667  0921  0829               	movf	UART_Init@baudrate+3,w
  1668  0922  00B1               	movwf	??_UART_Init+7
  1669  0923  3006               	movlw	6
  1670  0924                     u3885:
  1671  0924  1003               	clrc
  1672  0925  0DAE               	rlf	??_UART_Init+4,f
  1673  0926  0DAF               	rlf	??_UART_Init+5,f
  1674  0927  0DB0               	rlf	??_UART_Init+6,f
  1675  0928  0DB1               	rlf	??_UART_Init+7,f
  1676  0929                     u3880:
  1677  0929  3EFF               	addlw	-1
  1678  092A  1D03               	skipz
  1679  092B  2924               	goto	u3885
  1680  092C  3000               	movlw	0
  1681  092D  00B2               	movwf	??_UART_Init+8
  1682  092E  3012               	movlw	18
  1683  092F  00B3               	movwf	??_UART_Init+9
  1684  0930  307A               	movlw	122
  1685  0931  00B4               	movwf	??_UART_Init+10
  1686  0932  3000               	movlw	0
  1687  0933  00B5               	movwf	??_UART_Init+11
  1688  0934  082E               	movf	??_UART_Init+4,w
  1689  0935  02B2               	subwf	??_UART_Init+8,f
  1690  0936  082F               	movf	??_UART_Init+5,w
  1691  0937  1C03               	skipc
  1692  0938  0F2F               	incfsz	??_UART_Init+5,w
  1693  0939  293B               	goto	u3891
  1694  093A  293C               	goto	u3892
  1695  093B                     u3891:
  1696  093B  02B3               	subwf	??_UART_Init+9,f
  1697  093C                     u3892:
  1698  093C  0830               	movf	??_UART_Init+6,w
  1699  093D  1C03               	skipc
  1700  093E  0F30               	incfsz	??_UART_Init+6,w
  1701  093F  2941               	goto	u3893
  1702  0940  2942               	goto	u3894
  1703  0941                     u3893:
  1704  0941  02B4               	subwf	??_UART_Init+10,f
  1705  0942                     u3894:
  1706  0942  0831               	movf	??_UART_Init+7,w
  1707  0943  1C03               	skipc
  1708  0944  0F31               	incfsz	??_UART_Init+7,w
  1709  0945  2947               	goto	u3895
  1710  0946  2948               	goto	u3896
  1711  0947                     u3895:
  1712  0947  02B5               	subwf	??_UART_Init+11,f
  1713  0948                     u3896:
  1714  0948  0835               	movf	??_UART_Init+11,w
  1715  0949  00F7               	movwf	___aldiv@dividend+3
  1716  094A  0834               	movf	??_UART_Init+10,w
  1717  094B  00F6               	movwf	___aldiv@dividend+2
  1718  094C  0833               	movf	??_UART_Init+9,w
  1719  094D  00F5               	movwf	___aldiv@dividend+1
  1720  094E  0832               	movf	??_UART_Init+8,w
  1721  094F  00F4               	movwf	___aldiv@dividend
  1722  0950  160A  118A  26C1  120A  158A  	fcall	___aldiv
  1723  0955  0871               	movf	?___aldiv+1,w
  1724  0956  00FA               	movwf	UART_Init@x+1
  1725  0957  0870               	movf	?___aldiv,w
  1726  0958  00F9               	movwf	UART_Init@x
  1727  0959                     l2536:
  1728                           
  1729                           ;./uart.h: 5:  if(x>255)
  1730  0959  3001               	movlw	1
  1731  095A  027A               	subwf	UART_Init@x+1,w
  1732  095B  3000               	movlw	0
  1733  095C  1903               	skipnz
  1734  095D  0279               	subwf	UART_Init@x,w
  1735  095E  1C03               	skipc
  1736  095F  2961               	goto	u3901
  1737  0960  2962               	goto	u3900
  1738  0961                     u3901:
  1739  0961  29BE               	goto	l2542
  1740  0962                     u3900:
  1741  0962                     l2538:
  1742                           
  1743                           ;./uart.h: 6:  {;./uart.h: 7:   x = (8000000 - baudrate*16)/(baudrate*16);
  1744  0962  1283               	bcf	3,5	;RP0=0, select bank0
  1745  0963  1303               	bcf	3,6	;RP1=0, select bank0
  1746  0964  0826               	movf	UART_Init@baudrate,w
  1747  0965  00AA               	movwf	??_UART_Init
  1748  0966  0827               	movf	UART_Init@baudrate+1,w
  1749  0967  00AB               	movwf	??_UART_Init+1
  1750  0968  0828               	movf	UART_Init@baudrate+2,w
  1751  0969  00AC               	movwf	??_UART_Init+2
  1752  096A  0829               	movf	UART_Init@baudrate+3,w
  1753  096B  00AD               	movwf	??_UART_Init+3
  1754  096C  3004               	movlw	4
  1755  096D                     u3915:
  1756  096D  1003               	clrc
  1757  096E  0DAA               	rlf	??_UART_Init,f
  1758  096F  0DAB               	rlf	??_UART_Init+1,f
  1759  0970  0DAC               	rlf	??_UART_Init+2,f
  1760  0971  0DAD               	rlf	??_UART_Init+3,f
  1761  0972                     u3910:
  1762  0972  3EFF               	addlw	-1
  1763  0973  1D03               	skipz
  1764  0974  296D               	goto	u3915
  1765  0975  082D               	movf	??_UART_Init+3,w
  1766  0976  00F3               	movwf	___aldiv@divisor+3
  1767  0977  082C               	movf	??_UART_Init+2,w
  1768  0978  00F2               	movwf	___aldiv@divisor+2
  1769  0979  082B               	movf	??_UART_Init+1,w
  1770  097A  00F1               	movwf	___aldiv@divisor+1
  1771  097B  082A               	movf	??_UART_Init,w
  1772  097C  00F0               	movwf	___aldiv@divisor
  1773  097D  0826               	movf	UART_Init@baudrate,w
  1774  097E  00AE               	movwf	??_UART_Init+4
  1775  097F  0827               	movf	UART_Init@baudrate+1,w
  1776  0980  00AF               	movwf	??_UART_Init+5
  1777  0981  0828               	movf	UART_Init@baudrate+2,w
  1778  0982  00B0               	movwf	??_UART_Init+6
  1779  0983  0829               	movf	UART_Init@baudrate+3,w
  1780  0984  00B1               	movwf	??_UART_Init+7
  1781  0985  3004               	movlw	4
  1782  0986                     u3925:
  1783  0986  1003               	clrc
  1784  0987  0DAE               	rlf	??_UART_Init+4,f
  1785  0988  0DAF               	rlf	??_UART_Init+5,f
  1786  0989  0DB0               	rlf	??_UART_Init+6,f
  1787  098A  0DB1               	rlf	??_UART_Init+7,f
  1788  098B                     u3920:
  1789  098B  3EFF               	addlw	-1
  1790  098C  1D03               	skipz
  1791  098D  2986               	goto	u3925
  1792  098E  3000               	movlw	0
  1793  098F  00B2               	movwf	??_UART_Init+8
  1794  0990  3012               	movlw	18
  1795  0991  00B3               	movwf	??_UART_Init+9
  1796  0992  307A               	movlw	122
  1797  0993  00B4               	movwf	??_UART_Init+10
  1798  0994  3000               	movlw	0
  1799  0995  00B5               	movwf	??_UART_Init+11
  1800  0996  082E               	movf	??_UART_Init+4,w
  1801  0997  02B2               	subwf	??_UART_Init+8,f
  1802  0998  082F               	movf	??_UART_Init+5,w
  1803  0999  1C03               	skipc
  1804  099A  0F2F               	incfsz	??_UART_Init+5,w
  1805  099B  299D               	goto	u3931
  1806  099C  299E               	goto	u3932
  1807  099D                     u3931:
  1808  099D  02B3               	subwf	??_UART_Init+9,f
  1809  099E                     u3932:
  1810  099E  0830               	movf	??_UART_Init+6,w
  1811  099F  1C03               	skipc
  1812  09A0  0F30               	incfsz	??_UART_Init+6,w
  1813  09A1  29A3               	goto	u3933
  1814  09A2  29A4               	goto	u3934
  1815  09A3                     u3933:
  1816  09A3  02B4               	subwf	??_UART_Init+10,f
  1817  09A4                     u3934:
  1818  09A4  0831               	movf	??_UART_Init+7,w
  1819  09A5  1C03               	skipc
  1820  09A6  0F31               	incfsz	??_UART_Init+7,w
  1821  09A7  29A9               	goto	u3935
  1822  09A8  29AA               	goto	u3936
  1823  09A9                     u3935:
  1824  09A9  02B5               	subwf	??_UART_Init+11,f
  1825  09AA                     u3936:
  1826  09AA  0835               	movf	??_UART_Init+11,w
  1827  09AB  00F7               	movwf	___aldiv@dividend+3
  1828  09AC  0834               	movf	??_UART_Init+10,w
  1829  09AD  00F6               	movwf	___aldiv@dividend+2
  1830  09AE  0833               	movf	??_UART_Init+9,w
  1831  09AF  00F5               	movwf	___aldiv@dividend+1
  1832  09B0  0832               	movf	??_UART_Init+8,w
  1833  09B1  00F4               	movwf	___aldiv@dividend
  1834  09B2  160A  118A  26C1  120A  158A  	fcall	___aldiv
  1835  09B7  0871               	movf	?___aldiv+1,w
  1836  09B8  00FA               	movwf	UART_Init@x+1
  1837  09B9  0870               	movf	?___aldiv,w
  1838  09BA  00F9               	movwf	UART_Init@x
  1839  09BB                     l2540:
  1840                           
  1841                           ;./uart.h: 8:   BRGH = 1;
  1842  09BB  1683               	bsf	3,5	;RP0=1, select bank1
  1843  09BC  1303               	bcf	3,6	;RP1=0, select bank1
  1844  09BD  1518               	bsf	24,2	;volatile
  1845  09BE                     l2542:
  1846                           
  1847                           ;./uart.h: 10:  if(x<256)
  1848  09BE  3001               	movlw	1
  1849  09BF  027A               	subwf	UART_Init@x+1,w
  1850  09C0  3000               	movlw	0
  1851  09C1  1903               	skipnz
  1852  09C2  0279               	subwf	UART_Init@x,w
  1853  09C3  1803               	skipnc
  1854  09C4  29C6               	goto	u3941
  1855  09C5  29C7               	goto	u3940
  1856  09C6                     u3941:
  1857  09C6  29D9               	goto	l67
  1858  09C7                     u3940:
  1859  09C7                     l2544:
  1860                           
  1861                           ;./uart.h: 11:  {;./uart.h: 12:    SPBRG = x;
  1862  09C7  0879               	movf	UART_Init@x,w
  1863  09C8  1683               	bsf	3,5	;RP0=1, select bank1
  1864  09C9  1303               	bcf	3,6	;RP1=0, select bank1
  1865  09CA  0099               	movwf	25	;volatile
  1866  09CB                     l2546:
  1867                           
  1868                           ;./uart.h: 13:    SYNC = 0;
  1869  09CB  1218               	bcf	24,4	;volatile
  1870  09CC                     l2548:
  1871                           
  1872                           ;./uart.h: 14:    SPEN = 1;
  1873  09CC  1283               	bcf	3,5	;RP0=0, select bank0
  1874  09CD  1303               	bcf	3,6	;RP1=0, select bank0
  1875  09CE  1798               	bsf	24,7	;volatile
  1876  09CF                     l2550:
  1877                           
  1878                           ;./uart.h: 15:           TRISC7 = 1;
  1879  09CF  1683               	bsf	3,5	;RP0=1, select bank1
  1880  09D0  1303               	bcf	3,6	;RP1=0, select bank1
  1881  09D1  1787               	bsf	7,7	;volatile
  1882  09D2                     l2552:
  1883                           
  1884                           ;./uart.h: 16:           TRISC6 = 1;
  1885  09D2  1707               	bsf	7,6	;volatile
  1886  09D3                     l2554:
  1887                           
  1888                           ;./uart.h: 17:           CREN = 1;
  1889  09D3  1283               	bcf	3,5	;RP0=0, select bank0
  1890  09D4  1303               	bcf	3,6	;RP1=0, select bank0
  1891  09D5  1618               	bsf	24,4	;volatile
  1892  09D6                     l2556:
  1893                           
  1894                           ;./uart.h: 18:           TXEN = 1;
  1895  09D6  1683               	bsf	3,5	;RP0=1, select bank1
  1896  09D7  1303               	bcf	3,6	;RP1=0, select bank1
  1897  09D8  1698               	bsf	24,5	;volatile
  1898  09D9                     l67:
  1899  09D9  0008               	return
  1900  09DA                     __end_of_UART_Init:
  1901                           
  1902                           	psect	text8
  1903  16C1                     __ptext8:	
  1904 ;; *************** function ___aldiv *****************
  1905 ;; Defined at:
  1906 ;;		line 5 in file "C:\Program Files\Microchip\xc8\v2.32\pic\sources\c90\common\aldiv.c"
  1907 ;; Parameters:    Size  Location     Type
  1908 ;;  divisor         4    0[COMMON] long 
  1909 ;;  dividend        4    4[COMMON] long 
  1910 ;; Auto vars:     Size  Location     Type
  1911 ;;  quotient        4    2[BANK0 ] long 
  1912 ;;  sign            1    1[BANK0 ] unsigned char 
  1913 ;;  counter         1    0[BANK0 ] unsigned char 
  1914 ;; Return value:  Size  Location     Type
  1915 ;;                  4    0[COMMON] long 
  1916 ;; Registers used:
  1917 ;;		wreg, status,2, status,0
  1918 ;; Tracked objects:
  1919 ;;		On entry : 0/0
  1920 ;;		On exit  : 0/0
  1921 ;;		Unchanged: 0/0
  1922 ;; Data sizes:     COMMON   BANK0   BANK1   BANK3   BANK2
  1923 ;;      Params:         8       0       0       0       0
  1924 ;;      Locals:         0       6       0       0       0
  1925 ;;      Temps:          1       0       0       0       0
  1926 ;;      Totals:         9       6       0       0       0
  1927 ;;Total ram usage:       15 bytes
  1928 ;; Hardware stack levels used: 1
  1929 ;; This function calls:
  1930 ;;		Nothing
  1931 ;; This function is called by:
  1932 ;;		_UART_Init
  1933 ;; This function uses a non-reentrant model
  1934 ;;
  1935                           
  1936                           
  1937                           ;psect for function ___aldiv
  1938  16C1                     ___aldiv:
  1939  16C1                     l2134:	
  1940                           ;incstack = 0
  1941                           ; Regs used in ___aldiv: [wreg+status,2+status,0]
  1942                           
  1943  16C1  1283               	bcf	3,5	;RP0=0, select bank0
  1944  16C2  1303               	bcf	3,6	;RP1=0, select bank0
  1945  16C3  01A1               	clrf	___aldiv@sign
  1946  16C4                     l2136:
  1947  16C4  1FF3               	btfss	___aldiv@divisor+3,7
  1948  16C5  2EC7               	goto	u2891
  1949  16C6  2EC8               	goto	u2890
  1950  16C7                     u2891:
  1951  16C7  2ED5               	goto	l343
  1952  16C8                     u2890:
  1953  16C8                     l2138:
  1954  16C8  09F0               	comf	___aldiv@divisor,f
  1955  16C9  09F1               	comf	___aldiv@divisor+1,f
  1956  16CA  09F2               	comf	___aldiv@divisor+2,f
  1957  16CB  09F3               	comf	___aldiv@divisor+3,f
  1958  16CC  0AF0               	incf	___aldiv@divisor,f
  1959  16CD  1903               	skipnz
  1960  16CE  0AF1               	incf	___aldiv@divisor+1,f
  1961  16CF  1903               	skipnz
  1962  16D0  0AF2               	incf	___aldiv@divisor+2,f
  1963  16D1  1903               	skipnz
  1964  16D2  0AF3               	incf	___aldiv@divisor+3,f
  1965  16D3  01A1               	clrf	___aldiv@sign
  1966  16D4  0AA1               	incf	___aldiv@sign,f
  1967  16D5                     l343:
  1968  16D5  1FF7               	btfss	___aldiv@dividend+3,7
  1969  16D6  2ED8               	goto	u2901
  1970  16D7  2ED9               	goto	u2900
  1971  16D8                     u2901:
  1972  16D8  2EE8               	goto	l2144
  1973  16D9                     u2900:
  1974  16D9                     l2140:
  1975  16D9  09F4               	comf	___aldiv@dividend,f
  1976  16DA  09F5               	comf	___aldiv@dividend+1,f
  1977  16DB  09F6               	comf	___aldiv@dividend+2,f
  1978  16DC  09F7               	comf	___aldiv@dividend+3,f
  1979  16DD  0AF4               	incf	___aldiv@dividend,f
  1980  16DE  1903               	skipnz
  1981  16DF  0AF5               	incf	___aldiv@dividend+1,f
  1982  16E0  1903               	skipnz
  1983  16E1  0AF6               	incf	___aldiv@dividend+2,f
  1984  16E2  1903               	skipnz
  1985  16E3  0AF7               	incf	___aldiv@dividend+3,f
  1986  16E4                     l2142:
  1987  16E4  3001               	movlw	1
  1988  16E5  00F8               	movwf	??___aldiv
  1989  16E6  0878               	movf	??___aldiv,w
  1990  16E7  06A1               	xorwf	___aldiv@sign,f
  1991  16E8                     l2144:
  1992  16E8  3000               	movlw	0
  1993  16E9  00A5               	movwf	___aldiv@quotient+3
  1994  16EA  3000               	movlw	0
  1995  16EB  00A4               	movwf	___aldiv@quotient+2
  1996  16EC  3000               	movlw	0
  1997  16ED  00A3               	movwf	___aldiv@quotient+1
  1998  16EE  3000               	movlw	0
  1999  16EF  00A2               	movwf	___aldiv@quotient
  2000  16F0                     l2146:
  2001  16F0  0873               	movf	___aldiv@divisor+3,w
  2002  16F1  0472               	iorwf	___aldiv@divisor+2,w
  2003  16F2  0471               	iorwf	___aldiv@divisor+1,w
  2004  16F3  0470               	iorwf	___aldiv@divisor,w
  2005  16F4  1903               	skipnz
  2006  16F5  2EF7               	goto	u2911
  2007  16F6  2EF8               	goto	u2910
  2008  16F7                     u2911:
  2009  16F7  2F45               	goto	l2166
  2010  16F8                     u2910:
  2011  16F8                     l2148:
  2012  16F8  01A0               	clrf	___aldiv@counter
  2013  16F9  0AA0               	incf	___aldiv@counter,f
  2014  16FA  2F08               	goto	l2152
  2015  16FB                     l2150:
  2016  16FB  3001               	movlw	1
  2017  16FC  00F8               	movwf	??___aldiv
  2018  16FD                     u2925:
  2019  16FD  1003               	clrc
  2020  16FE  0DF0               	rlf	___aldiv@divisor,f
  2021  16FF  0DF1               	rlf	___aldiv@divisor+1,f
  2022  1700  0DF2               	rlf	___aldiv@divisor+2,f
  2023  1701  0DF3               	rlf	___aldiv@divisor+3,f
  2024  1702  0BF8               	decfsz	??___aldiv,f
  2025  1703  2EFD               	goto	u2925
  2026  1704  3001               	movlw	1
  2027  1705  00F8               	movwf	??___aldiv
  2028  1706  0878               	movf	??___aldiv,w
  2029  1707  07A0               	addwf	___aldiv@counter,f
  2030  1708                     l2152:
  2031  1708  1FF3               	btfss	___aldiv@divisor+3,7
  2032  1709  2F0B               	goto	u2931
  2033  170A  2F0C               	goto	u2930
  2034  170B                     u2931:
  2035  170B  2EFB               	goto	l2150
  2036  170C                     u2930:
  2037  170C                     l2154:
  2038  170C  3001               	movlw	1
  2039  170D  00F8               	movwf	??___aldiv
  2040  170E                     u2945:
  2041  170E  1003               	clrc
  2042  170F  0DA2               	rlf	___aldiv@quotient,f
  2043  1710  0DA3               	rlf	___aldiv@quotient+1,f
  2044  1711  0DA4               	rlf	___aldiv@quotient+2,f
  2045  1712  0DA5               	rlf	___aldiv@quotient+3,f
  2046  1713  0BF8               	decfsz	??___aldiv,f
  2047  1714  2F0E               	goto	u2945
  2048  1715                     l2156:
  2049  1715  0873               	movf	___aldiv@divisor+3,w
  2050  1716  0277               	subwf	___aldiv@dividend+3,w
  2051  1717  1D03               	skipz
  2052  1718  2F23               	goto	u2955
  2053  1719  0872               	movf	___aldiv@divisor+2,w
  2054  171A  0276               	subwf	___aldiv@dividend+2,w
  2055  171B  1D03               	skipz
  2056  171C  2F23               	goto	u2955
  2057  171D  0871               	movf	___aldiv@divisor+1,w
  2058  171E  0275               	subwf	___aldiv@dividend+1,w
  2059  171F  1D03               	skipz
  2060  1720  2F23               	goto	u2955
  2061  1721  0870               	movf	___aldiv@divisor,w
  2062  1722  0274               	subwf	___aldiv@dividend,w
  2063  1723                     u2955:
  2064  1723  1C03               	skipc
  2065  1724  2F26               	goto	u2951
  2066  1725  2F27               	goto	u2950
  2067  1726                     u2951:
  2068  1726  2F36               	goto	l2162
  2069  1727                     u2950:
  2070  1727                     l2158:
  2071  1727  0870               	movf	___aldiv@divisor,w
  2072  1728  02F4               	subwf	___aldiv@dividend,f
  2073  1729  0871               	movf	___aldiv@divisor+1,w
  2074  172A  1C03               	skipc
  2075  172B  0F71               	incfsz	___aldiv@divisor+1,w
  2076  172C  02F5               	subwf	___aldiv@dividend+1,f
  2077  172D  0872               	movf	___aldiv@divisor+2,w
  2078  172E  1C03               	skipc
  2079  172F  0F72               	incfsz	___aldiv@divisor+2,w
  2080  1730  02F6               	subwf	___aldiv@dividend+2,f
  2081  1731  0873               	movf	___aldiv@divisor+3,w
  2082  1732  1C03               	skipc
  2083  1733  0F73               	incfsz	___aldiv@divisor+3,w
  2084  1734  02F7               	subwf	___aldiv@dividend+3,f
  2085  1735                     l2160:
  2086  1735  1422               	bsf	___aldiv@quotient,0
  2087  1736                     l2162:
  2088  1736  3001               	movlw	1
  2089  1737                     u2965:
  2090  1737  1003               	clrc
  2091  1738  0CF3               	rrf	___aldiv@divisor+3,f
  2092  1739  0CF2               	rrf	___aldiv@divisor+2,f
  2093  173A  0CF1               	rrf	___aldiv@divisor+1,f
  2094  173B  0CF0               	rrf	___aldiv@divisor,f
  2095  173C  3EFF               	addlw	-1
  2096  173D  1D03               	skipz
  2097  173E  2F37               	goto	u2965
  2098  173F                     l2164:
  2099  173F  3001               	movlw	1
  2100  1740  02A0               	subwf	___aldiv@counter,f
  2101  1741  1D03               	btfss	3,2
  2102  1742  2F44               	goto	u2971
  2103  1743  2F45               	goto	u2970
  2104  1744                     u2971:
  2105  1744  2F0C               	goto	l2154
  2106  1745                     u2970:
  2107  1745                     l2166:
  2108  1745  0821               	movf	___aldiv@sign,w
  2109  1746  1903               	btfsc	3,2
  2110  1747  2F49               	goto	u2981
  2111  1748  2F4A               	goto	u2980
  2112  1749                     u2981:
  2113  1749  2F55               	goto	l2170
  2114  174A                     u2980:
  2115  174A                     l2168:
  2116  174A  09A2               	comf	___aldiv@quotient,f
  2117  174B  09A3               	comf	___aldiv@quotient+1,f
  2118  174C  09A4               	comf	___aldiv@quotient+2,f
  2119  174D  09A5               	comf	___aldiv@quotient+3,f
  2120  174E  0AA2               	incf	___aldiv@quotient,f
  2121  174F  1903               	skipnz
  2122  1750  0AA3               	incf	___aldiv@quotient+1,f
  2123  1751  1903               	skipnz
  2124  1752  0AA4               	incf	___aldiv@quotient+2,f
  2125  1753  1903               	skipnz
  2126  1754  0AA5               	incf	___aldiv@quotient+3,f
  2127  1755                     l2170:
  2128  1755  0825               	movf	___aldiv@quotient+3,w
  2129  1756  00F3               	movwf	?___aldiv+3
  2130  1757  0824               	movf	___aldiv@quotient+2,w
  2131  1758  00F2               	movwf	?___aldiv+2
  2132  1759  0823               	movf	___aldiv@quotient+1,w
  2133  175A  00F1               	movwf	?___aldiv+1
  2134  175B  0822               	movf	___aldiv@quotient,w
  2135  175C  00F0               	movwf	?___aldiv
  2136  175D                     l353:
  2137  175D  0008               	return
  2138  175E                     __end_of___aldiv:
  2139                           
  2140                           	psect	text9
  2141  02EC                     __ptext9:	
  2142 ;; *************** function _Quadra_Al *****************
  2143 ;; Defined at:
  2144 ;;		line 44 in file "newmain.c"
  2145 ;; Parameters:    Size  Location     Type
  2146 ;;		None
  2147 ;; Auto vars:     Size  Location     Type
  2148 ;;  x              28   10[BANK3 ] float [7]
  2149 ;;  data           10    0[BANK3 ] unsigned char [10]
  2150 ;;  a               4   82[BANK3 ] float 
  2151 ;;  max             4   78[BANK3 ] float 
  2152 ;;  out             4   74[BANK3 ] float 
  2153 ;;  max1            4   70[BANK3 ] float 
  2154 ;;  max2            4   66[BANK3 ] float 
  2155 ;;  d               4   42[BANK3 ] float 
  2156 ;;  b               4   38[BANK3 ] float 
  2157 ;;  j               2   88[BANK3 ] int 
  2158 ;;  xmax            2   86[BANK3 ] int 
  2159 ;; Return value:  Size  Location     Type
  2160 ;;                  4   60[BANK0 ] float 
  2161 ;; Registers used:
  2162 ;;		wreg, fsr0l, fsr0h, status,2, status,0, btemp+1, pclath, cstack
  2163 ;; Tracked objects:
  2164 ;;		On entry : 0/0
  2165 ;;		On exit  : 0/0
  2166 ;;		Unchanged: 0/0
  2167 ;; Data sizes:     COMMON   BANK0   BANK1   BANK3   BANK2
  2168 ;;      Params:         0       4       0       0       0
  2169 ;;      Locals:         0       0       0      90       0
  2170 ;;      Temps:          0       5       0       0       0
  2171 ;;      Totals:         0       9       0      90       0
  2172 ;;Total ram usage:       99 bytes
  2173 ;; Hardware stack levels used: 1
  2174 ;; Hardware stack levels required when called: 2
  2175 ;; This function calls:
  2176 ;;		_ADC_Read
  2177 ;;		_UART_Write_Text
  2178 ;;		___fladd
  2179 ;;		___fldiv
  2180 ;;		___flge
  2181 ;;		___flmul
  2182 ;;		___flneg
  2183 ;;		___flsub
  2184 ;;		___xxtofl
  2185 ;;		_sprintf
  2186 ;; This function is called by:
  2187 ;;		_main
  2188 ;; This function uses a non-reentrant model
  2189 ;;
  2190                           
  2191                           
  2192                           ;psect for function _Quadra_Al
  2193  02EC                     _Quadra_Al:
  2194  02EC                     l2562:	
  2195                           ;incstack = 0
  2196                           ; Regs used in _Quadra_Al: [wreg-fsr0h+status,2+status,0+btemp+1+pclath+cstack]
  2197                           
  2198                           
  2199                           ;newmain.c: 46:     float x [7] = {0, 0, 0, 0, 0, 0, 0};
  2200  02EC  309A               	movlw	Quadra_Al@x& (0+255)
  2201  02ED  0084               	movwf	4
  2202  02EE  301C               	movlw	28
  2203  02EF  00FF               	movwf	btemp+1
  2204  02F0                     u3950:
  2205  02F0  1783               	bsf	3,7	;select IRP bank3
  2206  02F1  0180               	clrf	0
  2207  02F2  0A84               	incf	4,f
  2208  02F3  0BFF               	decfsz	btemp+1,f
  2209  02F4  2AF0               	goto	u3950
  2210  02F5                     l2564:
  2211  02F5                     l2566:
  2212                           
  2213                           ;newmain.c: 48:     float a, b, d, out;;newmain.c: 49:     int j, xmax;;newmain.c: 50:  
      +                             char data[10];;newmain.c: 51:     for (j = 0; j < 7; j++)
  2214  02F5  1683               	bsf	3,5	;RP0=1, select bank3
  2215  02F6  1703               	bsf	3,6	;RP1=1, select bank3
  2216  02F7  01E8               	clrf	Quadra_Al@j^(0+384)
  2217  02F8  01E9               	clrf	(Quadra_Al@j+1)^(0+384)
  2218  02F9                     l2572:
  2219                           
  2220                           ;newmain.c: 52:     {;newmain.c: 53:         if (j < 4) {
  2221  02F9  1683               	bsf	3,5	;RP0=1, select bank3
  2222  02FA  1703               	bsf	3,6	;RP1=1, select bank3
  2223  02FB  0869               	movf	(Quadra_Al@j+1)^(0+384),w
  2224  02FC  3A80               	xorlw	128
  2225  02FD  00FF               	movwf	btemp+1
  2226  02FE  3080               	movlw	128
  2227  02FF  027F               	subwf	btemp+1,w
  2228  0300  1D03               	skipz
  2229  0301  2B04               	goto	u3965
  2230  0302  3004               	movlw	4
  2231  0303  0268               	subwf	Quadra_Al@j^(0+384),w
  2232  0304                     u3965:
  2233  0304  1803               	skipnc
  2234  0305  2B07               	goto	u3961
  2235  0306  2B08               	goto	u3960
  2236  0307                     u3961:
  2237  0307  2B42               	goto	l2576
  2238  0308                     u3960:
  2239  0308                     l2574:
  2240                           
  2241                           ;newmain.c: 54:             x [j] = ADC_Read (j);
  2242  0308  1683               	bsf	3,5	;RP0=1, select bank3
  2243  0309  1703               	bsf	3,6	;RP1=1, select bank3
  2244  030A  0868               	movf	Quadra_Al@j^(0+384),w
  2245  030B  160A  118A  255B  120A  118A  	fcall	_ADC_Read
  2246  0310  0870               	movf	?_ADC_Read,w
  2247  0311  1283               	bcf	3,5	;RP0=0, select bank0
  2248  0312  1303               	bcf	3,6	;RP1=0, select bank0
  2249  0313  00E0               	movwf	??_Quadra_Al
  2250  0314  0871               	movf	?_ADC_Read+1,w
  2251  0315  00E1               	movwf	??_Quadra_Al+1
  2252  0316  01E2               	clrf	??_Quadra_Al+2
  2253  0317  01E3               	clrf	??_Quadra_Al+3
  2254  0318  0863               	movf	??_Quadra_Al+3,w
  2255  0319  00F8               	movwf	___xxtofl@val+3
  2256  031A  0862               	movf	??_Quadra_Al+2,w
  2257  031B  00F7               	movwf	___xxtofl@val+2
  2258  031C  0861               	movf	??_Quadra_Al+1,w
  2259  031D  00F6               	movwf	___xxtofl@val+1
  2260  031E  0860               	movf	??_Quadra_Al,w
  2261  031F  00F5               	movwf	___xxtofl@val
  2262  0320  3000               	movlw	0
  2263  0321  120A  158A  2044  120A  118A  	fcall	___xxtofl
  2264  0326  1683               	bsf	3,5	;RP0=1, select bank3
  2265  0327  1703               	bsf	3,6	;RP1=1, select bank3
  2266  0328  0868               	movf	Quadra_Al@j^(0+384),w
  2267  0329  1283               	bcf	3,5	;RP0=0, select bank0
  2268  032A  1303               	bcf	3,6	;RP1=0, select bank0
  2269  032B  00E4               	movwf	??_Quadra_Al+4
  2270  032C  3001               	movlw	1
  2271  032D                     u3975:
  2272  032D  1003               	clrc
  2273  032E  0DE4               	rlf	??_Quadra_Al+4,f
  2274  032F  3EFF               	addlw	-1
  2275  0330  1D03               	skipz
  2276  0331  2B2D               	goto	u3975
  2277  0332  1003               	clrc
  2278  0333  0D64               	rlf	??_Quadra_Al+4,w
  2279  0334  3E9A               	addlw	(low (Quadra_Al@x| (0+256)))& (0+255)
  2280  0335  0084               	movwf	4
  2281  0336  0875               	movf	?___xxtofl,w
  2282  0337  1783               	bsf	3,7	;select IRP bank3
  2283  0338  0080               	movwf	0
  2284  0339  0A84               	incf	4,f
  2285  033A  0876               	movf	?___xxtofl+1,w
  2286  033B  0080               	movwf	0
  2287  033C  0A84               	incf	4,f
  2288  033D  0877               	movf	?___xxtofl+2,w
  2289  033E  0080               	movwf	0
  2290  033F  0A84               	incf	4,f
  2291  0340  0878               	movf	?___xxtofl+3,w
  2292  0341  0080               	movwf	0
  2293  0342                     l2576:
  2294                           
  2295                           ;newmain.c: 57:         if (j >= 4) {
  2296  0342  1683               	bsf	3,5	;RP0=1, select bank3
  2297  0343  1703               	bsf	3,6	;RP1=1, select bank3
  2298  0344  0869               	movf	(Quadra_Al@j+1)^(0+384),w
  2299  0345  3A80               	xorlw	128
  2300  0346  00FF               	movwf	btemp+1
  2301  0347  3080               	movlw	128
  2302  0348  027F               	subwf	btemp+1,w
  2303  0349  1D03               	skipz
  2304  034A  2B4D               	goto	u3985
  2305  034B  3004               	movlw	4
  2306  034C  0268               	subwf	Quadra_Al@j^(0+384),w
  2307  034D                     u3985:
  2308  034D  1C03               	skipc
  2309  034E  2B50               	goto	u3981
  2310  034F  2B51               	goto	u3980
  2311  0350                     u3981:
  2312  0350  2B8C               	goto	l2580
  2313  0351                     u3980:
  2314  0351                     l2578:
  2315                           
  2316                           ;newmain.c: 58:             x [j] = ADC_Read (j + 1);
  2317  0351  1683               	bsf	3,5	;RP0=1, select bank3
  2318  0352  1703               	bsf	3,6	;RP1=1, select bank3
  2319  0353  0868               	movf	Quadra_Al@j^(0+384),w
  2320  0354  3E01               	addlw	1
  2321  0355  160A  118A  255B  120A  118A  	fcall	_ADC_Read
  2322  035A  0870               	movf	?_ADC_Read,w
  2323  035B  1283               	bcf	3,5	;RP0=0, select bank0
  2324  035C  1303               	bcf	3,6	;RP1=0, select bank0
  2325  035D  00E0               	movwf	??_Quadra_Al
  2326  035E  0871               	movf	?_ADC_Read+1,w
  2327  035F  00E1               	movwf	??_Quadra_Al+1
  2328  0360  01E2               	clrf	??_Quadra_Al+2
  2329  0361  01E3               	clrf	??_Quadra_Al+3
  2330  0362  0863               	movf	??_Quadra_Al+3,w
  2331  0363  00F8               	movwf	___xxtofl@val+3
  2332  0364  0862               	movf	??_Quadra_Al+2,w
  2333  0365  00F7               	movwf	___xxtofl@val+2
  2334  0366  0861               	movf	??_Quadra_Al+1,w
  2335  0367  00F6               	movwf	___xxtofl@val+1
  2336  0368  0860               	movf	??_Quadra_Al,w
  2337  0369  00F5               	movwf	___xxtofl@val
  2338  036A  3000               	movlw	0
  2339  036B  120A  158A  2044  120A  118A  	fcall	___xxtofl
  2340  0370  1683               	bsf	3,5	;RP0=1, select bank3
  2341  0371  1703               	bsf	3,6	;RP1=1, select bank3
  2342  0372  0868               	movf	Quadra_Al@j^(0+384),w
  2343  0373  1283               	bcf	3,5	;RP0=0, select bank0
  2344  0374  1303               	bcf	3,6	;RP1=0, select bank0
  2345  0375  00E4               	movwf	??_Quadra_Al+4
  2346  0376  3001               	movlw	1
  2347  0377                     u3995:
  2348  0377  1003               	clrc
  2349  0378  0DE4               	rlf	??_Quadra_Al+4,f
  2350  0379  3EFF               	addlw	-1
  2351  037A  1D03               	skipz
  2352  037B  2B77               	goto	u3995
  2353  037C  1003               	clrc
  2354  037D  0D64               	rlf	??_Quadra_Al+4,w
  2355  037E  3E9A               	addlw	(low (Quadra_Al@x| (0+256)))& (0+255)
  2356  037F  0084               	movwf	4
  2357  0380  0875               	movf	?___xxtofl,w
  2358  0381  1783               	bsf	3,7	;select IRP bank3
  2359  0382  0080               	movwf	0
  2360  0383  0A84               	incf	4,f
  2361  0384  0876               	movf	?___xxtofl+1,w
  2362  0385  0080               	movwf	0
  2363  0386  0A84               	incf	4,f
  2364  0387  0877               	movf	?___xxtofl+2,w
  2365  0388  0080               	movwf	0
  2366  0389  0A84               	incf	4,f
  2367  038A  0878               	movf	?___xxtofl+3,w
  2368  038B  0080               	movwf	0
  2369  038C                     l2580:
  2370                           
  2371                           ;newmain.c: 60:     }
  2372  038C  3001               	movlw	1
  2373  038D  1683               	bsf	3,5	;RP0=1, select bank3
  2374  038E  1703               	bsf	3,6	;RP1=1, select bank3
  2375  038F  07E8               	addwf	Quadra_Al@j^(0+384),f
  2376  0390  1803               	skipnc
  2377  0391  0AE9               	incf	(Quadra_Al@j+1)^(0+384),f
  2378  0392  3000               	movlw	0
  2379  0393  07E9               	addwf	(Quadra_Al@j+1)^(0+384),f
  2380  0394                     l2582:
  2381  0394  0869               	movf	(Quadra_Al@j+1)^(0+384),w
  2382  0395  3A80               	xorlw	128
  2383  0396  00FF               	movwf	btemp+1
  2384  0397  3080               	movlw	128
  2385  0398  027F               	subwf	btemp+1,w
  2386  0399  1D03               	skipz
  2387  039A  2B9D               	goto	u4005
  2388  039B  3007               	movlw	7
  2389  039C  0268               	subwf	Quadra_Al@j^(0+384),w
  2390  039D                     u4005:
  2391  039D  1C03               	skipc
  2392  039E  2BA0               	goto	u4001
  2393  039F  2BA1               	goto	u4000
  2394  03A0                     u4001:
  2395  03A0  2AF9               	goto	l2572
  2396  03A1                     u4000:
  2397  03A1                     l2584:
  2398                           
  2399                           ;newmain.c: 62:     for (j = 0; j < 7; j++)
  2400  03A1  1683               	bsf	3,5	;RP0=1, select bank3
  2401  03A2  1703               	bsf	3,6	;RP1=1, select bank3
  2402  03A3  01E8               	clrf	Quadra_Al@j^(0+384)
  2403  03A4  01E9               	clrf	(Quadra_Al@j+1)^(0+384)
  2404  03A5                     l2590:
  2405                           
  2406                           ;newmain.c: 63:     {;newmain.c: 64:         if (x [j] > max) {
  2407  03A5  1683               	bsf	3,5	;RP0=1, select bank3
  2408  03A6  1703               	bsf	3,6	;RP1=1, select bank3
  2409  03A7  0861               	movf	(Quadra_Al@max+3)^(0+384),w
  2410  03A8  00F3               	movwf	___flge@ff1+3
  2411  03A9  0860               	movf	(Quadra_Al@max+2)^(0+384),w
  2412  03AA  00F2               	movwf	___flge@ff1+2
  2413  03AB  085F               	movf	(Quadra_Al@max+1)^(0+384),w
  2414  03AC  00F1               	movwf	___flge@ff1+1
  2415  03AD  085E               	movf	Quadra_Al@max^(0+384),w
  2416  03AE  00F0               	movwf	___flge@ff1
  2417  03AF  0868               	movf	Quadra_Al@j^(0+384),w
  2418  03B0  1283               	bcf	3,5	;RP0=0, select bank0
  2419  03B1  1303               	bcf	3,6	;RP1=0, select bank0
  2420  03B2  00E0               	movwf	??_Quadra_Al
  2421  03B3  3001               	movlw	1
  2422  03B4                     u4015:
  2423  03B4  1003               	clrc
  2424  03B5  0DE0               	rlf	??_Quadra_Al,f
  2425  03B6  3EFF               	addlw	-1
  2426  03B7  1D03               	skipz
  2427  03B8  2BB4               	goto	u4015
  2428  03B9  1003               	clrc
  2429  03BA  0D60               	rlf	??_Quadra_Al,w
  2430  03BB  3E9A               	addlw	(low (Quadra_Al@x| (0+256)))& (0+255)
  2431  03BC  0084               	movwf	4
  2432  03BD  1783               	bsf	3,7	;select IRP bank3
  2433  03BE  0800               	movf	0,w
  2434  03BF  00F4               	movwf	___flge@ff2
  2435  03C0  0A84               	incf	4,f
  2436  03C1  0800               	movf	0,w
  2437  03C2  00F5               	movwf	___flge@ff2+1
  2438  03C3  0A84               	incf	4,f
  2439  03C4  0800               	movf	0,w
  2440  03C5  00F6               	movwf	___flge@ff2+2
  2441  03C6  0A84               	incf	4,f
  2442  03C7  0800               	movf	0,w
  2443  03C8  00F7               	movwf	___flge@ff2+3
  2444  03C9  160A  118A  275E  120A  118A  	fcall	___flge
  2445  03CE  1803               	btfsc	3,0
  2446  03CF  2BD1               	goto	u4021
  2447  03D0  2BD2               	goto	u4020
  2448  03D1                     u4021:
  2449  03D1  2BF4               	goto	l2596
  2450  03D2                     u4020:
  2451  03D2                     l2592:
  2452                           
  2453                           ;newmain.c: 65:             max = x [j];
  2454  03D2  1683               	bsf	3,5	;RP0=1, select bank3
  2455  03D3  1703               	bsf	3,6	;RP1=1, select bank3
  2456  03D4  0868               	movf	Quadra_Al@j^(0+384),w
  2457  03D5  1283               	bcf	3,5	;RP0=0, select bank0
  2458  03D6  1303               	bcf	3,6	;RP1=0, select bank0
  2459  03D7  00E0               	movwf	??_Quadra_Al
  2460  03D8  3001               	movlw	1
  2461  03D9                     u4035:
  2462  03D9  1003               	clrc
  2463  03DA  0DE0               	rlf	??_Quadra_Al,f
  2464  03DB  3EFF               	addlw	-1
  2465  03DC  1D03               	skipz
  2466  03DD  2BD9               	goto	u4035
  2467  03DE  1003               	clrc
  2468  03DF  0D60               	rlf	??_Quadra_Al,w
  2469  03E0  3E9A               	addlw	(low (Quadra_Al@x| (0+256)))& (0+255)
  2470  03E1  0084               	movwf	4
  2471  03E2  1783               	bsf	3,7	;select IRP bank3
  2472  03E3  0800               	movf	0,w
  2473  03E4  1683               	bsf	3,5	;RP0=1, select bank3
  2474  03E5  1703               	bsf	3,6	;RP1=1, select bank3
  2475  03E6  00DE               	movwf	Quadra_Al@max^(0+384)
  2476  03E7  0A84               	incf	4,f
  2477  03E8  0800               	movf	0,w
  2478  03E9  00DF               	movwf	(Quadra_Al@max+1)^(0+384)
  2479  03EA  0A84               	incf	4,f
  2480  03EB  0800               	movf	0,w
  2481  03EC  00E0               	movwf	(Quadra_Al@max+2)^(0+384)
  2482  03ED  0A84               	incf	4,f
  2483  03EE  0800               	movf	0,w
  2484  03EF  00E1               	movwf	(Quadra_Al@max+3)^(0+384)
  2485  03F0                     l2594:
  2486                           
  2487                           ;newmain.c: 66:             xmax = j;
  2488  03F0  0869               	movf	(Quadra_Al@j+1)^(0+384),w
  2489  03F1  00E7               	movwf	(Quadra_Al@xmax+1)^(0+384)
  2490  03F2  0868               	movf	Quadra_Al@j^(0+384),w
  2491  03F3  00E6               	movwf	Quadra_Al@xmax^(0+384)
  2492  03F4                     l2596:
  2493                           
  2494                           ;newmain.c: 68:     }
  2495  03F4  3001               	movlw	1
  2496  03F5  1683               	bsf	3,5	;RP0=1, select bank3
  2497  03F6  1703               	bsf	3,6	;RP1=1, select bank3
  2498  03F7  07E8               	addwf	Quadra_Al@j^(0+384),f
  2499  03F8  1803               	skipnc
  2500  03F9  0AE9               	incf	(Quadra_Al@j+1)^(0+384),f
  2501  03FA  3000               	movlw	0
  2502  03FB  07E9               	addwf	(Quadra_Al@j+1)^(0+384),f
  2503  03FC                     l2598:
  2504  03FC  0869               	movf	(Quadra_Al@j+1)^(0+384),w
  2505  03FD  3A80               	xorlw	128
  2506  03FE  00FF               	movwf	btemp+1
  2507  03FF  3080               	movlw	128
  2508  0400  027F               	subwf	btemp+1,w
  2509  0401  1D03               	skipz
  2510  0402  2C05               	goto	u4045
  2511  0403  3007               	movlw	7
  2512  0404  0268               	subwf	Quadra_Al@j^(0+384),w
  2513  0405                     u4045:
  2514  0405  1C03               	skipc
  2515  0406  2C08               	goto	u4041
  2516  0407  2C09               	goto	u4040
  2517  0408                     u4041:
  2518  0408  2BA5               	goto	l2590
  2519  0409                     u4040:
  2520  0409                     l2600:
  2521                           
  2522                           ;newmain.c: 70:     max1 = x [xmax - 1];
  2523  0409  1683               	bsf	3,5	;RP0=1, select bank3
  2524  040A  1703               	bsf	3,6	;RP1=1, select bank3
  2525  040B  0866               	movf	Quadra_Al@xmax^(0+384),w
  2526  040C  1283               	bcf	3,5	;RP0=0, select bank0
  2527  040D  1303               	bcf	3,6	;RP1=0, select bank0
  2528  040E  00E0               	movwf	??_Quadra_Al
  2529  040F  3001               	movlw	1
  2530  0410                     u4055:
  2531  0410  1003               	clrc
  2532  0411  0DE0               	rlf	??_Quadra_Al,f
  2533  0412  3EFF               	addlw	-1
  2534  0413  1D03               	skipz
  2535  0414  2C10               	goto	u4055
  2536  0415  1003               	clrc
  2537  0416  0D60               	rlf	??_Quadra_Al,w
  2538  0417  3EFC               	addlw	252
  2539  0418  3E9A               	addlw	(low (Quadra_Al@x| (0+256)))& (0+255)
  2540  0419  0084               	movwf	4
  2541  041A  1783               	bsf	3,7	;select IRP bank3
  2542  041B  0800               	movf	0,w
  2543  041C  1683               	bsf	3,5	;RP0=1, select bank3
  2544  041D  1703               	bsf	3,6	;RP1=1, select bank3
  2545  041E  00D6               	movwf	Quadra_Al@max1^(0+384)
  2546  041F  0A84               	incf	4,f
  2547  0420  0800               	movf	0,w
  2548  0421  00D7               	movwf	(Quadra_Al@max1+1)^(0+384)
  2549  0422  0A84               	incf	4,f
  2550  0423  0800               	movf	0,w
  2551  0424  00D8               	movwf	(Quadra_Al@max1+2)^(0+384)
  2552  0425  0A84               	incf	4,f
  2553  0426  0800               	movf	0,w
  2554  0427  00D9               	movwf	(Quadra_Al@max1+3)^(0+384)
  2555                           
  2556                           ;newmain.c: 71:     max2 = x [xmax + 1];
  2557  0428  0866               	movf	Quadra_Al@xmax^(0+384),w
  2558  0429  1283               	bcf	3,5	;RP0=0, select bank0
  2559  042A  1303               	bcf	3,6	;RP1=0, select bank0
  2560  042B  00E0               	movwf	??_Quadra_Al
  2561  042C  3001               	movlw	1
  2562  042D                     u4065:
  2563  042D  1003               	clrc
  2564  042E  0DE0               	rlf	??_Quadra_Al,f
  2565  042F  3EFF               	addlw	-1
  2566  0430  1D03               	skipz
  2567  0431  2C2D               	goto	u4065
  2568  0432  1003               	clrc
  2569  0433  0D60               	rlf	??_Quadra_Al,w
  2570  0434  3E04               	addlw	4
  2571  0435  3E9A               	addlw	(low (Quadra_Al@x| (0+256)))& (0+255)
  2572  0436  0084               	movwf	4
  2573  0437  0800               	movf	0,w
  2574  0438  1683               	bsf	3,5	;RP0=1, select bank3
  2575  0439  1703               	bsf	3,6	;RP1=1, select bank3
  2576  043A  00D2               	movwf	Quadra_Al@max2^(0+384)
  2577  043B  0A84               	incf	4,f
  2578  043C  0800               	movf	0,w
  2579  043D  00D3               	movwf	(Quadra_Al@max2+1)^(0+384)
  2580  043E  0A84               	incf	4,f
  2581  043F  0800               	movf	0,w
  2582  0440  00D4               	movwf	(Quadra_Al@max2+2)^(0+384)
  2583  0441  0A84               	incf	4,f
  2584  0442  0800               	movf	0,w
  2585  0443  00D5               	movwf	(Quadra_Al@max2+3)^(0+384)
  2586  0444                     l2602:
  2587                           
  2588                           ;newmain.c: 73:     a = (max1 + max2 - 2*max)*0.5;
  2589  0444  0855               	movf	(Quadra_Al@max2+3)^(0+384),w
  2590  0445  00F3               	movwf	___fladd@b+3
  2591  0446  0854               	movf	(Quadra_Al@max2+2)^(0+384),w
  2592  0447  00F2               	movwf	___fladd@b+2
  2593  0448  0853               	movf	(Quadra_Al@max2+1)^(0+384),w
  2594  0449  00F1               	movwf	___fladd@b+1
  2595  044A  0852               	movf	Quadra_Al@max2^(0+384),w
  2596  044B  00F0               	movwf	___fladd@b
  2597  044C  0859               	movf	(Quadra_Al@max1+3)^(0+384),w
  2598  044D  00F7               	movwf	___fladd@a+3
  2599  044E  0858               	movf	(Quadra_Al@max1+2)^(0+384),w
  2600  044F  00F6               	movwf	___fladd@a+2
  2601  0450  0857               	movf	(Quadra_Al@max1+1)^(0+384),w
  2602  0451  00F5               	movwf	___fladd@a+1
  2603  0452  0856               	movf	Quadra_Al@max1^(0+384),w
  2604  0453  00F4               	movwf	___fladd@a
  2605  0454  120A  118A  2054  120A  118A  	fcall	___fladd
  2606  0459  0873               	movf	?___fladd+3,w
  2607  045A  1683               	bsf	3,5	;RP0=1, select bank3
  2608  045B  1703               	bsf	3,6	;RP1=1, select bank3
  2609  045C  00C1               	movwf	(_Quadra_Al$929+3)^(0+384)
  2610  045D  0872               	movf	?___fladd+2,w
  2611  045E  00C0               	movwf	(_Quadra_Al$929+2)^(0+384)
  2612  045F  0871               	movf	?___fladd+1,w
  2613  0460  00BF               	movwf	(_Quadra_Al$929+1)^(0+384)
  2614  0461  0870               	movf	?___fladd,w
  2615  0462  00BE               	movwf	_Quadra_Al$929^(0+384)
  2616  0463                     l2604:
  2617                           
  2618                           ;newmain.c: 73:     a = (max1 + max2 - 2*max)*0.5;
  2619  0463  3040               	movlw	64
  2620  0464  1283               	bcf	3,5	;RP0=0, select bank0
  2621  0465  1303               	bcf	3,6	;RP1=0, select bank0
  2622  0466  00AB               	movwf	___flmul@b+3
  2623  0467  3000               	movlw	0
  2624  0468  00AA               	movwf	___flmul@b+2
  2625  0469  3000               	movlw	0
  2626  046A  00A9               	movwf	___flmul@b+1
  2627  046B  3000               	movlw	0
  2628  046C  00A8               	movwf	___flmul@b
  2629  046D  1683               	bsf	3,5	;RP0=1, select bank3
  2630  046E  1703               	bsf	3,6	;RP1=1, select bank3
  2631  046F  0861               	movf	(Quadra_Al@max+3)^(0+384),w
  2632  0470  1283               	bcf	3,5	;RP0=0, select bank0
  2633  0471  1303               	bcf	3,6	;RP1=0, select bank0
  2634  0472  00AF               	movwf	___flmul@a+3
  2635  0473  1683               	bsf	3,5	;RP0=1, select bank3
  2636  0474  1703               	bsf	3,6	;RP1=1, select bank3
  2637  0475  0860               	movf	(Quadra_Al@max+2)^(0+384),w
  2638  0476  1283               	bcf	3,5	;RP0=0, select bank0
  2639  0477  1303               	bcf	3,6	;RP1=0, select bank0
  2640  0478  00AE               	movwf	___flmul@a+2
  2641  0479  1683               	bsf	3,5	;RP0=1, select bank3
  2642  047A  1703               	bsf	3,6	;RP1=1, select bank3
  2643  047B  085F               	movf	(Quadra_Al@max+1)^(0+384),w
  2644  047C  1283               	bcf	3,5	;RP0=0, select bank0
  2645  047D  1303               	bcf	3,6	;RP1=0, select bank0
  2646  047E  00AD               	movwf	___flmul@a+1
  2647  047F  1683               	bsf	3,5	;RP0=1, select bank3
  2648  0480  1703               	bsf	3,6	;RP1=1, select bank3
  2649  0481  085E               	movf	Quadra_Al@max^(0+384),w
  2650  0482  1283               	bcf	3,5	;RP0=0, select bank0
  2651  0483  1303               	bcf	3,6	;RP1=0, select bank0
  2652  0484  00AC               	movwf	___flmul@a
  2653  0485  120A  158A  249F  120A  118A  	fcall	___flmul
  2654  048A  1283               	bcf	3,5	;RP0=0, select bank0
  2655  048B  1303               	bcf	3,6	;RP1=0, select bank0
  2656  048C  082B               	movf	?___flmul+3,w
  2657  048D  00C5               	movwf	___flsub@a+3
  2658  048E  082A               	movf	?___flmul+2,w
  2659  048F  00C4               	movwf	___flsub@a+2
  2660  0490  0829               	movf	?___flmul+1,w
  2661  0491  00C3               	movwf	___flsub@a+1
  2662  0492  0828               	movf	?___flmul,w
  2663  0493  00C2               	movwf	___flsub@a
  2664  0494  1683               	bsf	3,5	;RP0=1, select bank3
  2665  0495  1703               	bsf	3,6	;RP1=1, select bank3
  2666  0496  0841               	movf	(_Quadra_Al$929+3)^(0+384),w
  2667  0497  1283               	bcf	3,5	;RP0=0, select bank0
  2668  0498  1303               	bcf	3,6	;RP1=0, select bank0
  2669  0499  00C9               	movwf	___flsub@b+3
  2670  049A  1683               	bsf	3,5	;RP0=1, select bank3
  2671  049B  1703               	bsf	3,6	;RP1=1, select bank3
  2672  049C  0840               	movf	(_Quadra_Al$929+2)^(0+384),w
  2673  049D  1283               	bcf	3,5	;RP0=0, select bank0
  2674  049E  1303               	bcf	3,6	;RP1=0, select bank0
  2675  049F  00C8               	movwf	___flsub@b+2
  2676  04A0  1683               	bsf	3,5	;RP0=1, select bank3
  2677  04A1  1703               	bsf	3,6	;RP1=1, select bank3
  2678  04A2  083F               	movf	(_Quadra_Al$929+1)^(0+384),w
  2679  04A3  1283               	bcf	3,5	;RP0=0, select bank0
  2680  04A4  1303               	bcf	3,6	;RP1=0, select bank0
  2681  04A5  00C7               	movwf	___flsub@b+1
  2682  04A6  1683               	bsf	3,5	;RP0=1, select bank3
  2683  04A7  1703               	bsf	3,6	;RP1=1, select bank3
  2684  04A8  083E               	movf	_Quadra_Al$929^(0+384),w
  2685  04A9  1283               	bcf	3,5	;RP0=0, select bank0
  2686  04AA  1303               	bcf	3,6	;RP1=0, select bank0
  2687  04AB  00C6               	movwf	___flsub@b
  2688  04AC  160A  118A  2510  120A  118A  	fcall	___flsub
  2689  04B1  1283               	bcf	3,5	;RP0=0, select bank0
  2690  04B2  1303               	bcf	3,6	;RP1=0, select bank0
  2691  04B3  0845               	movf	?___flsub+3,w
  2692  04B4  1683               	bsf	3,5	;RP0=1, select bank3
  2693  04B5  1703               	bsf	3,6	;RP1=1, select bank3
  2694  04B6  00C5               	movwf	(_Quadra_Al$930+3)^(0+384)
  2695  04B7  1283               	bcf	3,5	;RP0=0, select bank0
  2696  04B8  1303               	bcf	3,6	;RP1=0, select bank0
  2697  04B9  0844               	movf	?___flsub+2,w
  2698  04BA  1683               	bsf	3,5	;RP0=1, select bank3
  2699  04BB  1703               	bsf	3,6	;RP1=1, select bank3
  2700  04BC  00C4               	movwf	(_Quadra_Al$930+2)^(0+384)
  2701  04BD  1283               	bcf	3,5	;RP0=0, select bank0
  2702  04BE  1303               	bcf	3,6	;RP1=0, select bank0
  2703  04BF  0843               	movf	?___flsub+1,w
  2704  04C0  1683               	bsf	3,5	;RP0=1, select bank3
  2705  04C1  1703               	bsf	3,6	;RP1=1, select bank3
  2706  04C2  00C3               	movwf	(_Quadra_Al$930+1)^(0+384)
  2707  04C3  1283               	bcf	3,5	;RP0=0, select bank0
  2708  04C4  1303               	bcf	3,6	;RP1=0, select bank0
  2709  04C5  0842               	movf	?___flsub,w
  2710  04C6  1683               	bsf	3,5	;RP0=1, select bank3
  2711  04C7  1703               	bsf	3,6	;RP1=1, select bank3
  2712  04C8  00C2               	movwf	_Quadra_Al$930^(0+384)
  2713  04C9                     l2606:
  2714                           
  2715                           ;newmain.c: 73:     a = (max1 + max2 - 2*max)*0.5;
  2716  04C9  303F               	movlw	63
  2717  04CA  1283               	bcf	3,5	;RP0=0, select bank0
  2718  04CB  1303               	bcf	3,6	;RP1=0, select bank0
  2719  04CC  00AB               	movwf	___flmul@b+3
  2720  04CD  3000               	movlw	0
  2721  04CE  00AA               	movwf	___flmul@b+2
  2722  04CF  3000               	movlw	0
  2723  04D0  00A9               	movwf	___flmul@b+1
  2724  04D1  3000               	movlw	0
  2725  04D2  00A8               	movwf	___flmul@b
  2726  04D3  1683               	bsf	3,5	;RP0=1, select bank3
  2727  04D4  1703               	bsf	3,6	;RP1=1, select bank3
  2728  04D5  0845               	movf	(_Quadra_Al$930+3)^(0+384),w
  2729  04D6  1283               	bcf	3,5	;RP0=0, select bank0
  2730  04D7  1303               	bcf	3,6	;RP1=0, select bank0
  2731  04D8  00AF               	movwf	___flmul@a+3
  2732  04D9  1683               	bsf	3,5	;RP0=1, select bank3
  2733  04DA  1703               	bsf	3,6	;RP1=1, select bank3
  2734  04DB  0844               	movf	(_Quadra_Al$930+2)^(0+384),w
  2735  04DC  1283               	bcf	3,5	;RP0=0, select bank0
  2736  04DD  1303               	bcf	3,6	;RP1=0, select bank0
  2737  04DE  00AE               	movwf	___flmul@a+2
  2738  04DF  1683               	bsf	3,5	;RP0=1, select bank3
  2739  04E0  1703               	bsf	3,6	;RP1=1, select bank3
  2740  04E1  0843               	movf	(_Quadra_Al$930+1)^(0+384),w
  2741  04E2  1283               	bcf	3,5	;RP0=0, select bank0
  2742  04E3  1303               	bcf	3,6	;RP1=0, select bank0
  2743  04E4  00AD               	movwf	___flmul@a+1
  2744  04E5  1683               	bsf	3,5	;RP0=1, select bank3
  2745  04E6  1703               	bsf	3,6	;RP1=1, select bank3
  2746  04E7  0842               	movf	_Quadra_Al$930^(0+384),w
  2747  04E8  1283               	bcf	3,5	;RP0=0, select bank0
  2748  04E9  1303               	bcf	3,6	;RP1=0, select bank0
  2749  04EA  00AC               	movwf	___flmul@a
  2750  04EB  120A  158A  249F  120A  118A  	fcall	___flmul
  2751  04F0  1283               	bcf	3,5	;RP0=0, select bank0
  2752  04F1  1303               	bcf	3,6	;RP1=0, select bank0
  2753  04F2  082B               	movf	?___flmul+3,w
  2754  04F3  1683               	bsf	3,5	;RP0=1, select bank3
  2755  04F4  1703               	bsf	3,6	;RP1=1, select bank3
  2756  04F5  00E5               	movwf	(Quadra_Al@a+3)^(0+384)
  2757  04F6  1283               	bcf	3,5	;RP0=0, select bank0
  2758  04F7  1303               	bcf	3,6	;RP1=0, select bank0
  2759  04F8  082A               	movf	?___flmul+2,w
  2760  04F9  1683               	bsf	3,5	;RP0=1, select bank3
  2761  04FA  1703               	bsf	3,6	;RP1=1, select bank3
  2762  04FB  00E4               	movwf	(Quadra_Al@a+2)^(0+384)
  2763  04FC  1283               	bcf	3,5	;RP0=0, select bank0
  2764  04FD  1303               	bcf	3,6	;RP1=0, select bank0
  2765  04FE  0829               	movf	?___flmul+1,w
  2766  04FF  1683               	bsf	3,5	;RP0=1, select bank3
  2767  0500  1703               	bsf	3,6	;RP1=1, select bank3
  2768  0501  00E3               	movwf	(Quadra_Al@a+1)^(0+384)
  2769  0502  1283               	bcf	3,5	;RP0=0, select bank0
  2770  0503  1303               	bcf	3,6	;RP1=0, select bank0
  2771  0504  0828               	movf	?___flmul,w
  2772  0505  1683               	bsf	3,5	;RP0=1, select bank3
  2773  0506  1703               	bsf	3,6	;RP1=1, select bank3
  2774  0507  00E2               	movwf	Quadra_Al@a^(0+384)
  2775  0508                     l2608:
  2776                           
  2777                           ;newmain.c: 74:     b = max - max1 - 2*a*(xmax - 1) - a;
  2778  0508  3040               	movlw	64
  2779  0509  1283               	bcf	3,5	;RP0=0, select bank0
  2780  050A  1303               	bcf	3,6	;RP1=0, select bank0
  2781  050B  00AB               	movwf	___flmul@b+3
  2782  050C  3000               	movlw	0
  2783  050D  00AA               	movwf	___flmul@b+2
  2784  050E  3000               	movlw	0
  2785  050F  00A9               	movwf	___flmul@b+1
  2786  0510  3000               	movlw	0
  2787  0511  00A8               	movwf	___flmul@b
  2788  0512  1683               	bsf	3,5	;RP0=1, select bank3
  2789  0513  1703               	bsf	3,6	;RP1=1, select bank3
  2790  0514  0865               	movf	(Quadra_Al@a+3)^(0+384),w
  2791  0515  1283               	bcf	3,5	;RP0=0, select bank0
  2792  0516  1303               	bcf	3,6	;RP1=0, select bank0
  2793  0517  00AF               	movwf	___flmul@a+3
  2794  0518  1683               	bsf	3,5	;RP0=1, select bank3
  2795  0519  1703               	bsf	3,6	;RP1=1, select bank3
  2796  051A  0864               	movf	(Quadra_Al@a+2)^(0+384),w
  2797  051B  1283               	bcf	3,5	;RP0=0, select bank0
  2798  051C  1303               	bcf	3,6	;RP1=0, select bank0
  2799  051D  00AE               	movwf	___flmul@a+2
  2800  051E  1683               	bsf	3,5	;RP0=1, select bank3
  2801  051F  1703               	bsf	3,6	;RP1=1, select bank3
  2802  0520  0863               	movf	(Quadra_Al@a+1)^(0+384),w
  2803  0521  1283               	bcf	3,5	;RP0=0, select bank0
  2804  0522  1303               	bcf	3,6	;RP1=0, select bank0
  2805  0523  00AD               	movwf	___flmul@a+1
  2806  0524  1683               	bsf	3,5	;RP0=1, select bank3
  2807  0525  1703               	bsf	3,6	;RP1=1, select bank3
  2808  0526  0862               	movf	Quadra_Al@a^(0+384),w
  2809  0527  1283               	bcf	3,5	;RP0=0, select bank0
  2810  0528  1303               	bcf	3,6	;RP1=0, select bank0
  2811  0529  00AC               	movwf	___flmul@a
  2812  052A  120A  158A  249F  120A  118A  	fcall	___flmul
  2813  052F  1283               	bcf	3,5	;RP0=0, select bank0
  2814  0530  1303               	bcf	3,6	;RP1=0, select bank0
  2815  0531  082B               	movf	?___flmul+3,w
  2816  0532  1683               	bsf	3,5	;RP0=1, select bank3
  2817  0533  1703               	bsf	3,6	;RP1=1, select bank3
  2818  0534  00C9               	movwf	(_Quadra_Al$931+3)^(0+384)
  2819  0535  1283               	bcf	3,5	;RP0=0, select bank0
  2820  0536  1303               	bcf	3,6	;RP1=0, select bank0
  2821  0537  082A               	movf	?___flmul+2,w
  2822  0538  1683               	bsf	3,5	;RP0=1, select bank3
  2823  0539  1703               	bsf	3,6	;RP1=1, select bank3
  2824  053A  00C8               	movwf	(_Quadra_Al$931+2)^(0+384)
  2825  053B  1283               	bcf	3,5	;RP0=0, select bank0
  2826  053C  1303               	bcf	3,6	;RP1=0, select bank0
  2827  053D  0829               	movf	?___flmul+1,w
  2828  053E  1683               	bsf	3,5	;RP0=1, select bank3
  2829  053F  1703               	bsf	3,6	;RP1=1, select bank3
  2830  0540  00C7               	movwf	(_Quadra_Al$931+1)^(0+384)
  2831  0541  1283               	bcf	3,5	;RP0=0, select bank0
  2832  0542  1303               	bcf	3,6	;RP1=0, select bank0
  2833  0543  0828               	movf	?___flmul,w
  2834  0544  1683               	bsf	3,5	;RP0=1, select bank3
  2835  0545  1703               	bsf	3,6	;RP1=1, select bank3
  2836  0546  00C6               	movwf	_Quadra_Al$931^(0+384)
  2837  0547                     l2610:
  2838                           
  2839                           ;newmain.c: 74:     b = max - max1 - 2*a*(xmax - 1) - a;
  2840  0547  0859               	movf	(Quadra_Al@max1+3)^(0+384),w
  2841  0548  1283               	bcf	3,5	;RP0=0, select bank0
  2842  0549  1303               	bcf	3,6	;RP1=0, select bank0
  2843  054A  00C5               	movwf	___flsub@a+3
  2844  054B  1683               	bsf	3,5	;RP0=1, select bank3
  2845  054C  1703               	bsf	3,6	;RP1=1, select bank3
  2846  054D  0858               	movf	(Quadra_Al@max1+2)^(0+384),w
  2847  054E  1283               	bcf	3,5	;RP0=0, select bank0
  2848  054F  1303               	bcf	3,6	;RP1=0, select bank0
  2849  0550  00C4               	movwf	___flsub@a+2
  2850  0551  1683               	bsf	3,5	;RP0=1, select bank3
  2851  0552  1703               	bsf	3,6	;RP1=1, select bank3
  2852  0553  0857               	movf	(Quadra_Al@max1+1)^(0+384),w
  2853  0554  1283               	bcf	3,5	;RP0=0, select bank0
  2854  0555  1303               	bcf	3,6	;RP1=0, select bank0
  2855  0556  00C3               	movwf	___flsub@a+1
  2856  0557  1683               	bsf	3,5	;RP0=1, select bank3
  2857  0558  1703               	bsf	3,6	;RP1=1, select bank3
  2858  0559  0856               	movf	Quadra_Al@max1^(0+384),w
  2859  055A  1283               	bcf	3,5	;RP0=0, select bank0
  2860  055B  1303               	bcf	3,6	;RP1=0, select bank0
  2861  055C  00C2               	movwf	___flsub@a
  2862  055D  1683               	bsf	3,5	;RP0=1, select bank3
  2863  055E  1703               	bsf	3,6	;RP1=1, select bank3
  2864  055F  0861               	movf	(Quadra_Al@max+3)^(0+384),w
  2865  0560  1283               	bcf	3,5	;RP0=0, select bank0
  2866  0561  1303               	bcf	3,6	;RP1=0, select bank0
  2867  0562  00C9               	movwf	___flsub@b+3
  2868  0563  1683               	bsf	3,5	;RP0=1, select bank3
  2869  0564  1703               	bsf	3,6	;RP1=1, select bank3
  2870  0565  0860               	movf	(Quadra_Al@max+2)^(0+384),w
  2871  0566  1283               	bcf	3,5	;RP0=0, select bank0
  2872  0567  1303               	bcf	3,6	;RP1=0, select bank0
  2873  0568  00C8               	movwf	___flsub@b+2
  2874  0569  1683               	bsf	3,5	;RP0=1, select bank3
  2875  056A  1703               	bsf	3,6	;RP1=1, select bank3
  2876  056B  085F               	movf	(Quadra_Al@max+1)^(0+384),w
  2877  056C  1283               	bcf	3,5	;RP0=0, select bank0
  2878  056D  1303               	bcf	3,6	;RP1=0, select bank0
  2879  056E  00C7               	movwf	___flsub@b+1
  2880  056F  1683               	bsf	3,5	;RP0=1, select bank3
  2881  0570  1703               	bsf	3,6	;RP1=1, select bank3
  2882  0571  085E               	movf	Quadra_Al@max^(0+384),w
  2883  0572  1283               	bcf	3,5	;RP0=0, select bank0
  2884  0573  1303               	bcf	3,6	;RP1=0, select bank0
  2885  0574  00C6               	movwf	___flsub@b
  2886  0575  160A  118A  2510  120A  118A  	fcall	___flsub
  2887  057A  1283               	bcf	3,5	;RP0=0, select bank0
  2888  057B  1303               	bcf	3,6	;RP1=0, select bank0
  2889  057C  0845               	movf	?___flsub+3,w
  2890  057D  1683               	bsf	3,5	;RP0=1, select bank3
  2891  057E  1703               	bsf	3,6	;RP1=1, select bank3
  2892  057F  00CD               	movwf	(_Quadra_Al$932+3)^(0+384)
  2893  0580  1283               	bcf	3,5	;RP0=0, select bank0
  2894  0581  1303               	bcf	3,6	;RP1=0, select bank0
  2895  0582  0844               	movf	?___flsub+2,w
  2896  0583  1683               	bsf	3,5	;RP0=1, select bank3
  2897  0584  1703               	bsf	3,6	;RP1=1, select bank3
  2898  0585  00CC               	movwf	(_Quadra_Al$932+2)^(0+384)
  2899  0586  1283               	bcf	3,5	;RP0=0, select bank0
  2900  0587  1303               	bcf	3,6	;RP1=0, select bank0
  2901  0588  0843               	movf	?___flsub+1,w
  2902  0589  1683               	bsf	3,5	;RP0=1, select bank3
  2903  058A  1703               	bsf	3,6	;RP1=1, select bank3
  2904  058B  00CB               	movwf	(_Quadra_Al$932+1)^(0+384)
  2905  058C  1283               	bcf	3,5	;RP0=0, select bank0
  2906  058D  1303               	bcf	3,6	;RP1=0, select bank0
  2907  058E  0842               	movf	?___flsub,w
  2908  058F  1683               	bsf	3,5	;RP0=1, select bank3
  2909  0590  1703               	bsf	3,6	;RP1=1, select bank3
  2910  0591  00CA               	movwf	_Quadra_Al$932^(0+384)
  2911  0592                     l2612:
  2912                           
  2913                           ;newmain.c: 74:     b = max - max1 - 2*a*(xmax - 1) - a;
  2914  0592  0866               	movf	Quadra_Al@xmax^(0+384),w
  2915  0593  3EFF               	addlw	255
  2916  0594  00F5               	movwf	___xxtofl@val
  2917  0595  0867               	movf	(Quadra_Al@xmax+1)^(0+384),w
  2918  0596  1803               	skipnc
  2919  0597  3E01               	addlw	1
  2920  0598  3EFF               	addlw	255
  2921  0599  00F6               	movwf	___xxtofl@val+1
  2922  059A  01F7               	clrf	___xxtofl@val+2
  2923  059B  1BF6               	btfsc	___xxtofl@val+1,7
  2924  059C  03F7               	decf	___xxtofl@val+2,f
  2925  059D  0877               	movf	___xxtofl@val+2,w
  2926  059E  00F8               	movwf	___xxtofl@val+3
  2927  059F  3001               	movlw	1
  2928  05A0  120A  158A  2044  120A  118A  	fcall	___xxtofl
  2929  05A5  0878               	movf	?___xxtofl+3,w
  2930  05A6  1283               	bcf	3,5	;RP0=0, select bank0
  2931  05A7  1303               	bcf	3,6	;RP1=0, select bank0
  2932  05A8  00AB               	movwf	___flmul@b+3
  2933  05A9  0877               	movf	?___xxtofl+2,w
  2934  05AA  00AA               	movwf	___flmul@b+2
  2935  05AB  0876               	movf	?___xxtofl+1,w
  2936  05AC  00A9               	movwf	___flmul@b+1
  2937  05AD  0875               	movf	?___xxtofl,w
  2938  05AE  00A8               	movwf	___flmul@b
  2939  05AF  1683               	bsf	3,5	;RP0=1, select bank3
  2940  05B0  1703               	bsf	3,6	;RP1=1, select bank3
  2941  05B1  0849               	movf	(_Quadra_Al$931+3)^(0+384),w
  2942  05B2  1283               	bcf	3,5	;RP0=0, select bank0
  2943  05B3  1303               	bcf	3,6	;RP1=0, select bank0
  2944  05B4  00AF               	movwf	___flmul@a+3
  2945  05B5  1683               	bsf	3,5	;RP0=1, select bank3
  2946  05B6  1703               	bsf	3,6	;RP1=1, select bank3
  2947  05B7  0848               	movf	(_Quadra_Al$931+2)^(0+384),w
  2948  05B8  1283               	bcf	3,5	;RP0=0, select bank0
  2949  05B9  1303               	bcf	3,6	;RP1=0, select bank0
  2950  05BA  00AE               	movwf	___flmul@a+2
  2951  05BB  1683               	bsf	3,5	;RP0=1, select bank3
  2952  05BC  1703               	bsf	3,6	;RP1=1, select bank3
  2953  05BD  0847               	movf	(_Quadra_Al$931+1)^(0+384),w
  2954  05BE  1283               	bcf	3,5	;RP0=0, select bank0
  2955  05BF  1303               	bcf	3,6	;RP1=0, select bank0
  2956  05C0  00AD               	movwf	___flmul@a+1
  2957  05C1  1683               	bsf	3,5	;RP0=1, select bank3
  2958  05C2  1703               	bsf	3,6	;RP1=1, select bank3
  2959  05C3  0846               	movf	_Quadra_Al$931^(0+384),w
  2960  05C4  1283               	bcf	3,5	;RP0=0, select bank0
  2961  05C5  1303               	bcf	3,6	;RP1=0, select bank0
  2962  05C6  00AC               	movwf	___flmul@a
  2963  05C7  120A  158A  249F  120A  118A  	fcall	___flmul
  2964  05CC  1283               	bcf	3,5	;RP0=0, select bank0
  2965  05CD  1303               	bcf	3,6	;RP1=0, select bank0
  2966  05CE  082B               	movf	?___flmul+3,w
  2967  05CF  00C5               	movwf	___flsub@a+3
  2968  05D0  082A               	movf	?___flmul+2,w
  2969  05D1  00C4               	movwf	___flsub@a+2
  2970  05D2  0829               	movf	?___flmul+1,w
  2971  05D3  00C3               	movwf	___flsub@a+1
  2972  05D4  0828               	movf	?___flmul,w
  2973  05D5  00C2               	movwf	___flsub@a
  2974  05D6  1683               	bsf	3,5	;RP0=1, select bank3
  2975  05D7  1703               	bsf	3,6	;RP1=1, select bank3
  2976  05D8  084D               	movf	(_Quadra_Al$932+3)^(0+384),w
  2977  05D9  1283               	bcf	3,5	;RP0=0, select bank0
  2978  05DA  1303               	bcf	3,6	;RP1=0, select bank0
  2979  05DB  00C9               	movwf	___flsub@b+3
  2980  05DC  1683               	bsf	3,5	;RP0=1, select bank3
  2981  05DD  1703               	bsf	3,6	;RP1=1, select bank3
  2982  05DE  084C               	movf	(_Quadra_Al$932+2)^(0+384),w
  2983  05DF  1283               	bcf	3,5	;RP0=0, select bank0
  2984  05E0  1303               	bcf	3,6	;RP1=0, select bank0
  2985  05E1  00C8               	movwf	___flsub@b+2
  2986  05E2  1683               	bsf	3,5	;RP0=1, select bank3
  2987  05E3  1703               	bsf	3,6	;RP1=1, select bank3
  2988  05E4  084B               	movf	(_Quadra_Al$932+1)^(0+384),w
  2989  05E5  1283               	bcf	3,5	;RP0=0, select bank0
  2990  05E6  1303               	bcf	3,6	;RP1=0, select bank0
  2991  05E7  00C7               	movwf	___flsub@b+1
  2992  05E8  1683               	bsf	3,5	;RP0=1, select bank3
  2993  05E9  1703               	bsf	3,6	;RP1=1, select bank3
  2994  05EA  084A               	movf	_Quadra_Al$932^(0+384),w
  2995  05EB  1283               	bcf	3,5	;RP0=0, select bank0
  2996  05EC  1303               	bcf	3,6	;RP1=0, select bank0
  2997  05ED  00C6               	movwf	___flsub@b
  2998  05EE  160A  118A  2510  120A  118A  	fcall	___flsub
  2999  05F3  1283               	bcf	3,5	;RP0=0, select bank0
  3000  05F4  1303               	bcf	3,6	;RP1=0, select bank0
  3001  05F5  0845               	movf	?___flsub+3,w
  3002  05F6  1683               	bsf	3,5	;RP0=1, select bank3
  3003  05F7  1703               	bsf	3,6	;RP1=1, select bank3
  3004  05F8  00D1               	movwf	(_Quadra_Al$933+3)^(0+384)
  3005  05F9  1283               	bcf	3,5	;RP0=0, select bank0
  3006  05FA  1303               	bcf	3,6	;RP1=0, select bank0
  3007  05FB  0844               	movf	?___flsub+2,w
  3008  05FC  1683               	bsf	3,5	;RP0=1, select bank3
  3009  05FD  1703               	bsf	3,6	;RP1=1, select bank3
  3010  05FE  00D0               	movwf	(_Quadra_Al$933+2)^(0+384)
  3011  05FF  1283               	bcf	3,5	;RP0=0, select bank0
  3012  0600  1303               	bcf	3,6	;RP1=0, select bank0
  3013  0601  0843               	movf	?___flsub+1,w
  3014  0602  1683               	bsf	3,5	;RP0=1, select bank3
  3015  0603  1703               	bsf	3,6	;RP1=1, select bank3
  3016  0604  00CF               	movwf	(_Quadra_Al$933+1)^(0+384)
  3017  0605  1283               	bcf	3,5	;RP0=0, select bank0
  3018  0606  1303               	bcf	3,6	;RP1=0, select bank0
  3019  0607  0842               	movf	?___flsub,w
  3020  0608  1683               	bsf	3,5	;RP0=1, select bank3
  3021  0609  1703               	bsf	3,6	;RP1=1, select bank3
  3022  060A  00CE               	movwf	_Quadra_Al$933^(0+384)
  3023  060B                     l2614:
  3024                           
  3025                           ;newmain.c: 74:     b = max - max1 - 2*a*(xmax - 1) - a;
  3026  060B  0865               	movf	(Quadra_Al@a+3)^(0+384),w
  3027  060C  1283               	bcf	3,5	;RP0=0, select bank0
  3028  060D  1303               	bcf	3,6	;RP1=0, select bank0
  3029  060E  00C5               	movwf	___flsub@a+3
  3030  060F  1683               	bsf	3,5	;RP0=1, select bank3
  3031  0610  1703               	bsf	3,6	;RP1=1, select bank3
  3032  0611  0864               	movf	(Quadra_Al@a+2)^(0+384),w
  3033  0612  1283               	bcf	3,5	;RP0=0, select bank0
  3034  0613  1303               	bcf	3,6	;RP1=0, select bank0
  3035  0614  00C4               	movwf	___flsub@a+2
  3036  0615  1683               	bsf	3,5	;RP0=1, select bank3
  3037  0616  1703               	bsf	3,6	;RP1=1, select bank3
  3038  0617  0863               	movf	(Quadra_Al@a+1)^(0+384),w
  3039  0618  1283               	bcf	3,5	;RP0=0, select bank0
  3040  0619  1303               	bcf	3,6	;RP1=0, select bank0
  3041  061A  00C3               	movwf	___flsub@a+1
  3042  061B  1683               	bsf	3,5	;RP0=1, select bank3
  3043  061C  1703               	bsf	3,6	;RP1=1, select bank3
  3044  061D  0862               	movf	Quadra_Al@a^(0+384),w
  3045  061E  1283               	bcf	3,5	;RP0=0, select bank0
  3046  061F  1303               	bcf	3,6	;RP1=0, select bank0
  3047  0620  00C2               	movwf	___flsub@a
  3048  0621  1683               	bsf	3,5	;RP0=1, select bank3
  3049  0622  1703               	bsf	3,6	;RP1=1, select bank3
  3050  0623  0851               	movf	(_Quadra_Al$933+3)^(0+384),w
  3051  0624  1283               	bcf	3,5	;RP0=0, select bank0
  3052  0625  1303               	bcf	3,6	;RP1=0, select bank0
  3053  0626  00C9               	movwf	___flsub@b+3
  3054  0627  1683               	bsf	3,5	;RP0=1, select bank3
  3055  0628  1703               	bsf	3,6	;RP1=1, select bank3
  3056  0629  0850               	movf	(_Quadra_Al$933+2)^(0+384),w
  3057  062A  1283               	bcf	3,5	;RP0=0, select bank0
  3058  062B  1303               	bcf	3,6	;RP1=0, select bank0
  3059  062C  00C8               	movwf	___flsub@b+2
  3060  062D  1683               	bsf	3,5	;RP0=1, select bank3
  3061  062E  1703               	bsf	3,6	;RP1=1, select bank3
  3062  062F  084F               	movf	(_Quadra_Al$933+1)^(0+384),w
  3063  0630  1283               	bcf	3,5	;RP0=0, select bank0
  3064  0631  1303               	bcf	3,6	;RP1=0, select bank0
  3065  0632  00C7               	movwf	___flsub@b+1
  3066  0633  1683               	bsf	3,5	;RP0=1, select bank3
  3067  0634  1703               	bsf	3,6	;RP1=1, select bank3
  3068  0635  084E               	movf	_Quadra_Al$933^(0+384),w
  3069  0636  1283               	bcf	3,5	;RP0=0, select bank0
  3070  0637  1303               	bcf	3,6	;RP1=0, select bank0
  3071  0638  00C6               	movwf	___flsub@b
  3072  0639  160A  118A  2510  120A  118A  	fcall	___flsub
  3073  063E  1283               	bcf	3,5	;RP0=0, select bank0
  3074  063F  1303               	bcf	3,6	;RP1=0, select bank0
  3075  0640  0845               	movf	?___flsub+3,w
  3076  0641  1683               	bsf	3,5	;RP0=1, select bank3
  3077  0642  1703               	bsf	3,6	;RP1=1, select bank3
  3078  0643  00B9               	movwf	(Quadra_Al@b+3)^(0+384)
  3079  0644  1283               	bcf	3,5	;RP0=0, select bank0
  3080  0645  1303               	bcf	3,6	;RP1=0, select bank0
  3081  0646  0844               	movf	?___flsub+2,w
  3082  0647  1683               	bsf	3,5	;RP0=1, select bank3
  3083  0648  1703               	bsf	3,6	;RP1=1, select bank3
  3084  0649  00B8               	movwf	(Quadra_Al@b+2)^(0+384)
  3085  064A  1283               	bcf	3,5	;RP0=0, select bank0
  3086  064B  1303               	bcf	3,6	;RP1=0, select bank0
  3087  064C  0843               	movf	?___flsub+1,w
  3088  064D  1683               	bsf	3,5	;RP0=1, select bank3
  3089  064E  1703               	bsf	3,6	;RP1=1, select bank3
  3090  064F  00B7               	movwf	(Quadra_Al@b+1)^(0+384)
  3091  0650  1283               	bcf	3,5	;RP0=0, select bank0
  3092  0651  1303               	bcf	3,6	;RP1=0, select bank0
  3093  0652  0842               	movf	?___flsub,w
  3094  0653  1683               	bsf	3,5	;RP0=1, select bank3
  3095  0654  1703               	bsf	3,6	;RP1=1, select bank3
  3096  0655  00B6               	movwf	Quadra_Al@b^(0+384)
  3097  0656                     l2616:
  3098                           
  3099                           ;newmain.c: 75:     d = -b/(2*a);
  3100  0656  0865               	movf	(Quadra_Al@a+3)^(0+384),w
  3101  0657  1283               	bcf	3,5	;RP0=0, select bank0
  3102  0658  1303               	bcf	3,6	;RP1=0, select bank0
  3103  0659  00AF               	movwf	___flmul@a+3
  3104  065A  1683               	bsf	3,5	;RP0=1, select bank3
  3105  065B  1703               	bsf	3,6	;RP1=1, select bank3
  3106  065C  0864               	movf	(Quadra_Al@a+2)^(0+384),w
  3107  065D  1283               	bcf	3,5	;RP0=0, select bank0
  3108  065E  1303               	bcf	3,6	;RP1=0, select bank0
  3109  065F  00AE               	movwf	___flmul@a+2
  3110  0660  1683               	bsf	3,5	;RP0=1, select bank3
  3111  0661  1703               	bsf	3,6	;RP1=1, select bank3
  3112  0662  0863               	movf	(Quadra_Al@a+1)^(0+384),w
  3113  0663  1283               	bcf	3,5	;RP0=0, select bank0
  3114  0664  1303               	bcf	3,6	;RP1=0, select bank0
  3115  0665  00AD               	movwf	___flmul@a+1
  3116  0666  1683               	bsf	3,5	;RP0=1, select bank3
  3117  0667  1703               	bsf	3,6	;RP1=1, select bank3
  3118  0668  0862               	movf	Quadra_Al@a^(0+384),w
  3119  0669  1283               	bcf	3,5	;RP0=0, select bank0
  3120  066A  1303               	bcf	3,6	;RP1=0, select bank0
  3121  066B  00AC               	movwf	___flmul@a
  3122  066C  3040               	movlw	64
  3123  066D  00AB               	movwf	___flmul@b+3
  3124  066E  3000               	movlw	0
  3125  066F  00AA               	movwf	___flmul@b+2
  3126  0670  3000               	movlw	0
  3127  0671  00A9               	movwf	___flmul@b+1
  3128  0672  3000               	movlw	0
  3129  0673  00A8               	movwf	___flmul@b
  3130  0674  120A  158A  249F  120A  118A  	fcall	___flmul
  3131  0679  1283               	bcf	3,5	;RP0=0, select bank0
  3132  067A  1303               	bcf	3,6	;RP1=0, select bank0
  3133  067B  082B               	movf	?___flmul+3,w
  3134  067C  00C5               	movwf	___fldiv@a+3
  3135  067D  082A               	movf	?___flmul+2,w
  3136  067E  00C4               	movwf	___fldiv@a+2
  3137  067F  0829               	movf	?___flmul+1,w
  3138  0680  00C3               	movwf	___fldiv@a+1
  3139  0681  0828               	movf	?___flmul,w
  3140  0682  00C2               	movwf	___fldiv@a
  3141  0683  1683               	bsf	3,5	;RP0=1, select bank3
  3142  0684  1703               	bsf	3,6	;RP1=1, select bank3
  3143  0685  0839               	movf	(Quadra_Al@b+3)^(0+384),w
  3144  0686  00F3               	movwf	___flneg@f1+3
  3145  0687  0838               	movf	(Quadra_Al@b+2)^(0+384),w
  3146  0688  00F2               	movwf	___flneg@f1+2
  3147  0689  0837               	movf	(Quadra_Al@b+1)^(0+384),w
  3148  068A  00F1               	movwf	___flneg@f1+1
  3149  068B  0836               	movf	Quadra_Al@b^(0+384),w
  3150  068C  00F0               	movwf	___flneg@f1
  3151  068D  160A  118A  24E1  120A  118A  	fcall	___flneg
  3152  0692  0873               	movf	?___flneg+3,w
  3153  0693  1283               	bcf	3,5	;RP0=0, select bank0
  3154  0694  1303               	bcf	3,6	;RP1=0, select bank0
  3155  0695  00C9               	movwf	___fldiv@b+3
  3156  0696  0872               	movf	?___flneg+2,w
  3157  0697  00C8               	movwf	___fldiv@b+2
  3158  0698  0871               	movf	?___flneg+1,w
  3159  0699  00C7               	movwf	___fldiv@b+1
  3160  069A  0870               	movf	?___flneg,w
  3161  069B  00C6               	movwf	___fldiv@b
  3162  069C  120A  158A  22C2  120A  118A  	fcall	___fldiv
  3163  06A1  1283               	bcf	3,5	;RP0=0, select bank0
  3164  06A2  1303               	bcf	3,6	;RP1=0, select bank0
  3165  06A3  0845               	movf	?___fldiv+3,w
  3166  06A4  1683               	bsf	3,5	;RP0=1, select bank3
  3167  06A5  1703               	bsf	3,6	;RP1=1, select bank3
  3168  06A6  00BD               	movwf	(Quadra_Al@d+3)^(0+384)
  3169  06A7  1283               	bcf	3,5	;RP0=0, select bank0
  3170  06A8  1303               	bcf	3,6	;RP1=0, select bank0
  3171  06A9  0844               	movf	?___fldiv+2,w
  3172  06AA  1683               	bsf	3,5	;RP0=1, select bank3
  3173  06AB  1703               	bsf	3,6	;RP1=1, select bank3
  3174  06AC  00BC               	movwf	(Quadra_Al@d+2)^(0+384)
  3175  06AD  1283               	bcf	3,5	;RP0=0, select bank0
  3176  06AE  1303               	bcf	3,6	;RP1=0, select bank0
  3177  06AF  0843               	movf	?___fldiv+1,w
  3178  06B0  1683               	bsf	3,5	;RP0=1, select bank3
  3179  06B1  1703               	bsf	3,6	;RP1=1, select bank3
  3180  06B2  00BB               	movwf	(Quadra_Al@d+1)^(0+384)
  3181  06B3  1283               	bcf	3,5	;RP0=0, select bank0
  3182  06B4  1303               	bcf	3,6	;RP1=0, select bank0
  3183  06B5  0842               	movf	?___fldiv,w
  3184  06B6  1683               	bsf	3,5	;RP0=1, select bank3
  3185  06B7  1703               	bsf	3,6	;RP1=1, select bank3
  3186  06B8  00BA               	movwf	Quadra_Al@d^(0+384)
  3187  06B9                     l2618:
  3188                           
  3189                           ;newmain.c: 76:     out = 17*(d - 3);
  3190  06B9  3041               	movlw	65
  3191  06BA  1283               	bcf	3,5	;RP0=0, select bank0
  3192  06BB  1303               	bcf	3,6	;RP1=0, select bank0
  3193  06BC  00AB               	movwf	___flmul@b+3
  3194  06BD  3088               	movlw	136
  3195  06BE  00AA               	movwf	___flmul@b+2
  3196  06BF  3000               	movlw	0
  3197  06C0  00A9               	movwf	___flmul@b+1
  3198  06C1  3000               	movlw	0
  3199  06C2  00A8               	movwf	___flmul@b
  3200  06C3  30C0               	movlw	192
  3201  06C4  00F3               	movwf	___fladd@b+3
  3202  06C5  3040               	movlw	64
  3203  06C6  00F2               	movwf	___fladd@b+2
  3204  06C7  3000               	movlw	0
  3205  06C8  00F1               	movwf	___fladd@b+1
  3206  06C9  3000               	movlw	0
  3207  06CA  00F0               	movwf	___fladd@b
  3208  06CB  1683               	bsf	3,5	;RP0=1, select bank3
  3209  06CC  1703               	bsf	3,6	;RP1=1, select bank3
  3210  06CD  083D               	movf	(Quadra_Al@d+3)^(0+384),w
  3211  06CE  00F7               	movwf	___fladd@a+3
  3212  06CF  083C               	movf	(Quadra_Al@d+2)^(0+384),w
  3213  06D0  00F6               	movwf	___fladd@a+2
  3214  06D1  083B               	movf	(Quadra_Al@d+1)^(0+384),w
  3215  06D2  00F5               	movwf	___fladd@a+1
  3216  06D3  083A               	movf	Quadra_Al@d^(0+384),w
  3217  06D4  00F4               	movwf	___fladd@a
  3218  06D5  120A  118A  2054  120A  118A  	fcall	___fladd
  3219  06DA  0873               	movf	?___fladd+3,w
  3220  06DB  1283               	bcf	3,5	;RP0=0, select bank0
  3221  06DC  1303               	bcf	3,6	;RP1=0, select bank0
  3222  06DD  00AF               	movwf	___flmul@a+3
  3223  06DE  0872               	movf	?___fladd+2,w
  3224  06DF  00AE               	movwf	___flmul@a+2
  3225  06E0  0871               	movf	?___fladd+1,w
  3226  06E1  00AD               	movwf	___flmul@a+1
  3227  06E2  0870               	movf	?___fladd,w
  3228  06E3  00AC               	movwf	___flmul@a
  3229  06E4  120A  158A  249F  120A  118A  	fcall	___flmul
  3230  06E9  1283               	bcf	3,5	;RP0=0, select bank0
  3231  06EA  1303               	bcf	3,6	;RP1=0, select bank0
  3232  06EB  082B               	movf	?___flmul+3,w
  3233  06EC  1683               	bsf	3,5	;RP0=1, select bank3
  3234  06ED  1703               	bsf	3,6	;RP1=1, select bank3
  3235  06EE  00DD               	movwf	(Quadra_Al@out+3)^(0+384)
  3236  06EF  1283               	bcf	3,5	;RP0=0, select bank0
  3237  06F0  1303               	bcf	3,6	;RP1=0, select bank0
  3238  06F1  082A               	movf	?___flmul+2,w
  3239  06F2  1683               	bsf	3,5	;RP0=1, select bank3
  3240  06F3  1703               	bsf	3,6	;RP1=1, select bank3
  3241  06F4  00DC               	movwf	(Quadra_Al@out+2)^(0+384)
  3242  06F5  1283               	bcf	3,5	;RP0=0, select bank0
  3243  06F6  1303               	bcf	3,6	;RP1=0, select bank0
  3244  06F7  0829               	movf	?___flmul+1,w
  3245  06F8  1683               	bsf	3,5	;RP0=1, select bank3
  3246  06F9  1703               	bsf	3,6	;RP1=1, select bank3
  3247  06FA  00DB               	movwf	(Quadra_Al@out+1)^(0+384)
  3248  06FB  1283               	bcf	3,5	;RP0=0, select bank0
  3249  06FC  1303               	bcf	3,6	;RP1=0, select bank0
  3250  06FD  0828               	movf	?___flmul,w
  3251  06FE  1683               	bsf	3,5	;RP0=1, select bank3
  3252  06FF  1703               	bsf	3,6	;RP1=1, select bank3
  3253  0700  00DA               	movwf	Quadra_Al@out^(0+384)
  3254  0701                     l2620:
  3255                           
  3256                           ;newmain.c: 78:     for (j = 0; j < 7; j++)
  3257  0701  01E8               	clrf	Quadra_Al@j^(0+384)
  3258  0702  01E9               	clrf	(Quadra_Al@j+1)^(0+384)
  3259  0703                     l2626:
  3260                           
  3261                           ;newmain.c: 79:     {;newmain.c: 80:         UART_Write_Text ("CB");
  3262  0703  3021               	movlw	(low ((STR_1-__stringbase)| (0+32768)))& (0+255)
  3263  0704  00F1               	movwf	UART_Write_Text@text
  3264  0705  3080               	movlw	128
  3265  0706  00F2               	movwf	UART_Write_Text@text+1
  3266  0707  120A  158A  2002  120A  118A  	fcall	_UART_Write_Text
  3267                           
  3268                           ;newmain.c: 81:         sprintf (data, "%d\n", j);
  3269  070C  301A               	movlw	(low ((STR_2-__stringbase)| (0+32768)))& (0+255)
  3270  070D  1283               	bcf	3,5	;RP0=0, select bank0
  3271  070E  1303               	bcf	3,6	;RP1=0, select bank0
  3272  070F  00E0               	movwf	??_Quadra_Al
  3273  0710  0860               	movf	??_Quadra_Al,w
  3274  0711  00A0               	movwf	sprintf@f
  3275  0712  1683               	bsf	3,5	;RP0=1, select bank3
  3276  0713  1703               	bsf	3,6	;RP1=1, select bank3
  3277  0714  0869               	movf	(Quadra_Al@j+1)^(0+384),w
  3278  0715  1283               	bcf	3,5	;RP0=0, select bank0
  3279  0716  1303               	bcf	3,6	;RP1=0, select bank0
  3280  0717  00A2               	movwf	?_sprintf+2
  3281  0718  1683               	bsf	3,5	;RP0=1, select bank3
  3282  0719  1703               	bsf	3,6	;RP1=1, select bank3
  3283  071A  0868               	movf	Quadra_Al@j^(0+384),w
  3284  071B  1283               	bcf	3,5	;RP0=0, select bank0
  3285  071C  1303               	bcf	3,6	;RP1=0, select bank0
  3286  071D  00A1               	movwf	?_sprintf+1
  3287  071E  3090               	movlw	(low (Quadra_Al@data| (0+256)))& (0+255)
  3288  071F  120A  158A  21DA  120A  118A  	fcall	_sprintf
  3289                           
  3290                           ;newmain.c: 82:         UART_Write_Text (data);
  3291  0724  3090               	movlw	(low (Quadra_Al@data| (0+256)))& (0+255)
  3292  0725  00F1               	movwf	UART_Write_Text@text
  3293  0726  3001               	movlw	1
  3294  0727  00F2               	movwf	UART_Write_Text@text+1
  3295  0728  120A  158A  2002  120A  118A  	fcall	_UART_Write_Text
  3296                           
  3297                           ;newmain.c: 83:         UART_Write_Text (" = ");
  3298  072D  3016               	movlw	(low (((STR_6+11)-__stringbase)| (0+32768)))& (0+255)
  3299  072E  00F1               	movwf	UART_Write_Text@text
  3300  072F  3080               	movlw	128
  3301  0730  00F2               	movwf	UART_Write_Text@text+1
  3302  0731  120A  158A  2002  120A  118A  	fcall	_UART_Write_Text
  3303                           
  3304                           ;newmain.c: 84:         sprintf (data, "%d\n", x [j]);
  3305  0736  301A               	movlw	(low ((STR_2-__stringbase)| (0+32768)))& (0+255)
  3306  0737  1283               	bcf	3,5	;RP0=0, select bank0
  3307  0738  1303               	bcf	3,6	;RP1=0, select bank0
  3308  0739  00E0               	movwf	??_Quadra_Al
  3309  073A  0860               	movf	??_Quadra_Al,w
  3310  073B  00A0               	movwf	sprintf@f
  3311  073C  1683               	bsf	3,5	;RP0=1, select bank3
  3312  073D  1703               	bsf	3,6	;RP1=1, select bank3
  3313  073E  0868               	movf	Quadra_Al@j^(0+384),w
  3314  073F  1283               	bcf	3,5	;RP0=0, select bank0
  3315  0740  1303               	bcf	3,6	;RP1=0, select bank0
  3316  0741  00E1               	movwf	??_Quadra_Al+1
  3317  0742  3001               	movlw	1
  3318  0743                     u4075:
  3319  0743  1003               	clrc
  3320  0744  0DE1               	rlf	??_Quadra_Al+1,f
  3321  0745  3EFF               	addlw	-1
  3322  0746  1D03               	skipz
  3323  0747  2F43               	goto	u4075
  3324  0748  1003               	clrc
  3325  0749  0D61               	rlf	??_Quadra_Al+1,w
  3326  074A  3E9A               	addlw	(low (Quadra_Al@x| (0+256)))& (0+255)
  3327  074B  0084               	movwf	4
  3328  074C  1783               	bsf	3,7	;select IRP bank3
  3329  074D  0800               	movf	0,w
  3330  074E  00A1               	movwf	?_sprintf+1
  3331  074F  0A84               	incf	4,f
  3332  0750  0800               	movf	0,w
  3333  0751  00A2               	movwf	?_sprintf+2
  3334  0752  0A84               	incf	4,f
  3335  0753  0800               	movf	0,w
  3336  0754  00A3               	movwf	?_sprintf+3
  3337  0755  0A84               	incf	4,f
  3338  0756  0800               	movf	0,w
  3339  0757  00A4               	movwf	?_sprintf+4
  3340  0758  3090               	movlw	(low (Quadra_Al@data| (0+256)))& (0+255)
  3341  0759  120A  158A  21DA  120A  118A  	fcall	_sprintf
  3342                           
  3343                           ;newmain.c: 85:         UART_Write_Text (data);
  3344  075E  3090               	movlw	(low (Quadra_Al@data| (0+256)))& (0+255)
  3345  075F  00F1               	movwf	UART_Write_Text@text
  3346  0760  3001               	movlw	1
  3347  0761  00F2               	movwf	UART_Write_Text@text+1
  3348  0762  120A  158A  2002  120A  118A  	fcall	_UART_Write_Text
  3349  0767                     l2628:
  3350                           
  3351                           ;newmain.c: 86:         _delay((unsigned long)((90)*(8000000/4000.0)));
  3352  0767  30EA               	movlw	234
  3353  0768  1283               	bcf	3,5	;RP0=0, select bank0
  3354  0769  1303               	bcf	3,6	;RP1=0, select bank0
  3355  076A  00E1               	movwf	??_Quadra_Al+1
  3356  076B  30C2               	movlw	194
  3357  076C  00E0               	movwf	??_Quadra_Al
  3358  076D                     u4257:
  3359  076D  0BE0               	decfsz	??_Quadra_Al,f
  3360  076E  2F6D               	goto	u4257
  3361  076F  0BE1               	decfsz	??_Quadra_Al+1,f
  3362  0770  2F6D               	goto	u4257
  3363  0771  0000               	nop
  3364  0772                     l2630:
  3365                           
  3366                           ;newmain.c: 87:         UART_Write_Text ("\n\r");
  3367  0772  301E               	movlw	(low ((STR_5-__stringbase)| (0+32768)))& (0+255)
  3368  0773  00F1               	movwf	UART_Write_Text@text
  3369  0774  3080               	movlw	128
  3370  0775  00F2               	movwf	UART_Write_Text@text+1
  3371  0776  120A  158A  2002  120A  118A  	fcall	_UART_Write_Text
  3372                           
  3373                           ;newmain.c: 88:     }
  3374  077B  3001               	movlw	1
  3375  077C  1683               	bsf	3,5	;RP0=1, select bank3
  3376  077D  1703               	bsf	3,6	;RP1=1, select bank3
  3377  077E  07E8               	addwf	Quadra_Al@j^(0+384),f
  3378  077F  1803               	skipnc
  3379  0780  0AE9               	incf	(Quadra_Al@j+1)^(0+384),f
  3380  0781  3000               	movlw	0
  3381  0782  07E9               	addwf	(Quadra_Al@j+1)^(0+384),f
  3382  0783                     l2632:
  3383  0783  0869               	movf	(Quadra_Al@j+1)^(0+384),w
  3384  0784  3A80               	xorlw	128
  3385  0785  00FF               	movwf	btemp+1
  3386  0786  3080               	movlw	128
  3387  0787  027F               	subwf	btemp+1,w
  3388  0788  1D03               	skipz
  3389  0789  2F8C               	goto	u4085
  3390  078A  3007               	movlw	7
  3391  078B  0268               	subwf	Quadra_Al@j^(0+384),w
  3392  078C                     u4085:
  3393  078C  1C03               	skipc
  3394  078D  2F8F               	goto	u4081
  3395  078E  2F90               	goto	u4080
  3396  078F                     u4081:
  3397  078F  2F03               	goto	l2626
  3398  0790                     u4080:
  3399  0790                     l2634:
  3400                           
  3401                           ;newmain.c: 90:     UART_Write_Text ("Khoang cach = ");
  3402  0790  300B               	movlw	(low ((STR_6-__stringbase)| (0+32768)))& (0+255)
  3403  0791  00F1               	movwf	UART_Write_Text@text
  3404  0792  3080               	movlw	128
  3405  0793  00F2               	movwf	UART_Write_Text@text+1
  3406  0794  120A  158A  2002  120A  118A  	fcall	_UART_Write_Text
  3407                           
  3408                           ;newmain.c: 91:     sprintf (data, "%d\n", out);
  3409  0799  301A               	movlw	(low ((STR_2-__stringbase)| (0+32768)))& (0+255)
  3410  079A  1283               	bcf	3,5	;RP0=0, select bank0
  3411  079B  1303               	bcf	3,6	;RP1=0, select bank0
  3412  079C  00E0               	movwf	??_Quadra_Al
  3413  079D  0860               	movf	??_Quadra_Al,w
  3414  079E  00A0               	movwf	sprintf@f
  3415  079F  1683               	bsf	3,5	;RP0=1, select bank3
  3416  07A0  1703               	bsf	3,6	;RP1=1, select bank3
  3417  07A1  085D               	movf	(Quadra_Al@out+3)^(0+384),w
  3418  07A2  1283               	bcf	3,5	;RP0=0, select bank0
  3419  07A3  1303               	bcf	3,6	;RP1=0, select bank0
  3420  07A4  00A4               	movwf	?_sprintf+4
  3421  07A5  1683               	bsf	3,5	;RP0=1, select bank3
  3422  07A6  1703               	bsf	3,6	;RP1=1, select bank3
  3423  07A7  085C               	movf	(Quadra_Al@out+2)^(0+384),w
  3424  07A8  1283               	bcf	3,5	;RP0=0, select bank0
  3425  07A9  1303               	bcf	3,6	;RP1=0, select bank0
  3426  07AA  00A3               	movwf	?_sprintf+3
  3427  07AB  1683               	bsf	3,5	;RP0=1, select bank3
  3428  07AC  1703               	bsf	3,6	;RP1=1, select bank3
  3429  07AD  085B               	movf	(Quadra_Al@out+1)^(0+384),w
  3430  07AE  1283               	bcf	3,5	;RP0=0, select bank0
  3431  07AF  1303               	bcf	3,6	;RP1=0, select bank0
  3432  07B0  00A2               	movwf	?_sprintf+2
  3433  07B1  1683               	bsf	3,5	;RP0=1, select bank3
  3434  07B2  1703               	bsf	3,6	;RP1=1, select bank3
  3435  07B3  085A               	movf	Quadra_Al@out^(0+384),w
  3436  07B4  1283               	bcf	3,5	;RP0=0, select bank0
  3437  07B5  1303               	bcf	3,6	;RP1=0, select bank0
  3438  07B6  00A1               	movwf	?_sprintf+1
  3439  07B7  3090               	movlw	(low (Quadra_Al@data| (0+256)))& (0+255)
  3440  07B8  120A  158A  21DA  120A  118A  	fcall	_sprintf
  3441                           
  3442                           ;newmain.c: 92:     UART_Write_Text (data);
  3443  07BD  3090               	movlw	(low (Quadra_Al@data| (0+256)))& (0+255)
  3444  07BE  00F1               	movwf	UART_Write_Text@text
  3445  07BF  3001               	movlw	1
  3446  07C0  00F2               	movwf	UART_Write_Text@text+1
  3447  07C1  120A  158A  2002  120A  118A  	fcall	_UART_Write_Text
  3448  07C6                     l2636:
  3449                           
  3450                           ;newmain.c: 93:     _delay((unsigned long)((90)*(8000000/4000.0)));
  3451  07C6  30EA               	movlw	234
  3452  07C7  1283               	bcf	3,5	;RP0=0, select bank0
  3453  07C8  1303               	bcf	3,6	;RP1=0, select bank0
  3454  07C9  00E1               	movwf	??_Quadra_Al+1
  3455  07CA  30C2               	movlw	194
  3456  07CB  00E0               	movwf	??_Quadra_Al
  3457  07CC                     u4267:
  3458  07CC  0BE0               	decfsz	??_Quadra_Al,f
  3459  07CD  2FCC               	goto	u4267
  3460  07CE  0BE1               	decfsz	??_Quadra_Al+1,f
  3461  07CF  2FCC               	goto	u4267
  3462  07D0  0000               	nop
  3463  07D1                     l2638:
  3464                           
  3465                           ;newmain.c: 94:     UART_Write_Text ("\n\r");
  3466  07D1  301E               	movlw	(low ((STR_5-__stringbase)| (0+32768)))& (0+255)
  3467  07D2  00F1               	movwf	UART_Write_Text@text
  3468  07D3  3080               	movlw	128
  3469  07D4  00F2               	movwf	UART_Write_Text@text+1
  3470  07D5  120A  158A  2002  120A  118A  	fcall	_UART_Write_Text
  3471                           
  3472                           ;newmain.c: 95:     return out;
  3473  07DA  1683               	bsf	3,5	;RP0=1, select bank3
  3474  07DB  1703               	bsf	3,6	;RP1=1, select bank3
  3475  07DC  085D               	movf	(Quadra_Al@out+3)^(0+384),w
  3476  07DD  1283               	bcf	3,5	;RP0=0, select bank0
  3477  07DE  1303               	bcf	3,6	;RP1=0, select bank0
  3478  07DF  00DF               	movwf	?_Quadra_Al+3
  3479  07E0  1683               	bsf	3,5	;RP0=1, select bank3
  3480  07E1  1703               	bsf	3,6	;RP1=1, select bank3
  3481  07E2  085C               	movf	(Quadra_Al@out+2)^(0+384),w
  3482  07E3  1283               	bcf	3,5	;RP0=0, select bank0
  3483  07E4  1303               	bcf	3,6	;RP1=0, select bank0
  3484  07E5  00DE               	movwf	?_Quadra_Al+2
  3485  07E6  1683               	bsf	3,5	;RP0=1, select bank3
  3486  07E7  1703               	bsf	3,6	;RP1=1, select bank3
  3487  07E8  085B               	movf	(Quadra_Al@out+1)^(0+384),w
  3488  07E9  1283               	bcf	3,5	;RP0=0, select bank0
  3489  07EA  1303               	bcf	3,6	;RP1=0, select bank0
  3490  07EB  00DD               	movwf	?_Quadra_Al+1
  3491  07EC  1683               	bsf	3,5	;RP0=1, select bank3
  3492  07ED  1703               	bsf	3,6	;RP1=1, select bank3
  3493  07EE  085A               	movf	Quadra_Al@out^(0+384),w
  3494  07EF  1283               	bcf	3,5	;RP0=0, select bank0
  3495  07F0  1303               	bcf	3,6	;RP1=0, select bank0
  3496  07F1  00DC               	movwf	?_Quadra_Al
  3497  07F2                     l120:
  3498  07F2  0008               	return
  3499  07F3                     __end_of_Quadra_Al:
  3500                           
  3501                           	psect	text10
  3502  09DA                     __ptext10:	
  3503 ;; *************** function _sprintf *****************
  3504 ;; Defined at:
  3505 ;;		line 505 in file "C:\Program Files\Microchip\xc8\v2.32\pic\sources\c90\common\doprnt.c"
  3506 ;; Parameters:    Size  Location     Type
  3507 ;;  sp              1    wreg     PTR unsigned char 
  3508 ;;		 -> Quadra_Al@data(10), 
  3509 ;;  f               1    0[BANK0 ] PTR const unsigned char 
  3510 ;;		 -> STR_7(4), STR_4(4), STR_2(4), 
  3511 ;; Auto vars:     Size  Location     Type
  3512 ;;  sp              1   13[BANK0 ] PTR unsigned char 
  3513 ;;		 -> Quadra_Al@data(10), 
  3514 ;;  tmpval          4    0        struct .
  3515 ;;  val             2   11[BANK0 ] unsigned int 
  3516 ;;  cp              2    0        PTR const unsigned char 
  3517 ;;  len             2    0        unsigned int 
  3518 ;;  c               1   14[BANK0 ] unsigned char 
  3519 ;;  prec            1   10[BANK0 ] char 
  3520 ;;  flag            1    9[BANK0 ] unsigned char 
  3521 ;;  ap              1    8[BANK0 ] PTR void [1]
  3522 ;;		 -> ?_sprintf(2), 
  3523 ;; Return value:  Size  Location     Type
  3524 ;;                  2    0[BANK0 ] int 
  3525 ;; Registers used:
  3526 ;;		wreg, fsr0l, fsr0h, status,2, status,0, btemp+1, pclath, cstack
  3527 ;; Tracked objects:
  3528 ;;		On entry : 0/0
  3529 ;;		On exit  : 0/0
  3530 ;;		Unchanged: 0/0
  3531 ;; Data sizes:     COMMON   BANK0   BANK1   BANK3   BANK2
  3532 ;;      Params:         0       5       0       0       0
  3533 ;;      Locals:         0       7       0       0       0
  3534 ;;      Temps:          0       3       0       0       0
  3535 ;;      Totals:         0      15       0       0       0
  3536 ;;Total ram usage:       15 bytes
  3537 ;; Hardware stack levels used: 1
  3538 ;; Hardware stack levels required when called: 1
  3539 ;; This function calls:
  3540 ;;		___lwdiv
  3541 ;;		___lwmod
  3542 ;; This function is called by:
  3543 ;;		_Quadra_Al
  3544 ;; This function uses a non-reentrant model
  3545 ;;
  3546                           
  3547                           
  3548                           ;psect for function _sprintf
  3549  09DA                     _sprintf:
  3550                           
  3551                           ;incstack = 0
  3552                           ; Regs used in _sprintf: [wreg-fsr0h+status,2+status,0+btemp+1+pclath+cstack]
  3553                           ;sprintf@sp stored from wreg
  3554  09DA  1283               	bcf	3,5	;RP0=0, select bank0
  3555  09DB  1303               	bcf	3,6	;RP1=0, select bank0
  3556  09DC  00AD               	movwf	sprintf@sp
  3557  09DD                     l2070:
  3558                           
  3559                           ;C:\Program Files\Microchip\xc8\v2.32\pic\sources\c90\common\doprnt.c: 505: sprintf(char
      +                           * sp, const char * f, ...);C:\Program Files\Microchip\xc8\v2.32\pic\sources\c90\common\
      +                          doprnt.c: 506: {;C:\Program Files\Microchip\xc8\v2.32\pic\sources\c90\common\doprnt.c: 5
      +                          07:  va_list ap;;C:\Program Files\Microchip\xc8\v2.32\pic\sources\c90\common\doprnt.c: 5
      +                          12:  char c;;C:\Program Files\Microchip\xc8\v2.32\pic\sources\c90\common\doprnt.c: 521: 
      +                           signed char prec;;C:\Program Files\Microchip\xc8\v2.32\pic\sources\c90\common\doprnt.c:
      +                           525:  unsigned char flag;
  3560  09DD  3021               	movlw	(low ((?_sprintf| 0+1)))& (0+255)
  3561  09DE  00A5               	movwf	??_sprintf
  3562  09DF  0825               	movf	??_sprintf,w
  3563  09E0  00A8               	movwf	sprintf@ap
  3564                           
  3565                           ;C:\Program Files\Microchip\xc8\v2.32\pic\sources\c90\common\doprnt.c: 553:  while((c = 
      +                          *f++)) {
  3566  09E1  2AAB               	goto	l2122
  3567  09E2                     l2072:
  3568                           
  3569                           ;C:\Program Files\Microchip\xc8\v2.32\pic\sources\c90\common\doprnt.c: 555:   if(c != '%
      +                          ')
  3570  09E2  3025               	movlw	37
  3571  09E3  062E               	xorwf	sprintf@c,w
  3572  09E4  1903               	btfsc	3,2
  3573  09E5  29E7               	goto	u2811
  3574  09E6  29E8               	goto	u2810
  3575  09E7                     u2811:
  3576  09E7  29F4               	goto	l2078
  3577  09E8                     u2810:
  3578  09E8                     l2074:
  3579                           
  3580                           ;C:\Program Files\Microchip\xc8\v2.32\pic\sources\c90\common\doprnt.c: 557:   {;C:\Progr
      +                          am Files\Microchip\xc8\v2.32\pic\sources\c90\common\doprnt.c: 558:    ((*sp++ = (c)));
  3581  09E8  082E               	movf	sprintf@c,w
  3582  09E9  00A5               	movwf	??_sprintf
  3583  09EA  082D               	movf	sprintf@sp,w
  3584  09EB  0084               	movwf	4
  3585  09EC  0825               	movf	??_sprintf,w
  3586  09ED  1783               	bsf	3,7	;select IRP bank2
  3587  09EE  0080               	movwf	0
  3588  09EF                     l2076:
  3589  09EF  3001               	movlw	1
  3590  09F0  00A5               	movwf	??_sprintf
  3591  09F1  0825               	movf	??_sprintf,w
  3592  09F2  07AD               	addwf	sprintf@sp,f
  3593                           
  3594                           ;C:\Program Files\Microchip\xc8\v2.32\pic\sources\c90\common\doprnt.c: 559:    continue;
  3595  09F3  2AAB               	goto	l2122
  3596  09F4                     l2078:
  3597                           
  3598                           ;C:\Program Files\Microchip\xc8\v2.32\pic\sources\c90\common\doprnt.c: 565:   flag = 0;
  3599  09F4  01A9               	clrf	sprintf@flag
  3600  09F5                     l2082:	
  3601                           ;C:\Program Files\Microchip\xc8\v2.32\pic\sources\c90\common\doprnt.c: 661:   switch(c =
      +                           *f++) {
  3602                           
  3603  09F5  3001               	movlw	1
  3604  09F6  07A0               	addwf	sprintf@f,f
  3605  09F7  30FF               	movlw	-1
  3606  09F8  0720               	addwf	sprintf@f,w
  3607  09F9  0084               	movwf	4
  3608  09FA  160A  118A  200A  120A  158A  	fcall	stringdir
  3609  09FF  00AE               	movwf	sprintf@c
  3610  0A00  00A5               	movwf	??_sprintf
  3611  0A01  01A6               	clrf	??_sprintf+1
  3612                           
  3613                           ; Switch on 2 bytes has been partitioned into a top level switch of size 1, and 1 sub-sw
      +                          itches
  3614                           ; Switch size 1, requested type "simple"
  3615                           ; Number of cases is 1, Range of values is 0 to 0
  3616                           ; switch strategies available:
  3617                           ; Name         Instructions Cycles
  3618                           ; simple_byte            4     3 (average)
  3619                           ; direct_byte           11     8 (fixed)
  3620                           ; jumptable            260     6 (fixed)
  3621                           ;	Chosen strategy is simple_byte
  3622  0A02  0826               	movf	??_sprintf+1,w
  3623  0A03  3A00               	xorlw	0	; case 0
  3624  0A04  1903               	skipnz
  3625  0A05  2A07               	goto	l2766
  3626  0A06  2AAB               	goto	l2122
  3627  0A07                     l2766:
  3628                           
  3629                           ; Switch size 1, requested type "simple"
  3630                           ; Number of cases is 3, Range of values is 0 to 105
  3631                           ; switch strategies available:
  3632                           ; Name         Instructions Cycles
  3633                           ; simple_byte           10     6 (average)
  3634                           ; jumptable            260     6 (fixed)
  3635                           ;	Chosen strategy is simple_byte
  3636  0A07  0825               	movf	??_sprintf,w
  3637  0A08  3A00               	xorlw	0	; case 0
  3638  0A09  1903               	skipnz
  3639  0A0A  2ABD               	goto	l2124
  3640  0A0B  3A64               	xorlw	100	; case 100
  3641  0A0C  1903               	skipnz
  3642  0A0D  2A12               	goto	l2084
  3643  0A0E  3A0D               	xorlw	13	; case 105
  3644  0A0F  1903               	skipnz
  3645  0A10  2A12               	goto	l2084
  3646  0A11  2AAB               	goto	l2122
  3647  0A12                     l2084:
  3648                           
  3649                           ;C:\Program Files\Microchip\xc8\v2.32\pic\sources\c90\common\doprnt.c: 1279:   {;C:\Prog
      +                          ram Files\Microchip\xc8\v2.32\pic\sources\c90\common\doprnt.c: 1285:     val = (unsigned
      +                           int)(*(int *)__va_arg((*(int **)ap), (int)0));
  3650  0A12  0828               	movf	sprintf@ap,w
  3651  0A13  0084               	movwf	4
  3652  0A14  1383               	bcf	3,7	;select IRP bank0
  3653  0A15  0800               	movf	0,w
  3654  0A16  00AB               	movwf	sprintf@val
  3655  0A17  0A84               	incf	4,f
  3656  0A18  0800               	movf	0,w
  3657  0A19  00AC               	movwf	sprintf@val+1
  3658  0A1A                     l2086:
  3659  0A1A  3002               	movlw	2
  3660  0A1B  00A5               	movwf	??_sprintf
  3661  0A1C  0825               	movf	??_sprintf,w
  3662  0A1D  07A8               	addwf	sprintf@ap,f
  3663  0A1E                     l2088:
  3664                           
  3665                           ;C:\Program Files\Microchip\xc8\v2.32\pic\sources\c90\common\doprnt.c: 1287:    if((int)
      +                          val < 0) {
  3666  0A1E  1FAC               	btfss	sprintf@val+1,7
  3667  0A1F  2A21               	goto	u2821
  3668  0A20  2A22               	goto	u2820
  3669  0A21                     u2821:
  3670  0A21  2A2B               	goto	l2094
  3671  0A22                     u2820:
  3672  0A22                     l2090:
  3673                           
  3674                           ;C:\Program Files\Microchip\xc8\v2.32\pic\sources\c90\common\doprnt.c: 1288:     flag |=
      +                           0x03;
  3675  0A22  3003               	movlw	3
  3676  0A23  00A5               	movwf	??_sprintf
  3677  0A24  0825               	movf	??_sprintf,w
  3678  0A25  04A9               	iorwf	sprintf@flag,f
  3679  0A26                     l2092:
  3680                           
  3681                           ;C:\Program Files\Microchip\xc8\v2.32\pic\sources\c90\common\doprnt.c: 1289:     val = -
      +                          val;
  3682  0A26  09AB               	comf	sprintf@val,f
  3683  0A27  09AC               	comf	sprintf@val+1,f
  3684  0A28  0AAB               	incf	sprintf@val,f
  3685  0A29  1903               	skipnz
  3686  0A2A  0AAC               	incf	sprintf@val+1,f
  3687  0A2B                     l2094:
  3688                           
  3689                           ;C:\Program Files\Microchip\xc8\v2.32\pic\sources\c90\common\doprnt.c: 1292:   };C:\Prog
      +                          ram Files\Microchip\xc8\v2.32\pic\sources\c90\common\doprnt.c: 1331:    for(c = 1 ; c !=
      +                           sizeof dpowers/sizeof dpowers[0] ; c++)
  3690  0A2B  01AE               	clrf	sprintf@c
  3691  0A2C  0AAE               	incf	sprintf@c,f
  3692  0A2D                     l2100:
  3693                           
  3694                           ;C:\Program Files\Microchip\xc8\v2.32\pic\sources\c90\common\doprnt.c: 1332:     if(val 
      +                          < dpowers[c])
  3695  0A2D  082E               	movf	sprintf@c,w
  3696  0A2E  00A5               	movwf	??_sprintf
  3697  0A2F  0725               	addwf	??_sprintf,w
  3698  0A30  3E01               	addlw	low ((_dpowers-__stringbase)| (0+32768))
  3699  0A31  0084               	movwf	4
  3700  0A32  160A  118A  200A  120A  158A  	fcall	stringdir
  3701  0A37  00A6               	movwf	??_sprintf+1
  3702  0A38  160A  118A  200A  120A  158A  	fcall	stringdir
  3703  0A3D  00A7               	movwf	??_sprintf+2
  3704  0A3E  0827               	movf	??_sprintf+2,w
  3705  0A3F  022C               	subwf	sprintf@val+1,w
  3706  0A40  1D03               	skipz
  3707  0A41  2A44               	goto	u2835
  3708  0A42  0826               	movf	??_sprintf+1,w
  3709  0A43  022B               	subwf	sprintf@val,w
  3710  0A44                     u2835:
  3711  0A44  1803               	skipnc
  3712  0A45  2A47               	goto	u2831
  3713  0A46  2A48               	goto	u2830
  3714  0A47                     u2831:
  3715  0A47  2A49               	goto	l2104
  3716  0A48                     u2830:
  3717  0A48  2A53               	goto	l2106
  3718  0A49                     l2104:
  3719  0A49  3001               	movlw	1
  3720  0A4A  00A5               	movwf	??_sprintf
  3721  0A4B  0825               	movf	??_sprintf,w
  3722  0A4C  07AE               	addwf	sprintf@c,f
  3723  0A4D  3005               	movlw	5
  3724  0A4E  062E               	xorwf	sprintf@c,w
  3725  0A4F  1D03               	btfss	3,2
  3726  0A50  2A52               	goto	u2841
  3727  0A51  2A53               	goto	u2840
  3728  0A52                     u2841:
  3729  0A52  2A2D               	goto	l2100
  3730  0A53                     u2840:
  3731  0A53                     l2106:
  3732                           
  3733                           ;C:\Program Files\Microchip\xc8\v2.32\pic\sources\c90\common\doprnt.c: 1448:   {;C:\Prog
      +                          ram Files\Microchip\xc8\v2.32\pic\sources\c90\common\doprnt.c: 1464:    if(flag & 0x03)
  3734  0A53  0829               	movf	sprintf@flag,w
  3735  0A54  3903               	andlw	3
  3736  0A55  1903               	btfsc	3,2
  3737  0A56  2A58               	goto	u2851
  3738  0A57  2A59               	goto	u2850
  3739  0A58                     u2851:
  3740  0A58  2A64               	goto	l2112
  3741  0A59                     u2850:
  3742  0A59                     l2108:
  3743                           
  3744                           ;C:\Program Files\Microchip\xc8\v2.32\pic\sources\c90\common\doprnt.c: 1465:     ((*sp++
      +                           = ('-')));
  3745  0A59  302D               	movlw	45
  3746  0A5A  00A5               	movwf	??_sprintf
  3747  0A5B  082D               	movf	sprintf@sp,w
  3748  0A5C  0084               	movwf	4
  3749  0A5D  0825               	movf	??_sprintf,w
  3750  0A5E  1783               	bsf	3,7	;select IRP bank2
  3751  0A5F  0080               	movwf	0
  3752  0A60                     l2110:
  3753  0A60  3001               	movlw	1
  3754  0A61  00A5               	movwf	??_sprintf
  3755  0A62  0825               	movf	??_sprintf,w
  3756  0A63  07AD               	addwf	sprintf@sp,f
  3757  0A64                     l2112:
  3758                           
  3759                           ;C:\Program Files\Microchip\xc8\v2.32\pic\sources\c90\common\doprnt.c: 1495:   };C:\Prog
      +                          ram Files\Microchip\xc8\v2.32\pic\sources\c90\common\doprnt.c: 1498:   prec = c;
  3760  0A64  082E               	movf	sprintf@c,w
  3761  0A65  00A5               	movwf	??_sprintf
  3762  0A66  0825               	movf	??_sprintf,w
  3763  0A67  00AA               	movwf	sprintf@prec
  3764                           
  3765                           ;C:\Program Files\Microchip\xc8\v2.32\pic\sources\c90\common\doprnt.c: 1500:   while(pre
      +                          c--) {
  3766  0A68  2AA2               	goto	l2120
  3767  0A69                     l2114:
  3768                           
  3769                           ;C:\Program Files\Microchip\xc8\v2.32\pic\sources\c90\common\doprnt.c: 1504:    {;C:\Pro
      +                          gram Files\Microchip\xc8\v2.32\pic\sources\c90\common\doprnt.c: 1515:     c = (val / dpo
      +                          wers[(unsigned char)prec]) % 10 + '0';
  3770  0A69  300A               	movlw	10
  3771  0A6A  00F8               	movwf	___lwmod@divisor
  3772  0A6B  3000               	movlw	0
  3773  0A6C  00F9               	movwf	___lwmod@divisor+1
  3774  0A6D  082A               	movf	sprintf@prec,w
  3775  0A6E  00A5               	movwf	??_sprintf
  3776  0A6F  0725               	addwf	??_sprintf,w
  3777  0A70  3E01               	addlw	low ((_dpowers-__stringbase)| (0+32768))
  3778  0A71  0084               	movwf	4
  3779  0A72  160A  118A  200A  120A  158A  	fcall	stringdir
  3780  0A77  00F0               	movwf	___lwdiv@divisor
  3781  0A78  160A  118A  200A  120A  158A  	fcall	stringdir
  3782  0A7D  00F1               	movwf	___lwdiv@divisor+1
  3783  0A7E  082C               	movf	sprintf@val+1,w
  3784  0A7F  00F3               	movwf	___lwdiv@dividend+1
  3785  0A80  082B               	movf	sprintf@val,w
  3786  0A81  00F2               	movwf	___lwdiv@dividend
  3787  0A82  120A  118A  2010  120A  158A  	fcall	___lwdiv
  3788  0A87  0871               	movf	?___lwdiv+1,w
  3789  0A88  00FB               	movwf	___lwmod@dividend+1
  3790  0A89  0870               	movf	?___lwdiv,w
  3791  0A8A  00FA               	movwf	___lwmod@dividend
  3792  0A8B  160A  118A  2586  120A  158A  	fcall	___lwmod
  3793  0A90  0878               	movf	?___lwmod,w
  3794  0A91  3E30               	addlw	48
  3795  0A92  1283               	bcf	3,5	;RP0=0, select bank0
  3796  0A93  1303               	bcf	3,6	;RP1=0, select bank0
  3797  0A94  00A6               	movwf	??_sprintf+1
  3798  0A95  0826               	movf	??_sprintf+1,w
  3799  0A96  00AE               	movwf	sprintf@c
  3800  0A97                     l2116:
  3801                           
  3802                           ;C:\Program Files\Microchip\xc8\v2.32\pic\sources\c90\common\doprnt.c: 1549:    };C:\Pro
      +                          gram Files\Microchip\xc8\v2.32\pic\sources\c90\common\doprnt.c: 1550:    ((*sp++ = (c)))
      +                          ;
  3803  0A97  082E               	movf	sprintf@c,w
  3804  0A98  00A5               	movwf	??_sprintf
  3805  0A99  082D               	movf	sprintf@sp,w
  3806  0A9A  0084               	movwf	4
  3807  0A9B  0825               	movf	??_sprintf,w
  3808  0A9C  1783               	bsf	3,7	;select IRP bank2
  3809  0A9D  0080               	movwf	0
  3810  0A9E                     l2118:
  3811  0A9E  3001               	movlw	1
  3812  0A9F  00A5               	movwf	??_sprintf
  3813  0AA0  0825               	movf	??_sprintf,w
  3814  0AA1  07AD               	addwf	sprintf@sp,f
  3815  0AA2                     l2120:
  3816                           
  3817                           ;C:\Program Files\Microchip\xc8\v2.32\pic\sources\c90\common\doprnt.c: 1500:   while(pre
      +                          c--) {
  3818  0AA2  30FF               	movlw	255
  3819  0AA3  00A5               	movwf	??_sprintf
  3820  0AA4  0825               	movf	??_sprintf,w
  3821  0AA5  07AA               	addwf	sprintf@prec,f
  3822  0AA6  0A2A               	incf	sprintf@prec,w
  3823  0AA7  1D03               	btfss	3,2
  3824  0AA8  2AAA               	goto	u2861
  3825  0AA9  2AAB               	goto	u2860
  3826  0AAA                     u2861:
  3827  0AAA  2A69               	goto	l2114
  3828  0AAB                     u2860:
  3829  0AAB                     l2122:
  3830                           
  3831                           ;C:\Program Files\Microchip\xc8\v2.32\pic\sources\c90\common\doprnt.c: 553:  while((c = 
      +                          *f++)) {
  3832  0AAB  3001               	movlw	1
  3833  0AAC  07A0               	addwf	sprintf@f,f
  3834  0AAD  30FF               	movlw	-1
  3835  0AAE  0720               	addwf	sprintf@f,w
  3836  0AAF  0084               	movwf	4
  3837  0AB0  160A  118A  200A  120A  158A  	fcall	stringdir
  3838  0AB5  00A5               	movwf	??_sprintf
  3839  0AB6  0825               	movf	??_sprintf,w
  3840  0AB7  00AE               	movwf	sprintf@c
  3841  0AB8  082E               	movf	sprintf@c,w
  3842  0AB9  1D03               	btfss	3,2
  3843  0ABA  2ABC               	goto	u2871
  3844  0ABB  2ABD               	goto	u2870
  3845  0ABC                     u2871:
  3846  0ABC  29E2               	goto	l2072
  3847  0ABD                     u2870:
  3848  0ABD                     l2124:
  3849                           
  3850                           ;C:\Program Files\Microchip\xc8\v2.32\pic\sources\c90\common\doprnt.c: 1564:  *sp = 0;
  3851  0ABD  082D               	movf	sprintf@sp,w
  3852  0ABE  0084               	movwf	4
  3853  0ABF  1783               	bsf	3,7	;select IRP bank2
  3854  0AC0  0180               	clrf	0
  3855  0AC1                     l274:
  3856  0AC1  0008               	return
  3857  0AC2                     __end_of_sprintf:
  3858                           
  3859                           	psect	text11
  3860  1586                     __ptext11:	
  3861 ;; *************** function ___lwmod *****************
  3862 ;; Defined at:
  3863 ;;		line 5 in file "C:\Program Files\Microchip\xc8\v2.32\pic\sources\c90\common\lwmod.c"
  3864 ;; Parameters:    Size  Location     Type
  3865 ;;  divisor         2    8[COMMON] unsigned int 
  3866 ;;  dividend        2   10[COMMON] unsigned int 
  3867 ;; Auto vars:     Size  Location     Type
  3868 ;;  counter         1   13[COMMON] unsigned char 
  3869 ;; Return value:  Size  Location     Type
  3870 ;;                  2    8[COMMON] unsigned int 
  3871 ;; Registers used:
  3872 ;;		wreg, status,2, status,0
  3873 ;; Tracked objects:
  3874 ;;		On entry : 0/0
  3875 ;;		On exit  : 0/0
  3876 ;;		Unchanged: 0/0
  3877 ;; Data sizes:     COMMON   BANK0   BANK1   BANK3   BANK2
  3878 ;;      Params:         4       0       0       0       0
  3879 ;;      Locals:         1       0       0       0       0
  3880 ;;      Temps:          1       0       0       0       0
  3881 ;;      Totals:         6       0       0       0       0
  3882 ;;Total ram usage:        6 bytes
  3883 ;; Hardware stack levels used: 1
  3884 ;; This function calls:
  3885 ;;		Nothing
  3886 ;; This function is called by:
  3887 ;;		_sprintf
  3888 ;; This function uses a non-reentrant model
  3889 ;;
  3890                           
  3891                           
  3892                           ;psect for function ___lwmod
  3893  1586                     ___lwmod:
  3894  1586                     l1822:	
  3895                           ;incstack = 0
  3896                           ; Regs used in ___lwmod: [wreg+status,2+status,0]
  3897                           
  3898  1586  0878               	movf	___lwmod@divisor,w
  3899  1587  0479               	iorwf	___lwmod@divisor+1,w
  3900  1588  1903               	btfsc	3,2
  3901  1589  2D8B               	goto	u2211
  3902  158A  2D8C               	goto	u2210
  3903  158B                     u2211:
  3904  158B  2DBB               	goto	l1840
  3905  158C                     u2210:
  3906  158C                     l1824:
  3907  158C  01FD               	clrf	___lwmod@counter
  3908  158D  0AFD               	incf	___lwmod@counter,f
  3909  158E  2D9A               	goto	l1830
  3910  158F                     l1826:
  3911  158F  3001               	movlw	1
  3912  1590                     u2225:
  3913  1590  1003               	clrc
  3914  1591  0DF8               	rlf	___lwmod@divisor,f
  3915  1592  0DF9               	rlf	___lwmod@divisor+1,f
  3916  1593  3EFF               	addlw	-1
  3917  1594  1D03               	skipz
  3918  1595  2D90               	goto	u2225
  3919  1596                     l1828:
  3920  1596  3001               	movlw	1
  3921  1597  00FC               	movwf	??___lwmod
  3922  1598  087C               	movf	??___lwmod,w
  3923  1599  07FD               	addwf	___lwmod@counter,f
  3924  159A                     l1830:
  3925  159A  1FF9               	btfss	___lwmod@divisor+1,7
  3926  159B  2D9D               	goto	u2231
  3927  159C  2D9E               	goto	u2230
  3928  159D                     u2231:
  3929  159D  2D8F               	goto	l1826
  3930  159E                     u2230:
  3931  159E                     l1832:
  3932  159E  0879               	movf	___lwmod@divisor+1,w
  3933  159F  027B               	subwf	___lwmod@dividend+1,w
  3934  15A0  1D03               	skipz
  3935  15A1  2DA4               	goto	u2245
  3936  15A2  0878               	movf	___lwmod@divisor,w
  3937  15A3  027A               	subwf	___lwmod@dividend,w
  3938  15A4                     u2245:
  3939  15A4  1C03               	skipc
  3940  15A5  2DA7               	goto	u2241
  3941  15A6  2DA8               	goto	u2240
  3942  15A7                     u2241:
  3943  15A7  2DAE               	goto	l1836
  3944  15A8                     u2240:
  3945  15A8                     l1834:
  3946  15A8  0878               	movf	___lwmod@divisor,w
  3947  15A9  02FA               	subwf	___lwmod@dividend,f
  3948  15AA  0879               	movf	___lwmod@divisor+1,w
  3949  15AB  1C03               	skipc
  3950  15AC  03FB               	decf	___lwmod@dividend+1,f
  3951  15AD  02FB               	subwf	___lwmod@dividend+1,f
  3952  15AE                     l1836:
  3953  15AE  3001               	movlw	1
  3954  15AF                     u2255:
  3955  15AF  1003               	clrc
  3956  15B0  0CF9               	rrf	___lwmod@divisor+1,f
  3957  15B1  0CF8               	rrf	___lwmod@divisor,f
  3958  15B2  3EFF               	addlw	-1
  3959  15B3  1D03               	skipz
  3960  15B4  2DAF               	goto	u2255
  3961  15B5                     l1838:
  3962  15B5  3001               	movlw	1
  3963  15B6  02FD               	subwf	___lwmod@counter,f
  3964  15B7  1D03               	btfss	3,2
  3965  15B8  2DBA               	goto	u2261
  3966  15B9  2DBB               	goto	u2260
  3967  15BA                     u2261:
  3968  15BA  2D9E               	goto	l1832
  3969  15BB                     u2260:
  3970  15BB                     l1840:
  3971  15BB  087B               	movf	___lwmod@dividend+1,w
  3972  15BC  00F9               	movwf	?___lwmod+1
  3973  15BD  087A               	movf	___lwmod@dividend,w
  3974  15BE  00F8               	movwf	?___lwmod
  3975  15BF                     l560:
  3976  15BF  0008               	return
  3977  15C0                     __end_of___lwmod:
  3978                           
  3979                           	psect	text12
  3980  0010                     __ptext12:	
  3981 ;; *************** function ___lwdiv *****************
  3982 ;; Defined at:
  3983 ;;		line 5 in file "C:\Program Files\Microchip\xc8\v2.32\pic\sources\c90\common\lwdiv.c"
  3984 ;; Parameters:    Size  Location     Type
  3985 ;;  divisor         2    0[COMMON] unsigned int 
  3986 ;;  dividend        2    2[COMMON] unsigned int 
  3987 ;; Auto vars:     Size  Location     Type
  3988 ;;  quotient        2    5[COMMON] unsigned int 
  3989 ;;  counter         1    7[COMMON] unsigned char 
  3990 ;; Return value:  Size  Location     Type
  3991 ;;                  2    0[COMMON] unsigned int 
  3992 ;; Registers used:
  3993 ;;		wreg, status,2, status,0
  3994 ;; Tracked objects:
  3995 ;;		On entry : 0/0
  3996 ;;		On exit  : 0/0
  3997 ;;		Unchanged: 0/0
  3998 ;; Data sizes:     COMMON   BANK0   BANK1   BANK3   BANK2
  3999 ;;      Params:         4       0       0       0       0
  4000 ;;      Locals:         3       0       0       0       0
  4001 ;;      Temps:          1       0       0       0       0
  4002 ;;      Totals:         8       0       0       0       0
  4003 ;;Total ram usage:        8 bytes
  4004 ;; Hardware stack levels used: 1
  4005 ;; This function calls:
  4006 ;;		Nothing
  4007 ;; This function is called by:
  4008 ;;		_sprintf
  4009 ;; This function uses a non-reentrant model
  4010 ;;
  4011                           
  4012                           
  4013                           ;psect for function ___lwdiv
  4014  0010                     ___lwdiv:
  4015  0010                     l1796:	
  4016                           ;incstack = 0
  4017                           ; Regs used in ___lwdiv: [wreg+status,2+status,0]
  4018                           
  4019  0010  01F5               	clrf	___lwdiv@quotient
  4020  0011  01F6               	clrf	___lwdiv@quotient+1
  4021  0012                     l1798:
  4022  0012  0870               	movf	___lwdiv@divisor,w
  4023  0013  0471               	iorwf	___lwdiv@divisor+1,w
  4024  0014  1903               	btfsc	3,2
  4025  0015  2817               	goto	u2141
  4026  0016  2818               	goto	u2140
  4027  0017                     u2141:
  4028  0017  284F               	goto	l1818
  4029  0018                     u2140:
  4030  0018                     l1800:
  4031  0018  01F7               	clrf	___lwdiv@counter
  4032  0019  0AF7               	incf	___lwdiv@counter,f
  4033  001A  2826               	goto	l1806
  4034  001B                     l1802:
  4035  001B  3001               	movlw	1
  4036  001C                     u2155:
  4037  001C  1003               	clrc
  4038  001D  0DF0               	rlf	___lwdiv@divisor,f
  4039  001E  0DF1               	rlf	___lwdiv@divisor+1,f
  4040  001F  3EFF               	addlw	-1
  4041  0020  1D03               	skipz
  4042  0021  281C               	goto	u2155
  4043  0022                     l1804:
  4044  0022  3001               	movlw	1
  4045  0023  00F4               	movwf	??___lwdiv
  4046  0024  0874               	movf	??___lwdiv,w
  4047  0025  07F7               	addwf	___lwdiv@counter,f
  4048  0026                     l1806:
  4049  0026  1FF1               	btfss	___lwdiv@divisor+1,7
  4050  0027  2829               	goto	u2161
  4051  0028  282A               	goto	u2160
  4052  0029                     u2161:
  4053  0029  281B               	goto	l1802
  4054  002A                     u2160:
  4055  002A                     l1808:
  4056  002A  3001               	movlw	1
  4057  002B                     u2175:
  4058  002B  1003               	clrc
  4059  002C  0DF5               	rlf	___lwdiv@quotient,f
  4060  002D  0DF6               	rlf	___lwdiv@quotient+1,f
  4061  002E  3EFF               	addlw	-1
  4062  002F  1D03               	skipz
  4063  0030  282B               	goto	u2175
  4064  0031  0871               	movf	___lwdiv@divisor+1,w
  4065  0032  0273               	subwf	___lwdiv@dividend+1,w
  4066  0033  1D03               	skipz
  4067  0034  2837               	goto	u2185
  4068  0035  0870               	movf	___lwdiv@divisor,w
  4069  0036  0272               	subwf	___lwdiv@dividend,w
  4070  0037                     u2185:
  4071  0037  1C03               	skipc
  4072  0038  283A               	goto	u2181
  4073  0039  283B               	goto	u2180
  4074  003A                     u2181:
  4075  003A  2842               	goto	l1814
  4076  003B                     u2180:
  4077  003B                     l1810:
  4078  003B  0870               	movf	___lwdiv@divisor,w
  4079  003C  02F2               	subwf	___lwdiv@dividend,f
  4080  003D  0871               	movf	___lwdiv@divisor+1,w
  4081  003E  1C03               	skipc
  4082  003F  03F3               	decf	___lwdiv@dividend+1,f
  4083  0040  02F3               	subwf	___lwdiv@dividend+1,f
  4084  0041                     l1812:
  4085  0041  1475               	bsf	___lwdiv@quotient,0
  4086  0042                     l1814:
  4087  0042  3001               	movlw	1
  4088  0043                     u2195:
  4089  0043  1003               	clrc
  4090  0044  0CF1               	rrf	___lwdiv@divisor+1,f
  4091  0045  0CF0               	rrf	___lwdiv@divisor,f
  4092  0046  3EFF               	addlw	-1
  4093  0047  1D03               	skipz
  4094  0048  2843               	goto	u2195
  4095  0049                     l1816:
  4096  0049  3001               	movlw	1
  4097  004A  02F7               	subwf	___lwdiv@counter,f
  4098  004B  1D03               	btfss	3,2
  4099  004C  284E               	goto	u2201
  4100  004D  284F               	goto	u2200
  4101  004E                     u2201:
  4102  004E  282A               	goto	l1808
  4103  004F                     u2200:
  4104  004F                     l1818:
  4105  004F  0876               	movf	___lwdiv@quotient+1,w
  4106  0050  00F1               	movwf	?___lwdiv+1
  4107  0051  0875               	movf	___lwdiv@quotient,w
  4108  0052  00F0               	movwf	?___lwdiv
  4109  0053                     l550:
  4110  0053  0008               	return
  4111  0054                     __end_of___lwdiv:
  4112                           
  4113                           	psect	text13
  4114  0844                     __ptext13:	
  4115 ;; *************** function ___xxtofl *****************
  4116 ;; Defined at:
  4117 ;;		line 10 in file "C:\Program Files\Microchip\xc8\v2.32\pic\sources\c90\common\xxtofl.c"
  4118 ;; Parameters:    Size  Location     Type
  4119 ;;  sign            1    wreg     unsigned char 
  4120 ;;  val             4    5[COMMON] long 
  4121 ;; Auto vars:     Size  Location     Type
  4122 ;;  sign            1    0[BANK0 ] unsigned char 
  4123 ;;  arg             4    2[BANK0 ] unsigned long 
  4124 ;;  exp             1    1[BANK0 ] unsigned char 
  4125 ;; Return value:  Size  Location     Type
  4126 ;;                  4    5[COMMON] unsigned char 
  4127 ;; Registers used:
  4128 ;;		wreg, status,2, status,0
  4129 ;; Tracked objects:
  4130 ;;		On entry : 0/0
  4131 ;;		On exit  : 0/0
  4132 ;;		Unchanged: 0/0
  4133 ;; Data sizes:     COMMON   BANK0   BANK1   BANK3   BANK2
  4134 ;;      Params:         4       0       0       0       0
  4135 ;;      Locals:         0       6       0       0       0
  4136 ;;      Temps:          4       0       0       0       0
  4137 ;;      Totals:         8       6       0       0       0
  4138 ;;Total ram usage:       14 bytes
  4139 ;; Hardware stack levels used: 1
  4140 ;; This function calls:
  4141 ;;		Nothing
  4142 ;; This function is called by:
  4143 ;;		_Quadra_Al
  4144 ;; This function uses a non-reentrant model
  4145 ;;
  4146                           
  4147                           
  4148                           ;psect for function ___xxtofl
  4149  0844                     ___xxtofl:
  4150                           
  4151                           ;incstack = 0
  4152                           ; Regs used in ___xxtofl: [wreg+status,2+status,0]
  4153                           ;___xxtofl@sign stored from wreg
  4154  0844  1283               	bcf	3,5	;RP0=0, select bank0
  4155  0845  1303               	bcf	3,6	;RP1=0, select bank0
  4156  0846  00A0               	movwf	___xxtofl@sign
  4157  0847                     l2490:
  4158  0847  0820               	movf	___xxtofl@sign,w
  4159  0848  1903               	btfsc	3,2
  4160  0849  284B               	goto	u3731
  4161  084A  284C               	goto	u3730
  4162  084B                     u3731:
  4163  084B  2860               	goto	l2496
  4164  084C                     u3730:
  4165  084C                     l2492:
  4166  084C  1FF8               	btfss	___xxtofl@val+3,7
  4167  084D  284F               	goto	u3741
  4168  084E  2850               	goto	u3740
  4169  084F                     u3741:
  4170  084F  2860               	goto	l2496
  4171  0850                     u3740:
  4172  0850                     l2494:
  4173  0850  0975               	comf	___xxtofl@val,w
  4174  0851  00A2               	movwf	___xxtofl@arg
  4175  0852  0976               	comf	___xxtofl@val+1,w
  4176  0853  00A3               	movwf	___xxtofl@arg+1
  4177  0854  0977               	comf	___xxtofl@val+2,w
  4178  0855  00A4               	movwf	___xxtofl@arg+2
  4179  0856  0978               	comf	___xxtofl@val+3,w
  4180  0857  00A5               	movwf	___xxtofl@arg+3
  4181  0858  0AA2               	incf	___xxtofl@arg,f
  4182  0859  1903               	skipnz
  4183  085A  0AA3               	incf	___xxtofl@arg+1,f
  4184  085B  1903               	skipnz
  4185  085C  0AA4               	incf	___xxtofl@arg+2,f
  4186  085D  1903               	skipnz
  4187  085E  0AA5               	incf	___xxtofl@arg+3,f
  4188  085F  2868               	goto	l711
  4189  0860                     l2496:
  4190  0860  0878               	movf	___xxtofl@val+3,w
  4191  0861  00A5               	movwf	___xxtofl@arg+3
  4192  0862  0877               	movf	___xxtofl@val+2,w
  4193  0863  00A4               	movwf	___xxtofl@arg+2
  4194  0864  0876               	movf	___xxtofl@val+1,w
  4195  0865  00A3               	movwf	___xxtofl@arg+1
  4196  0866  0875               	movf	___xxtofl@val,w
  4197  0867  00A2               	movwf	___xxtofl@arg
  4198  0868                     l711:
  4199  0868  0878               	movf	___xxtofl@val+3,w
  4200  0869  0477               	iorwf	___xxtofl@val+2,w
  4201  086A  0476               	iorwf	___xxtofl@val+1,w
  4202  086B  0475               	iorwf	___xxtofl@val,w
  4203  086C  1D03               	skipz
  4204  086D  286F               	goto	u3751
  4205  086E  2870               	goto	u3750
  4206  086F                     u3751:
  4207  086F  2879               	goto	l2502
  4208  0870                     u3750:
  4209  0870                     l2498:
  4210  0870  3000               	movlw	0
  4211  0871  00F8               	movwf	?___xxtofl+3
  4212  0872  3000               	movlw	0
  4213  0873  00F7               	movwf	?___xxtofl+2
  4214  0874  3000               	movlw	0
  4215  0875  00F6               	movwf	?___xxtofl+1
  4216  0876  3000               	movlw	0
  4217  0877  00F5               	movwf	?___xxtofl
  4218  0878  28FF               	goto	l713
  4219  0879                     l2502:
  4220  0879  3096               	movlw	150
  4221  087A  00F9               	movwf	??___xxtofl
  4222  087B  0879               	movf	??___xxtofl,w
  4223  087C  00A1               	movwf	___xxtofl@exp
  4224  087D  288B               	goto	l2506
  4225  087E                     l2504:
  4226  087E  3001               	movlw	1
  4227  087F  00F9               	movwf	??___xxtofl
  4228  0880  0879               	movf	??___xxtofl,w
  4229  0881  07A1               	addwf	___xxtofl@exp,f
  4230  0882  3001               	movlw	1
  4231  0883                     u3765:
  4232  0883  1003               	clrc
  4233  0884  0CA5               	rrf	___xxtofl@arg+3,f
  4234  0885  0CA4               	rrf	___xxtofl@arg+2,f
  4235  0886  0CA3               	rrf	___xxtofl@arg+1,f
  4236  0887  0CA2               	rrf	___xxtofl@arg,f
  4237  0888  3EFF               	addlw	-1
  4238  0889  1D03               	skipz
  4239  088A  2883               	goto	u3765
  4240  088B                     l2506:
  4241  088B  30FE               	movlw	254
  4242  088C  0525               	andwf	___xxtofl@arg+3,w
  4243  088D  1D03               	btfss	3,2
  4244  088E  2890               	goto	u3771
  4245  088F  2891               	goto	u3770
  4246  0890                     u3771:
  4247  0890  287E               	goto	l2504
  4248  0891                     u3770:
  4249  0891  28AD               	goto	l717
  4250  0892                     l2508:
  4251  0892  3001               	movlw	1
  4252  0893  00F9               	movwf	??___xxtofl
  4253  0894  0879               	movf	??___xxtofl,w
  4254  0895  07A1               	addwf	___xxtofl@exp,f
  4255  0896                     l2510:
  4256  0896  3001               	movlw	1
  4257  0897  07A2               	addwf	___xxtofl@arg,f
  4258  0898  3000               	movlw	0
  4259  0899  1803               	skipnc
  4260  089A  3001               	movlw	1
  4261  089B  07A3               	addwf	___xxtofl@arg+1,f
  4262  089C  3000               	movlw	0
  4263  089D  1803               	skipnc
  4264  089E  3001               	movlw	1
  4265  089F  07A4               	addwf	___xxtofl@arg+2,f
  4266  08A0  3000               	movlw	0
  4267  08A1  1803               	skipnc
  4268  08A2  3001               	movlw	1
  4269  08A3  07A5               	addwf	___xxtofl@arg+3,f
  4270  08A4                     l2512:
  4271  08A4  3001               	movlw	1
  4272  08A5                     u3785:
  4273  08A5  1003               	clrc
  4274  08A6  0CA5               	rrf	___xxtofl@arg+3,f
  4275  08A7  0CA4               	rrf	___xxtofl@arg+2,f
  4276  08A8  0CA3               	rrf	___xxtofl@arg+1,f
  4277  08A9  0CA2               	rrf	___xxtofl@arg,f
  4278  08AA  3EFF               	addlw	-1
  4279  08AB  1D03               	skipz
  4280  08AC  28A5               	goto	u3785
  4281  08AD                     l717:
  4282  08AD  30FF               	movlw	255
  4283  08AE  0525               	andwf	___xxtofl@arg+3,w
  4284  08AF  1D03               	btfss	3,2
  4285  08B0  28B2               	goto	u3791
  4286  08B1  28B3               	goto	u3790
  4287  08B2                     u3791:
  4288  08B2  2892               	goto	l2508
  4289  08B3                     u3790:
  4290  08B3  28BF               	goto	l2516
  4291  08B4                     l2514:
  4292  08B4  3001               	movlw	1
  4293  08B5  02A1               	subwf	___xxtofl@exp,f
  4294  08B6  3001               	movlw	1
  4295  08B7  00F9               	movwf	??___xxtofl
  4296  08B8                     u3805:
  4297  08B8  1003               	clrc
  4298  08B9  0DA2               	rlf	___xxtofl@arg,f
  4299  08BA  0DA3               	rlf	___xxtofl@arg+1,f
  4300  08BB  0DA4               	rlf	___xxtofl@arg+2,f
  4301  08BC  0DA5               	rlf	___xxtofl@arg+3,f
  4302  08BD  0BF9               	decfsz	??___xxtofl,f
  4303  08BE  28B8               	goto	u3805
  4304  08BF                     l2516:
  4305  08BF  1BA4               	btfsc	___xxtofl@arg+2,7
  4306  08C0  28C2               	goto	u3811
  4307  08C1  28C3               	goto	u3810
  4308  08C2                     u3811:
  4309  08C2  28C9               	goto	l724
  4310  08C3                     u3810:
  4311  08C3                     l2518:
  4312  08C3  3002               	movlw	2
  4313  08C4  0221               	subwf	___xxtofl@exp,w
  4314  08C5  1803               	skipnc
  4315  08C6  28C8               	goto	u3821
  4316  08C7  28C9               	goto	u3820
  4317  08C8                     u3821:
  4318  08C8  28B4               	goto	l2514
  4319  08C9                     u3820:
  4320  08C9                     l724:
  4321  08C9  1821               	btfsc	___xxtofl@exp,0
  4322  08CA  28CC               	goto	u3831
  4323  08CB  28CD               	goto	u3830
  4324  08CC                     u3831:
  4325  08CC  28D5               	goto	l725
  4326  08CD                     u3830:
  4327  08CD                     l2520:
  4328  08CD  30FF               	movlw	255
  4329  08CE  05A2               	andwf	___xxtofl@arg,f
  4330  08CF  30FF               	movlw	255
  4331  08D0  05A3               	andwf	___xxtofl@arg+1,f
  4332  08D1  307F               	movlw	127
  4333  08D2  05A4               	andwf	___xxtofl@arg+2,f
  4334  08D3  30FF               	movlw	255
  4335  08D4  05A5               	andwf	___xxtofl@arg+3,f
  4336  08D5                     l725:
  4337  08D5  1003               	clrc
  4338  08D6  0CA1               	rrf	___xxtofl@exp,f
  4339  08D7                     l2522:
  4340  08D7  0821               	movf	___xxtofl@exp,w
  4341  08D8  00F9               	movwf	??___xxtofl
  4342  08D9  01FA               	clrf	??___xxtofl+1
  4343  08DA  01FB               	clrf	??___xxtofl+2
  4344  08DB  01FC               	clrf	??___xxtofl+3
  4345  08DC  3018               	movlw	24
  4346  08DD                     u3845:
  4347  08DD  1003               	clrc
  4348  08DE  0DF9               	rlf	??___xxtofl,f
  4349  08DF  0DFA               	rlf	??___xxtofl+1,f
  4350  08E0  0DFB               	rlf	??___xxtofl+2,f
  4351  08E1  0DFC               	rlf	??___xxtofl+3,f
  4352  08E2                     u3840:
  4353  08E2  3EFF               	addlw	-1
  4354  08E3  1D03               	skipz
  4355  08E4  28DD               	goto	u3845
  4356  08E5  0879               	movf	??___xxtofl,w
  4357  08E6  04A2               	iorwf	___xxtofl@arg,f
  4358  08E7  087A               	movf	??___xxtofl+1,w
  4359  08E8  04A3               	iorwf	___xxtofl@arg+1,f
  4360  08E9  087B               	movf	??___xxtofl+2,w
  4361  08EA  04A4               	iorwf	___xxtofl@arg+2,f
  4362  08EB  087C               	movf	??___xxtofl+3,w
  4363  08EC  04A5               	iorwf	___xxtofl@arg+3,f
  4364  08ED                     l2524:
  4365  08ED  0820               	movf	___xxtofl@sign,w
  4366  08EE  1903               	btfsc	3,2
  4367  08EF  28F1               	goto	u3851
  4368  08F0  28F2               	goto	u3850
  4369  08F1                     u3851:
  4370  08F1  28F7               	goto	l2530
  4371  08F2                     u3850:
  4372  08F2                     l2526:
  4373  08F2  1FF8               	btfss	___xxtofl@val+3,7
  4374  08F3  28F5               	goto	u3861
  4375  08F4  28F6               	goto	u3860
  4376  08F5                     u3861:
  4377  08F5  28F7               	goto	l2530
  4378  08F6                     u3860:
  4379  08F6                     l2528:
  4380  08F6  17A5               	bsf	___xxtofl@arg+3,7
  4381  08F7                     l2530:
  4382  08F7  0825               	movf	___xxtofl@arg+3,w
  4383  08F8  00F8               	movwf	?___xxtofl+3
  4384  08F9  0824               	movf	___xxtofl@arg+2,w
  4385  08FA  00F7               	movwf	?___xxtofl+2
  4386  08FB  0823               	movf	___xxtofl@arg+1,w
  4387  08FC  00F6               	movwf	?___xxtofl+1
  4388  08FD  0822               	movf	___xxtofl@arg,w
  4389  08FE  00F5               	movwf	?___xxtofl
  4390  08FF                     l713:
  4391  08FF  0008               	return
  4392  0900                     __end_of___xxtofl:
  4393                           
  4394                           	psect	text14
  4395  1510                     __ptext14:	
  4396 ;; *************** function ___flsub *****************
  4397 ;; Defined at:
  4398 ;;		line 242 in file "C:\Program Files\Microchip\xc8\v2.32\pic\sources\c90\common\sprcadd.c"
  4399 ;; Parameters:    Size  Location     Type
  4400 ;;  a               4   34[BANK0 ] unsigned char 
  4401 ;;  b               4   38[BANK0 ] unsigned char 
  4402 ;; Auto vars:     Size  Location     Type
  4403 ;;		None
  4404 ;; Return value:  Size  Location     Type
  4405 ;;                  4   34[BANK0 ] unsigned char 
  4406 ;; Registers used:
  4407 ;;		wreg, status,2, status,0, btemp+1, pclath, cstack
  4408 ;; Tracked objects:
  4409 ;;		On entry : 0/0
  4410 ;;		On exit  : 0/0
  4411 ;;		Unchanged: 0/0
  4412 ;; Data sizes:     COMMON   BANK0   BANK1   BANK3   BANK2
  4413 ;;      Params:         0       8       0       0       0
  4414 ;;      Locals:         0       0       0       0       0
  4415 ;;      Temps:          0       0       0       0       0
  4416 ;;      Totals:         0       8       0       0       0
  4417 ;;Total ram usage:        8 bytes
  4418 ;; Hardware stack levels used: 1
  4419 ;; Hardware stack levels required when called: 1
  4420 ;; This function calls:
  4421 ;;		___fladd
  4422 ;; This function is called by:
  4423 ;;		_Quadra_Al
  4424 ;; This function uses a non-reentrant model
  4425 ;;
  4426                           
  4427                           
  4428                           ;psect for function ___flsub
  4429  1510                     ___flsub:
  4430  1510                     l2202:	
  4431                           ;incstack = 0
  4432                           ; Regs used in ___flsub: [wreg+status,2+status,0+btemp+1+pclath+cstack]
  4433                           
  4434  1510  3080               	movlw	128
  4435  1511  1283               	bcf	3,5	;RP0=0, select bank0
  4436  1512  1303               	bcf	3,6	;RP1=0, select bank0
  4437  1513  06C5               	xorwf	___flsub@a+3,f
  4438  1514                     l2204:
  4439  1514  0849               	movf	___flsub@b+3,w
  4440  1515  00F3               	movwf	___fladd@b+3
  4441  1516  0848               	movf	___flsub@b+2,w
  4442  1517  00F2               	movwf	___fladd@b+2
  4443  1518  0847               	movf	___flsub@b+1,w
  4444  1519  00F1               	movwf	___fladd@b+1
  4445  151A  0846               	movf	___flsub@b,w
  4446  151B  00F0               	movwf	___fladd@b
  4447  151C  0845               	movf	___flsub@a+3,w
  4448  151D  00F7               	movwf	___fladd@a+3
  4449  151E  0844               	movf	___flsub@a+2,w
  4450  151F  00F6               	movwf	___fladd@a+2
  4451  1520  0843               	movf	___flsub@a+1,w
  4452  1521  00F5               	movwf	___fladd@a+1
  4453  1522  0842               	movf	___flsub@a,w
  4454  1523  00F4               	movwf	___fladd@a
  4455  1524  120A  118A  2054  160A  118A  	fcall	___fladd
  4456  1529  0873               	movf	?___fladd+3,w
  4457  152A  1283               	bcf	3,5	;RP0=0, select bank0
  4458  152B  1303               	bcf	3,6	;RP1=0, select bank0
  4459  152C  00C5               	movwf	?___flsub+3
  4460  152D  0872               	movf	?___fladd+2,w
  4461  152E  00C4               	movwf	?___flsub+2
  4462  152F  0871               	movf	?___fladd+1,w
  4463  1530  00C3               	movwf	?___flsub+1
  4464  1531  0870               	movf	?___fladd,w
  4465  1532  00C2               	movwf	?___flsub
  4466  1533                     l617:
  4467  1533  0008               	return
  4468  1534                     __end_of___flsub:
  4469                           
  4470                           	psect	text15
  4471  0054                     __ptext15:	
  4472 ;; *************** function ___fladd *****************
  4473 ;; Defined at:
  4474 ;;		line 10 in file "C:\Program Files\Microchip\xc8\v2.32\pic\sources\c90\common\sprcadd.c"
  4475 ;; Parameters:    Size  Location     Type
  4476 ;;  b               4    0[COMMON] unsigned char 
  4477 ;;  a               4    4[COMMON] unsigned char 
  4478 ;; Auto vars:     Size  Location     Type
  4479 ;;  grs             1   11[COMMON] unsigned char 
  4480 ;;  bexp            1   10[COMMON] unsigned char 
  4481 ;;  aexp            1    9[COMMON] unsigned char 
  4482 ;;  signs           1    8[COMMON] unsigned char 
  4483 ;; Return value:  Size  Location     Type
  4484 ;;                  4    0[COMMON] unsigned char 
  4485 ;; Registers used:
  4486 ;;		wreg, status,2, status,0, btemp+1
  4487 ;; Tracked objects:
  4488 ;;		On entry : 0/0
  4489 ;;		On exit  : 0/0
  4490 ;;		Unchanged: 0/0
  4491 ;; Data sizes:     COMMON   BANK0   BANK1   BANK3   BANK2
  4492 ;;      Params:         8       0       0       0       0
  4493 ;;      Locals:         4       0       0       0       0
  4494 ;;      Temps:          0       8       0       0       0
  4495 ;;      Totals:        12       8       0       0       0
  4496 ;;Total ram usage:       20 bytes
  4497 ;; Hardware stack levels used: 1
  4498 ;; This function calls:
  4499 ;;		Nothing
  4500 ;; This function is called by:
  4501 ;;		_Quadra_Al
  4502 ;;		___flsub
  4503 ;; This function uses a non-reentrant model
  4504 ;;
  4505                           
  4506                           
  4507                           ;psect for function ___fladd
  4508  0054                     ___fladd:
  4509  0054                     l1844:	
  4510                           ;incstack = 0
  4511                           ; Regs used in ___fladd: [wreg+status,2+status,0+btemp+1]
  4512                           
  4513  0054  0873               	movf	___fladd@b+3,w
  4514  0055  3980               	andlw	128
  4515  0056  1283               	bcf	3,5	;RP0=0, select bank0
  4516  0057  1303               	bcf	3,6	;RP1=0, select bank0
  4517  0058  00A0               	movwf	??___fladd
  4518  0059  0820               	movf	??___fladd,w
  4519  005A  00F8               	movwf	___fladd@signs
  4520  005B                     l1846:
  4521  005B  0873               	movf	___fladd@b+3,w
  4522  005C  00A0               	movwf	??___fladd
  4523  005D  0720               	addwf	??___fladd,w
  4524  005E  00A1               	movwf	??___fladd+1
  4525  005F  0821               	movf	??___fladd+1,w
  4526  0060  00FA               	movwf	___fladd@bexp
  4527  0061                     l1848:
  4528  0061  1FF2               	btfss	___fladd@b+2,7
  4529  0062  2864               	goto	u2271
  4530  0063  2865               	goto	u2270
  4531  0064                     u2271:
  4532  0064  2866               	goto	l1852
  4533  0065                     u2270:
  4534  0065                     l1850:
  4535  0065  147A               	bsf	___fladd@bexp,0
  4536  0066                     l1852:
  4537  0066  087A               	movf	___fladd@bexp,w
  4538  0067  1903               	btfsc	3,2
  4539  0068  286A               	goto	u2281
  4540  0069  286B               	goto	u2280
  4541  006A                     u2281:
  4542  006A  287B               	goto	l1862
  4543  006B                     u2280:
  4544  006B                     l1854:
  4545  006B  0A7A               	incf	___fladd@bexp,w
  4546  006C  1D03               	btfss	3,2
  4547  006D  286F               	goto	u2291
  4548  006E  2870               	goto	u2290
  4549  006F                     u2291:
  4550  006F  2878               	goto	l1858
  4551  0070                     u2290:
  4552  0070                     l1856:
  4553  0070  3000               	movlw	0
  4554  0071  00F3               	movwf	___fladd@b+3
  4555  0072  3000               	movlw	0
  4556  0073  00F2               	movwf	___fladd@b+2
  4557  0074  3000               	movlw	0
  4558  0075  00F1               	movwf	___fladd@b+1
  4559  0076  3000               	movlw	0
  4560  0077  00F0               	movwf	___fladd@b
  4561  0078                     l1858:
  4562  0078  17F2               	bsf	___fladd@b+2,7
  4563  0079                     l1860:
  4564  0079  01F3               	clrf	___fladd@b+3
  4565  007A  2883               	goto	l1864
  4566  007B                     l1862:
  4567  007B  3000               	movlw	0
  4568  007C  00F3               	movwf	___fladd@b+3
  4569  007D  3000               	movlw	0
  4570  007E  00F2               	movwf	___fladd@b+2
  4571  007F  3000               	movlw	0
  4572  0080  00F1               	movwf	___fladd@b+1
  4573  0081  3000               	movlw	0
  4574  0082  00F0               	movwf	___fladd@b
  4575  0083                     l1864:
  4576  0083  0877               	movf	___fladd@a+3,w
  4577  0084  3980               	andlw	128
  4578  0085  00A0               	movwf	??___fladd
  4579  0086  0820               	movf	??___fladd,w
  4580  0087  00F9               	movwf	___fladd@aexp
  4581  0088                     l1866:
  4582  0088  0879               	movf	___fladd@aexp,w
  4583  0089  0678               	xorwf	___fladd@signs,w
  4584  008A  1903               	skipnz
  4585  008B  288D               	goto	u2301
  4586  008C  288E               	goto	u2300
  4587  008D                     u2301:
  4588  008D  288F               	goto	l1870
  4589  008E                     u2300:
  4590  008E                     l1868:
  4591  008E  1778               	bsf	___fladd@signs,6
  4592  008F                     l1870:
  4593  008F  0877               	movf	___fladd@a+3,w
  4594  0090  00A0               	movwf	??___fladd
  4595  0091  0720               	addwf	??___fladd,w
  4596  0092  00A1               	movwf	??___fladd+1
  4597  0093  0821               	movf	??___fladd+1,w
  4598  0094  00F9               	movwf	___fladd@aexp
  4599  0095                     l1872:
  4600  0095  1FF6               	btfss	___fladd@a+2,7
  4601  0096  2898               	goto	u2311
  4602  0097  2899               	goto	u2310
  4603  0098                     u2311:
  4604  0098  289A               	goto	l1876
  4605  0099                     u2310:
  4606  0099                     l1874:
  4607  0099  1479               	bsf	___fladd@aexp,0
  4608  009A                     l1876:
  4609  009A  0879               	movf	___fladd@aexp,w
  4610  009B  1903               	btfsc	3,2
  4611  009C  289E               	goto	u2321
  4612  009D  289F               	goto	u2320
  4613  009E                     u2321:
  4614  009E  28AF               	goto	l1886
  4615  009F                     u2320:
  4616  009F                     l1878:
  4617  009F  0A79               	incf	___fladd@aexp,w
  4618  00A0  1D03               	btfss	3,2
  4619  00A1  28A3               	goto	u2331
  4620  00A2  28A4               	goto	u2330
  4621  00A3                     u2331:
  4622  00A3  28AC               	goto	l1882
  4623  00A4                     u2330:
  4624  00A4                     l1880:
  4625  00A4  3000               	movlw	0
  4626  00A5  00F7               	movwf	___fladd@a+3
  4627  00A6  3000               	movlw	0
  4628  00A7  00F6               	movwf	___fladd@a+2
  4629  00A8  3000               	movlw	0
  4630  00A9  00F5               	movwf	___fladd@a+1
  4631  00AA  3000               	movlw	0
  4632  00AB  00F4               	movwf	___fladd@a
  4633  00AC                     l1882:
  4634  00AC  17F6               	bsf	___fladd@a+2,7
  4635  00AD                     l1884:
  4636  00AD  01F7               	clrf	___fladd@a+3
  4637  00AE  28B7               	goto	l571
  4638  00AF                     l1886:
  4639  00AF  3000               	movlw	0
  4640  00B0  00F7               	movwf	___fladd@a+3
  4641  00B1  3000               	movlw	0
  4642  00B2  00F6               	movwf	___fladd@a+2
  4643  00B3  3000               	movlw	0
  4644  00B4  00F5               	movwf	___fladd@a+1
  4645  00B5  3000               	movlw	0
  4646  00B6  00F4               	movwf	___fladd@a
  4647  00B7                     l571:
  4648  00B7  087A               	movf	___fladd@bexp,w
  4649  00B8  0279               	subwf	___fladd@aexp,w
  4650  00B9  1803               	skipnc
  4651  00BA  28BC               	goto	u2341
  4652  00BB  28BD               	goto	u2340
  4653  00BC                     u2341:
  4654  00BC  2901               	goto	l1922
  4655  00BD                     u2340:
  4656  00BD                     l1888:
  4657  00BD  1F78               	btfss	___fladd@signs,6
  4658  00BE  28C0               	goto	u2351
  4659  00BF  28C1               	goto	u2350
  4660  00C0                     u2351:
  4661  00C0  28C5               	goto	l1892
  4662  00C1                     u2350:
  4663  00C1                     l1890:
  4664  00C1  3080               	movlw	128
  4665  00C2  00A0               	movwf	??___fladd
  4666  00C3  0820               	movf	??___fladd,w
  4667  00C4  06F8               	xorwf	___fladd@signs,f
  4668  00C5                     l1892:
  4669  00C5  087A               	movf	___fladd@bexp,w
  4670  00C6  00A0               	movwf	??___fladd
  4671  00C7  0820               	movf	??___fladd,w
  4672  00C8  00FB               	movwf	___fladd@grs
  4673  00C9                     l1894:
  4674  00C9  0879               	movf	___fladd@aexp,w
  4675  00CA  00A0               	movwf	??___fladd
  4676  00CB  0820               	movf	??___fladd,w
  4677  00CC  00FA               	movwf	___fladd@bexp
  4678  00CD                     l1896:
  4679  00CD  087B               	movf	___fladd@grs,w
  4680  00CE  00A0               	movwf	??___fladd
  4681  00CF  0820               	movf	??___fladd,w
  4682  00D0  00F9               	movwf	___fladd@aexp
  4683  00D1                     l1898:
  4684  00D1  0870               	movf	___fladd@b,w
  4685  00D2  00A0               	movwf	??___fladd
  4686  00D3  0820               	movf	??___fladd,w
  4687  00D4  00FB               	movwf	___fladd@grs
  4688  00D5                     l1900:
  4689  00D5  0874               	movf	___fladd@a,w
  4690  00D6  00A0               	movwf	??___fladd
  4691  00D7  0820               	movf	??___fladd,w
  4692  00D8  00F0               	movwf	___fladd@b
  4693  00D9                     l1902:
  4694  00D9  087B               	movf	___fladd@grs,w
  4695  00DA  00A0               	movwf	??___fladd
  4696  00DB  0820               	movf	??___fladd,w
  4697  00DC  00F4               	movwf	___fladd@a
  4698  00DD                     l1904:
  4699  00DD  0871               	movf	___fladd@b+1,w
  4700  00DE  00A0               	movwf	??___fladd
  4701  00DF  0820               	movf	??___fladd,w
  4702  00E0  00FB               	movwf	___fladd@grs
  4703  00E1                     l1906:
  4704  00E1  0875               	movf	___fladd@a+1,w
  4705  00E2  00A0               	movwf	??___fladd
  4706  00E3  0820               	movf	??___fladd,w
  4707  00E4  00F1               	movwf	___fladd@b+1
  4708  00E5                     l1908:
  4709  00E5  087B               	movf	___fladd@grs,w
  4710  00E6  00A0               	movwf	??___fladd
  4711  00E7  0820               	movf	??___fladd,w
  4712  00E8  00F5               	movwf	___fladd@a+1
  4713  00E9                     l1910:
  4714  00E9  0872               	movf	___fladd@b+2,w
  4715  00EA  00A0               	movwf	??___fladd
  4716  00EB  0820               	movf	??___fladd,w
  4717  00EC  00FB               	movwf	___fladd@grs
  4718  00ED                     l1912:
  4719  00ED  0876               	movf	___fladd@a+2,w
  4720  00EE  00A0               	movwf	??___fladd
  4721  00EF  0820               	movf	??___fladd,w
  4722  00F0  00F2               	movwf	___fladd@b+2
  4723  00F1                     l1914:
  4724  00F1  087B               	movf	___fladd@grs,w
  4725  00F2  00A0               	movwf	??___fladd
  4726  00F3  0820               	movf	??___fladd,w
  4727  00F4  00F6               	movwf	___fladd@a+2
  4728  00F5                     l1916:
  4729  00F5  0873               	movf	___fladd@b+3,w
  4730  00F6  00A0               	movwf	??___fladd
  4731  00F7  0820               	movf	??___fladd,w
  4732  00F8  00FB               	movwf	___fladd@grs
  4733  00F9                     l1918:
  4734  00F9  0877               	movf	___fladd@a+3,w
  4735  00FA  00A0               	movwf	??___fladd
  4736  00FB  0820               	movf	??___fladd,w
  4737  00FC  00F3               	movwf	___fladd@b+3
  4738  00FD                     l1920:
  4739  00FD  087B               	movf	___fladd@grs,w
  4740  00FE  00A0               	movwf	??___fladd
  4741  00FF  0820               	movf	??___fladd,w
  4742  0100  00F7               	movwf	___fladd@a+3
  4743  0101                     l1922:
  4744  0101  01FB               	clrf	___fladd@grs
  4745  0102                     l1924:
  4746  0102  0879               	movf	___fladd@aexp,w
  4747  0103  00A0               	movwf	??___fladd
  4748  0104  01A1               	clrf	??___fladd+1
  4749  0105  0821               	movf	??___fladd+1,w
  4750  0106  00A3               	movwf	??___fladd+3
  4751  0107  087A               	movf	___fladd@bexp,w
  4752  0108  0220               	subwf	??___fladd,w
  4753  0109  00A2               	movwf	??___fladd+2
  4754  010A  1C03               	skipc
  4755  010B  03A3               	decf	??___fladd+3,f
  4756  010C  0823               	movf	??___fladd+3,w
  4757  010D  3A80               	xorlw	128
  4758  010E  00FF               	movwf	btemp+1
  4759  010F  3080               	movlw	128
  4760  0110  027F               	subwf	btemp+1,w
  4761  0111  1D03               	skipz
  4762  0112  2915               	goto	u2365
  4763  0113  301A               	movlw	26
  4764  0114  0222               	subwf	??___fladd+2,w
  4765  0115                     u2365:
  4766  0115  1C03               	skipc
  4767  0116  2918               	goto	u2361
  4768  0117  2919               	goto	u2360
  4769  0118                     u2361:
  4770  0118  295A               	goto	l1940
  4771  0119                     u2360:
  4772  0119                     l1926:
  4773  0119  0873               	movf	___fladd@b+3,w
  4774  011A  0472               	iorwf	___fladd@b+2,w
  4775  011B  0471               	iorwf	___fladd@b+1,w
  4776  011C  0470               	iorwf	___fladd@b,w
  4777  011D  1D03               	skipz
  4778  011E  2920               	goto	u2371
  4779  011F  2922               	goto	u2370
  4780  0120                     u2371:
  4781  0120  3001               	movlw	1
  4782  0121  2923               	goto	u2380
  4783  0122                     u2370:
  4784  0122  3000               	movlw	0
  4785  0123                     u2380:
  4786  0123  1283               	bcf	3,5	;RP0=0, select bank0
  4787  0124  1303               	bcf	3,6	;RP1=0, select bank0
  4788  0125  00A0               	movwf	??___fladd
  4789  0126  0820               	movf	??___fladd,w
  4790  0127  00FB               	movwf	___fladd@grs
  4791  0128  3000               	movlw	0
  4792  0129  00F3               	movwf	___fladd@b+3
  4793  012A  3000               	movlw	0
  4794  012B  00F2               	movwf	___fladd@b+2
  4795  012C  3000               	movlw	0
  4796  012D  00F1               	movwf	___fladd@b+1
  4797  012E  3000               	movlw	0
  4798  012F  00F0               	movwf	___fladd@b
  4799  0130  0879               	movf	___fladd@aexp,w
  4800  0131  00A0               	movwf	??___fladd
  4801  0132  0820               	movf	??___fladd,w
  4802  0133  00FA               	movwf	___fladd@bexp
  4803  0134  2960               	goto	l575
  4804  0135                     l577:
  4805  0135  1C7B               	btfss	___fladd@grs,0
  4806  0136  2938               	goto	u2391
  4807  0137  2939               	goto	u2390
  4808  0138                     u2391:
  4809  0138  2944               	goto	l1930
  4810  0139                     u2390:
  4811  0139                     l1928:
  4812  0139  087B               	movf	___fladd@grs,w
  4813  013A  1283               	bcf	3,5	;RP0=0, select bank0
  4814  013B  1303               	bcf	3,6	;RP1=0, select bank0
  4815  013C  00A0               	movwf	??___fladd
  4816  013D  1003               	clrc
  4817  013E  0C20               	rrf	??___fladd,w
  4818  013F  3801               	iorlw	1
  4819  0140  00A1               	movwf	??___fladd+1
  4820  0141  0821               	movf	??___fladd+1,w
  4821  0142  00FB               	movwf	___fladd@grs
  4822  0143  2946               	goto	l1932
  4823  0144                     l1930:
  4824  0144  1003               	clrc
  4825  0145  0CFB               	rrf	___fladd@grs,f
  4826  0146                     l1932:
  4827  0146  1C70               	btfss	___fladd@b,0
  4828  0147  2949               	goto	u2401
  4829  0148  294A               	goto	u2400
  4830  0149                     u2401:
  4831  0149  294B               	goto	l1936
  4832  014A                     u2400:
  4833  014A                     l1934:
  4834  014A  17FB               	bsf	___fladd@grs,7
  4835  014B                     l1936:
  4836  014B  3001               	movlw	1
  4837  014C  1283               	bcf	3,5	;RP0=0, select bank0
  4838  014D  1303               	bcf	3,6	;RP1=0, select bank0
  4839  014E  00A0               	movwf	??___fladd
  4840  014F                     u2415:
  4841  014F  0D73               	rlf	___fladd@b+3,w
  4842  0150  0CF3               	rrf	___fladd@b+3,f
  4843  0151  0CF2               	rrf	___fladd@b+2,f
  4844  0152  0CF1               	rrf	___fladd@b+1,f
  4845  0153  0CF0               	rrf	___fladd@b,f
  4846  0154  0BA0               	decfsz	??___fladd& (0+127),f
  4847  0155  294F               	goto	u2415
  4848  0156                     l1938:
  4849  0156  3001               	movlw	1
  4850  0157  00A0               	movwf	??___fladd
  4851  0158  0820               	movf	??___fladd,w
  4852  0159  07FA               	addwf	___fladd@bexp,f
  4853  015A                     l1940:
  4854  015A  0879               	movf	___fladd@aexp,w
  4855  015B  027A               	subwf	___fladd@bexp,w
  4856  015C  1C03               	skipc
  4857  015D  295F               	goto	u2421
  4858  015E  2960               	goto	u2420
  4859  015F                     u2421:
  4860  015F  2935               	goto	l577
  4861  0160                     u2420:
  4862  0160                     l575:
  4863  0160  1B78               	btfsc	___fladd@signs,6
  4864  0161  2963               	goto	u2431
  4865  0162  2964               	goto	u2430
  4866  0163                     u2431:
  4867  0163  29B3               	goto	l1966
  4868  0164                     u2430:
  4869  0164                     l1942:
  4870  0164  087A               	movf	___fladd@bexp,w
  4871  0165  1D03               	btfss	3,2
  4872  0166  2968               	goto	u2441
  4873  0167  2969               	goto	u2440
  4874  0168                     u2441:
  4875  0168  2972               	goto	l1948
  4876  0169                     u2440:
  4877  0169                     l1944:
  4878  0169  3000               	movlw	0
  4879  016A  00F3               	movwf	?___fladd+3
  4880  016B  3000               	movlw	0
  4881  016C  00F2               	movwf	?___fladd+2
  4882  016D  3000               	movlw	0
  4883  016E  00F1               	movwf	?___fladd+1
  4884  016F  3000               	movlw	0
  4885  0170  00F0               	movwf	?___fladd
  4886  0171  2AEB               	goto	l584
  4887  0172                     l1948:
  4888  0172  0874               	movf	___fladd@a,w
  4889  0173  07F0               	addwf	___fladd@b,f
  4890  0174  0875               	movf	___fladd@a+1,w
  4891  0175  1103               	clrz
  4892  0176  1803               	skipnc
  4893  0177  3E01               	addlw	1
  4894  0178  1903               	skipnz
  4895  0179  297B               	goto	u2451
  4896  017A  07F1               	addwf	___fladd@b+1,f
  4897  017B                     u2451:
  4898  017B  0876               	movf	___fladd@a+2,w
  4899  017C  1103               	clrz
  4900  017D  1803               	skipnc
  4901  017E  3E01               	addlw	1
  4902  017F  1903               	skipnz
  4903  0180  2982               	goto	u2452
  4904  0181  07F2               	addwf	___fladd@b+2,f
  4905  0182                     u2452:
  4906  0182  0877               	movf	___fladd@a+3,w
  4907  0183  1103               	clrz
  4908  0184  1803               	skipnc
  4909  0185  3E01               	addlw	1
  4910  0186  1903               	skipnz
  4911  0187  2989               	goto	u2453
  4912  0188  07F3               	addwf	___fladd@b+3,f
  4913  0189                     u2453:
  4914  0189                     l1950:
  4915  0189  1C73               	btfss	___fladd@b+3,0
  4916  018A  298C               	goto	u2461
  4917  018B  298D               	goto	u2460
  4918  018C                     u2461:
  4919  018C  2A6B               	goto	l2000
  4920  018D                     u2460:
  4921  018D                     l1952:
  4922  018D  1C7B               	btfss	___fladd@grs,0
  4923  018E  2990               	goto	u2471
  4924  018F  2991               	goto	u2470
  4925  0190                     u2471:
  4926  0190  299C               	goto	l1956
  4927  0191                     u2470:
  4928  0191                     l1954:
  4929  0191  087B               	movf	___fladd@grs,w
  4930  0192  1283               	bcf	3,5	;RP0=0, select bank0
  4931  0193  1303               	bcf	3,6	;RP1=0, select bank0
  4932  0194  00A0               	movwf	??___fladd
  4933  0195  1003               	clrc
  4934  0196  0C20               	rrf	??___fladd,w
  4935  0197  3801               	iorlw	1
  4936  0198  00A1               	movwf	??___fladd+1
  4937  0199  0821               	movf	??___fladd+1,w
  4938  019A  00FB               	movwf	___fladd@grs
  4939  019B  299E               	goto	l1958
  4940  019C                     l1956:
  4941  019C  1003               	clrc
  4942  019D  0CFB               	rrf	___fladd@grs,f
  4943  019E                     l1958:
  4944  019E  1C70               	btfss	___fladd@b,0
  4945  019F  29A1               	goto	u2481
  4946  01A0  29A2               	goto	u2480
  4947  01A1                     u2481:
  4948  01A1  29A3               	goto	l1962
  4949  01A2                     u2480:
  4950  01A2                     l1960:
  4951  01A2  17FB               	bsf	___fladd@grs,7
  4952  01A3                     l1962:
  4953  01A3  3001               	movlw	1
  4954  01A4  1283               	bcf	3,5	;RP0=0, select bank0
  4955  01A5  1303               	bcf	3,6	;RP1=0, select bank0
  4956  01A6  00A0               	movwf	??___fladd
  4957  01A7                     u2495:
  4958  01A7  0D73               	rlf	___fladd@b+3,w
  4959  01A8  0CF3               	rrf	___fladd@b+3,f
  4960  01A9  0CF2               	rrf	___fladd@b+2,f
  4961  01AA  0CF1               	rrf	___fladd@b+1,f
  4962  01AB  0CF0               	rrf	___fladd@b,f
  4963  01AC  0BA0               	decfsz	??___fladd& (0+127),f
  4964  01AD  29A7               	goto	u2495
  4965  01AE                     l1964:
  4966  01AE  3001               	movlw	1
  4967  01AF  00A0               	movwf	??___fladd
  4968  01B0  0820               	movf	??___fladd,w
  4969  01B1  07FA               	addwf	___fladd@bexp,f
  4970  01B2  2A6B               	goto	l2000
  4971  01B3                     l1966:
  4972  01B3  0873               	movf	___fladd@b+3,w
  4973  01B4  3A80               	xorlw	128
  4974  01B5  00FF               	movwf	btemp+1
  4975  01B6  0877               	movf	___fladd@a+3,w
  4976  01B7  3A80               	xorlw	128
  4977  01B8  027F               	subwf	btemp+1,w
  4978  01B9  1D03               	skipz
  4979  01BA  29C5               	goto	u2503
  4980  01BB  0876               	movf	___fladd@a+2,w
  4981  01BC  0272               	subwf	___fladd@b+2,w
  4982  01BD  1D03               	skipz
  4983  01BE  29C5               	goto	u2503
  4984  01BF  0875               	movf	___fladd@a+1,w
  4985  01C0  0271               	subwf	___fladd@b+1,w
  4986  01C1  1D03               	skipz
  4987  01C2  29C5               	goto	u2503
  4988  01C3  0874               	movf	___fladd@a,w
  4989  01C4  0270               	subwf	___fladd@b,w
  4990  01C5                     u2503:
  4991  01C5  1803               	skipnc
  4992  01C6  29C8               	goto	u2501
  4993  01C7  29C9               	goto	u2500
  4994  01C8                     u2501:
  4995  01C8  2A23               	goto	l1976
  4996  01C9                     u2500:
  4997  01C9                     l1968:
  4998  01C9  30FF               	movlw	255
  4999  01CA  1283               	bcf	3,5	;RP0=0, select bank0
  5000  01CB  1303               	bcf	3,6	;RP1=0, select bank0
  5001  01CC  00A0               	movwf	??___fladd
  5002  01CD  30FF               	movlw	255
  5003  01CE  00A1               	movwf	??___fladd+1
  5004  01CF  30FF               	movlw	255
  5005  01D0  00A2               	movwf	??___fladd+2
  5006  01D1  30FF               	movlw	255
  5007  01D2  00A3               	movwf	??___fladd+3
  5008  01D3  0874               	movf	___fladd@a,w
  5009  01D4  00A4               	movwf	??___fladd+4
  5010  01D5  0875               	movf	___fladd@a+1,w
  5011  01D6  00A5               	movwf	??___fladd+5
  5012  01D7  0876               	movf	___fladd@a+2,w
  5013  01D8  00A6               	movwf	??___fladd+6
  5014  01D9  0877               	movf	___fladd@a+3,w
  5015  01DA  00A7               	movwf	??___fladd+7
  5016  01DB  0870               	movf	___fladd@b,w
  5017  01DC  02A4               	subwf	??___fladd+4,f
  5018  01DD  0871               	movf	___fladd@b+1,w
  5019  01DE  1C03               	skipc
  5020  01DF  0F71               	incfsz	___fladd@b+1,w
  5021  01E0  29E2               	goto	u2511
  5022  01E1  29E3               	goto	u2512
  5023  01E2                     u2511:
  5024  01E2  02A5               	subwf	??___fladd+5,f
  5025  01E3                     u2512:
  5026  01E3  0872               	movf	___fladd@b+2,w
  5027  01E4  1C03               	skipc
  5028  01E5  0F72               	incfsz	___fladd@b+2,w
  5029  01E6  29E8               	goto	u2513
  5030  01E7  29E9               	goto	u2514
  5031  01E8                     u2513:
  5032  01E8  02A6               	subwf	??___fladd+6,f
  5033  01E9                     u2514:
  5034  01E9  0873               	movf	___fladd@b+3,w
  5035  01EA  1C03               	skipc
  5036  01EB  0F73               	incfsz	___fladd@b+3,w
  5037  01EC  29EE               	goto	u2515
  5038  01ED  29EF               	goto	u2516
  5039  01EE                     u2515:
  5040  01EE  02A7               	subwf	??___fladd+7,f
  5041  01EF                     u2516:
  5042  01EF  0824               	movf	??___fladd+4,w
  5043  01F0  07A0               	addwf	??___fladd,f
  5044  01F1  0825               	movf	??___fladd+5,w
  5045  01F2  1803               	skipnc
  5046  01F3  0F25               	incfsz	??___fladd+5,w
  5047  01F4  29F6               	goto	u2520
  5048  01F5  29F7               	goto	u2521
  5049  01F6                     u2520:
  5050  01F6  07A1               	addwf	??___fladd+1,f
  5051  01F7                     u2521:
  5052  01F7  0826               	movf	??___fladd+6,w
  5053  01F8  1803               	skipnc
  5054  01F9  0F26               	incfsz	??___fladd+6,w
  5055  01FA  29FC               	goto	u2522
  5056  01FB  29FD               	goto	u2523
  5057  01FC                     u2522:
  5058  01FC  07A2               	addwf	??___fladd+2,f
  5059  01FD                     u2523:
  5060  01FD  0827               	movf	??___fladd+7,w
  5061  01FE  1803               	skipnc
  5062  01FF  0A27               	incf	??___fladd+7,w
  5063  0200  07A3               	addwf	??___fladd+3,f
  5064  0201  0823               	movf	??___fladd+3,w
  5065  0202  00F3               	movwf	___fladd@b+3
  5066  0203  0822               	movf	??___fladd+2,w
  5067  0204  00F2               	movwf	___fladd@b+2
  5068  0205  0821               	movf	??___fladd+1,w
  5069  0206  00F1               	movwf	___fladd@b+1
  5070  0207  0820               	movf	??___fladd,w
  5071  0208  00F0               	movwf	___fladd@b
  5072  0209                     l1970:
  5073  0209  3080               	movlw	128
  5074  020A  00A0               	movwf	??___fladd
  5075  020B  0820               	movf	??___fladd,w
  5076  020C  06F8               	xorwf	___fladd@signs,f
  5077  020D  09FB               	comf	___fladd@grs,f
  5078  020E  0AFB               	incf	___fladd@grs,f
  5079  020F                     l1972:
  5080  020F  087B               	movf	___fladd@grs,w
  5081  0210  1D03               	btfss	3,2
  5082  0211  2A13               	goto	u2531
  5083  0212  2A14               	goto	u2530
  5084  0213                     u2531:
  5085  0213  2A31               	goto	l592
  5086  0214                     u2530:
  5087  0214                     l1974:
  5088  0214  3001               	movlw	1
  5089  0215  07F0               	addwf	___fladd@b,f
  5090  0216  3000               	movlw	0
  5091  0217  1803               	skipnc
  5092  0218  3001               	movlw	1
  5093  0219  07F1               	addwf	___fladd@b+1,f
  5094  021A  3000               	movlw	0
  5095  021B  1803               	skipnc
  5096  021C  3001               	movlw	1
  5097  021D  07F2               	addwf	___fladd@b+2,f
  5098  021E  3000               	movlw	0
  5099  021F  1803               	skipnc
  5100  0220  3001               	movlw	1
  5101  0221  07F3               	addwf	___fladd@b+3,f
  5102  0222  2A31               	goto	l592
  5103  0223                     l1976:
  5104  0223  0874               	movf	___fladd@a,w
  5105  0224  02F0               	subwf	___fladd@b,f
  5106  0225  0875               	movf	___fladd@a+1,w
  5107  0226  1C03               	skipc
  5108  0227  0F75               	incfsz	___fladd@a+1,w
  5109  0228  02F1               	subwf	___fladd@b+1,f
  5110  0229  0876               	movf	___fladd@a+2,w
  5111  022A  1C03               	skipc
  5112  022B  0F76               	incfsz	___fladd@a+2,w
  5113  022C  02F2               	subwf	___fladd@b+2,f
  5114  022D  0877               	movf	___fladd@a+3,w
  5115  022E  1C03               	skipc
  5116  022F  0F77               	incfsz	___fladd@a+3,w
  5117  0230  02F3               	subwf	___fladd@b+3,f
  5118  0231                     l592:
  5119  0231  0873               	movf	___fladd@b+3,w
  5120  0232  0472               	iorwf	___fladd@b+2,w
  5121  0233  0471               	iorwf	___fladd@b+1,w
  5122  0234  0470               	iorwf	___fladd@b,w
  5123  0235  1D03               	skipz
  5124  0236  2A38               	goto	u2541
  5125  0237  2A39               	goto	u2540
  5126  0238                     u2541:
  5127  0238  2A67               	goto	l1998
  5128  0239                     u2540:
  5129  0239                     l1978:
  5130  0239  087B               	movf	___fladd@grs,w
  5131  023A  1D03               	btfss	3,2
  5132  023B  2A3D               	goto	u2551
  5133  023C  2A3E               	goto	u2550
  5134  023D                     u2551:
  5135  023D  2A67               	goto	l1998
  5136  023E                     u2550:
  5137  023E                     l1980:
  5138  023E  3000               	movlw	0
  5139  023F  00F3               	movwf	?___fladd+3
  5140  0240  3000               	movlw	0
  5141  0241  00F2               	movwf	?___fladd+2
  5142  0242  3000               	movlw	0
  5143  0243  00F1               	movwf	?___fladd+1
  5144  0244  3000               	movlw	0
  5145  0245  00F0               	movwf	?___fladd
  5146  0246  2AEB               	goto	l584
  5147  0247                     l1984:
  5148  0247  3001               	movlw	1
  5149  0248  1283               	bcf	3,5	;RP0=0, select bank0
  5150  0249  1303               	bcf	3,6	;RP1=0, select bank0
  5151  024A  00A0               	movwf	??___fladd
  5152  024B                     u2565:
  5153  024B  1003               	clrc
  5154  024C  0DF0               	rlf	___fladd@b,f
  5155  024D  0DF1               	rlf	___fladd@b+1,f
  5156  024E  0DF2               	rlf	___fladd@b+2,f
  5157  024F  0DF3               	rlf	___fladd@b+3,f
  5158  0250  0BA0               	decfsz	??___fladd,f
  5159  0251  2A4B               	goto	u2565
  5160  0252                     l1986:
  5161  0252  1FFB               	btfss	___fladd@grs,7
  5162  0253  2A55               	goto	u2571
  5163  0254  2A56               	goto	u2570
  5164  0255                     u2571:
  5165  0255  2A57               	goto	l596
  5166  0256                     u2570:
  5167  0256                     l1988:
  5168  0256  1470               	bsf	___fladd@b,0
  5169  0257                     l596:
  5170  0257  1C7B               	btfss	___fladd@grs,0
  5171  0258  2A5A               	goto	u2581
  5172  0259  2A5B               	goto	u2580
  5173  025A                     u2581:
  5174  025A  2A5E               	goto	l1992
  5175  025B                     u2580:
  5176  025B                     l1990:
  5177  025B  1403               	setc
  5178  025C  0DFB               	rlf	___fladd@grs,f
  5179  025D  2A60               	goto	l1994
  5180  025E                     l1992:
  5181  025E  1003               	clrc
  5182  025F  0DFB               	rlf	___fladd@grs,f
  5183  0260                     l1994:
  5184  0260  087A               	movf	___fladd@bexp,w
  5185  0261  1903               	btfsc	3,2
  5186  0262  2A64               	goto	u2591
  5187  0263  2A65               	goto	u2590
  5188  0264                     u2591:
  5189  0264  2A67               	goto	l1998
  5190  0265                     u2590:
  5191  0265                     l1996:
  5192  0265  3001               	movlw	1
  5193  0266  02FA               	subwf	___fladd@bexp,f
  5194  0267                     l1998:
  5195  0267  1FF2               	btfss	___fladd@b+2,7
  5196  0268  2A6A               	goto	u2601
  5197  0269  2A6B               	goto	u2600
  5198  026A                     u2601:
  5199  026A  2A47               	goto	l1984
  5200  026B                     u2600:
  5201  026B                     l2000:
  5202  026B  01F9               	clrf	___fladd@aexp
  5203  026C                     l2002:
  5204  026C  1FFB               	btfss	___fladd@grs,7
  5205  026D  2A6F               	goto	u2611
  5206  026E  2A70               	goto	u2610
  5207  026F                     u2611:
  5208  026F  2A7E               	goto	l2010
  5209  0270                     u2610:
  5210  0270                     l2004:
  5211  0270  087B               	movf	___fladd@grs,w
  5212  0271  397F               	andlw	127
  5213  0272  1903               	btfsc	3,2
  5214  0273  2A75               	goto	u2621
  5215  0274  2A76               	goto	u2620
  5216  0275                     u2621:
  5217  0275  2A79               	goto	l602
  5218  0276                     u2620:
  5219  0276                     l2006:
  5220  0276  01F9               	clrf	___fladd@aexp
  5221  0277  0AF9               	incf	___fladd@aexp,f
  5222  0278  2A7E               	goto	l2010
  5223  0279                     l602:
  5224  0279  1C70               	btfss	___fladd@b,0
  5225  027A  2A7C               	goto	u2631
  5226  027B  2A7D               	goto	u2630
  5227  027C                     u2631:
  5228  027C  2A7E               	goto	l2010
  5229  027D                     u2630:
  5230  027D  2A76               	goto	l2006
  5231  027E                     l2010:
  5232  027E  0879               	movf	___fladd@aexp,w
  5233  027F  1903               	btfsc	3,2
  5234  0280  2A82               	goto	u2641
  5235  0281  2A83               	goto	u2640
  5236  0282                     u2641:
  5237  0282  2AB9               	goto	l605
  5238  0283                     u2640:
  5239  0283                     l2012:
  5240  0283  3001               	movlw	1
  5241  0284  07F0               	addwf	___fladd@b,f
  5242  0285  3000               	movlw	0
  5243  0286  1803               	skipnc
  5244  0287  3001               	movlw	1
  5245  0288  07F1               	addwf	___fladd@b+1,f
  5246  0289  3000               	movlw	0
  5247  028A  1803               	skipnc
  5248  028B  3001               	movlw	1
  5249  028C  07F2               	addwf	___fladd@b+2,f
  5250  028D  3000               	movlw	0
  5251  028E  1803               	skipnc
  5252  028F  3001               	movlw	1
  5253  0290  07F3               	addwf	___fladd@b+3,f
  5254  0291                     l2014:
  5255  0291  1C73               	btfss	___fladd@b+3,0
  5256  0292  2A94               	goto	u2651
  5257  0293  2A95               	goto	u2650
  5258  0294                     u2651:
  5259  0294  2AB9               	goto	l605
  5260  0295                     u2650:
  5261  0295                     l2016:
  5262  0295  0870               	movf	___fladd@b,w
  5263  0296  1283               	bcf	3,5	;RP0=0, select bank0
  5264  0297  1303               	bcf	3,6	;RP1=0, select bank0
  5265  0298  00A0               	movwf	??___fladd
  5266  0299  0871               	movf	___fladd@b+1,w
  5267  029A  00A1               	movwf	??___fladd+1
  5268  029B  0872               	movf	___fladd@b+2,w
  5269  029C  00A2               	movwf	??___fladd+2
  5270  029D  0873               	movf	___fladd@b+3,w
  5271  029E  00A3               	movwf	??___fladd+3
  5272  029F  3001               	movlw	1
  5273  02A0  00A4               	movwf	??___fladd+4
  5274  02A1                     u2665:
  5275  02A1  0D23               	rlf	??___fladd+3,w
  5276  02A2  0CA3               	rrf	??___fladd+3,f
  5277  02A3  0CA2               	rrf	??___fladd+2,f
  5278  02A4  0CA1               	rrf	??___fladd+1,f
  5279  02A5  0CA0               	rrf	??___fladd,f
  5280  02A6                     u2660:
  5281  02A6  0BA4               	decfsz	??___fladd+4,f
  5282  02A7  2AA1               	goto	u2665
  5283  02A8  0823               	movf	??___fladd+3,w
  5284  02A9  00F3               	movwf	___fladd@b+3
  5285  02AA  0822               	movf	??___fladd+2,w
  5286  02AB  00F2               	movwf	___fladd@b+2
  5287  02AC  0821               	movf	??___fladd+1,w
  5288  02AD  00F1               	movwf	___fladd@b+1
  5289  02AE  0820               	movf	??___fladd,w
  5290  02AF  00F0               	movwf	___fladd@b
  5291  02B0  0A7A               	incf	___fladd@bexp,w
  5292  02B1  1903               	btfsc	3,2
  5293  02B2  2AB4               	goto	u2671
  5294  02B3  2AB5               	goto	u2670
  5295  02B4                     u2671:
  5296  02B4  2AB9               	goto	l605
  5297  02B5                     u2670:
  5298  02B5                     l2018:
  5299  02B5  3001               	movlw	1
  5300  02B6  00A0               	movwf	??___fladd
  5301  02B7  0820               	movf	??___fladd,w
  5302  02B8  07FA               	addwf	___fladd@bexp,f
  5303  02B9                     l605:
  5304  02B9  0A7A               	incf	___fladd@bexp,w
  5305  02BA  1903               	btfsc	3,2
  5306  02BB  2ABD               	goto	u2681
  5307  02BC  2ABE               	goto	u2680
  5308  02BD                     u2681:
  5309  02BD  2AC3               	goto	l2022
  5310  02BE                     u2680:
  5311  02BE                     l2020:
  5312  02BE  087A               	movf	___fladd@bexp,w
  5313  02BF  1D03               	btfss	3,2
  5314  02C0  2AC2               	goto	u2691
  5315  02C1  2AC3               	goto	u2690
  5316  02C2                     u2691:
  5317  02C2  2AD1               	goto	l2028
  5318  02C3                     u2690:
  5319  02C3                     l2022:
  5320  02C3  3000               	movlw	0
  5321  02C4  00F3               	movwf	___fladd@b+3
  5322  02C5  3000               	movlw	0
  5323  02C6  00F2               	movwf	___fladd@b+2
  5324  02C7  3000               	movlw	0
  5325  02C8  00F1               	movwf	___fladd@b+1
  5326  02C9  3000               	movlw	0
  5327  02CA  00F0               	movwf	___fladd@b
  5328  02CB                     l2024:
  5329  02CB  087A               	movf	___fladd@bexp,w
  5330  02CC  1D03               	btfss	3,2
  5331  02CD  2ACF               	goto	u2701
  5332  02CE  2AD0               	goto	u2700
  5333  02CF                     u2701:
  5334  02CF  2AD1               	goto	l2028
  5335  02D0                     u2700:
  5336  02D0                     l2026:
  5337  02D0  01F8               	clrf	___fladd@signs
  5338  02D1                     l2028:
  5339  02D1  1C7A               	btfss	___fladd@bexp,0
  5340  02D2  2AD4               	goto	u2711
  5341  02D3  2AD5               	goto	u2710
  5342  02D4                     u2711:
  5343  02D4  2AD7               	goto	l2032
  5344  02D5                     u2710:
  5345  02D5                     l2030:
  5346  02D5  17F2               	bsf	___fladd@b+2,7
  5347  02D6  2ADD               	goto	l613
  5348  02D7                     l2032:
  5349  02D7  307F               	movlw	127
  5350  02D8  1283               	bcf	3,5	;RP0=0, select bank0
  5351  02D9  1303               	bcf	3,6	;RP1=0, select bank0
  5352  02DA  00A0               	movwf	??___fladd
  5353  02DB  0820               	movf	??___fladd,w
  5354  02DC  05F2               	andwf	___fladd@b+2,f
  5355  02DD                     l613:
  5356  02DD  087A               	movf	___fladd@bexp,w
  5357  02DE  1283               	bcf	3,5	;RP0=0, select bank0
  5358  02DF  1303               	bcf	3,6	;RP1=0, select bank0
  5359  02E0  00A0               	movwf	??___fladd
  5360  02E1  1003               	clrc
  5361  02E2  0C20               	rrf	??___fladd,w
  5362  02E3  00A1               	movwf	??___fladd+1
  5363  02E4  0821               	movf	??___fladd+1,w
  5364  02E5  00F3               	movwf	___fladd@b+3
  5365  02E6                     l2034:
  5366  02E6  1FF8               	btfss	___fladd@signs,7
  5367  02E7  2AE9               	goto	u2721
  5368  02E8  2AEA               	goto	u2720
  5369  02E9                     u2721:
  5370  02E9  2AEB               	goto	l614
  5371  02EA                     u2720:
  5372  02EA                     l2036:
  5373  02EA  17F3               	bsf	___fladd@b+3,7
  5374  02EB                     l614:
  5375  02EB                     l584:
  5376  02EB  0008               	return
  5377  02EC                     __end_of___fladd:
  5378                           
  5379                           	psect	text16
  5380  14E1                     __ptext16:	
  5381 ;; *************** function ___flneg *****************
  5382 ;; Defined at:
  5383 ;;		line 15 in file "C:\Program Files\Microchip\xc8\v2.32\pic\sources\c90\common\flneg.c"
  5384 ;; Parameters:    Size  Location     Type
  5385 ;;  f1              4    0[COMMON] unsigned char 
  5386 ;; Auto vars:     Size  Location     Type
  5387 ;;		None
  5388 ;; Return value:  Size  Location     Type
  5389 ;;                  4    0[COMMON] unsigned char 
  5390 ;; Registers used:
  5391 ;;		wreg
  5392 ;; Tracked objects:
  5393 ;;		On entry : 0/0
  5394 ;;		On exit  : 0/0
  5395 ;;		Unchanged: 0/0
  5396 ;; Data sizes:     COMMON   BANK0   BANK1   BANK3   BANK2
  5397 ;;      Params:         4       0       0       0       0
  5398 ;;      Locals:         0       0       0       0       0
  5399 ;;      Temps:          0       0       0       0       0
  5400 ;;      Totals:         4       0       0       0       0
  5401 ;;Total ram usage:        4 bytes
  5402 ;; Hardware stack levels used: 1
  5403 ;; This function calls:
  5404 ;;		Nothing
  5405 ;; This function is called by:
  5406 ;;		_Quadra_Al
  5407 ;; This function uses a non-reentrant model
  5408 ;;
  5409                           
  5410                           
  5411                           ;psect for function ___flneg
  5412  14E1                     ___flneg:
  5413  14E1                     l2194:	
  5414                           ;incstack = 0
  5415                           ; Regs used in ___flneg: [wreg]
  5416                           
  5417  14E1  0873               	movf	___flneg@f1+3,w
  5418  14E2  0472               	iorwf	___flneg@f1+2,w
  5419  14E3  0471               	iorwf	___flneg@f1+1,w
  5420  14E4  0470               	iorwf	___flneg@f1,w
  5421  14E5  1903               	skipnz
  5422  14E6  2CE8               	goto	u3061
  5423  14E7  2CE9               	goto	u3060
  5424  14E8                     u3061:
  5425  14E8  2CEB               	goto	l2198
  5426  14E9                     u3060:
  5427  14E9                     l2196:
  5428  14E9  3080               	movlw	128
  5429  14EA  06F3               	xorwf	___flneg@f1+3,f
  5430  14EB                     l2198:
  5431  14EB                     l460:
  5432  14EB  0008               	return
  5433  14EC                     __end_of___flneg:
  5434                           
  5435                           	psect	text17
  5436  0C9F                     __ptext17:	
  5437 ;; *************** function ___flmul *****************
  5438 ;; Defined at:
  5439 ;;		line 8 in file "C:\Program Files\Microchip\xc8\v2.32\pic\sources\c90\common\sprcmul.c"
  5440 ;; Parameters:    Size  Location     Type
  5441 ;;  b               4    8[BANK0 ] unsigned char 
  5442 ;;  a               4   12[BANK0 ] unsigned char 
  5443 ;; Auto vars:     Size  Location     Type
  5444 ;;  prod            4   28[BANK0 ] struct .
  5445 ;;  grs             4   22[BANK0 ] unsigned long 
  5446 ;;  temp            2   32[BANK0 ] struct .
  5447 ;;  bexp            1   27[BANK0 ] unsigned char 
  5448 ;;  aexp            1   26[BANK0 ] unsigned char 
  5449 ;;  sign            1   21[BANK0 ] unsigned char 
  5450 ;; Return value:  Size  Location     Type
  5451 ;;                  4    8[BANK0 ] unsigned char 
  5452 ;; Registers used:
  5453 ;;		wreg, status,2, status,0, btemp+1, pclath, cstack
  5454 ;; Tracked objects:
  5455 ;;		On entry : 0/0
  5456 ;;		On exit  : 0/0
  5457 ;;		Unchanged: 0/0
  5458 ;; Data sizes:     COMMON   BANK0   BANK1   BANK3   BANK2
  5459 ;;      Params:         0       8       0       0       0
  5460 ;;      Locals:         0      13       0       0       0
  5461 ;;      Temps:          0       5       0       0       0
  5462 ;;      Totals:         0      26       0       0       0
  5463 ;;Total ram usage:       26 bytes
  5464 ;; Hardware stack levels used: 1
  5465 ;; Hardware stack levels required when called: 1
  5466 ;; This function calls:
  5467 ;;		__Umul8_16
  5468 ;; This function is called by:
  5469 ;;		_Quadra_Al
  5470 ;; This function uses a non-reentrant model
  5471 ;;
  5472                           
  5473                           
  5474                           ;psect for function ___flmul
  5475  0C9F                     ___flmul:
  5476  0C9F                     l2350:	
  5477                           ;incstack = 0
  5478                           ; Regs used in ___flmul: [wreg+status,2+status,0+btemp+1+pclath+cstack]
  5479                           
  5480  0C9F  1283               	bcf	3,5	;RP0=0, select bank0
  5481  0CA0  1303               	bcf	3,6	;RP1=0, select bank0
  5482  0CA1  082B               	movf	___flmul@b+3,w
  5483  0CA2  3980               	andlw	128
  5484  0CA3  00B0               	movwf	??___flmul
  5485  0CA4  0830               	movf	??___flmul,w
  5486  0CA5  00B5               	movwf	___flmul@sign
  5487  0CA6                     l2352:
  5488  0CA6  082B               	movf	___flmul@b+3,w
  5489  0CA7  00B0               	movwf	??___flmul
  5490  0CA8  0730               	addwf	??___flmul,w
  5491  0CA9  00B1               	movwf	??___flmul+1
  5492  0CAA  0831               	movf	??___flmul+1,w
  5493  0CAB  00BB               	movwf	___flmul@bexp
  5494  0CAC                     l2354:
  5495  0CAC  1FAA               	btfss	___flmul@b+2,7
  5496  0CAD  2CAF               	goto	u3361
  5497  0CAE  2CB0               	goto	u3360
  5498  0CAF                     u3361:
  5499  0CAF  2CB1               	goto	l2358
  5500  0CB0                     u3360:
  5501  0CB0                     l2356:
  5502  0CB0  143B               	bsf	___flmul@bexp,0
  5503  0CB1                     l2358:
  5504  0CB1  083B               	movf	___flmul@bexp,w
  5505  0CB2  1903               	btfsc	3,2
  5506  0CB3  2CB5               	goto	u3371
  5507  0CB4  2CB6               	goto	u3370
  5508  0CB5                     u3371:
  5509  0CB5  2CC5               	goto	l2366
  5510  0CB6                     u3370:
  5511  0CB6                     l2360:
  5512  0CB6  0A3B               	incf	___flmul@bexp,w
  5513  0CB7  1D03               	btfss	3,2
  5514  0CB8  2CBA               	goto	u3381
  5515  0CB9  2CBB               	goto	u3380
  5516  0CBA                     u3381:
  5517  0CBA  2CC3               	goto	l2364
  5518  0CBB                     u3380:
  5519  0CBB                     l2362:
  5520  0CBB  3000               	movlw	0
  5521  0CBC  00AB               	movwf	___flmul@b+3
  5522  0CBD  3000               	movlw	0
  5523  0CBE  00AA               	movwf	___flmul@b+2
  5524  0CBF  3000               	movlw	0
  5525  0CC0  00A9               	movwf	___flmul@b+1
  5526  0CC1  3000               	movlw	0
  5527  0CC2  00A8               	movwf	___flmul@b
  5528  0CC3                     l2364:
  5529  0CC3  17AA               	bsf	___flmul@b+2,7
  5530  0CC4  2CCD               	goto	l2368
  5531  0CC5                     l2366:
  5532  0CC5  3000               	movlw	0
  5533  0CC6  00AB               	movwf	___flmul@b+3
  5534  0CC7  3000               	movlw	0
  5535  0CC8  00AA               	movwf	___flmul@b+2
  5536  0CC9  3000               	movlw	0
  5537  0CCA  00A9               	movwf	___flmul@b+1
  5538  0CCB  3000               	movlw	0
  5539  0CCC  00A8               	movwf	___flmul@b
  5540  0CCD                     l2368:
  5541  0CCD  082F               	movf	___flmul@a+3,w
  5542  0CCE  3980               	andlw	128
  5543  0CCF  00B0               	movwf	??___flmul
  5544  0CD0  0830               	movf	??___flmul,w
  5545  0CD1  06B5               	xorwf	___flmul@sign,f
  5546  0CD2                     l2370:
  5547  0CD2  082F               	movf	___flmul@a+3,w
  5548  0CD3  00B0               	movwf	??___flmul
  5549  0CD4  0730               	addwf	??___flmul,w
  5550  0CD5  00B1               	movwf	??___flmul+1
  5551  0CD6  0831               	movf	??___flmul+1,w
  5552  0CD7  00BA               	movwf	___flmul@aexp
  5553  0CD8                     l2372:
  5554  0CD8  1FAE               	btfss	___flmul@a+2,7
  5555  0CD9  2CDB               	goto	u3391
  5556  0CDA  2CDC               	goto	u3390
  5557  0CDB                     u3391:
  5558  0CDB  2CDD               	goto	l2376
  5559  0CDC                     u3390:
  5560  0CDC                     l2374:
  5561  0CDC  143A               	bsf	___flmul@aexp,0
  5562  0CDD                     l2376:
  5563  0CDD  083A               	movf	___flmul@aexp,w
  5564  0CDE  1903               	btfsc	3,2
  5565  0CDF  2CE1               	goto	u3401
  5566  0CE0  2CE2               	goto	u3400
  5567  0CE1                     u3401:
  5568  0CE1  2CF1               	goto	l2384
  5569  0CE2                     u3400:
  5570  0CE2                     l2378:
  5571  0CE2  0A3A               	incf	___flmul@aexp,w
  5572  0CE3  1D03               	btfss	3,2
  5573  0CE4  2CE6               	goto	u3411
  5574  0CE5  2CE7               	goto	u3410
  5575  0CE6                     u3411:
  5576  0CE6  2CEF               	goto	l2382
  5577  0CE7                     u3410:
  5578  0CE7                     l2380:
  5579  0CE7  3000               	movlw	0
  5580  0CE8  00AF               	movwf	___flmul@a+3
  5581  0CE9  3000               	movlw	0
  5582  0CEA  00AE               	movwf	___flmul@a+2
  5583  0CEB  3000               	movlw	0
  5584  0CEC  00AD               	movwf	___flmul@a+1
  5585  0CED  3000               	movlw	0
  5586  0CEE  00AC               	movwf	___flmul@a
  5587  0CEF                     l2382:
  5588  0CEF  17AE               	bsf	___flmul@a+2,7
  5589  0CF0  2CF9               	goto	l2386
  5590  0CF1                     l2384:
  5591  0CF1  3000               	movlw	0
  5592  0CF2  00AF               	movwf	___flmul@a+3
  5593  0CF3  3000               	movlw	0
  5594  0CF4  00AE               	movwf	___flmul@a+2
  5595  0CF5  3000               	movlw	0
  5596  0CF6  00AD               	movwf	___flmul@a+1
  5597  0CF7  3000               	movlw	0
  5598  0CF8  00AC               	movwf	___flmul@a
  5599  0CF9                     l2386:
  5600  0CF9  083A               	movf	___flmul@aexp,w
  5601  0CFA  1903               	btfsc	3,2
  5602  0CFB  2CFD               	goto	u3421
  5603  0CFC  2CFE               	goto	u3420
  5604  0CFD                     u3421:
  5605  0CFD  2D03               	goto	l2390
  5606  0CFE                     u3420:
  5607  0CFE                     l2388:
  5608  0CFE  083B               	movf	___flmul@bexp,w
  5609  0CFF  1D03               	btfss	3,2
  5610  0D00  2D02               	goto	u3431
  5611  0D01  2D03               	goto	u3430
  5612  0D02                     u3431:
  5613  0D02  2D0C               	goto	l2394
  5614  0D03                     u3430:
  5615  0D03                     l2390:
  5616  0D03  3000               	movlw	0
  5617  0D04  00AB               	movwf	?___flmul+3
  5618  0D05  3000               	movlw	0
  5619  0D06  00AA               	movwf	?___flmul+2
  5620  0D07  3000               	movlw	0
  5621  0D08  00A9               	movwf	?___flmul+1
  5622  0D09  3000               	movlw	0
  5623  0D0A  00A8               	movwf	?___flmul
  5624  0D0B  2FFF               	goto	l667
  5625  0D0C                     l2394:
  5626  0D0C  0828               	movf	___flmul@b,w
  5627  0D0D  00B0               	movwf	??___flmul
  5628  0D0E  0830               	movf	??___flmul,w
  5629  0D0F  00F0               	movwf	__Umul8_16@multiplicand
  5630  0D10  082E               	movf	___flmul@a+2,w
  5631  0D11  160A  118A  2534  120A  158A  	fcall	__Umul8_16
  5632  0D16  0871               	movf	?__Umul8_16+1,w
  5633  0D17  1283               	bcf	3,5	;RP0=0, select bank0
  5634  0D18  1303               	bcf	3,6	;RP1=0, select bank0
  5635  0D19  00C1               	movwf	___flmul@temp+1
  5636  0D1A  0870               	movf	?__Umul8_16,w
  5637  0D1B  00C0               	movwf	___flmul@temp
  5638  0D1C                     l2396:
  5639  0D1C  0840               	movf	___flmul@temp,w
  5640  0D1D  00B0               	movwf	??___flmul
  5641  0D1E  01B1               	clrf	??___flmul+1
  5642  0D1F  01B2               	clrf	??___flmul+2
  5643  0D20  01B3               	clrf	??___flmul+3
  5644  0D21  0833               	movf	??___flmul+3,w
  5645  0D22  00B9               	movwf	___flmul@grs+3
  5646  0D23  0832               	movf	??___flmul+2,w
  5647  0D24  00B8               	movwf	___flmul@grs+2
  5648  0D25  0831               	movf	??___flmul+1,w
  5649  0D26  00B7               	movwf	___flmul@grs+1
  5650  0D27  0830               	movf	??___flmul,w
  5651  0D28  00B6               	movwf	___flmul@grs
  5652  0D29                     l2398:
  5653  0D29  0841               	movf	___flmul@temp+1,w
  5654  0D2A  00B0               	movwf	??___flmul
  5655  0D2B  01B1               	clrf	??___flmul+1
  5656  0D2C  01B2               	clrf	??___flmul+2
  5657  0D2D  01B3               	clrf	??___flmul+3
  5658  0D2E  0833               	movf	??___flmul+3,w
  5659  0D2F  00BF               	movwf	___flmul@prod+3
  5660  0D30  0832               	movf	??___flmul+2,w
  5661  0D31  00BE               	movwf	___flmul@prod+2
  5662  0D32  0831               	movf	??___flmul+1,w
  5663  0D33  00BD               	movwf	___flmul@prod+1
  5664  0D34  0830               	movf	??___flmul,w
  5665  0D35  00BC               	movwf	___flmul@prod
  5666  0D36  0829               	movf	___flmul@b+1,w
  5667  0D37  00B0               	movwf	??___flmul
  5668  0D38  0830               	movf	??___flmul,w
  5669  0D39  00F0               	movwf	__Umul8_16@multiplicand
  5670  0D3A  082D               	movf	___flmul@a+1,w
  5671  0D3B  160A  118A  2534  120A  158A  	fcall	__Umul8_16
  5672  0D40  0871               	movf	?__Umul8_16+1,w
  5673  0D41  1283               	bcf	3,5	;RP0=0, select bank0
  5674  0D42  1303               	bcf	3,6	;RP1=0, select bank0
  5675  0D43  00C1               	movwf	___flmul@temp+1
  5676  0D44  0870               	movf	?__Umul8_16,w
  5677  0D45  00C0               	movwf	___flmul@temp
  5678  0D46                     l2400:
  5679  0D46  0840               	movf	___flmul@temp,w
  5680  0D47  00B0               	movwf	??___flmul
  5681  0D48  01B1               	clrf	??___flmul+1
  5682  0D49  01B2               	clrf	??___flmul+2
  5683  0D4A  01B3               	clrf	??___flmul+3
  5684  0D4B  0830               	movf	??___flmul,w
  5685  0D4C  07B6               	addwf	___flmul@grs,f
  5686  0D4D  0831               	movf	??___flmul+1,w
  5687  0D4E  1103               	clrz
  5688  0D4F  1803               	skipnc
  5689  0D50  3E01               	addlw	1
  5690  0D51  1903               	skipnz
  5691  0D52  2D54               	goto	u3441
  5692  0D53  07B7               	addwf	___flmul@grs+1,f
  5693  0D54                     u3441:
  5694  0D54  0832               	movf	??___flmul+2,w
  5695  0D55  1103               	clrz
  5696  0D56  1803               	skipnc
  5697  0D57  3E01               	addlw	1
  5698  0D58  1903               	skipnz
  5699  0D59  2D5B               	goto	u3442
  5700  0D5A  07B8               	addwf	___flmul@grs+2,f
  5701  0D5B                     u3442:
  5702  0D5B  0833               	movf	??___flmul+3,w
  5703  0D5C  1103               	clrz
  5704  0D5D  1803               	skipnc
  5705  0D5E  3E01               	addlw	1
  5706  0D5F  1903               	skipnz
  5707  0D60  2D62               	goto	u3443
  5708  0D61  07B9               	addwf	___flmul@grs+3,f
  5709  0D62                     u3443:
  5710  0D62                     l2402:
  5711  0D62  0841               	movf	___flmul@temp+1,w
  5712  0D63  00B0               	movwf	??___flmul
  5713  0D64  01B1               	clrf	??___flmul+1
  5714  0D65  01B2               	clrf	??___flmul+2
  5715  0D66  01B3               	clrf	??___flmul+3
  5716  0D67  0830               	movf	??___flmul,w
  5717  0D68  07BC               	addwf	___flmul@prod,f
  5718  0D69  0831               	movf	??___flmul+1,w
  5719  0D6A  1103               	clrz
  5720  0D6B  1803               	skipnc
  5721  0D6C  3E01               	addlw	1
  5722  0D6D  1903               	skipnz
  5723  0D6E  2D70               	goto	u3451
  5724  0D6F  07BD               	addwf	___flmul@prod+1,f
  5725  0D70                     u3451:
  5726  0D70  0832               	movf	??___flmul+2,w
  5727  0D71  1103               	clrz
  5728  0D72  1803               	skipnc
  5729  0D73  3E01               	addlw	1
  5730  0D74  1903               	skipnz
  5731  0D75  2D77               	goto	u3452
  5732  0D76  07BE               	addwf	___flmul@prod+2,f
  5733  0D77                     u3452:
  5734  0D77  0833               	movf	??___flmul+3,w
  5735  0D78  1103               	clrz
  5736  0D79  1803               	skipnc
  5737  0D7A  3E01               	addlw	1
  5738  0D7B  1903               	skipnz
  5739  0D7C  2D7E               	goto	u3453
  5740  0D7D  07BF               	addwf	___flmul@prod+3,f
  5741  0D7E                     u3453:
  5742  0D7E  082A               	movf	___flmul@b+2,w
  5743  0D7F  00B0               	movwf	??___flmul
  5744  0D80  0830               	movf	??___flmul,w
  5745  0D81  00F0               	movwf	__Umul8_16@multiplicand
  5746  0D82  082C               	movf	___flmul@a,w
  5747  0D83  160A  118A  2534  120A  158A  	fcall	__Umul8_16
  5748  0D88  0871               	movf	?__Umul8_16+1,w
  5749  0D89  1283               	bcf	3,5	;RP0=0, select bank0
  5750  0D8A  1303               	bcf	3,6	;RP1=0, select bank0
  5751  0D8B  00C1               	movwf	___flmul@temp+1
  5752  0D8C  0870               	movf	?__Umul8_16,w
  5753  0D8D  00C0               	movwf	___flmul@temp
  5754  0D8E                     l2404:
  5755  0D8E  0840               	movf	___flmul@temp,w
  5756  0D8F  00B0               	movwf	??___flmul
  5757  0D90  01B1               	clrf	??___flmul+1
  5758  0D91  01B2               	clrf	??___flmul+2
  5759  0D92  01B3               	clrf	??___flmul+3
  5760  0D93  0830               	movf	??___flmul,w
  5761  0D94  07B6               	addwf	___flmul@grs,f
  5762  0D95  0831               	movf	??___flmul+1,w
  5763  0D96  1103               	clrz
  5764  0D97  1803               	skipnc
  5765  0D98  3E01               	addlw	1
  5766  0D99  1903               	skipnz
  5767  0D9A  2D9C               	goto	u3461
  5768  0D9B  07B7               	addwf	___flmul@grs+1,f
  5769  0D9C                     u3461:
  5770  0D9C  0832               	movf	??___flmul+2,w
  5771  0D9D  1103               	clrz
  5772  0D9E  1803               	skipnc
  5773  0D9F  3E01               	addlw	1
  5774  0DA0  1903               	skipnz
  5775  0DA1  2DA3               	goto	u3462
  5776  0DA2  07B8               	addwf	___flmul@grs+2,f
  5777  0DA3                     u3462:
  5778  0DA3  0833               	movf	??___flmul+3,w
  5779  0DA4  1103               	clrz
  5780  0DA5  1803               	skipnc
  5781  0DA6  3E01               	addlw	1
  5782  0DA7  1903               	skipnz
  5783  0DA8  2DAA               	goto	u3463
  5784  0DA9  07B9               	addwf	___flmul@grs+3,f
  5785  0DAA                     u3463:
  5786  0DAA                     l2406:
  5787  0DAA  0841               	movf	___flmul@temp+1,w
  5788  0DAB  00B0               	movwf	??___flmul
  5789  0DAC  01B1               	clrf	??___flmul+1
  5790  0DAD  01B2               	clrf	??___flmul+2
  5791  0DAE  01B3               	clrf	??___flmul+3
  5792  0DAF  0830               	movf	??___flmul,w
  5793  0DB0  07BC               	addwf	___flmul@prod,f
  5794  0DB1  0831               	movf	??___flmul+1,w
  5795  0DB2  1103               	clrz
  5796  0DB3  1803               	skipnc
  5797  0DB4  3E01               	addlw	1
  5798  0DB5  1903               	skipnz
  5799  0DB6  2DB8               	goto	u3471
  5800  0DB7  07BD               	addwf	___flmul@prod+1,f
  5801  0DB8                     u3471:
  5802  0DB8  0832               	movf	??___flmul+2,w
  5803  0DB9  1103               	clrz
  5804  0DBA  1803               	skipnc
  5805  0DBB  3E01               	addlw	1
  5806  0DBC  1903               	skipnz
  5807  0DBD  2DBF               	goto	u3472
  5808  0DBE  07BE               	addwf	___flmul@prod+2,f
  5809  0DBF                     u3472:
  5810  0DBF  0833               	movf	??___flmul+3,w
  5811  0DC0  1103               	clrz
  5812  0DC1  1803               	skipnc
  5813  0DC2  3E01               	addlw	1
  5814  0DC3  1903               	skipnz
  5815  0DC4  2DC6               	goto	u3473
  5816  0DC5  07BF               	addwf	___flmul@prod+3,f
  5817  0DC6                     u3473:
  5818  0DC6                     l2408:
  5819  0DC6  3008               	movlw	8
  5820  0DC7  00B0               	movwf	??___flmul
  5821  0DC8                     u3485:
  5822  0DC8  1003               	clrc
  5823  0DC9  0DB6               	rlf	___flmul@grs,f
  5824  0DCA  0DB7               	rlf	___flmul@grs+1,f
  5825  0DCB  0DB8               	rlf	___flmul@grs+2,f
  5826  0DCC  0DB9               	rlf	___flmul@grs+3,f
  5827  0DCD  0BB0               	decfsz	??___flmul,f
  5828  0DCE  2DC8               	goto	u3485
  5829  0DCF                     l2410:
  5830  0DCF  0829               	movf	___flmul@b+1,w
  5831  0DD0  00B0               	movwf	??___flmul
  5832  0DD1  0830               	movf	??___flmul,w
  5833  0DD2  00F0               	movwf	__Umul8_16@multiplicand
  5834  0DD3  082C               	movf	___flmul@a,w
  5835  0DD4  160A  118A  2534  120A  158A  	fcall	__Umul8_16
  5836  0DD9  0871               	movf	?__Umul8_16+1,w
  5837  0DDA  1283               	bcf	3,5	;RP0=0, select bank0
  5838  0DDB  1303               	bcf	3,6	;RP1=0, select bank0
  5839  0DDC  00C1               	movwf	___flmul@temp+1
  5840  0DDD  0870               	movf	?__Umul8_16,w
  5841  0DDE  00C0               	movwf	___flmul@temp
  5842  0DDF                     l2412:
  5843  0DDF  0840               	movf	___flmul@temp,w
  5844  0DE0  00B0               	movwf	??___flmul
  5845  0DE1  0841               	movf	___flmul@temp+1,w
  5846  0DE2  00B1               	movwf	??___flmul+1
  5847  0DE3  01B2               	clrf	??___flmul+2
  5848  0DE4  01B3               	clrf	??___flmul+3
  5849  0DE5  0830               	movf	??___flmul,w
  5850  0DE6  07B6               	addwf	___flmul@grs,f
  5851  0DE7  0831               	movf	??___flmul+1,w
  5852  0DE8  1103               	clrz
  5853  0DE9  1803               	skipnc
  5854  0DEA  3E01               	addlw	1
  5855  0DEB  1903               	skipnz
  5856  0DEC  2DEE               	goto	u3491
  5857  0DED  07B7               	addwf	___flmul@grs+1,f
  5858  0DEE                     u3491:
  5859  0DEE  0832               	movf	??___flmul+2,w
  5860  0DEF  1103               	clrz
  5861  0DF0  1803               	skipnc
  5862  0DF1  3E01               	addlw	1
  5863  0DF2  1903               	skipnz
  5864  0DF3  2DF5               	goto	u3492
  5865  0DF4  07B8               	addwf	___flmul@grs+2,f
  5866  0DF5                     u3492:
  5867  0DF5  0833               	movf	??___flmul+3,w
  5868  0DF6  1103               	clrz
  5869  0DF7  1803               	skipnc
  5870  0DF8  3E01               	addlw	1
  5871  0DF9  1903               	skipnz
  5872  0DFA  2DFC               	goto	u3493
  5873  0DFB  07B9               	addwf	___flmul@grs+3,f
  5874  0DFC                     u3493:
  5875  0DFC                     l2414:
  5876  0DFC  0828               	movf	___flmul@b,w
  5877  0DFD  00B0               	movwf	??___flmul
  5878  0DFE  0830               	movf	??___flmul,w
  5879  0DFF  00F0               	movwf	__Umul8_16@multiplicand
  5880  0E00  082D               	movf	___flmul@a+1,w
  5881  0E01  160A  118A  2534  120A  158A  	fcall	__Umul8_16
  5882  0E06  0871               	movf	?__Umul8_16+1,w
  5883  0E07  1283               	bcf	3,5	;RP0=0, select bank0
  5884  0E08  1303               	bcf	3,6	;RP1=0, select bank0
  5885  0E09  00C1               	movwf	___flmul@temp+1
  5886  0E0A  0870               	movf	?__Umul8_16,w
  5887  0E0B  00C0               	movwf	___flmul@temp
  5888  0E0C                     l2416:
  5889  0E0C  0840               	movf	___flmul@temp,w
  5890  0E0D  00B0               	movwf	??___flmul
  5891  0E0E  0841               	movf	___flmul@temp+1,w
  5892  0E0F  00B1               	movwf	??___flmul+1
  5893  0E10  01B2               	clrf	??___flmul+2
  5894  0E11  01B3               	clrf	??___flmul+3
  5895  0E12  0830               	movf	??___flmul,w
  5896  0E13  07B6               	addwf	___flmul@grs,f
  5897  0E14  0831               	movf	??___flmul+1,w
  5898  0E15  1103               	clrz
  5899  0E16  1803               	skipnc
  5900  0E17  3E01               	addlw	1
  5901  0E18  1903               	skipnz
  5902  0E19  2E1B               	goto	u3501
  5903  0E1A  07B7               	addwf	___flmul@grs+1,f
  5904  0E1B                     u3501:
  5905  0E1B  0832               	movf	??___flmul+2,w
  5906  0E1C  1103               	clrz
  5907  0E1D  1803               	skipnc
  5908  0E1E  3E01               	addlw	1
  5909  0E1F  1903               	skipnz
  5910  0E20  2E22               	goto	u3502
  5911  0E21  07B8               	addwf	___flmul@grs+2,f
  5912  0E22                     u3502:
  5913  0E22  0833               	movf	??___flmul+3,w
  5914  0E23  1103               	clrz
  5915  0E24  1803               	skipnc
  5916  0E25  3E01               	addlw	1
  5917  0E26  1903               	skipnz
  5918  0E27  2E29               	goto	u3503
  5919  0E28  07B9               	addwf	___flmul@grs+3,f
  5920  0E29                     u3503:
  5921  0E29                     l2418:
  5922  0E29  3008               	movlw	8
  5923  0E2A  00B0               	movwf	??___flmul
  5924  0E2B                     u3515:
  5925  0E2B  1003               	clrc
  5926  0E2C  0DB6               	rlf	___flmul@grs,f
  5927  0E2D  0DB7               	rlf	___flmul@grs+1,f
  5928  0E2E  0DB8               	rlf	___flmul@grs+2,f
  5929  0E2F  0DB9               	rlf	___flmul@grs+3,f
  5930  0E30  0BB0               	decfsz	??___flmul,f
  5931  0E31  2E2B               	goto	u3515
  5932  0E32  0828               	movf	___flmul@b,w
  5933  0E33  00B0               	movwf	??___flmul
  5934  0E34  0830               	movf	??___flmul,w
  5935  0E35  00F0               	movwf	__Umul8_16@multiplicand
  5936  0E36  082C               	movf	___flmul@a,w
  5937  0E37  160A  118A  2534  120A  158A  	fcall	__Umul8_16
  5938  0E3C  0871               	movf	?__Umul8_16+1,w
  5939  0E3D  1283               	bcf	3,5	;RP0=0, select bank0
  5940  0E3E  1303               	bcf	3,6	;RP1=0, select bank0
  5941  0E3F  00C1               	movwf	___flmul@temp+1
  5942  0E40  0870               	movf	?__Umul8_16,w
  5943  0E41  00C0               	movwf	___flmul@temp
  5944  0E42                     l2420:
  5945  0E42  0840               	movf	___flmul@temp,w
  5946  0E43  00B0               	movwf	??___flmul
  5947  0E44  0841               	movf	___flmul@temp+1,w
  5948  0E45  00B1               	movwf	??___flmul+1
  5949  0E46  01B2               	clrf	??___flmul+2
  5950  0E47  01B3               	clrf	??___flmul+3
  5951  0E48  0830               	movf	??___flmul,w
  5952  0E49  07B6               	addwf	___flmul@grs,f
  5953  0E4A  0831               	movf	??___flmul+1,w
  5954  0E4B  1103               	clrz
  5955  0E4C  1803               	skipnc
  5956  0E4D  3E01               	addlw	1
  5957  0E4E  1903               	skipnz
  5958  0E4F  2E51               	goto	u3521
  5959  0E50  07B7               	addwf	___flmul@grs+1,f
  5960  0E51                     u3521:
  5961  0E51  0832               	movf	??___flmul+2,w
  5962  0E52  1103               	clrz
  5963  0E53  1803               	skipnc
  5964  0E54  3E01               	addlw	1
  5965  0E55  1903               	skipnz
  5966  0E56  2E58               	goto	u3522
  5967  0E57  07B8               	addwf	___flmul@grs+2,f
  5968  0E58                     u3522:
  5969  0E58  0833               	movf	??___flmul+3,w
  5970  0E59  1103               	clrz
  5971  0E5A  1803               	skipnc
  5972  0E5B  3E01               	addlw	1
  5973  0E5C  1903               	skipnz
  5974  0E5D  2E5F               	goto	u3523
  5975  0E5E  07B9               	addwf	___flmul@grs+3,f
  5976  0E5F                     u3523:
  5977  0E5F                     l2422:
  5978  0E5F  0829               	movf	___flmul@b+1,w
  5979  0E60  00B0               	movwf	??___flmul
  5980  0E61  0830               	movf	??___flmul,w
  5981  0E62  00F0               	movwf	__Umul8_16@multiplicand
  5982  0E63  082E               	movf	___flmul@a+2,w
  5983  0E64  160A  118A  2534  120A  158A  	fcall	__Umul8_16
  5984  0E69  0871               	movf	?__Umul8_16+1,w
  5985  0E6A  1283               	bcf	3,5	;RP0=0, select bank0
  5986  0E6B  1303               	bcf	3,6	;RP1=0, select bank0
  5987  0E6C  00C1               	movwf	___flmul@temp+1
  5988  0E6D  0870               	movf	?__Umul8_16,w
  5989  0E6E  00C0               	movwf	___flmul@temp
  5990  0E6F  0840               	movf	___flmul@temp,w
  5991  0E70  00B0               	movwf	??___flmul
  5992  0E71  0841               	movf	___flmul@temp+1,w
  5993  0E72  00B1               	movwf	??___flmul+1
  5994  0E73  01B2               	clrf	??___flmul+2
  5995  0E74  01B3               	clrf	??___flmul+3
  5996  0E75  0830               	movf	??___flmul,w
  5997  0E76  07BC               	addwf	___flmul@prod,f
  5998  0E77  0831               	movf	??___flmul+1,w
  5999  0E78  1103               	clrz
  6000  0E79  1803               	skipnc
  6001  0E7A  3E01               	addlw	1
  6002  0E7B  1903               	skipnz
  6003  0E7C  2E7E               	goto	u3531
  6004  0E7D  07BD               	addwf	___flmul@prod+1,f
  6005  0E7E                     u3531:
  6006  0E7E  0832               	movf	??___flmul+2,w
  6007  0E7F  1103               	clrz
  6008  0E80  1803               	skipnc
  6009  0E81  3E01               	addlw	1
  6010  0E82  1903               	skipnz
  6011  0E83  2E85               	goto	u3532
  6012  0E84  07BE               	addwf	___flmul@prod+2,f
  6013  0E85                     u3532:
  6014  0E85  0833               	movf	??___flmul+3,w
  6015  0E86  1103               	clrz
  6016  0E87  1803               	skipnc
  6017  0E88  3E01               	addlw	1
  6018  0E89  1903               	skipnz
  6019  0E8A  2E8C               	goto	u3533
  6020  0E8B  07BF               	addwf	___flmul@prod+3,f
  6021  0E8C                     u3533:
  6022  0E8C                     l2424:
  6023  0E8C  082A               	movf	___flmul@b+2,w
  6024  0E8D  00B0               	movwf	??___flmul
  6025  0E8E  0830               	movf	??___flmul,w
  6026  0E8F  00F0               	movwf	__Umul8_16@multiplicand
  6027  0E90  082D               	movf	___flmul@a+1,w
  6028  0E91  160A  118A  2534  120A  158A  	fcall	__Umul8_16
  6029  0E96  0871               	movf	?__Umul8_16+1,w
  6030  0E97  1283               	bcf	3,5	;RP0=0, select bank0
  6031  0E98  1303               	bcf	3,6	;RP1=0, select bank0
  6032  0E99  00C1               	movwf	___flmul@temp+1
  6033  0E9A  0870               	movf	?__Umul8_16,w
  6034  0E9B  00C0               	movwf	___flmul@temp
  6035  0E9C                     l2426:
  6036  0E9C  0840               	movf	___flmul@temp,w
  6037  0E9D  00B0               	movwf	??___flmul
  6038  0E9E  0841               	movf	___flmul@temp+1,w
  6039  0E9F  00B1               	movwf	??___flmul+1
  6040  0EA0  01B2               	clrf	??___flmul+2
  6041  0EA1  01B3               	clrf	??___flmul+3
  6042  0EA2  0830               	movf	??___flmul,w
  6043  0EA3  07BC               	addwf	___flmul@prod,f
  6044  0EA4  0831               	movf	??___flmul+1,w
  6045  0EA5  1103               	clrz
  6046  0EA6  1803               	skipnc
  6047  0EA7  3E01               	addlw	1
  6048  0EA8  1903               	skipnz
  6049  0EA9  2EAB               	goto	u3541
  6050  0EAA  07BD               	addwf	___flmul@prod+1,f
  6051  0EAB                     u3541:
  6052  0EAB  0832               	movf	??___flmul+2,w
  6053  0EAC  1103               	clrz
  6054  0EAD  1803               	skipnc
  6055  0EAE  3E01               	addlw	1
  6056  0EAF  1903               	skipnz
  6057  0EB0  2EB2               	goto	u3542
  6058  0EB1  07BE               	addwf	___flmul@prod+2,f
  6059  0EB2                     u3542:
  6060  0EB2  0833               	movf	??___flmul+3,w
  6061  0EB3  1103               	clrz
  6062  0EB4  1803               	skipnc
  6063  0EB5  3E01               	addlw	1
  6064  0EB6  1903               	skipnz
  6065  0EB7  2EB9               	goto	u3543
  6066  0EB8  07BF               	addwf	___flmul@prod+3,f
  6067  0EB9                     u3543:
  6068  0EB9  082A               	movf	___flmul@b+2,w
  6069  0EBA  00B0               	movwf	??___flmul
  6070  0EBB  0830               	movf	??___flmul,w
  6071  0EBC  00F0               	movwf	__Umul8_16@multiplicand
  6072  0EBD  082E               	movf	___flmul@a+2,w
  6073  0EBE  160A  118A  2534  120A  158A  	fcall	__Umul8_16
  6074  0EC3  0871               	movf	?__Umul8_16+1,w
  6075  0EC4  1283               	bcf	3,5	;RP0=0, select bank0
  6076  0EC5  1303               	bcf	3,6	;RP1=0, select bank0
  6077  0EC6  00C1               	movwf	___flmul@temp+1
  6078  0EC7  0870               	movf	?__Umul8_16,w
  6079  0EC8  00C0               	movwf	___flmul@temp
  6080  0EC9                     l2428:
  6081  0EC9  0840               	movf	___flmul@temp,w
  6082  0ECA  00B0               	movwf	??___flmul
  6083  0ECB  0841               	movf	___flmul@temp+1,w
  6084  0ECC  00B1               	movwf	??___flmul+1
  6085  0ECD  01B2               	clrf	??___flmul+2
  6086  0ECE  01B3               	clrf	??___flmul+3
  6087  0ECF  3008               	movlw	8
  6088  0ED0                     u3555:
  6089  0ED0  1003               	clrc
  6090  0ED1  0DB0               	rlf	??___flmul,f
  6091  0ED2  0DB1               	rlf	??___flmul+1,f
  6092  0ED3  0DB2               	rlf	??___flmul+2,f
  6093  0ED4  0DB3               	rlf	??___flmul+3,f
  6094  0ED5                     u3550:
  6095  0ED5  3EFF               	addlw	-1
  6096  0ED6  1D03               	skipz
  6097  0ED7  2ED0               	goto	u3555
  6098  0ED8  0830               	movf	??___flmul,w
  6099  0ED9  07BC               	addwf	___flmul@prod,f
  6100  0EDA  0831               	movf	??___flmul+1,w
  6101  0EDB  1103               	clrz
  6102  0EDC  1803               	skipnc
  6103  0EDD  3E01               	addlw	1
  6104  0EDE  1903               	skipnz
  6105  0EDF  2EE1               	goto	u3561
  6106  0EE0  07BD               	addwf	___flmul@prod+1,f
  6107  0EE1                     u3561:
  6108  0EE1  0832               	movf	??___flmul+2,w
  6109  0EE2  1103               	clrz
  6110  0EE3  1803               	skipnc
  6111  0EE4  3E01               	addlw	1
  6112  0EE5  1903               	skipnz
  6113  0EE6  2EE8               	goto	u3562
  6114  0EE7  07BE               	addwf	___flmul@prod+2,f
  6115  0EE8                     u3562:
  6116  0EE8  0833               	movf	??___flmul+3,w
  6117  0EE9  1103               	clrz
  6118  0EEA  1803               	skipnc
  6119  0EEB  3E01               	addlw	1
  6120  0EEC  1903               	skipnz
  6121  0EED  2EEF               	goto	u3563
  6122  0EEE  07BF               	addwf	___flmul@prod+3,f
  6123  0EEF                     u3563:
  6124  0EEF                     l2430:
  6125  0EEF  0836               	movf	___flmul@grs,w
  6126  0EF0  00B0               	movwf	??___flmul
  6127  0EF1  0837               	movf	___flmul@grs+1,w
  6128  0EF2  00B1               	movwf	??___flmul+1
  6129  0EF3  0838               	movf	___flmul@grs+2,w
  6130  0EF4  00B2               	movwf	??___flmul+2
  6131  0EF5  0839               	movf	___flmul@grs+3,w
  6132  0EF6  00B3               	movwf	??___flmul+3
  6133  0EF7  3018               	movlw	24
  6134  0EF8                     u3575:
  6135  0EF8  1003               	clrc
  6136  0EF9  0CB3               	rrf	??___flmul+3,f
  6137  0EFA  0CB2               	rrf	??___flmul+2,f
  6138  0EFB  0CB1               	rrf	??___flmul+1,f
  6139  0EFC  0CB0               	rrf	??___flmul,f
  6140  0EFD                     u3570:
  6141  0EFD  3EFF               	addlw	-1
  6142  0EFE  1D03               	skipz
  6143  0EFF  2EF8               	goto	u3575
  6144  0F00  0830               	movf	??___flmul,w
  6145  0F01  07BC               	addwf	___flmul@prod,f
  6146  0F02  0831               	movf	??___flmul+1,w
  6147  0F03  1103               	clrz
  6148  0F04  1803               	skipnc
  6149  0F05  3E01               	addlw	1
  6150  0F06  1903               	skipnz
  6151  0F07  2F09               	goto	u3581
  6152  0F08  07BD               	addwf	___flmul@prod+1,f
  6153  0F09                     u3581:
  6154  0F09  0832               	movf	??___flmul+2,w
  6155  0F0A  1103               	clrz
  6156  0F0B  1803               	skipnc
  6157  0F0C  3E01               	addlw	1
  6158  0F0D  1903               	skipnz
  6159  0F0E  2F10               	goto	u3582
  6160  0F0F  07BE               	addwf	___flmul@prod+2,f
  6161  0F10                     u3582:
  6162  0F10  0833               	movf	??___flmul+3,w
  6163  0F11  1103               	clrz
  6164  0F12  1803               	skipnc
  6165  0F13  3E01               	addlw	1
  6166  0F14  1903               	skipnz
  6167  0F15  2F17               	goto	u3583
  6168  0F16  07BF               	addwf	___flmul@prod+3,f
  6169  0F17                     u3583:
  6170  0F17                     l2432:
  6171  0F17  3008               	movlw	8
  6172  0F18  00B0               	movwf	??___flmul
  6173  0F19                     u3595:
  6174  0F19  1003               	clrc
  6175  0F1A  0DB6               	rlf	___flmul@grs,f
  6176  0F1B  0DB7               	rlf	___flmul@grs+1,f
  6177  0F1C  0DB8               	rlf	___flmul@grs+2,f
  6178  0F1D  0DB9               	rlf	___flmul@grs+3,f
  6179  0F1E  0BB0               	decfsz	??___flmul,f
  6180  0F1F  2F19               	goto	u3595
  6181  0F20                     l2434:
  6182  0F20  083B               	movf	___flmul@bexp,w
  6183  0F21  073A               	addwf	___flmul@aexp,w
  6184  0F22  00B0               	movwf	??___flmul
  6185  0F23  01B1               	clrf	??___flmul+1
  6186  0F24  0DB1               	rlf	??___flmul+1,f
  6187  0F25  0830               	movf	??___flmul,w
  6188  0F26  3E82               	addlw	130
  6189  0F27  00C0               	movwf	___flmul@temp
  6190  0F28  0831               	movf	??___flmul+1,w
  6191  0F29  1803               	skipnc
  6192  0F2A  3E01               	addlw	1
  6193  0F2B  3EFF               	addlw	255
  6194  0F2C  00C1               	movwf	___flmul@temp+1
  6195  0F2D  2F4B               	goto	l2446
  6196  0F2E                     l2436:
  6197  0F2E  3001               	movlw	1
  6198  0F2F  00B0               	movwf	??___flmul
  6199  0F30                     u3605:
  6200  0F30  1003               	clrc
  6201  0F31  0DBC               	rlf	___flmul@prod,f
  6202  0F32  0DBD               	rlf	___flmul@prod+1,f
  6203  0F33  0DBE               	rlf	___flmul@prod+2,f
  6204  0F34  0DBF               	rlf	___flmul@prod+3,f
  6205  0F35  0BB0               	decfsz	??___flmul,f
  6206  0F36  2F30               	goto	u3605
  6207  0F37                     l2438:
  6208  0F37  1FB9               	btfss	___flmul@grs+3,7
  6209  0F38  2F3A               	goto	u3611
  6210  0F39  2F3B               	goto	u3610
  6211  0F3A                     u3611:
  6212  0F3A  2F3C               	goto	l2442
  6213  0F3B                     u3610:
  6214  0F3B                     l2440:
  6215  0F3B  143C               	bsf	___flmul@prod,0
  6216  0F3C                     l2442:
  6217  0F3C  3001               	movlw	1
  6218  0F3D  00B0               	movwf	??___flmul
  6219  0F3E                     u3625:
  6220  0F3E  1003               	clrc
  6221  0F3F  0DB6               	rlf	___flmul@grs,f
  6222  0F40  0DB7               	rlf	___flmul@grs+1,f
  6223  0F41  0DB8               	rlf	___flmul@grs+2,f
  6224  0F42  0DB9               	rlf	___flmul@grs+3,f
  6225  0F43  0BB0               	decfsz	??___flmul,f
  6226  0F44  2F3E               	goto	u3625
  6227  0F45                     l2444:
  6228  0F45  30FF               	movlw	255
  6229  0F46  07C0               	addwf	___flmul@temp,f
  6230  0F47  1803               	skipnc
  6231  0F48  0AC1               	incf	___flmul@temp+1,f
  6232  0F49  30FF               	movlw	255
  6233  0F4A  07C1               	addwf	___flmul@temp+1,f
  6234  0F4B                     l2446:
  6235  0F4B  1FBE               	btfss	___flmul@prod+2,7
  6236  0F4C  2F4E               	goto	u3631
  6237  0F4D  2F4F               	goto	u3630
  6238  0F4E                     u3631:
  6239  0F4E  2F2E               	goto	l2436
  6240  0F4F                     u3630:
  6241  0F4F                     l2448:
  6242  0F4F  01BA               	clrf	___flmul@aexp
  6243  0F50                     l2450:
  6244  0F50  1FB9               	btfss	___flmul@grs+3,7
  6245  0F51  2F53               	goto	u3641
  6246  0F52  2F54               	goto	u3640
  6247  0F53                     u3641:
  6248  0F53  2F70               	goto	l2458
  6249  0F54                     u3640:
  6250  0F54                     l2452:
  6251  0F54  30FF               	movlw	255
  6252  0F55  0536               	andwf	___flmul@grs,w
  6253  0F56  00B0               	movwf	??___flmul
  6254  0F57  30FF               	movlw	255
  6255  0F58  0537               	andwf	___flmul@grs+1,w
  6256  0F59  00B1               	movwf	??___flmul+1
  6257  0F5A  30FF               	movlw	255
  6258  0F5B  0538               	andwf	___flmul@grs+2,w
  6259  0F5C  00B2               	movwf	??___flmul+2
  6260  0F5D  307F               	movlw	127
  6261  0F5E  0539               	andwf	___flmul@grs+3,w
  6262  0F5F  00B3               	movwf	??___flmul+3
  6263  0F60  0833               	movf	??___flmul+3,w
  6264  0F61  0432               	iorwf	??___flmul+2,w
  6265  0F62  0431               	iorwf	??___flmul+1,w
  6266  0F63  0430               	iorwf	??___flmul,w
  6267  0F64  1903               	skipnz
  6268  0F65  2F67               	goto	u3651
  6269  0F66  2F68               	goto	u3650
  6270  0F67                     u3651:
  6271  0F67  2F6B               	goto	l673
  6272  0F68                     u3650:
  6273  0F68                     l2454:
  6274  0F68  01BA               	clrf	___flmul@aexp
  6275  0F69  0ABA               	incf	___flmul@aexp,f
  6276  0F6A  2F70               	goto	l2458
  6277  0F6B                     l673:
  6278  0F6B  1C3C               	btfss	___flmul@prod,0
  6279  0F6C  2F6E               	goto	u3661
  6280  0F6D  2F6F               	goto	u3660
  6281  0F6E                     u3661:
  6282  0F6E  2F70               	goto	l2458
  6283  0F6F                     u3660:
  6284  0F6F  2F68               	goto	l2454
  6285  0F70                     l2458:
  6286  0F70  083A               	movf	___flmul@aexp,w
  6287  0F71  1903               	btfsc	3,2
  6288  0F72  2F74               	goto	u3671
  6289  0F73  2F75               	goto	u3670
  6290  0F74                     u3671:
  6291  0F74  2FA6               	goto	l2468
  6292  0F75                     u3670:
  6293  0F75                     l2460:
  6294  0F75  3001               	movlw	1
  6295  0F76  07BC               	addwf	___flmul@prod,f
  6296  0F77  3000               	movlw	0
  6297  0F78  1803               	skipnc
  6298  0F79  3001               	movlw	1
  6299  0F7A  07BD               	addwf	___flmul@prod+1,f
  6300  0F7B  3000               	movlw	0
  6301  0F7C  1803               	skipnc
  6302  0F7D  3001               	movlw	1
  6303  0F7E  07BE               	addwf	___flmul@prod+2,f
  6304  0F7F  3000               	movlw	0
  6305  0F80  1803               	skipnc
  6306  0F81  3001               	movlw	1
  6307  0F82  07BF               	addwf	___flmul@prod+3,f
  6308  0F83                     l2462:
  6309  0F83  1C3F               	btfss	___flmul@prod+3,0
  6310  0F84  2F86               	goto	u3681
  6311  0F85  2F87               	goto	u3680
  6312  0F86                     u3681:
  6313  0F86  2FA6               	goto	l2468
  6314  0F87                     u3680:
  6315  0F87                     l2464:
  6316  0F87  083C               	movf	___flmul@prod,w
  6317  0F88  00B0               	movwf	??___flmul
  6318  0F89  083D               	movf	___flmul@prod+1,w
  6319  0F8A  00B1               	movwf	??___flmul+1
  6320  0F8B  083E               	movf	___flmul@prod+2,w
  6321  0F8C  00B2               	movwf	??___flmul+2
  6322  0F8D  083F               	movf	___flmul@prod+3,w
  6323  0F8E  00B3               	movwf	??___flmul+3
  6324  0F8F  3001               	movlw	1
  6325  0F90  00B4               	movwf	??___flmul+4
  6326  0F91                     u3695:
  6327  0F91  0D33               	rlf	??___flmul+3,w
  6328  0F92  0CB3               	rrf	??___flmul+3,f
  6329  0F93  0CB2               	rrf	??___flmul+2,f
  6330  0F94  0CB1               	rrf	??___flmul+1,f
  6331  0F95  0CB0               	rrf	??___flmul,f
  6332  0F96                     u3690:
  6333  0F96  0BB4               	decfsz	??___flmul+4,f
  6334  0F97  2F91               	goto	u3695
  6335  0F98  0833               	movf	??___flmul+3,w
  6336  0F99  00BF               	movwf	___flmul@prod+3
  6337  0F9A  0832               	movf	??___flmul+2,w
  6338  0F9B  00BE               	movwf	___flmul@prod+2
  6339  0F9C  0831               	movf	??___flmul+1,w
  6340  0F9D  00BD               	movwf	___flmul@prod+1
  6341  0F9E  0830               	movf	??___flmul,w
  6342  0F9F  00BC               	movwf	___flmul@prod
  6343  0FA0                     l2466:
  6344  0FA0  3001               	movlw	1
  6345  0FA1  07C0               	addwf	___flmul@temp,f
  6346  0FA2  1803               	skipnc
  6347  0FA3  0AC1               	incf	___flmul@temp+1,f
  6348  0FA4  3000               	movlw	0
  6349  0FA5  07C1               	addwf	___flmul@temp+1,f
  6350  0FA6                     l2468:
  6351  0FA6  0841               	movf	___flmul@temp+1,w
  6352  0FA7  3A80               	xorlw	128
  6353  0FA8  00FF               	movwf	btemp+1
  6354  0FA9  3080               	movlw	128
  6355  0FAA  027F               	subwf	btemp+1,w
  6356  0FAB  1D03               	skipz
  6357  0FAC  2FAF               	goto	u3705
  6358  0FAD  30FF               	movlw	255
  6359  0FAE  0240               	subwf	___flmul@temp,w
  6360  0FAF                     u3705:
  6361  0FAF  1C03               	skipc
  6362  0FB0  2FB2               	goto	u3701
  6363  0FB1  2FB3               	goto	u3700
  6364  0FB2                     u3701:
  6365  0FB2  2FBE               	goto	l2472
  6366  0FB3                     u3700:
  6367  0FB3                     l2470:
  6368  0FB3  307F               	movlw	127
  6369  0FB4  1283               	bcf	3,5	;RP0=0, select bank0
  6370  0FB5  1303               	bcf	3,6	;RP1=0, select bank0
  6371  0FB6  00BF               	movwf	___flmul@prod+3
  6372  0FB7  3080               	movlw	128
  6373  0FB8  00BE               	movwf	___flmul@prod+2
  6374  0FB9  3000               	movlw	0
  6375  0FBA  00BD               	movwf	___flmul@prod+1
  6376  0FBB  3000               	movlw	0
  6377  0FBC  00BC               	movwf	___flmul@prod
  6378  0FBD  2FF3               	goto	l679
  6379  0FBE                     l2472:
  6380  0FBE  1283               	bcf	3,5	;RP0=0, select bank0
  6381  0FBF  1303               	bcf	3,6	;RP1=0, select bank0
  6382  0FC0  0841               	movf	___flmul@temp+1,w
  6383  0FC1  3A80               	xorlw	128
  6384  0FC2  00FF               	movwf	btemp+1
  6385  0FC3  3080               	movlw	128
  6386  0FC4  027F               	subwf	btemp+1,w
  6387  0FC5  1D03               	skipz
  6388  0FC6  2FC9               	goto	u3715
  6389  0FC7  3001               	movlw	1
  6390  0FC8  0240               	subwf	___flmul@temp,w
  6391  0FC9                     u3715:
  6392  0FC9  1803               	skipnc
  6393  0FCA  2FCC               	goto	u3711
  6394  0FCB  2FCD               	goto	u3710
  6395  0FCC                     u3711:
  6396  0FCC  2FD9               	goto	l2478
  6397  0FCD                     u3710:
  6398  0FCD                     l2474:
  6399  0FCD  3000               	movlw	0
  6400  0FCE  1283               	bcf	3,5	;RP0=0, select bank0
  6401  0FCF  1303               	bcf	3,6	;RP1=0, select bank0
  6402  0FD0  00BF               	movwf	___flmul@prod+3
  6403  0FD1  3000               	movlw	0
  6404  0FD2  00BE               	movwf	___flmul@prod+2
  6405  0FD3  3000               	movlw	0
  6406  0FD4  00BD               	movwf	___flmul@prod+1
  6407  0FD5  3000               	movlw	0
  6408  0FD6  00BC               	movwf	___flmul@prod
  6409  0FD7                     l2476:
  6410  0FD7  01B5               	clrf	___flmul@sign
  6411  0FD8  2FF3               	goto	l679
  6412  0FD9                     l2478:
  6413  0FD9  1283               	bcf	3,5	;RP0=0, select bank0
  6414  0FDA  1303               	bcf	3,6	;RP1=0, select bank0
  6415  0FDB  0840               	movf	___flmul@temp,w
  6416  0FDC  00B0               	movwf	??___flmul
  6417  0FDD  0830               	movf	??___flmul,w
  6418  0FDE  00BB               	movwf	___flmul@bexp
  6419  0FDF  30FF               	movlw	255
  6420  0FE0  05BC               	andwf	___flmul@prod,f
  6421  0FE1  30FF               	movlw	255
  6422  0FE2  05BD               	andwf	___flmul@prod+1,f
  6423  0FE3  307F               	movlw	127
  6424  0FE4  05BE               	andwf	___flmul@prod+2,f
  6425  0FE5  3000               	movlw	0
  6426  0FE6  05BF               	andwf	___flmul@prod+3,f
  6427  0FE7                     l2480:
  6428  0FE7  1C3B               	btfss	___flmul@bexp,0
  6429  0FE8  2FEA               	goto	u3721
  6430  0FE9  2FEB               	goto	u3720
  6431  0FEA                     u3721:
  6432  0FEA  2FEC               	goto	l2484
  6433  0FEB                     u3720:
  6434  0FEB                     l2482:
  6435  0FEB  17BE               	bsf	___flmul@prod+2,7
  6436  0FEC                     l2484:
  6437  0FEC  083B               	movf	___flmul@bexp,w
  6438  0FED  00B0               	movwf	??___flmul
  6439  0FEE  1003               	clrc
  6440  0FEF  0C30               	rrf	??___flmul,w
  6441  0FF0  00B1               	movwf	??___flmul+1
  6442  0FF1  0831               	movf	??___flmul+1,w
  6443  0FF2  00BF               	movwf	___flmul@prod+3
  6444  0FF3                     l679:
  6445  0FF3  0835               	movf	___flmul@sign,w
  6446  0FF4  00B0               	movwf	??___flmul
  6447  0FF5  0830               	movf	??___flmul,w
  6448  0FF6  04BF               	iorwf	___flmul@prod+3,f
  6449  0FF7                     l2486:
  6450  0FF7  083F               	movf	___flmul@prod+3,w
  6451  0FF8  00AB               	movwf	?___flmul+3
  6452  0FF9  083E               	movf	___flmul@prod+2,w
  6453  0FFA  00AA               	movwf	?___flmul+2
  6454  0FFB  083D               	movf	___flmul@prod+1,w
  6455  0FFC  00A9               	movwf	?___flmul+1
  6456  0FFD  083C               	movf	___flmul@prod,w
  6457  0FFE  00A8               	movwf	?___flmul
  6458  0FFF                     l667:
  6459  0FFF  0008               	return
  6460  1000                     __end_of___flmul:
  6461                           
  6462                           	psect	text18
  6463  1534                     __ptext18:	
  6464 ;; *************** function __Umul8_16 *****************
  6465 ;; Defined at:
  6466 ;;		line 4 in file "C:\Program Files\Microchip\xc8\v2.32\pic\sources\c90\common\Umul8_16.c"
  6467 ;; Parameters:    Size  Location     Type
  6468 ;;  multiplier      1    wreg     unsigned char 
  6469 ;;  multiplicand    1    0[COMMON] unsigned char 
  6470 ;; Auto vars:     Size  Location     Type
  6471 ;;  multiplier      1    8[COMMON] unsigned char 
  6472 ;;  word_mpld       2    6[COMMON] unsigned int 
  6473 ;;  product         2    4[COMMON] unsigned int 
  6474 ;; Return value:  Size  Location     Type
  6475 ;;                  2    0[COMMON] unsigned int 
  6476 ;; Registers used:
  6477 ;;		wreg, status,2, status,0
  6478 ;; Tracked objects:
  6479 ;;		On entry : 0/0
  6480 ;;		On exit  : 0/0
  6481 ;;		Unchanged: 0/0
  6482 ;; Data sizes:     COMMON   BANK0   BANK1   BANK3   BANK2
  6483 ;;      Params:         2       0       0       0       0
  6484 ;;      Locals:         5       0       0       0       0
  6485 ;;      Temps:          2       0       0       0       0
  6486 ;;      Totals:         9       0       0       0       0
  6487 ;;Total ram usage:        9 bytes
  6488 ;; Hardware stack levels used: 1
  6489 ;; This function calls:
  6490 ;;		Nothing
  6491 ;; This function is called by:
  6492 ;;		___flmul
  6493 ;; This function uses a non-reentrant model
  6494 ;;
  6495                           
  6496                           
  6497                           ;psect for function __Umul8_16
  6498  1534                     __Umul8_16:
  6499                           
  6500                           ;incstack = 0
  6501                           ; Regs used in __Umul8_16: [wreg+status,2+status,0]
  6502                           ;__Umul8_16@multiplier stored from wreg
  6503  1534  00F8               	movwf	__Umul8_16@multiplier
  6504  1535                     l2038:
  6505  1535  01F4               	clrf	__Umul8_16@product
  6506  1536  01F5               	clrf	__Umul8_16@product+1
  6507  1537                     l2040:
  6508  1537  0870               	movf	__Umul8_16@multiplicand,w
  6509  1538  00F2               	movwf	??__Umul8_16
  6510  1539  01F3               	clrf	??__Umul8_16+1
  6511  153A  0872               	movf	??__Umul8_16,w
  6512  153B  00F6               	movwf	__Umul8_16@word_mpld
  6513  153C  0873               	movf	??__Umul8_16+1,w
  6514  153D  00F7               	movwf	__Umul8_16@word_mpld+1
  6515  153E                     l2042:
  6516  153E  1C78               	btfss	__Umul8_16@multiplier,0
  6517  153F  2D41               	goto	u2731
  6518  1540  2D42               	goto	u2730
  6519  1541                     u2731:
  6520  1541  2D48               	goto	l686
  6521  1542                     u2730:
  6522  1542                     l2044:
  6523  1542  0876               	movf	__Umul8_16@word_mpld,w
  6524  1543  07F4               	addwf	__Umul8_16@product,f
  6525  1544  1803               	skipnc
  6526  1545  0AF5               	incf	__Umul8_16@product+1,f
  6527  1546  0877               	movf	__Umul8_16@word_mpld+1,w
  6528  1547  07F5               	addwf	__Umul8_16@product+1,f
  6529  1548                     l686:
  6530  1548  3001               	movlw	1
  6531  1549                     u2745:
  6532  1549  1003               	clrc
  6533  154A  0DF6               	rlf	__Umul8_16@word_mpld,f
  6534  154B  0DF7               	rlf	__Umul8_16@word_mpld+1,f
  6535  154C  3EFF               	addlw	-1
  6536  154D  1D03               	skipz
  6537  154E  2D49               	goto	u2745
  6538  154F  1003               	clrc
  6539  1550  0CF8               	rrf	__Umul8_16@multiplier,f
  6540  1551                     l2046:
  6541  1551  0878               	movf	__Umul8_16@multiplier,w
  6542  1552  1D03               	btfss	3,2
  6543  1553  2D55               	goto	u2751
  6544  1554  2D56               	goto	u2750
  6545  1555                     u2751:
  6546  1555  2D3E               	goto	l2042
  6547  1556                     u2750:
  6548  1556                     l2048:
  6549  1556  0875               	movf	__Umul8_16@product+1,w
  6550  1557  00F1               	movwf	?__Umul8_16+1
  6551  1558  0874               	movf	__Umul8_16@product,w
  6552  1559  00F0               	movwf	?__Umul8_16
  6553  155A                     l688:
  6554  155A  0008               	return
  6555  155B                     __end_of__Umul8_16:
  6556                           
  6557                           	psect	text19
  6558  175E                     __ptext19:	
  6559 ;; *************** function ___flge *****************
  6560 ;; Defined at:
  6561 ;;		line 4 in file "C:\Program Files\Microchip\xc8\v2.32\pic\sources\c90\common\flge.c"
  6562 ;; Parameters:    Size  Location     Type
  6563 ;;  ff1             4    0[COMMON] unsigned int 
  6564 ;;  ff2             4    4[COMMON] unsigned int 
  6565 ;; Auto vars:     Size  Location     Type
  6566 ;;		None
  6567 ;; Return value:  Size  Location     Type
  6568 ;;		None               void
  6569 ;; Registers used:
  6570 ;;		wreg, status,2, status,0
  6571 ;; Tracked objects:
  6572 ;;		On entry : 0/0
  6573 ;;		On exit  : 0/0
  6574 ;;		Unchanged: 0/0
  6575 ;; Data sizes:     COMMON   BANK0   BANK1   BANK3   BANK2
  6576 ;;      Params:         8       0       0       0       0
  6577 ;;      Locals:         0       0       0       0       0
  6578 ;;      Temps:          4       0       0       0       0
  6579 ;;      Totals:        12       0       0       0       0
  6580 ;;Total ram usage:       12 bytes
  6581 ;; Hardware stack levels used: 1
  6582 ;; This function calls:
  6583 ;;		Nothing
  6584 ;; This function is called by:
  6585 ;;		_Quadra_Al
  6586 ;; This function uses a non-reentrant model
  6587 ;;
  6588                           
  6589                           
  6590                           ;psect for function ___flge
  6591  175E                     ___flge:
  6592  175E                     l2174:	
  6593                           ;incstack = 0
  6594                           ; Regs used in ___flge: [wreg+status,2+status,0]
  6595                           
  6596  175E  3000               	movlw	0
  6597  175F  0570               	andwf	___flge@ff1,w
  6598  1760  00F8               	movwf	??___flge
  6599  1761  3000               	movlw	0
  6600  1762  0571               	andwf	___flge@ff1+1,w
  6601  1763  00F9               	movwf	??___flge+1
  6602  1764  3080               	movlw	128
  6603  1765  0572               	andwf	___flge@ff1+2,w
  6604  1766  00FA               	movwf	??___flge+2
  6605  1767  307F               	movlw	127
  6606  1768  0573               	andwf	___flge@ff1+3,w
  6607  1769  00FB               	movwf	??___flge+3
  6608  176A  087B               	movf	??___flge+3,w
  6609  176B  047A               	iorwf	??___flge+2,w
  6610  176C  0479               	iorwf	??___flge+1,w
  6611  176D  0478               	iorwf	??___flge,w
  6612  176E  1D03               	skipz
  6613  176F  2F71               	goto	u2991
  6614  1770  2F72               	goto	u2990
  6615  1771                     u2991:
  6616  1771  2F7A               	goto	l452
  6617  1772                     u2990:
  6618  1772                     l2176:
  6619  1772  3000               	movlw	0
  6620  1773  00F3               	movwf	___flge@ff1+3
  6621  1774  3000               	movlw	0
  6622  1775  00F2               	movwf	___flge@ff1+2
  6623  1776  3000               	movlw	0
  6624  1777  00F1               	movwf	___flge@ff1+1
  6625  1778  3000               	movlw	0
  6626  1779  00F0               	movwf	___flge@ff1
  6627  177A                     l452:
  6628  177A  3000               	movlw	0
  6629  177B  0574               	andwf	___flge@ff2,w
  6630  177C  00F8               	movwf	??___flge
  6631  177D  3000               	movlw	0
  6632  177E  0575               	andwf	___flge@ff2+1,w
  6633  177F  00F9               	movwf	??___flge+1
  6634  1780  3080               	movlw	128
  6635  1781  0576               	andwf	___flge@ff2+2,w
  6636  1782  00FA               	movwf	??___flge+2
  6637  1783  307F               	movlw	127
  6638  1784  0577               	andwf	___flge@ff2+3,w
  6639  1785  00FB               	movwf	??___flge+3
  6640  1786  087B               	movf	??___flge+3,w
  6641  1787  047A               	iorwf	??___flge+2,w
  6642  1788  0479               	iorwf	??___flge+1,w
  6643  1789  0478               	iorwf	??___flge,w
  6644  178A  1D03               	skipz
  6645  178B  2F8D               	goto	u3001
  6646  178C  2F8E               	goto	u3000
  6647  178D                     u3001:
  6648  178D  2F96               	goto	l2180
  6649  178E                     u3000:
  6650  178E                     l2178:
  6651  178E  3000               	movlw	0
  6652  178F  00F7               	movwf	___flge@ff2+3
  6653  1790  3000               	movlw	0
  6654  1791  00F6               	movwf	___flge@ff2+2
  6655  1792  3000               	movlw	0
  6656  1793  00F5               	movwf	___flge@ff2+1
  6657  1794  3000               	movlw	0
  6658  1795  00F4               	movwf	___flge@ff2
  6659  1796                     l2180:
  6660  1796  1FF3               	btfss	___flge@ff1+3,7
  6661  1797  2F99               	goto	u3011
  6662  1798  2F9A               	goto	u3010
  6663  1799                     u3011:
  6664  1799  2FBE               	goto	l2184
  6665  179A                     u3010:
  6666  179A                     l2182:
  6667  179A  3000               	movlw	0
  6668  179B  00F8               	movwf	??___flge
  6669  179C  3000               	movlw	0
  6670  179D  00F9               	movwf	??___flge+1
  6671  179E  3000               	movlw	0
  6672  179F  00FA               	movwf	??___flge+2
  6673  17A0  3080               	movlw	128
  6674  17A1  00FB               	movwf	??___flge+3
  6675  17A2  0870               	movf	___flge@ff1,w
  6676  17A3  02F8               	subwf	??___flge,f
  6677  17A4  0871               	movf	___flge@ff1+1,w
  6678  17A5  1C03               	skipc
  6679  17A6  0F71               	incfsz	___flge@ff1+1,w
  6680  17A7  2FA9               	goto	u3021
  6681  17A8  2FAA               	goto	u3022
  6682  17A9                     u3021:
  6683  17A9  02F9               	subwf	??___flge+1,f
  6684  17AA                     u3022:
  6685  17AA  0872               	movf	___flge@ff1+2,w
  6686  17AB  1C03               	skipc
  6687  17AC  0F72               	incfsz	___flge@ff1+2,w
  6688  17AD  2FAF               	goto	u3023
  6689  17AE  2FB0               	goto	u3024
  6690  17AF                     u3023:
  6691  17AF  02FA               	subwf	??___flge+2,f
  6692  17B0                     u3024:
  6693  17B0  0873               	movf	___flge@ff1+3,w
  6694  17B1  1C03               	skipc
  6695  17B2  0F73               	incfsz	___flge@ff1+3,w
  6696  17B3  2FB5               	goto	u3025
  6697  17B4  2FB6               	goto	u3026
  6698  17B5                     u3025:
  6699  17B5  02FB               	subwf	??___flge+3,f
  6700  17B6                     u3026:
  6701  17B6  087B               	movf	??___flge+3,w
  6702  17B7  00F3               	movwf	___flge@ff1+3
  6703  17B8  087A               	movf	??___flge+2,w
  6704  17B9  00F2               	movwf	___flge@ff1+2
  6705  17BA  0879               	movf	??___flge+1,w
  6706  17BB  00F1               	movwf	___flge@ff1+1
  6707  17BC  0878               	movf	??___flge,w
  6708  17BD  00F0               	movwf	___flge@ff1
  6709  17BE                     l2184:
  6710  17BE  1FF7               	btfss	___flge@ff2+3,7
  6711  17BF  2FC1               	goto	u3031
  6712  17C0  2FC2               	goto	u3030
  6713  17C1                     u3031:
  6714  17C1  2FE6               	goto	l455
  6715  17C2                     u3030:
  6716  17C2                     l2186:
  6717  17C2  3000               	movlw	0
  6718  17C3  00F8               	movwf	??___flge
  6719  17C4  3000               	movlw	0
  6720  17C5  00F9               	movwf	??___flge+1
  6721  17C6  3000               	movlw	0
  6722  17C7  00FA               	movwf	??___flge+2
  6723  17C8  3080               	movlw	128
  6724  17C9  00FB               	movwf	??___flge+3
  6725  17CA  0874               	movf	___flge@ff2,w
  6726  17CB  02F8               	subwf	??___flge,f
  6727  17CC  0875               	movf	___flge@ff2+1,w
  6728  17CD  1C03               	skipc
  6729  17CE  0F75               	incfsz	___flge@ff2+1,w
  6730  17CF  2FD1               	goto	u3041
  6731  17D0  2FD2               	goto	u3042
  6732  17D1                     u3041:
  6733  17D1  02F9               	subwf	??___flge+1,f
  6734  17D2                     u3042:
  6735  17D2  0876               	movf	___flge@ff2+2,w
  6736  17D3  1C03               	skipc
  6737  17D4  0F76               	incfsz	___flge@ff2+2,w
  6738  17D5  2FD7               	goto	u3043
  6739  17D6  2FD8               	goto	u3044
  6740  17D7                     u3043:
  6741  17D7  02FA               	subwf	??___flge+2,f
  6742  17D8                     u3044:
  6743  17D8  0877               	movf	___flge@ff2+3,w
  6744  17D9  1C03               	skipc
  6745  17DA  0F77               	incfsz	___flge@ff2+3,w
  6746  17DB  2FDD               	goto	u3045
  6747  17DC  2FDE               	goto	u3046
  6748  17DD                     u3045:
  6749  17DD  02FB               	subwf	??___flge+3,f
  6750  17DE                     u3046:
  6751  17DE  087B               	movf	??___flge+3,w
  6752  17DF  00F7               	movwf	___flge@ff2+3
  6753  17E0  087A               	movf	??___flge+2,w
  6754  17E1  00F6               	movwf	___flge@ff2+2
  6755  17E2  0879               	movf	??___flge+1,w
  6756  17E3  00F5               	movwf	___flge@ff2+1
  6757  17E4  0878               	movf	??___flge,w
  6758  17E5  00F4               	movwf	___flge@ff2
  6759  17E6                     l455:
  6760  17E6  3080               	movlw	128
  6761  17E7  06F3               	xorwf	___flge@ff1+3,f
  6762  17E8  3080               	movlw	128
  6763  17E9  06F7               	xorwf	___flge@ff2+3,f
  6764  17EA  0877               	movf	___flge@ff2+3,w
  6765  17EB  0273               	subwf	___flge@ff1+3,w
  6766  17EC  1D03               	skipz
  6767  17ED  2FF8               	goto	u3055
  6768  17EE  0876               	movf	___flge@ff2+2,w
  6769  17EF  0272               	subwf	___flge@ff1+2,w
  6770  17F0  1D03               	skipz
  6771  17F1  2FF8               	goto	u3055
  6772  17F2  0875               	movf	___flge@ff2+1,w
  6773  17F3  0271               	subwf	___flge@ff1+1,w
  6774  17F4  1D03               	skipz
  6775  17F5  2FF8               	goto	u3055
  6776  17F6  0874               	movf	___flge@ff2,w
  6777  17F7  0270               	subwf	___flge@ff1,w
  6778  17F8                     u3055:
  6779  17F8  1803               	skipnc
  6780  17F9  2FFB               	goto	u3051
  6781  17FA  2FFC               	goto	u3050
  6782  17FB                     u3051:
  6783  17FB  2FFE               	goto	l2190
  6784  17FC                     u3050:
  6785  17FC                     l2188:
  6786  17FC  1003               	clrc
  6787  17FD  2FFF               	goto	l456
  6788  17FE                     l2190:
  6789  17FE  1403               	setc
  6790  17FF                     l456:
  6791  17FF  0008               	return
  6792  1800                     __end_of___flge:
  6793                           
  6794                           	psect	text20
  6795  0AC2                     __ptext20:	
  6796 ;; *************** function ___fldiv *****************
  6797 ;; Defined at:
  6798 ;;		line 8 in file "C:\Program Files\Microchip\xc8\v2.32\pic\sources\c90\common\sprcdiv.c"
  6799 ;; Parameters:    Size  Location     Type
  6800 ;;  a               4   34[BANK0 ] unsigned int 
  6801 ;;  b               4   38[BANK0 ] unsigned int 
  6802 ;; Auto vars:     Size  Location     Type
  6803 ;;  grs             4   54[BANK0 ] unsigned long 
  6804 ;;  rem             4   47[BANK0 ] unsigned long 
  6805 ;;  new_exp         2   52[BANK0 ] int 
  6806 ;;  aexp            1   59[BANK0 ] unsigned char 
  6807 ;;  bexp            1   58[BANK0 ] unsigned char 
  6808 ;;  sign            1   51[BANK0 ] unsigned char 
  6809 ;; Return value:  Size  Location     Type
  6810 ;;                  4   34[BANK0 ] unsigned char 
  6811 ;; Registers used:
  6812 ;;		wreg, status,2, status,0, btemp+1
  6813 ;; Tracked objects:
  6814 ;;		On entry : 0/0
  6815 ;;		On exit  : 0/0
  6816 ;;		Unchanged: 0/0
  6817 ;; Data sizes:     COMMON   BANK0   BANK1   BANK3   BANK2
  6818 ;;      Params:         0       8       0       0       0
  6819 ;;      Locals:         0      13       0       0       0
  6820 ;;      Temps:          0       5       0       0       0
  6821 ;;      Totals:         0      26       0       0       0
  6822 ;;Total ram usage:       26 bytes
  6823 ;; Hardware stack levels used: 1
  6824 ;; This function calls:
  6825 ;;		Nothing
  6826 ;; This function is called by:
  6827 ;;		_Quadra_Al
  6828 ;; This function uses a non-reentrant model
  6829 ;;
  6830                           
  6831                           
  6832                           ;psect for function ___fldiv
  6833  0AC2                     ___fldiv:
  6834  0AC2                     l2208:	
  6835                           ;incstack = 0
  6836                           ; Regs used in ___fldiv: [wreg+status,2+status,0+btemp+1]
  6837                           
  6838  0AC2  1283               	bcf	3,5	;RP0=0, select bank0
  6839  0AC3  1303               	bcf	3,6	;RP1=0, select bank0
  6840  0AC4  0849               	movf	___fldiv@b+3,w
  6841  0AC5  3980               	andlw	128
  6842  0AC6  00CA               	movwf	??___fldiv
  6843  0AC7  084A               	movf	??___fldiv,w
  6844  0AC8  00D3               	movwf	___fldiv@sign
  6845  0AC9                     l2210:
  6846  0AC9  0849               	movf	___fldiv@b+3,w
  6847  0ACA  00CA               	movwf	??___fldiv
  6848  0ACB  074A               	addwf	??___fldiv,w
  6849  0ACC  00CB               	movwf	??___fldiv+1
  6850  0ACD  084B               	movf	??___fldiv+1,w
  6851  0ACE  00DA               	movwf	___fldiv@bexp
  6852  0ACF                     l2212:
  6853  0ACF  1FC8               	btfss	___fldiv@b+2,7
  6854  0AD0  2AD2               	goto	u3071
  6855  0AD1  2AD3               	goto	u3070
  6856  0AD2                     u3071:
  6857  0AD2  2AD4               	goto	l2216
  6858  0AD3                     u3070:
  6859  0AD3                     l2214:
  6860  0AD3  145A               	bsf	___fldiv@bexp,0
  6861  0AD4                     l2216:
  6862  0AD4  085A               	movf	___fldiv@bexp,w
  6863  0AD5  1903               	btfsc	3,2
  6864  0AD6  2AD8               	goto	u3081
  6865  0AD7  2AD9               	goto	u3080
  6866  0AD8                     u3081:
  6867  0AD8  2AE9               	goto	l2226
  6868  0AD9                     u3080:
  6869  0AD9                     l2218:
  6870  0AD9  0A5A               	incf	___fldiv@bexp,w
  6871  0ADA  1D03               	btfss	3,2
  6872  0ADB  2ADD               	goto	u3091
  6873  0ADC  2ADE               	goto	u3090
  6874  0ADD                     u3091:
  6875  0ADD  2AE6               	goto	l2222
  6876  0ADE                     u3090:
  6877  0ADE                     l2220:
  6878  0ADE  3000               	movlw	0
  6879  0ADF  00C9               	movwf	___fldiv@b+3
  6880  0AE0  3000               	movlw	0
  6881  0AE1  00C8               	movwf	___fldiv@b+2
  6882  0AE2  3000               	movlw	0
  6883  0AE3  00C7               	movwf	___fldiv@b+1
  6884  0AE4  3000               	movlw	0
  6885  0AE5  00C6               	movwf	___fldiv@b
  6886  0AE6                     l2222:
  6887  0AE6  17C8               	bsf	___fldiv@b+2,7
  6888  0AE7                     l2224:
  6889  0AE7  01C9               	clrf	___fldiv@b+3
  6890  0AE8  2AF1               	goto	l2228
  6891  0AE9                     l2226:
  6892  0AE9  3000               	movlw	0
  6893  0AEA  00C9               	movwf	___fldiv@b+3
  6894  0AEB  3000               	movlw	0
  6895  0AEC  00C8               	movwf	___fldiv@b+2
  6896  0AED  3000               	movlw	0
  6897  0AEE  00C7               	movwf	___fldiv@b+1
  6898  0AEF  3000               	movlw	0
  6899  0AF0  00C6               	movwf	___fldiv@b
  6900  0AF1                     l2228:
  6901  0AF1  0845               	movf	___fldiv@a+3,w
  6902  0AF2  3980               	andlw	128
  6903  0AF3  00CA               	movwf	??___fldiv
  6904  0AF4  084A               	movf	??___fldiv,w
  6905  0AF5  06D3               	xorwf	___fldiv@sign,f
  6906  0AF6                     l2230:
  6907  0AF6  0845               	movf	___fldiv@a+3,w
  6908  0AF7  00CA               	movwf	??___fldiv
  6909  0AF8  074A               	addwf	??___fldiv,w
  6910  0AF9  00CB               	movwf	??___fldiv+1
  6911  0AFA  084B               	movf	??___fldiv+1,w
  6912  0AFB  00DB               	movwf	___fldiv@aexp
  6913  0AFC                     l2232:
  6914  0AFC  1FC4               	btfss	___fldiv@a+2,7
  6915  0AFD  2AFF               	goto	u3101
  6916  0AFE  2B00               	goto	u3100
  6917  0AFF                     u3101:
  6918  0AFF  2B01               	goto	l2236
  6919  0B00                     u3100:
  6920  0B00                     l2234:
  6921  0B00  145B               	bsf	___fldiv@aexp,0
  6922  0B01                     l2236:
  6923  0B01  085B               	movf	___fldiv@aexp,w
  6924  0B02  1903               	btfsc	3,2
  6925  0B03  2B05               	goto	u3111
  6926  0B04  2B06               	goto	u3110
  6927  0B05                     u3111:
  6928  0B05  2B16               	goto	l2246
  6929  0B06                     u3110:
  6930  0B06                     l2238:
  6931  0B06  0A5B               	incf	___fldiv@aexp,w
  6932  0B07  1D03               	btfss	3,2
  6933  0B08  2B0A               	goto	u3121
  6934  0B09  2B0B               	goto	u3120
  6935  0B0A                     u3121:
  6936  0B0A  2B13               	goto	l2242
  6937  0B0B                     u3120:
  6938  0B0B                     l2240:
  6939  0B0B  3000               	movlw	0
  6940  0B0C  00C5               	movwf	___fldiv@a+3
  6941  0B0D  3000               	movlw	0
  6942  0B0E  00C4               	movwf	___fldiv@a+2
  6943  0B0F  3000               	movlw	0
  6944  0B10  00C3               	movwf	___fldiv@a+1
  6945  0B11  3000               	movlw	0
  6946  0B12  00C2               	movwf	___fldiv@a
  6947  0B13                     l2242:
  6948  0B13  17C4               	bsf	___fldiv@a+2,7
  6949  0B14                     l2244:
  6950  0B14  01C5               	clrf	___fldiv@a+3
  6951  0B15  2B1E               	goto	l627
  6952  0B16                     l2246:
  6953  0B16  3000               	movlw	0
  6954  0B17  00C5               	movwf	___fldiv@a+3
  6955  0B18  3000               	movlw	0
  6956  0B19  00C4               	movwf	___fldiv@a+2
  6957  0B1A  3000               	movlw	0
  6958  0B1B  00C3               	movwf	___fldiv@a+1
  6959  0B1C  3000               	movlw	0
  6960  0B1D  00C2               	movwf	___fldiv@a
  6961  0B1E                     l627:
  6962  0B1E  0845               	movf	___fldiv@a+3,w
  6963  0B1F  0444               	iorwf	___fldiv@a+2,w
  6964  0B20  0443               	iorwf	___fldiv@a+1,w
  6965  0B21  0442               	iorwf	___fldiv@a,w
  6966  0B22  1D03               	skipz
  6967  0B23  2B25               	goto	u3131
  6968  0B24  2B26               	goto	u3130
  6969  0B25                     u3131:
  6970  0B25  2B3F               	goto	l2256
  6971  0B26                     u3130:
  6972  0B26                     l2248:
  6973  0B26  3000               	movlw	0
  6974  0B27  00C9               	movwf	___fldiv@b+3
  6975  0B28  3000               	movlw	0
  6976  0B29  00C8               	movwf	___fldiv@b+2
  6977  0B2A  3000               	movlw	0
  6978  0B2B  00C7               	movwf	___fldiv@b+1
  6979  0B2C  3000               	movlw	0
  6980  0B2D  00C6               	movwf	___fldiv@b
  6981  0B2E  3080               	movlw	128
  6982  0B2F  04C8               	iorwf	___fldiv@b+2,f
  6983  0B30  307F               	movlw	127
  6984  0B31  04C9               	iorwf	___fldiv@b+3,f
  6985  0B32                     l2250:
  6986  0B32  0853               	movf	___fldiv@sign,w
  6987  0B33  00CA               	movwf	??___fldiv
  6988  0B34  084A               	movf	??___fldiv,w
  6989  0B35  04C9               	iorwf	___fldiv@b+3,f
  6990  0B36                     l2252:
  6991  0B36  0849               	movf	___fldiv@b+3,w
  6992  0B37  00C5               	movwf	?___fldiv+3
  6993  0B38  0848               	movf	___fldiv@b+2,w
  6994  0B39  00C4               	movwf	?___fldiv+2
  6995  0B3A  0847               	movf	___fldiv@b+1,w
  6996  0B3B  00C3               	movwf	?___fldiv+1
  6997  0B3C  0846               	movf	___fldiv@b,w
  6998  0B3D  00C2               	movwf	?___fldiv
  6999  0B3E  2C9E               	goto	l629
  7000  0B3F                     l2256:
  7001  0B3F  085A               	movf	___fldiv@bexp,w
  7002  0B40  1D03               	btfss	3,2
  7003  0B41  2B43               	goto	u3141
  7004  0B42  2B44               	goto	u3140
  7005  0B43                     u3141:
  7006  0B43  2B4D               	goto	l2262
  7007  0B44                     u3140:
  7008  0B44                     l2258:
  7009  0B44  3000               	movlw	0
  7010  0B45  00C5               	movwf	?___fldiv+3
  7011  0B46  3000               	movlw	0
  7012  0B47  00C4               	movwf	?___fldiv+2
  7013  0B48  3000               	movlw	0
  7014  0B49  00C3               	movwf	?___fldiv+1
  7015  0B4A  3000               	movlw	0
  7016  0B4B  00C2               	movwf	?___fldiv
  7017  0B4C  2C9E               	goto	l629
  7018  0B4D                     l2262:
  7019  0B4D  085A               	movf	___fldiv@bexp,w
  7020  0B4E  00CA               	movwf	??___fldiv
  7021  0B4F  01CB               	clrf	??___fldiv+1
  7022  0B50  084B               	movf	??___fldiv+1,w
  7023  0B51  00CD               	movwf	??___fldiv+3
  7024  0B52  085B               	movf	___fldiv@aexp,w
  7025  0B53  024A               	subwf	??___fldiv,w
  7026  0B54  00CC               	movwf	??___fldiv+2
  7027  0B55  1C03               	skipc
  7028  0B56  03CD               	decf	??___fldiv+3,f
  7029  0B57  084C               	movf	??___fldiv+2,w
  7030  0B58  3E7F               	addlw	127
  7031  0B59  00D4               	movwf	___fldiv@new_exp
  7032  0B5A  084D               	movf	??___fldiv+3,w
  7033  0B5B  1803               	skipnc
  7034  0B5C  3E01               	addlw	1
  7035  0B5D  3E00               	addlw	0
  7036  0B5E  00D5               	movwf	___fldiv@new_exp+1
  7037  0B5F                     l2264:
  7038  0B5F  0849               	movf	___fldiv@b+3,w
  7039  0B60  00D2               	movwf	___fldiv@rem+3
  7040  0B61  0848               	movf	___fldiv@b+2,w
  7041  0B62  00D1               	movwf	___fldiv@rem+2
  7042  0B63  0847               	movf	___fldiv@b+1,w
  7043  0B64  00D0               	movwf	___fldiv@rem+1
  7044  0B65  0846               	movf	___fldiv@b,w
  7045  0B66  00CF               	movwf	___fldiv@rem
  7046  0B67                     l2266:
  7047  0B67  3000               	movlw	0
  7048  0B68  00C9               	movwf	___fldiv@b+3
  7049  0B69  3000               	movlw	0
  7050  0B6A  00C8               	movwf	___fldiv@b+2
  7051  0B6B  3000               	movlw	0
  7052  0B6C  00C7               	movwf	___fldiv@b+1
  7053  0B6D  3000               	movlw	0
  7054  0B6E  00C6               	movwf	___fldiv@b
  7055  0B6F                     l2268:
  7056  0B6F  3000               	movlw	0
  7057  0B70  00D9               	movwf	___fldiv@grs+3
  7058  0B71  3000               	movlw	0
  7059  0B72  00D8               	movwf	___fldiv@grs+2
  7060  0B73  3000               	movlw	0
  7061  0B74  00D7               	movwf	___fldiv@grs+1
  7062  0B75  3000               	movlw	0
  7063  0B76  00D6               	movwf	___fldiv@grs
  7064  0B77                     l2270:
  7065  0B77  01DB               	clrf	___fldiv@aexp
  7066  0B78  2BC3               	goto	l2290
  7067  0B79                     l2272:
  7068  0B79  085B               	movf	___fldiv@aexp,w
  7069  0B7A  1903               	btfsc	3,2
  7070  0B7B  2B7D               	goto	u3151
  7071  0B7C  2B7E               	goto	u3150
  7072  0B7D                     u3151:
  7073  0B7D  2B9E               	goto	l2282
  7074  0B7E                     u3150:
  7075  0B7E                     l2274:
  7076  0B7E  3001               	movlw	1
  7077  0B7F  00CA               	movwf	??___fldiv
  7078  0B80                     u3165:
  7079  0B80  1003               	clrc
  7080  0B81  0DCF               	rlf	___fldiv@rem,f
  7081  0B82  0DD0               	rlf	___fldiv@rem+1,f
  7082  0B83  0DD1               	rlf	___fldiv@rem+2,f
  7083  0B84  0DD2               	rlf	___fldiv@rem+3,f
  7084  0B85  0BCA               	decfsz	??___fldiv,f
  7085  0B86  2B80               	goto	u3165
  7086  0B87  3001               	movlw	1
  7087  0B88  00CA               	movwf	??___fldiv
  7088  0B89                     u3175:
  7089  0B89  1003               	clrc
  7090  0B8A  0DC6               	rlf	___fldiv@b,f
  7091  0B8B  0DC7               	rlf	___fldiv@b+1,f
  7092  0B8C  0DC8               	rlf	___fldiv@b+2,f
  7093  0B8D  0DC9               	rlf	___fldiv@b+3,f
  7094  0B8E  0BCA               	decfsz	??___fldiv,f
  7095  0B8F  2B89               	goto	u3175
  7096  0B90                     l2276:
  7097  0B90  1FD9               	btfss	___fldiv@grs+3,7
  7098  0B91  2B93               	goto	u3181
  7099  0B92  2B94               	goto	u3180
  7100  0B93                     u3181:
  7101  0B93  2B95               	goto	l2280
  7102  0B94                     u3180:
  7103  0B94                     l2278:
  7104  0B94  1446               	bsf	___fldiv@b,0
  7105  0B95                     l2280:
  7106  0B95  3001               	movlw	1
  7107  0B96  00CA               	movwf	??___fldiv
  7108  0B97                     u3195:
  7109  0B97  1003               	clrc
  7110  0B98  0DD6               	rlf	___fldiv@grs,f
  7111  0B99  0DD7               	rlf	___fldiv@grs+1,f
  7112  0B9A  0DD8               	rlf	___fldiv@grs+2,f
  7113  0B9B  0DD9               	rlf	___fldiv@grs+3,f
  7114  0B9C  0BCA               	decfsz	??___fldiv,f
  7115  0B9D  2B97               	goto	u3195
  7116  0B9E                     l2282:
  7117  0B9E  0845               	movf	___fldiv@a+3,w
  7118  0B9F  0252               	subwf	___fldiv@rem+3,w
  7119  0BA0  1D03               	skipz
  7120  0BA1  2BAC               	goto	u3205
  7121  0BA2  0844               	movf	___fldiv@a+2,w
  7122  0BA3  0251               	subwf	___fldiv@rem+2,w
  7123  0BA4  1D03               	skipz
  7124  0BA5  2BAC               	goto	u3205
  7125  0BA6  0843               	movf	___fldiv@a+1,w
  7126  0BA7  0250               	subwf	___fldiv@rem+1,w
  7127  0BA8  1D03               	skipz
  7128  0BA9  2BAC               	goto	u3205
  7129  0BAA  0842               	movf	___fldiv@a,w
  7130  0BAB  024F               	subwf	___fldiv@rem,w
  7131  0BAC                     u3205:
  7132  0BAC  1C03               	skipc
  7133  0BAD  2BAF               	goto	u3201
  7134  0BAE  2BB0               	goto	u3200
  7135  0BAF                     u3201:
  7136  0BAF  2BBF               	goto	l2288
  7137  0BB0                     u3200:
  7138  0BB0                     l2284:
  7139  0BB0  1759               	bsf	___fldiv@grs+3,6
  7140  0BB1                     l2286:
  7141  0BB1  0842               	movf	___fldiv@a,w
  7142  0BB2  02CF               	subwf	___fldiv@rem,f
  7143  0BB3  0843               	movf	___fldiv@a+1,w
  7144  0BB4  1C03               	skipc
  7145  0BB5  0F43               	incfsz	___fldiv@a+1,w
  7146  0BB6  02D0               	subwf	___fldiv@rem+1,f
  7147  0BB7  0844               	movf	___fldiv@a+2,w
  7148  0BB8  1C03               	skipc
  7149  0BB9  0F44               	incfsz	___fldiv@a+2,w
  7150  0BBA  02D1               	subwf	___fldiv@rem+2,f
  7151  0BBB  0845               	movf	___fldiv@a+3,w
  7152  0BBC  1C03               	skipc
  7153  0BBD  0F45               	incfsz	___fldiv@a+3,w
  7154  0BBE  02D2               	subwf	___fldiv@rem+3,f
  7155  0BBF                     l2288:
  7156  0BBF  3001               	movlw	1
  7157  0BC0  00CA               	movwf	??___fldiv
  7158  0BC1  084A               	movf	??___fldiv,w
  7159  0BC2  07DB               	addwf	___fldiv@aexp,f
  7160  0BC3                     l2290:
  7161  0BC3  301A               	movlw	26
  7162  0BC4  025B               	subwf	___fldiv@aexp,w
  7163  0BC5  1C03               	skipc
  7164  0BC6  2BC8               	goto	u3211
  7165  0BC7  2BC9               	goto	u3210
  7166  0BC8                     u3211:
  7167  0BC8  2B79               	goto	l2272
  7168  0BC9                     u3210:
  7169  0BC9                     l2292:
  7170  0BC9  0852               	movf	___fldiv@rem+3,w
  7171  0BCA  0451               	iorwf	___fldiv@rem+2,w
  7172  0BCB  0450               	iorwf	___fldiv@rem+1,w
  7173  0BCC  044F               	iorwf	___fldiv@rem,w
  7174  0BCD  1903               	skipnz
  7175  0BCE  2BD0               	goto	u3221
  7176  0BCF  2BD1               	goto	u3220
  7177  0BD0                     u3221:
  7178  0BD0  2BF0               	goto	l2306
  7179  0BD1                     u3220:
  7180  0BD1                     l2294:
  7181  0BD1  1456               	bsf	___fldiv@grs,0
  7182  0BD2  2BF0               	goto	l2306
  7183  0BD3                     l2296:
  7184  0BD3  3001               	movlw	1
  7185  0BD4  00CA               	movwf	??___fldiv
  7186  0BD5                     u3235:
  7187  0BD5  1003               	clrc
  7188  0BD6  0DC6               	rlf	___fldiv@b,f
  7189  0BD7  0DC7               	rlf	___fldiv@b+1,f
  7190  0BD8  0DC8               	rlf	___fldiv@b+2,f
  7191  0BD9  0DC9               	rlf	___fldiv@b+3,f
  7192  0BDA  0BCA               	decfsz	??___fldiv,f
  7193  0BDB  2BD5               	goto	u3235
  7194  0BDC                     l2298:
  7195  0BDC  1FD9               	btfss	___fldiv@grs+3,7
  7196  0BDD  2BDF               	goto	u3241
  7197  0BDE  2BE0               	goto	u3240
  7198  0BDF                     u3241:
  7199  0BDF  2BE1               	goto	l2302
  7200  0BE0                     u3240:
  7201  0BE0                     l2300:
  7202  0BE0  1446               	bsf	___fldiv@b,0
  7203  0BE1                     l2302:
  7204  0BE1  3001               	movlw	1
  7205  0BE2  00CA               	movwf	??___fldiv
  7206  0BE3                     u3255:
  7207  0BE3  1003               	clrc
  7208  0BE4  0DD6               	rlf	___fldiv@grs,f
  7209  0BE5  0DD7               	rlf	___fldiv@grs+1,f
  7210  0BE6  0DD8               	rlf	___fldiv@grs+2,f
  7211  0BE7  0DD9               	rlf	___fldiv@grs+3,f
  7212  0BE8  0BCA               	decfsz	??___fldiv,f
  7213  0BE9  2BE3               	goto	u3255
  7214  0BEA                     l2304:
  7215  0BEA  30FF               	movlw	255
  7216  0BEB  07D4               	addwf	___fldiv@new_exp,f
  7217  0BEC  1803               	skipnc
  7218  0BED  0AD5               	incf	___fldiv@new_exp+1,f
  7219  0BEE  30FF               	movlw	255
  7220  0BEF  07D5               	addwf	___fldiv@new_exp+1,f
  7221  0BF0                     l2306:
  7222  0BF0  1FC8               	btfss	___fldiv@b+2,7
  7223  0BF1  2BF3               	goto	u3261
  7224  0BF2  2BF4               	goto	u3260
  7225  0BF3                     u3261:
  7226  0BF3  2BD3               	goto	l2296
  7227  0BF4                     u3260:
  7228  0BF4                     l2308:
  7229  0BF4  01DB               	clrf	___fldiv@aexp
  7230  0BF5                     l2310:
  7231  0BF5  1FD9               	btfss	___fldiv@grs+3,7
  7232  0BF6  2BF8               	goto	u3271
  7233  0BF7  2BF9               	goto	u3270
  7234  0BF8                     u3271:
  7235  0BF8  2C15               	goto	l2318
  7236  0BF9                     u3270:
  7237  0BF9                     l2312:
  7238  0BF9  30FF               	movlw	255
  7239  0BFA  0556               	andwf	___fldiv@grs,w
  7240  0BFB  00CA               	movwf	??___fldiv
  7241  0BFC  30FF               	movlw	255
  7242  0BFD  0557               	andwf	___fldiv@grs+1,w
  7243  0BFE  00CB               	movwf	??___fldiv+1
  7244  0BFF  30FF               	movlw	255
  7245  0C00  0558               	andwf	___fldiv@grs+2,w
  7246  0C01  00CC               	movwf	??___fldiv+2
  7247  0C02  307F               	movlw	127
  7248  0C03  0559               	andwf	___fldiv@grs+3,w
  7249  0C04  00CD               	movwf	??___fldiv+3
  7250  0C05  084D               	movf	??___fldiv+3,w
  7251  0C06  044C               	iorwf	??___fldiv+2,w
  7252  0C07  044B               	iorwf	??___fldiv+1,w
  7253  0C08  044A               	iorwf	??___fldiv,w
  7254  0C09  1903               	skipnz
  7255  0C0A  2C0C               	goto	u3281
  7256  0C0B  2C0D               	goto	u3280
  7257  0C0C                     u3281:
  7258  0C0C  2C10               	goto	l643
  7259  0C0D                     u3280:
  7260  0C0D                     l2314:
  7261  0C0D  01DB               	clrf	___fldiv@aexp
  7262  0C0E  0ADB               	incf	___fldiv@aexp,f
  7263  0C0F  2C15               	goto	l2318
  7264  0C10                     l643:
  7265  0C10  1C46               	btfss	___fldiv@b,0
  7266  0C11  2C13               	goto	u3291
  7267  0C12  2C14               	goto	u3290
  7268  0C13                     u3291:
  7269  0C13  2C15               	goto	l2318
  7270  0C14                     u3290:
  7271  0C14  2C0D               	goto	l2314
  7272  0C15                     l2318:
  7273  0C15  085B               	movf	___fldiv@aexp,w
  7274  0C16  1903               	btfsc	3,2
  7275  0C17  2C19               	goto	u3301
  7276  0C18  2C1A               	goto	u3300
  7277  0C19                     u3301:
  7278  0C19  2C4B               	goto	l2328
  7279  0C1A                     u3300:
  7280  0C1A                     l2320:
  7281  0C1A  3001               	movlw	1
  7282  0C1B  07C6               	addwf	___fldiv@b,f
  7283  0C1C  3000               	movlw	0
  7284  0C1D  1803               	skipnc
  7285  0C1E  3001               	movlw	1
  7286  0C1F  07C7               	addwf	___fldiv@b+1,f
  7287  0C20  3000               	movlw	0
  7288  0C21  1803               	skipnc
  7289  0C22  3001               	movlw	1
  7290  0C23  07C8               	addwf	___fldiv@b+2,f
  7291  0C24  3000               	movlw	0
  7292  0C25  1803               	skipnc
  7293  0C26  3001               	movlw	1
  7294  0C27  07C9               	addwf	___fldiv@b+3,f
  7295  0C28                     l2322:
  7296  0C28  1C49               	btfss	___fldiv@b+3,0
  7297  0C29  2C2B               	goto	u3311
  7298  0C2A  2C2C               	goto	u3310
  7299  0C2B                     u3311:
  7300  0C2B  2C4B               	goto	l2328
  7301  0C2C                     u3310:
  7302  0C2C                     l2324:
  7303  0C2C  0846               	movf	___fldiv@b,w
  7304  0C2D  00CA               	movwf	??___fldiv
  7305  0C2E  0847               	movf	___fldiv@b+1,w
  7306  0C2F  00CB               	movwf	??___fldiv+1
  7307  0C30  0848               	movf	___fldiv@b+2,w
  7308  0C31  00CC               	movwf	??___fldiv+2
  7309  0C32  0849               	movf	___fldiv@b+3,w
  7310  0C33  00CD               	movwf	??___fldiv+3
  7311  0C34  3001               	movlw	1
  7312  0C35  00CE               	movwf	??___fldiv+4
  7313  0C36                     u3325:
  7314  0C36  0D4D               	rlf	??___fldiv+3,w
  7315  0C37  0CCD               	rrf	??___fldiv+3,f
  7316  0C38  0CCC               	rrf	??___fldiv+2,f
  7317  0C39  0CCB               	rrf	??___fldiv+1,f
  7318  0C3A  0CCA               	rrf	??___fldiv,f
  7319  0C3B                     u3320:
  7320  0C3B  0BCE               	decfsz	??___fldiv+4,f
  7321  0C3C  2C36               	goto	u3325
  7322  0C3D  084D               	movf	??___fldiv+3,w
  7323  0C3E  00C9               	movwf	___fldiv@b+3
  7324  0C3F  084C               	movf	??___fldiv+2,w
  7325  0C40  00C8               	movwf	___fldiv@b+2
  7326  0C41  084B               	movf	??___fldiv+1,w
  7327  0C42  00C7               	movwf	___fldiv@b+1
  7328  0C43  084A               	movf	??___fldiv,w
  7329  0C44  00C6               	movwf	___fldiv@b
  7330  0C45                     l2326:
  7331  0C45  3001               	movlw	1
  7332  0C46  07D4               	addwf	___fldiv@new_exp,f
  7333  0C47  1803               	skipnc
  7334  0C48  0AD5               	incf	___fldiv@new_exp+1,f
  7335  0C49  3000               	movlw	0
  7336  0C4A  07D5               	addwf	___fldiv@new_exp+1,f
  7337  0C4B                     l2328:
  7338  0C4B  0855               	movf	___fldiv@new_exp+1,w
  7339  0C4C  3A80               	xorlw	128
  7340  0C4D  00FF               	movwf	btemp+1
  7341  0C4E  3080               	movlw	128
  7342  0C4F  027F               	subwf	btemp+1,w
  7343  0C50  1D03               	skipz
  7344  0C51  2C54               	goto	u3335
  7345  0C52  30FF               	movlw	255
  7346  0C53  0254               	subwf	___fldiv@new_exp,w
  7347  0C54                     u3335:
  7348  0C54  1C03               	skipc
  7349  0C55  2C57               	goto	u3331
  7350  0C56  2C58               	goto	u3330
  7351  0C57                     u3331:
  7352  0C57  2C66               	goto	l2332
  7353  0C58                     u3330:
  7354  0C58                     l2330:
  7355  0C58  30FF               	movlw	255
  7356  0C59  1283               	bcf	3,5	;RP0=0, select bank0
  7357  0C5A  1303               	bcf	3,6	;RP1=0, select bank0
  7358  0C5B  00D4               	movwf	___fldiv@new_exp
  7359  0C5C  3000               	movlw	0
  7360  0C5D  00D5               	movwf	___fldiv@new_exp+1
  7361  0C5E  3000               	movlw	0
  7362  0C5F  00C9               	movwf	___fldiv@b+3
  7363  0C60  3000               	movlw	0
  7364  0C61  00C8               	movwf	___fldiv@b+2
  7365  0C62  3000               	movlw	0
  7366  0C63  00C7               	movwf	___fldiv@b+1
  7367  0C64  3000               	movlw	0
  7368  0C65  00C6               	movwf	___fldiv@b
  7369  0C66                     l2332:
  7370  0C66  1283               	bcf	3,5	;RP0=0, select bank0
  7371  0C67  1303               	bcf	3,6	;RP1=0, select bank0
  7372  0C68  0855               	movf	___fldiv@new_exp+1,w
  7373  0C69  3A80               	xorlw	128
  7374  0C6A  00FF               	movwf	btemp+1
  7375  0C6B  3080               	movlw	128
  7376  0C6C  027F               	subwf	btemp+1,w
  7377  0C6D  1D03               	skipz
  7378  0C6E  2C71               	goto	u3345
  7379  0C6F  3001               	movlw	1
  7380  0C70  0254               	subwf	___fldiv@new_exp,w
  7381  0C71                     u3345:
  7382  0C71  1803               	skipnc
  7383  0C72  2C74               	goto	u3341
  7384  0C73  2C75               	goto	u3340
  7385  0C74                     u3341:
  7386  0C74  2C82               	goto	l649
  7387  0C75                     u3340:
  7388  0C75                     l2334:
  7389  0C75  1283               	bcf	3,5	;RP0=0, select bank0
  7390  0C76  1303               	bcf	3,6	;RP1=0, select bank0
  7391  0C77  01D4               	clrf	___fldiv@new_exp
  7392  0C78  01D5               	clrf	___fldiv@new_exp+1
  7393  0C79                     l2336:
  7394  0C79  3000               	movlw	0
  7395  0C7A  00C9               	movwf	___fldiv@b+3
  7396  0C7B  3000               	movlw	0
  7397  0C7C  00C8               	movwf	___fldiv@b+2
  7398  0C7D  3000               	movlw	0
  7399  0C7E  00C7               	movwf	___fldiv@b+1
  7400  0C7F  3000               	movlw	0
  7401  0C80  00C6               	movwf	___fldiv@b
  7402  0C81                     l2338:
  7403  0C81  01D3               	clrf	___fldiv@sign
  7404  0C82                     l649:
  7405  0C82  1283               	bcf	3,5	;RP0=0, select bank0
  7406  0C83  1303               	bcf	3,6	;RP1=0, select bank0
  7407  0C84  0854               	movf	___fldiv@new_exp,w
  7408  0C85  00CA               	movwf	??___fldiv
  7409  0C86  084A               	movf	??___fldiv,w
  7410  0C87  00DA               	movwf	___fldiv@bexp
  7411  0C88                     l2340:
  7412  0C88  1C5A               	btfss	___fldiv@bexp,0
  7413  0C89  2C8B               	goto	u3351
  7414  0C8A  2C8C               	goto	u3350
  7415  0C8B                     u3351:
  7416  0C8B  2C8E               	goto	l2344
  7417  0C8C                     u3350:
  7418  0C8C                     l2342:
  7419  0C8C  17C8               	bsf	___fldiv@b+2,7
  7420  0C8D  2C92               	goto	l651
  7421  0C8E                     l2344:
  7422  0C8E  307F               	movlw	127
  7423  0C8F  00CA               	movwf	??___fldiv
  7424  0C90  084A               	movf	??___fldiv,w
  7425  0C91  05C8               	andwf	___fldiv@b+2,f
  7426  0C92                     l651:
  7427  0C92  085A               	movf	___fldiv@bexp,w
  7428  0C93  00CA               	movwf	??___fldiv
  7429  0C94  1003               	clrc
  7430  0C95  0C4A               	rrf	??___fldiv,w
  7431  0C96  00CB               	movwf	??___fldiv+1
  7432  0C97  084B               	movf	??___fldiv+1,w
  7433  0C98  00C9               	movwf	___fldiv@b+3
  7434  0C99  0853               	movf	___fldiv@sign,w
  7435  0C9A  00CA               	movwf	??___fldiv
  7436  0C9B  084A               	movf	??___fldiv,w
  7437  0C9C  04C9               	iorwf	___fldiv@b+3,f
  7438  0C9D  2B36               	goto	l2252
  7439  0C9E                     l629:
  7440  0C9E  0008               	return
  7441  0C9F                     __end_of___fldiv:
  7442                           
  7443                           	psect	text21
  7444  0802                     __ptext21:	
  7445 ;; *************** function _UART_Write_Text *****************
  7446 ;; Defined at:
  7447 ;;		line 53 in file "./uart.h"
  7448 ;; Parameters:    Size  Location     Type
  7449 ;;  text            2    1[COMMON] PTR unsigned char 
  7450 ;;		 -> STR_8(3), STR_6(15), STR_5(3), STR_3(4), 
  7451 ;;		 -> Quadra_Al@data(10), STR_1(3), 
  7452 ;; Auto vars:     Size  Location     Type
  7453 ;;  i               2    6[COMMON] int 
  7454 ;; Return value:  Size  Location     Type
  7455 ;;                  1    wreg      void 
  7456 ;; Registers used:
  7457 ;;		wreg, fsr0l, fsr0h, status,2, status,0, btemp+1, pclath, cstack
  7458 ;; Tracked objects:
  7459 ;;		On entry : 0/0
  7460 ;;		On exit  : 0/0
  7461 ;;		Unchanged: 0/0
  7462 ;; Data sizes:     COMMON   BANK0   BANK1   BANK3   BANK2
  7463 ;;      Params:         2       0       0       0       0
  7464 ;;      Locals:         2       0       0       0       0
  7465 ;;      Temps:          3       0       0       0       0
  7466 ;;      Totals:         7       0       0       0       0
  7467 ;;Total ram usage:        7 bytes
  7468 ;; Hardware stack levels used: 1
  7469 ;; Hardware stack levels required when called: 1
  7470 ;; This function calls:
  7471 ;;		_UART_Write
  7472 ;; This function is called by:
  7473 ;;		_Quadra_Al
  7474 ;; This function uses a non-reentrant model
  7475 ;;
  7476                           
  7477                           
  7478                           ;psect for function _UART_Write_Text
  7479  0802                     _UART_Write_Text:
  7480  0802                     l2052:	
  7481                           ;incstack = 0
  7482                           ; Regs used in _UART_Write_Text: [wreg-fsr0h+status,2+status,0+btemp+1+pclath+cstack]
  7483                           
  7484                           
  7485                           ;./uart.h: 53: void UART_Write_Text(char *text);./uart.h: 54: {;./uart.h: 55:   int i;;.
      +                          /uart.h: 56:   for(i=0;text[i]!='\0';i++)
  7486  0802  01F6               	clrf	UART_Write_Text@i
  7487  0803  01F7               	clrf	UART_Write_Text@i+1
  7488  0804  2827               	goto	l2058
  7489  0805                     l2054:
  7490                           
  7491                           ;./uart.h: 57:    UART_Write(text[i]);
  7492  0805  0876               	movf	UART_Write_Text@i,w
  7493  0806  0771               	addwf	UART_Write_Text@text,w
  7494  0807  00F4               	movwf	??_UART_Write_Text+1
  7495  0808  0872               	movf	UART_Write_Text@text+1,w
  7496  0809  00F3               	movwf	??_UART_Write_Text
  7497  080A  1803               	skipnc
  7498  080B  0AF3               	incf	??_UART_Write_Text,f
  7499  080C  1FF6               	btfss	UART_Write_Text@i,7
  7500  080D  280F               	goto	u2760
  7501  080E  03F3               	decf	??_UART_Write_Text,f
  7502  080F                     u2760:
  7503  080F  0873               	movf	??_UART_Write_Text,w
  7504  0810  00F5               	movwf	??_UART_Write_Text+2
  7505  0811  0875               	movf	??_UART_Write_Text+2,w
  7506  0812  1283               	bcf	3,5	;RP0=0, select bank0
  7507  0813  1303               	bcf	3,6	;RP1=0, select bank0
  7508  0814  00FF               	movwf	btemp+1
  7509  0815  0874               	movf	??_UART_Write_Text+1,w
  7510  0816  0084               	movwf	4
  7511  0817  160A  118A  2000  120A  158A  	fcall	stringtab
  7512  081C  120A  118A  2004  120A  158A  	fcall	_UART_Write
  7513  0821                     l2056:
  7514  0821  3001               	movlw	1
  7515  0822  07F6               	addwf	UART_Write_Text@i,f
  7516  0823  1803               	skipnc
  7517  0824  0AF7               	incf	UART_Write_Text@i+1,f
  7518  0825  3000               	movlw	0
  7519  0826  07F7               	addwf	UART_Write_Text@i+1,f
  7520  0827                     l2058:
  7521  0827  0876               	movf	UART_Write_Text@i,w
  7522  0828  0771               	addwf	UART_Write_Text@text,w
  7523  0829  00F4               	movwf	??_UART_Write_Text+1
  7524  082A  0872               	movf	UART_Write_Text@text+1,w
  7525  082B  00F3               	movwf	??_UART_Write_Text
  7526  082C  1803               	skipnc
  7527  082D  0AF3               	incf	??_UART_Write_Text,f
  7528  082E  1FF6               	btfss	UART_Write_Text@i,7
  7529  082F  2831               	goto	u2770
  7530  0830  03F3               	decf	??_UART_Write_Text,f
  7531  0831                     u2770:
  7532  0831  0873               	movf	??_UART_Write_Text,w
  7533  0832  00F5               	movwf	??_UART_Write_Text+2
  7534  0833  0875               	movf	??_UART_Write_Text+2,w
  7535  0834  1283               	bcf	3,5	;RP0=0, select bank0
  7536  0835  1303               	bcf	3,6	;RP1=0, select bank0
  7537  0836  00FF               	movwf	btemp+1
  7538  0837  0874               	movf	??_UART_Write_Text+1,w
  7539  0838  0084               	movwf	4
  7540  0839  160A  118A  2000  120A  158A  	fcall	stringtab
  7541  083E  3A00               	xorlw	0
  7542  083F  1D03               	skipz
  7543  0840  2842               	goto	u2781
  7544  0841  2843               	goto	u2780
  7545  0842                     u2781:
  7546  0842  2805               	goto	l2054
  7547  0843                     u2780:
  7548  0843                     l97:
  7549  0843  0008               	return
  7550  0844                     __end_of_UART_Write_Text:
  7551                           
  7552                           	psect	text22
  7553  0004                     __ptext22:	
  7554 ;; *************** function _UART_Write *****************
  7555 ;; Defined at:
  7556 ;;		line 47 in file "./uart.h"
  7557 ;; Parameters:    Size  Location     Type
  7558 ;;  data            1    wreg     unsigned char 
  7559 ;; Auto vars:     Size  Location     Type
  7560 ;;  data            1    0[COMMON] unsigned char 
  7561 ;; Return value:  Size  Location     Type
  7562 ;;                  1    wreg      void 
  7563 ;; Registers used:
  7564 ;;		wreg
  7565 ;; Tracked objects:
  7566 ;;		On entry : 0/0
  7567 ;;		On exit  : 0/0
  7568 ;;		Unchanged: 0/0
  7569 ;; Data sizes:     COMMON   BANK0   BANK1   BANK3   BANK2
  7570 ;;      Params:         0       0       0       0       0
  7571 ;;      Locals:         1       0       0       0       0
  7572 ;;      Temps:          0       0       0       0       0
  7573 ;;      Totals:         1       0       0       0       0
  7574 ;;Total ram usage:        1 bytes
  7575 ;; Hardware stack levels used: 1
  7576 ;; This function calls:
  7577 ;;		Nothing
  7578 ;; This function is called by:
  7579 ;;		_UART_Write_Text
  7580 ;; This function uses a non-reentrant model
  7581 ;;
  7582                           
  7583                           
  7584                           ;psect for function _UART_Write
  7585  0004                     _UART_Write:
  7586                           
  7587                           ;incstack = 0
  7588                           ; Regs used in _UART_Write: [wreg]
  7589                           ;UART_Write@data stored from wreg
  7590  0004  00F0               	movwf	UART_Write@data
  7591  0005                     l1792:
  7592  0005                     l88:	
  7593                           ;./uart.h: 47: void UART_Write(char data);./uart.h: 48: {;./uart.h: 49:   while(!TRMT);
  7594                           
  7595  0005  1683               	bsf	3,5	;RP0=1, select bank1
  7596  0006  1303               	bcf	3,6	;RP1=0, select bank1
  7597  0007  1C98               	btfss	24,1	;volatile
  7598  0008  280A               	goto	u2131
  7599  0009  280B               	goto	u2130
  7600  000A                     u2131:
  7601  000A  2805               	goto	l88
  7602  000B                     u2130:
  7603  000B                     l1794:
  7604                           
  7605                           ;./uart.h: 50:   TXREG = data;
  7606  000B  0870               	movf	UART_Write@data,w
  7607  000C  1283               	bcf	3,5	;RP0=0, select bank0
  7608  000D  1303               	bcf	3,6	;RP1=0, select bank0
  7609  000E  0099               	movwf	25	;volatile
  7610  000F                     l91:
  7611  000F  0008               	return
  7612  0010                     __end_of_UART_Write:
  7613                           
  7614                           	psect	text23
  7615  155B                     __ptext23:	
  7616 ;; *************** function _ADC_Read *****************
  7617 ;; Defined at:
  7618 ;;		line 34 in file "newmain.c"
  7619 ;; Parameters:    Size  Location     Type
  7620 ;;  channel         1    wreg     unsigned char 
  7621 ;; Auto vars:     Size  Location     Type
  7622 ;;  channel         1    4[COMMON] unsigned char 
  7623 ;; Return value:  Size  Location     Type
  7624 ;;                  2    0[COMMON] unsigned int 
  7625 ;; Registers used:
  7626 ;;		wreg, status,2, status,0
  7627 ;; Tracked objects:
  7628 ;;		On entry : 0/0
  7629 ;;		On exit  : 0/0
  7630 ;;		Unchanged: 0/0
  7631 ;; Data sizes:     COMMON   BANK0   BANK1   BANK3   BANK2
  7632 ;;      Params:         2       0       0       0       0
  7633 ;;      Locals:         1       0       0       0       0
  7634 ;;      Temps:          2       0       0       0       0
  7635 ;;      Totals:         5       0       0       0       0
  7636 ;;Total ram usage:        5 bytes
  7637 ;; Hardware stack levels used: 1
  7638 ;; This function calls:
  7639 ;;		Nothing
  7640 ;; This function is called by:
  7641 ;;		_Quadra_Al
  7642 ;; This function uses a non-reentrant model
  7643 ;;
  7644                           
  7645                           
  7646                           ;psect for function _ADC_Read
  7647  155B                     _ADC_Read:
  7648                           
  7649                           ;incstack = 0
  7650                           ; Regs used in _ADC_Read: [wreg+status,2+status,0]
  7651                           ;ADC_Read@channel stored from wreg
  7652  155B  00F4               	movwf	ADC_Read@channel
  7653  155C                     l2060:
  7654                           
  7655                           ;newmain.c: 34: unsigned int ADC_Read(unsigned char channel);newmain.c: 35: {;newmain.c:
      +                           36:   ADCON0 &= 0x11000101;
  7656  155C  3001               	movlw	1
  7657  155D  00F2               	movwf	??_ADC_Read
  7658  155E  0872               	movf	??_ADC_Read,w
  7659  155F  1283               	bcf	3,5	;RP0=0, select bank0
  7660  1560  1303               	bcf	3,6	;RP1=0, select bank0
  7661  1561  059F               	andwf	31,f	;volatile
  7662                           
  7663                           ;newmain.c: 37:   ADCON0 |= channel<<3;
  7664  1562  0874               	movf	ADC_Read@channel,w	;volatile
  7665  1563  00F2               	movwf	??_ADC_Read
  7666  1564  3002               	movlw	2
  7667  1565                     u2795:
  7668  1565  1003               	clrc
  7669  1566  0DF2               	rlf	??_ADC_Read,f
  7670  1567  3EFF               	addlw	-1
  7671  1568  1D03               	skipz
  7672  1569  2D65               	goto	u2795
  7673  156A  1003               	clrc
  7674  156B  0D72               	rlf	??_ADC_Read,w
  7675  156C  00F3               	movwf	??_ADC_Read+1
  7676  156D  0873               	movf	??_ADC_Read+1,w
  7677  156E  049F               	iorwf	31,f	;volatile
  7678  156F                     l2062:
  7679                           
  7680                           ;newmain.c: 38:   _delay((unsigned long)((2)*(8000000/4000.0)));
  7681  156F  3006               	movlw	6
  7682  1570  00F3               	movwf	??_ADC_Read+1
  7683  1571  3030               	movlw	48
  7684  1572  00F2               	movwf	??_ADC_Read
  7685  1573                     u4277:
  7686  1573  0BF2               	decfsz	??_ADC_Read,f
  7687  1574  2D73               	goto	u4277
  7688  1575  0BF3               	decfsz	??_ADC_Read+1,f
  7689  1576  2D73               	goto	u4277
  7690  1577  0000               	nop
  7691  1578                     l2064:
  7692                           
  7693                           ;newmain.c: 39:   GO_nDONE = 1;
  7694  1578  1283               	bcf	3,5	;RP0=0, select bank0
  7695  1579  1303               	bcf	3,6	;RP1=0, select bank0
  7696  157A  151F               	bsf	31,2	;volatile
  7697  157B                     l103:	
  7698                           ;newmain.c: 40:   while(GO_nDONE);
  7699                           
  7700  157B  191F               	btfsc	31,2	;volatile
  7701  157C  2D7E               	goto	u2801
  7702  157D  2D7F               	goto	u2800
  7703  157E                     u2801:
  7704  157E  2D7B               	goto	l103
  7705  157F                     u2800:
  7706  157F                     l2066:
  7707                           
  7708                           ;newmain.c: 41:   return ((ADRESH<<8)+ADRESL);
  7709  157F  081E               	movf	30,w	;volatile
  7710  1580  00F1               	movwf	?_ADC_Read+1
  7711  1581  1683               	bsf	3,5	;RP0=1, select bank1
  7712  1582  1303               	bcf	3,6	;RP1=0, select bank1
  7713  1583  081E               	movf	30,w	;volatile
  7714  1584  00F0               	movwf	?_ADC_Read
  7715  1585                     l106:
  7716  1585  0008               	return
  7717  1586                     __end_of_ADC_Read:
  7718                           
  7719                           	psect	text24
  7720  14CF                     __ptext24:	
  7721 ;; *************** function _ADC_Init *****************
  7722 ;; Defined at:
  7723 ;;		line 28 in file "newmain.c"
  7724 ;; Parameters:    Size  Location     Type
  7725 ;;		None
  7726 ;; Auto vars:     Size  Location     Type
  7727 ;;		None
  7728 ;; Return value:  Size  Location     Type
  7729 ;;                  1    wreg      void 
  7730 ;; Registers used:
  7731 ;;		wreg
  7732 ;; Tracked objects:
  7733 ;;		On entry : 0/0
  7734 ;;		On exit  : 0/0
  7735 ;;		Unchanged: 0/0
  7736 ;; Data sizes:     COMMON   BANK0   BANK1   BANK3   BANK2
  7737 ;;      Params:         0       0       0       0       0
  7738 ;;      Locals:         0       0       0       0       0
  7739 ;;      Temps:          0       0       0       0       0
  7740 ;;      Totals:         0       0       0       0       0
  7741 ;;Total ram usage:        0 bytes
  7742 ;; Hardware stack levels used: 1
  7743 ;; This function calls:
  7744 ;;		Nothing
  7745 ;; This function is called by:
  7746 ;;		_main
  7747 ;; This function uses a non-reentrant model
  7748 ;;
  7749                           
  7750                           
  7751                           ;psect for function _ADC_Init
  7752  14CF                     _ADC_Init:
  7753  14CF                     l2560:	
  7754                           ;incstack = 0
  7755                           ; Regs used in _ADC_Init: [wreg]
  7756                           
  7757                           
  7758                           ;newmain.c: 30:    ADCON0 = 0b1000001;
  7759  14CF  3041               	movlw	65
  7760  14D0  1283               	bcf	3,5	;RP0=0, select bank0
  7761  14D1  1303               	bcf	3,6	;RP1=0, select bank0
  7762  14D2  009F               	movwf	31	;volatile
  7763                           
  7764                           ;newmain.c: 31:    ADCON1 = 0b11000000;
  7765  14D3  30C0               	movlw	192
  7766  14D4  1683               	bsf	3,5	;RP0=1, select bank1
  7767  14D5  1303               	bcf	3,6	;RP1=0, select bank1
  7768  14D6  009F               	movwf	31	;volatile
  7769  14D7                     l100:
  7770  14D7  0008               	return
  7771  14D8                     __end_of_ADC_Init:
  7772  007E                     btemp	set	126	;btemp
  7773  007E                     wtemp0	set	126
  7774                           
  7775                           	psect	config
  7776                           
  7777                           ;Config register CONFIG @ 0x2007
  7778                           ;	Oscillator Selection bits
  7779                           ;	FOSC = XT, XT oscillator
  7780                           ;	Watchdog Timer Enable bit
  7781                           ;	WDTE = OFF, WDT disabled
  7782                           ;	Power-up Timer Enable bit
  7783                           ;	PWRTE = OFF, PWRT disabled
  7784                           ;	Brown-out Reset Enable bit
  7785                           ;	BOREN = OFF, BOR disabled
  7786                           ;	Low-Voltage (Single-Supply) In-Circuit Serial Programming Enable bit
  7787                           ;	LVP = OFF, RB3 is digital I/O, HV on MCLR must be used for programming
  7788                           ;	Data EEPROM Memory Code Protection bit
  7789                           ;	CPD = OFF, Data EEPROM code protection off
  7790                           ;	Flash Program Memory Write Enable bits
  7791                           ;	WRT = OFF, Write protection off; all program memory may be written to by EECON control
  7792                           ;	In-Circuit Debugger Mode bit
  7793                           ;	DEBUG = 0x1, unprogrammed default
  7794                           ;	Flash Program Memory Code Protection bit
  7795                           ;	CP = OFF, Code protection off
  7796  2007                     	org	8199
  7797  2007  3F39               	dw	16185

Data Sizes:
    Strings     25
    Constant    10
    Data        0
    BSS         28
    Persistent  0
    Stack       0

Auto Spaces:
    Space          Size  Autos    Used
    COMMON           14     14      14
    BANK0            80     76      76
    BANK1            80      0      28
    BANK3            96     90      90
    BANK2            96      0       0

Pointer List with Targets:

    sprintf@f	PTR const unsigned char  size(1) Largest target is 4
		 -> STR_7(CODE[4]), STR_4(CODE[4]), STR_2(CODE[4]), 

    sprintf@sp	PTR unsigned char  size(1) Largest target is 10
		 -> Quadra_Al@data(BANK3[10]), 

    sprintf@ap	PTR void [1] size(1) Largest target is 2
		 -> ?_sprintf(BANK0[2]), 

    UART_Write_Text@text	PTR unsigned char  size(2) Largest target is 15
		 -> STR_8(CODE[3]), STR_6(CODE[15]), STR_5(CODE[3]), STR_3(CODE[4]), 
		 -> Quadra_Al@data(BANK3[10]), STR_1(CODE[3]), 


Critical Paths under _main in COMMON

    _UART_Init->___aldiv
    _sprintf->___lwmod
    ___lwmod->___lwdiv
    ___xxtofl->_ADC_Read
    ___flsub->___xxtofl
    ___flmul->___xxtofl
    _UART_Write_Text->_UART_Write

Critical Paths under _main in BANK0

    _main->_Quadra_Al
    _UART_Init->___aldiv
    _Quadra_Al->___fldiv
    ___flsub->___flmul
    ___flmul->___fladd
    ___fldiv->___flmul

Critical Paths under _main in BANK1

    None.

Critical Paths under _main in BANK3

    _main->_Quadra_Al

Critical Paths under _main in BANK2

    None.

Call Graph Tables:

 ---------------------------------------------------------------------------------
 (Depth) Function   	        Calls       Base Space   Used Autos Params    Refs
 ---------------------------------------------------------------------------------
 (0) _main                                                 7     7      0   15867
                                             69 BANK0      7     7      0
                           _ADC_Init
                          _Quadra_Al
                          _UART_Init
                            ___fltol
                       _spiDataReady
                            _spiInit
                            _spiRead
                           _spiWrite
 ---------------------------------------------------------------------------------
 (1) _spiWrite                                             1     1      0      22
                                              0 COMMON     1     1      0
 ---------------------------------------------------------------------------------
 (1) _spiRead                                              0     0      0       0
                     _spiReceiveWait
 ---------------------------------------------------------------------------------
 (2) _spiReceiveWait                                       0     0      0       0
 ---------------------------------------------------------------------------------
 (1) _spiInit                                              4     1      3     360
                                              0 COMMON     4     1      3
 ---------------------------------------------------------------------------------
 (1) _spiDataReady                                         2     0      2       0
                                              0 COMMON     2     0      2
 ---------------------------------------------------------------------------------
 (1) ___fltol                                             11     7      4     305
                                              0 COMMON    11     7      4
 ---------------------------------------------------------------------------------
 (1) _UART_Init                                           18    14      4     836
                                              9 COMMON     2     2      0
                                              6 BANK0     16    12      4
                            ___aldiv
 ---------------------------------------------------------------------------------
 (2) ___aldiv                                             15     7      8     604
                                              0 COMMON     9     1      8
                                              0 BANK0      6     6      0
 ---------------------------------------------------------------------------------
 (1) _Quadra_Al                                           99    95      4   14321
                                             60 BANK0      9     5      4
                                              0 BANK3     90    90      0
                           _ADC_Read
                    _UART_Write_Text
                            ___fladd
                            ___fldiv
                             ___flge
                            ___flmul
                            ___flneg
                            ___flsub
                           ___xxtofl
                            _sprintf
 ---------------------------------------------------------------------------------
 (2) _sprintf                                             23    18      5    1429
                                              0 BANK0     15    10      5
                            ___lwdiv
                            ___lwmod
 ---------------------------------------------------------------------------------
 (3) ___lwmod                                              6     2      4     311
                                              8 COMMON     6     2      4
                            ___lwdiv (ARG)
 ---------------------------------------------------------------------------------
 (3) ___lwdiv                                              8     4      4     314
                                              0 COMMON     8     4      4
 ---------------------------------------------------------------------------------
 (2) ___xxtofl                                            14    10      4     550
                                              5 COMMON     8     4      4
                                              0 BANK0      6     6      0
                           _ADC_Read (ARG)
 ---------------------------------------------------------------------------------
 (2) ___flsub                                              8     0      8    3093
                                             34 BANK0      8     0      8
                            ___fladd
                            ___flmul (ARG)
                           ___xxtofl (ARG)
 ---------------------------------------------------------------------------------
 (3) ___fladd                                             20    12      8    2440
                                              0 COMMON    12     4      8
                                              0 BANK0      8     8      0
 ---------------------------------------------------------------------------------
 (2) ___flneg                                              4     0      4     121
                                              0 COMMON     4     0      4
 ---------------------------------------------------------------------------------
 (2) ___flmul                                             26    18      8    3177
                                              8 BANK0     26    18      8
                          __Umul8_16
                            ___fladd (ARG)
                           ___xxtofl (ARG)
 ---------------------------------------------------------------------------------
 (3) __Umul8_16                                            9     7      2     799
                                              0 COMMON     9     7      2
 ---------------------------------------------------------------------------------
 (2) ___flge                                              12     4      8     334
                                              0 COMMON    12     4      8
 ---------------------------------------------------------------------------------
 (2) ___fldiv                                             26    18      8    1273
                                             34 BANK0     26    18      8
                            ___flmul (ARG)
                            ___flneg (ARG)
 ---------------------------------------------------------------------------------
 (2) _UART_Write_Text                                      7     5      2     720
                                              1 COMMON     7     5      2
                         _UART_Write
 ---------------------------------------------------------------------------------
 (3) _UART_Write                                           1     1      0      22
                                              0 COMMON     1     1      0
 ---------------------------------------------------------------------------------
 (2) _ADC_Read                                             5     3      2      22
                                              0 COMMON     5     3      2
 ---------------------------------------------------------------------------------
 (1) _ADC_Init                                             0     0      0       0
 ---------------------------------------------------------------------------------
 Estimated maximum stack depth 3
 ---------------------------------------------------------------------------------

 Call Graph Graphs:

 _main (ROOT)
   _ADC_Init
   _Quadra_Al
     _ADC_Read
     _UART_Write_Text
       _UART_Write
     ___fladd
     ___fldiv
       ___flmul (ARG)
         __Umul8_16
         ___fladd (ARG)
         ___xxtofl (ARG)
           _ADC_Read (ARG)
       ___flneg (ARG)
     ___flge
     ___flmul
     ___flneg
     ___flsub
       ___fladd
       ___flmul (ARG)
       ___xxtofl (ARG)
     ___xxtofl
     _sprintf
       ___lwdiv
       ___lwmod
         ___lwdiv (ARG)
   _UART_Init
     ___aldiv
   ___fltol
   _spiDataReady
   _spiInit
   _spiRead
     _spiReceiveWait
   _spiWrite

 Address spaces:
Name               Size   Autos  Total    Cost      Usage
BITCOMMON            E      0       0       0        0.0%
EEDATA             100      0       0       0        0.0%
NULL                 0      0       0       0        0.0%
CODE                 0      0       0       0        0.0%
COMMON               E      E       E       1      100.0%
BITSFR0              0      0       0       1        0.0%
SFR0                 0      0       0       1        0.0%
BITSFR1              0      0       0       2        0.0%
SFR1                 0      0       0       2        0.0%
STACK                0      0       0       2        0.0%
ABS                  0      0      D0       3        0.0%
BITBANK0            50      0       0       4        0.0%
BITSFR3              0      0       0       4        0.0%
SFR3                 0      0       0       4        0.0%
BANK0               50     4C      4C       5       95.0%
BITSFR2              0      0       0       5        0.0%
SFR2                 0      0       0       5        0.0%
BITBANK1            50      0       0       6        0.0%
BANK1               50      0      1C       7       35.0%
BITBANK3            60      0       0       8        0.0%
BANK3               60     5A      5A       9       93.8%
BITBANK2            60      0       0      10        0.0%
BANK2               60      0       0      11        0.0%
DATA                 0      0      D0      12        0.0%


Microchip Technology PIC Macro Assembler V2.32 build 20210201212658 
Symbol Table                                                                                   Thu Nov 25 14:17:40 2021

            ___fldiv@aexp 005B              ___fldiv@bexp 005A                         pc 0002  
            ___fldiv@sign 0053               _SSPSTATbits 0094                        l91 000F  
                      l67 09D9                        l88 0005                        l97 0843  
                      fsr 0004       __Umul8_16@word_mpld 0076                       l100 14D7  
                     l103 157B                       l120 07F2                       l106 1585  
                     l150 14C0                       l160 14F9                       l153 14C6  
                     l146 150A                       l147 150F                       l164 14E0  
                     l156 14BF                       l343 16D5                       l353 175D  
                     l602 0279                       l274 0AC1                       l452 177A  
                     l460 14EB                       l613 02DD                       l605 02B9  
                     l614 02EB                       l550 0053                       l455 17E6  
                     l711 0868                       l471 1624                       l456 17FF  
                     l560 15BF                       l464 1639                       l617 1533  
                     l713 08FF                       l474 1639                       l651 0C92  
                     l643 0C10                       l627 0B1E                       l571 00B7  
                     l724 08C9                       l629 0C9E                       l725 08D5  
                     l717 08AD                       l575 0160                       l592 0231  
                     l584 02EB                       l649 0C82                       l673 0F6B  
                     l577 0135                       l667 0FFF                       l596 0257  
                     l686 1548                       l679 0FF3                       l688 155A  
                     _GIE 005F                       _RD0 0040                       fsr0 0004  
                     indf 0000              ___flmul@aexp 003A              ___flmul@bexp 003B  
            ___flmul@sign 0035              ___flmul@temp 0040              ___flmul@prod 003C  
            ___fltol@exp1 007A                      l2000 026B                      l2010 027E  
                    l2002 026C                      l2020 02BE                      l2012 0283  
                    l2004 0270                      l2100 0A2D                      l2030 02D5  
                    l2022 02C3                      l2014 0291                      l2006 0276  
                    l2110 0A60                      l2040 1537                      l2032 02D7  
                    l2024 02CB                      l2016 0295                      l2120 0AA2  
                    l2112 0A64                      l2104 0A49                      l2210 0AC9  
                    l2042 153E                      l2034 02E6                      l2026 02D0  
                    l2018 02B5                      l2202 1510                      l2114 0A69  
                    l2106 0A53                      l2122 0AAB                      l2060 155C  
                    l2052 0802                      l2300 0BE0                      l2220 0ADE  
                    l2212 0ACF                      l2044 1542                      l2036 02EA  
                    l2028 02D1                      l2204 1514                      l2116 0A97  
                    l2108 0A59                      l2124 0ABD                      l2140 16D9  
                    l2132 14C0                      l2062 156F                      l2054 0805  
                    l2310 0BF5                      l2302 0BE1                      l2230 0AF6  
                    l2222 0AE6                      l2214 0AD3                      l2046 1551  
                    l2038 1535                      l2118 0A9E                      l2070 09DD  
                    l2150 16FB                      l2142 16E4                      l2134 16C1  
                    l2064 1578                      l2056 0821                      l2320 0C1A  
                    l2312 0BF9                      l2304 0BEA                      l2240 0B0B  
                    l2232 0AFC                      l2224 0AE7                      l2216 0AD4  
                    l2208 0AC2                      l2048 1556                      l2400 0D46  
                    l2072 09E2                      l2160 1735                      l2152 1708  
                    l2144 16E8                      l2136 16C4                      l2066 157F  
                    l2058 0827                      l2330 0C58                      l2322 0C28  
                    l2314 0C0D                      l2306 0BF0                      l2250 0B32  
                    l2242 0B13                      l2234 0B00                      l2218 0AD9  
                    l2226 0AE9                      l2410 0DCF                      l2402 0D62  
                    l2090 0A22                      l2082 09F5                      l2074 09E8  
                    l2170 1755                      l2162 1736                      l2154 170C  
                    l2146 16F0                      l2138 16C8                      l2340 0C88  
                    l2332 0C66                      l2324 0C2C                      l2308 0BF4  
                    l2252 0B36                      l2244 0B14                      l2236 0B01  
                    l2228 0AF1                      l2180 1796                      l2420 0E42  
                    l2412 0DDF                      l2404 0D8E                      l2092 0A26  
                    l2084 0A12                      l2076 09EF                      l2164 173F  
                    l2156 1715                      l2148 16F8                      l2342 0C8C  
                    l2334 0C75                      l2326 0C45                      l2318 0C15  
                    l2270 0B77                      l2262 0B4D                      l2238 0B06  
                    l2246 0B16                      l2190 17FE                      l2182 179A  
                    l2174 175E                      l2430 0EEF                      l2422 0E5F  
                    l2414 0DFC                      l2406 0DAA                      l2350 0C9F  
                    l2510 0896                      l2502 0879                      l2094 0A2B  
                    l2086 0A1A                      l2078 09F4                      l2158 1727  
                    l2166 1745                      l2344 0C8E                      l2336 0C79  
                    l2328 0C4B                      l2280 0B95                      l2272 0B79  
                    l2264 0B5F                      l2248 0B26                      l2256 0B3F  
                    l2184 17BE                      l2176 1772                      l2440 0F3B  
                    l2432 0F17                      l2424 0E8C                      l2416 0E0C  
                    l2408 0DC6                      l2360 0CB6                      l2352 0CA6  
                    l2520 08CD                      l2512 08A4                      l2504 087E  
                    l1800 0018                      l2088 0A1E                      l2600 0409  
                    l2168 174A                      l2338 0C81                      l2274 0B7E  
                    l2282 0B9E                      l2290 0BC3                      l2266 0B67  
                    l2258 0B44                      l2186 17C2                      l2178 178E  
                    l2450 0F50                      l2442 0F3C                      l2434 0F20  
                    l2426 0E9C                      l2418 0E29                      l2370 0CD2  
                    l2362 0CBB                      l2354 0CAC                      l2194 14E1  
                    l2530 08F7                      l2522 08D7                      l2514 08B4  
                    l2506 088B                      l1810 003B                      l1802 001B  
                    l2610 0547                      l2602 0444                      l2292 0BC9  
                    l2284 0BB0                      l2276 0B90                      l2268 0B6F  
                    l2188 17FC                      l2460 0F75                      l2452 0F54  
                    l2444 0F45                      l2436 0F2E                      l2428 0EC9  
                    l2380 0CE7                      l2372 0CD8                      l2364 0CC3  
                    l2356 0CB0                      l2196 14E9                      l1900 00D5  
                    l2524 08ED                      l2516 08BF                      l2508 0892  
                    l1812 0041                      l1804 0022                      l2620 0701  
                    l2612 0592                      l2604 0463                      l2540 09BB  
                    l2294 0BD1                      l2286 0BB1                      l2278 0B94  
                    l2470 0FB3                      l2462 0F83                      l2454 0F68  
                    l2438 0F37                      l2446 0F4B                      l2390 0D03  
                    l2382 0CEF                      l2374 0CDC                      l2366 0CC5  
                    l2358 0CB1                      l2198 14EB                      l1910 00E9  
                    l1902 00D9                      l2526 08F2                      l2518 08C3  
                    l1814 0042                      l1806 0026                      l1830 159A  
                    l1822 1586                      l2630 0772                      l2614 060B  
                    l2606 04C9                      l2550 09CF                      l2542 09BE  
                    l2534 0900                      l2702 1619                      l2710 163E  
                    l2560 14CF                      l2296 0BD3                      l2288 0BBF  
                    l2480 0FE7                      l2472 0FBE                      l2464 0F87  
                    l2448 0F4F                      l2384 0CF1                      l2376 0CDD  
                    l2368 0CCD                      l1920 00FD                      l1912 00ED  
                    l1904 00DD                      l2528 08F6                      l1816 0049  
                    l1808 002A                      l1832 159E                      l1824 158C  
                    l1840 15BB                      l2632 0783                      l2616 0656  
                    l2608 0508                      l2552 09D2                      l2544 09C7  
                    l2536 0959                      l2704 1629                      l2720 1645  
                    l2712 163F                      l2298 0BDC                      l2482 0FEB  
                    l2474 0FCD                      l2466 0FA0                      l2458 0F70  
                    l2394 0D0C                      l2386 0CF9                      l2378 0CE2  
                    l1930 0144                      l1914 00F1                      l1906 00E1  
                    l1922 0101                      l1850 0065                      l2490 0847  
                    l1818 004F                      l1834 15A8                      l1826 158F  
                    l2634 0790                      l2626 0703                      l2618 06B9  
                    l2562 02EC                      l2554 09D3                      l2546 09CB  
                    l2538 0962                      l2706 162E                      l2650 1509  
                    l2642 14FB                      l2730 1672                      l2722 164A  
                    l2714 1642                      l2484 0FEC                      l2476 0FD7  
                    l2468 0FA6                      l2396 0D1C                      l2388 0CFE  
                    l1932 0146                      l1940 015A                      l1924 0102  
                    l1916 00F5                      l1908 00E5                      l1860 0079  
                    l1852 0066                      l1844 0054                      l2492 084C  
                    l1836 15AE                      l1828 1596                      l2636 07C6  
                    l2628 0767                      l2580 038C                      l2572 02F9  
                    l2564 02F5                      l2556 09D6                      l2548 09CC  
                    l2660 14F7                      l2652 14EC                      l2644 1502  
                    l2732 167C                      l2740 16AF                      l2724 164F  
                    l2716 1643                      l2708 163A                      l2486 0FF7  
                    l2478 0FD9                      l2398 0D29                      l1950 0189  
                    l1942 0164                      l1934 014A                      l1926 0119  
                    l1918 00F9                      l1870 008F                      l1854 006B  
                    l1862 007B                      l1846 005B                      l2494 0850  
                    l1838 15B5                      l2638 07D1                      l2590 03A5  
                    l2582 0394                      l2574 0308                      l2566 02F5  
                    l2654 14F2                      l2646 1504                      l2670 14BB  
                    l2742 16B2                      l2734 167F                      l2726 165E  
                    l2718 1644                      l1792 0005                      l1960 01A2  
                    l1952 018D                      l1944 0169                      l1936 014B  
                    l1928 0139                      l1880 00A4                      l1872 0095  
                    l1864 0083                      l1856 0070                      l1848 0061  
                    l2496 0860                      l2592 03D2                      l2584 03A1  
                    l2576 0342                      l2680 15E9                      l2672 15C0  
                    l2648 1506                      l2664 14D8                      l2736 168E  
                    l2744 16B3                      l2728 1667                      l1794 000B  
                    l1970 0209                      l1962 01A3                      l1954 0191  
                    l1938 0156                      l1890 00C1                      l1882 00AC  
                    l1874 0099                      l1866 0088                      l1858 0078  
                    l2498 0870                      l2594 03F0                      l2578 0351  
                    l2682 15EA                      l2674 15CB                      l2666 14DD  
                    l2738 16A1                      l1980 023E                      l1972 020F  
                    l1964 01AE                      l1956 019C                      l1948 0172  
                    l1892 00C5                      l1884 00AD                      l1876 009A  
                    l1868 008E                      l1796 0010                      l2596 03F4  
                    l2684 15F2                      l1990 025B                      l1974 0214  
                    l1958 019E                      l1966 01B3                      l1894 00C9  
                    l1878 009F                      l1886 00AF                      l1798 0012  
                    l2766 0A07                      l2598 03FC                      l2694 1600  
                    l2686 15F4                      l2678 15D4                      l1992 025E  
                    l1984 0247                      l1968 01C9                      l1976 0223  
                    l1896 00CD                      l1888 00BD                      l2688 15F8  
                    l2696 1612                      l1994 0260                      l1986 0252  
                    l1978 0239                      l1898 00D1                      l1996 0265  
                    l1988 0256                      l1998 0267                      STR_1 1030  
                    STR_2 1029                      STR_3 1025                      STR_4 1029  
                    STR_5 102D                      STR_6 101A                      STR_7 1029  
                    STR_8 102D                      _BRGH 04C2                      _CREN 00C4  
                    u3000 178E                      u2200 004F                      u3001 178D  
                    u2201 004E                      u2130 000B                      u3010 179A  
                    u2210 158C                      u2131 000A                      u3011 1799  
                    u2211 158B                      u3100 0B00                      u2300 008E  
                    u2140 0018                      u3101 0AFF                      u3021 17A9  
                    u2301 008D                      u2141 0017                      u3110 0B06  
                    u3030 17C2                      u3022 17AA                      u2310 0099  
                    u2230 159E                      u3111 0B05                      u3031 17C1  
                    u3023 17AF                      u2311 0098                      u2231 159D  
                    u3200 0BB0                      u3120 0B0B                      u3024 17B0  
                    u2400 014A                      u2320 009F                      u2160 002A  
                    u2240 15A8                      u4000 03A1                      u3201 0BAF  
                    u3121 0B0A                      u3041 17D1                      u3025 17B5  
                    u2401 0149                      u2321 009E                      u2161 0029  
                    u2241 15A7                      u2225 1590                      u4001 03A0  
                    u3210 0BC9                      u3130 0B26                      u3050 17FC  
                    u3042 17D2                      u3026 17B6                      u2330 00A4  
                    u3211 0BC8                      u3131 0B25                      u3051 17FB  
                    u3043 17D7                      u2331 00A3                      u2155 001C  
                    u3300 0C1A                      u3220 0BD1                      u3140 0B44  
                    u3044 17D8                      u3060 14E9                      u2500 01C9  
                    u2420 0160                      u2340 00BD                      u2180 003B  
                    u2260 15BB                      u4020 03D2                      u4100 14F2  
                    u3301 0C19                      u3221 0BD0                      u3205 0BAC  
                    u3141 0B43                      u3045 17DD                      u3061 14E8  
                    u2501 01C8                      u2421 015F                      u2341 00BC  
                    u2181 003A                      u2261 15BA                      u2245 15A4  
                    u4021 03D1                      u4005 039D                      u4101 14F1  
                    u3310 0C2C                      u3150 0B7E                      u3070 0AD3  
                    u3046 17DE                      u2430 0164                      u2350 00C1  
                    u2270 0065                      u4110 15CB                      u3311 0C2B  
                    u3151 0B7D                      u3071 0AD2                      u3055 17F8  
                    u2511 01E2                      u2503 01C5                      u2431 0163  
                    u2415 014F                      u2351 00C0                      u2271 0064  
                    u2175 002B                      u2255 15AF                      u4015 03B4  
                    u4111 15CA                      u3320 0C3B                      u3240 0BE0  
                    u3080 0AD9                      u3400 0CE2                      u2600 026B  
                    u2520 01F6                      u2512 01E3                      u2440 0169  
                    u2360 0119                      u2280 006B                      u4040 0409  
                    u4200 162E                      u4120 15E2                      u3241 0BDF  
                    u3081 0AD8                      u3401 0CE1                      u2601 026A  
                    u2521 01F7                      u2513 01E8                      u2441 0168  
                    u2361 0118                      u2281 006A                      u2185 0037  
                    u4041 0408                      u4201 162D                      u3330 0C58  
                    u3090 0ADE                      u3410 0CE7                      u2610 0270  
                    u2530 0214                      u2522 01FC                      u2514 01E9  
                    u2370 0122                      u2290 0070                      u4130 15F8  
                    u4210 1672                      u3331 0C57                      u3235 0BD5  
                    u3091 0ADD                      u3411 0CE6                      u2611 026F  
                    u2531 0213                      u2523 01FD                      u2515 01EE  
                    u2451 017B                      u2371 0120                      u2291 006F  
                    u2195 0043                      u4035 03D9                      u4131 15F7  
                    u4211 1671                      u3340 0C75                      u3260 0BF4  
                    u3180 0B94                      u3420 0CFE                      u2700 02D0  
                    u2620 0276                      u2540 0239                      u2516 01EF  
                    u2460 018D                      u2452 0182                      u2380 0123  
                    u4140 15FF                      u4220 167C                      u3341 0C74  
                    u3325 0C36                      u3261 0BF3                      u3181 0B93  
                    u3165 0B80                      u3501 0E1B                      u3421 0CFD  
                    u2701 02CF                      u2621 0275                      u2541 0238  
                    u2461 018C                      u2453 0189                      u2365 0115  
                    u4045 0405                      u4141 15FE                      u4125 15DD  
                    u4221 167B                      u3350 0C8C                      u3270 0BF9  
                    u3502 0E22                      u3430 0D03                      u2710 02D5  
                    u2630 027D                      u2550 023E                      u2470 0191  
                    u2390 0139                      u3351 0C8B                      u3335 0C54  
                    u3271 0BF8                      u3255 0BE3                      u3175 0B89  
                    u3503 0E29                      u3431 0D02                      u2711 02D4  
                    u2631 027C                      u2551 023D                      u2471 0190  
                    u2391 0138                      u4055 0410                      u2800 157F  
                    u3280 0C0D                      u3360 0CB0                      u2720 02EA  
                    u2640 0283                      u2480 01A2                      u4080 0790  
                    u4160 1611                      u2801 157E                      u3345 0C71  
                    u3281 0C0C                      u3521 0E51                      u3441 0D54  
                    u3361 0CAF                      u2721 02E9                      u2641 0282  
                    u2481 01A1                      u4081 078F                      u4065 042D  
                    u4161 1610                      u3290 0C14                      u2730 1542  
                    u3610 0F3B                      u3522 0E58                      u3442 0D5B  
                    u3370 0CB6                      u2650 0295                      u2570 0256  
                    u2810 09E8                      u4170 1618                      u4090 1502  
                    u3291 0C13                      u3195 0B97                      u2731 1541  
                    u3611 0F3A                      u3531 0E7E                      u3523 0E5F  
                    u3515 0E2B                      u3451 0D70                      u3443 0D62  
                    u3371 0CB5                      u2651 0294                      u2571 0255  
                    u2811 09E7                      u4075 0743                      u4171 1617  
                    u4155 1601                      u4091 1501                      u3700 0FB3  
                    u3532 0E85                      u3452 0D77                      u3380 0CBB  
                    u2660 02A6                      u2580 025B                      u2820 0A22  
                    u2900 16D9                      u3701 0FB2                      u3605 0F30  
                    u3541 0EAB                      u3533 0E8C                      u3461 0D9C  
                    u3453 0D7E                      u3381 0CBA                      u2581 025A  
                    u2565 024B                      u2821 0A21                      u4085 078C  
                    u2901 16D8                      u4237 16A9                      u2750 1556  
                    u3710 0FCD                      u3630 0F4F                      u3550 0ED5  
                    u3542 0EB2                      u3462 0DA3                      u3390 0CDC  
                    u2670 02B5                      u2590 0265                      u2830 0A48  
                    u2910 16F8                      u4190 1629                      u2751 1555  
                    u3711 0FCC                      u3631 0F4E                      u3543 0EB9  
                    u3471 0DB8                      u3463 0DAA                      u3391 0CDB  
                    u2671 02B4                      u2591 0264                      u2495 01A7  
                    u2831 0A47                      u2911 16F7                      u4191 1628  
                    u4247 16B9                      u2760 080F                      u3720 0FEB  
                    u3640 0F54                      u3472 0DBF                      u2680 02BE  
                    u2840 0A53                      u2745 1549                      u3721 0FEA  
                    u3705 0FAF                      u3641 0F53                      u3625 0F3E  
                    u3561 0EE1                      u3473 0DC6                      u2681 02BD  
                    u2665 02A1                      u2841 0A52                      u4257 076D  
                    u4185 161B                      u2770 0831                      u3650 0F68  
                    u3570 0EFD                      u3562 0EE8                      u2690 02C3  
                    u3810 08C3                      u3730 084C                      u2850 0A59  
                    u2930 170C                      u3715 0FC9                      u3651 0F67  
                    u3563 0EEF                      u3555 0ED0                      u3491 0DEE  
                    u2691 02C2                      u3811 08C2                      u3731 084B  
                    u2851 0A58                      u2835 0A44                      u4267 07CC  
                    u2931 170B                      _PEIE 005E                      u2780 0843  
                    u3660 0F6F                      u3492 0DF5                      u3820 08C9  
                    u3740 0850                      u2860 0AAB                      u3900 0962  
                    u4277 1573                      u2781 0842                      u3661 0F6E  
                    u3581 0F09                      u3493 0DFC                      u3485 0DC8  
                    u3821 08C8                      u3805 08B8                      u3741 084F  
                    u2861 0AAA                      u2925 16FD                      u3901 0961  
                    u3670 0F75                      u3582 0F10                      u3830 08CD  
                    u3750 0870                      u2870 0ABD                      u2950 1727  
                    u3910 0972                      u3671 0F74                      u3583 0F17  
                    u3575 0EF8                      u3831 08CC                      u3751 086F  
                    u2871 0ABC                      u2951 1726                      u3680 0F87  
                    u3840 08E2                      u3920 098B                      u2880 14C6  
                    u3681 0F86                      u2945 170E                      u2881 14C5  
                    u3690 0F96                      u3850 08F2                      u3770 0891  
                    u2970 1745                      u2890 16C8                      u2795 1565  
                    u3595 0F19                      u3851 08F1                      u3771 0890  
                    u2971 1744                      u2955 1723                      u2891 16C7  
                    u3931 099D                      u3915 096D                      u3860 08F6  
                    u2980 174A                      u3940 09C7                      u3932 099E  
                    _RCIF 0065                      u3861 08F5                      u3845 08DD  
                    u3765 0883                      u2981 1749                      u2965 1737  
                    u3941 09C6                      u3933 09A3                      u3925 0986  
                    u2990 1772                      u3790 08B3                      u3950 02F0  
                    u3934 09A4                      u3870 0910                      u2991 1771  
                    u3695 0F91                      u3791 08B2                      u3935 09A9  
                    u3960 0308                      u3936 09AA                      u3880 0929  
                    u3785 08A5                      u3961 0307                      u3891 093B  
                    u3875 090B                      u3980 0351                      u3892 093C  
                    u3981 0350                      u3965 0304                      u3893 0941  
                    u3885 0924                      u3894 0942                      u3975 032D  
                    u3895 0947                      u3896 0948                      u3985 034D  
                    u3995 0377                      _SPEN 00C7                      _TRMT 04C1  
                    _TXEN 04C5                      _SYNC 04C4                      _main 163A  
                    btemp 007E          __end_of_ADC_Init 14D8          __end_of_ADC_Read 1586  
                    start 0000           ___fldiv@new_exp 0054   __end_of_UART_Write_Text 0844  
           ___fltol@sign1 0079           __end_of___aldiv 175E           __end_of___fladd 02EC  
                   ?_main 0070           __end_of___fldiv 0C9F           __end_of___flneg 14EC  
         __end_of___flmul 1000           __end_of___flsub 1534           __end_of___fltol 163A  
         __end_of___lwdiv 0054           __end_of___lwmod 15C0                     _RCREG 001A  
                   _SPBRG 0099                     _PORTD 0008                     _TRISA 0085  
                   _TRISD 0088                     _SSPIE 0463                     _SSPIF 0063  
                   _TXREG 0019               ?_UART_Write 0070        __size_of_UART_Init 00DA  
         __end_of_dpowers 101A                     pclath 000A           __end_of_spiInit 1510  
         __end_of_spiRead 14E1                     status 0003                     wtemp0 007E  
         __end_of_sprintf 0AC2           __initialization 07F3              __end_of_main 16C1  
                  ??_main 0065                    _ADCON0 001F                    _ADCON1 009F  
                  _ADRESH 001E                    _ADRESL 009E                    _TRISC3 043B  
                  _TRISC5 043D                    _TRISC6 043E                    _TRISC7 043F  
                  _SSPCON 0014                    _SSPBUF 0013          __end_of___xxtofl 0900  
              Quadra_Al@a 01E2                Quadra_Al@b 01B6                Quadra_Al@d 01BA  
              Quadra_Al@j 01E8                Quadra_Al@x 019A         __end_of_UART_Init 09DA  
                  ___flge 175E       __size_of_UART_Write 000C                 ??___aldiv 0078  
               ??___fladd 0020                 ??___fldiv 004A            Quadra_Al@F1140 00A0  
               ??___flneg 0074                 ??___flmul 0030          ?_UART_Write_Text 0071  
               ??___flsub 007D                 ??___fltol 0074                 ??___lwdiv 0074  
               ??___lwmod 007C           ADC_Read@channel 0074        __size_of_Quadra_Al 0507  
      __size_of__Umul8_16 0027                 ?_ADC_Init 0070                 ?_ADC_Read 0070  
        __end_of_spiWrite 14C0                 ??_spiInit 0073                 ??_spiRead 0070  
               ??_sprintf 0025                ___flge@ff1 0070                ___flge@ff2 0074  
            ___xxtofl@arg 0022              ___xxtofl@exp 0021              ___xxtofl@val 0075  
 __end_of__initialization 07FC                ___flneg@f1 0070                ___fltol@f1 0070  
          __pcstackCOMMON 0070                ??_ADC_Init 0070                ??_ADC_Read 0072  
              __pbssBANK1 00A0         __end_of_Quadra_Al 07F3         __end_of__Umul8_16 155B  
              __pmaintext 163A                   ?___flge 0070   __size_of_spiReceiveWait 0007  
           ?_spiDataReady 0070                 ?___xxtofl 0075              ??_UART_Write 0070  
                 _SSPSTAT 0094                __stringtab 1000                 ?_spiWrite 0070  
                 ___aldiv 16C1           __size_of___flge 00A2                   ___fladd 0054  
                 ___fldiv 0AC2                   ___flneg 14E1                   ___flmul 0C9F  
                 ___flsub 1510                   ___fltol 15C0        __end_of_UART_Write 0010  
                 ___lwdiv 0010                   ___lwmod 1586                   __ptext1 14BA  
                 __ptext2 14D8                   __ptext3 14C0                   __ptext4 14FA  
                 __ptext5 14EC                   __ptext6 15C0                   __ptext7 0900  
                 __ptext8 16C1                   __ptext9 02EC            ??_spiDataReady 0072  
                 _dpowers 1010                ??___xxtofl 0079          ___aldiv@dividend 0074  
                 _spiInit 14FA                   _spiRead 14D8                   _sprintf 09DA  
                 clrloop0 14C8      end_of_initialization 07FC          ___aldiv@quotient 0022  
              ??_spiWrite 0070                 _UART_Init 0900            UART_Write@data 0070  
             ___fladd@grs 007B             ___xxtofl@sign 0020               ___fldiv@grs 0056  
             ___fldiv@rem 004F         __size_of_ADC_Init 0009         __size_of_ADC_Read 002B  
             spiWrite@dat 0070               ___flmul@grs 0036            _spiReceiveWait 14C0  
          __end_of___flge 1800                ?_UART_Init 0026  __size_of_UART_Write_Text 0042  
     start_initialization 07F3      __end_of_spiDataReady 14FA    __end_of_spiReceiveWait 14C7  
                ??___flge 0078                 _Quadra_Al 02EC                 __Umul8_16 1534  
           Quadra_Al@data 0190             Quadra_Al@max1 01D6             Quadra_Al@max2 01D2  
           Quadra_Al@xmax 01E6                 ___fladd@a 0074                 ___fladd@b 0070  
               ___fldiv@a 0042                 ___fldiv@b 0046                 ___flmul@a 002C  
               ___flmul@b 0028                 ___flsub@a 0042                 ___flsub@b 0046  
               ___latbits 0002             __pcstackBANK0 0020             __pcstackBANK3 0190  
       __size_of___xxtofl 00BC               sprintf@flag 0029               sprintf@prec 002A  
           _Quadra_Al$930 01C2             _Quadra_Al$931 01C6             _Quadra_Al$932 01CA  
           _Quadra_Al$933 01CE             _Quadra_Al$929 01BE          ___lwdiv@dividend 0072  
         ?_spiReceiveWait 0070                ?_Quadra_Al 005C                  ?___aldiv 0070  
                ?___fladd 0070                  ?___fldiv 0042                  ?___flneg 0070  
                ?___flmul 0028                  ?___flsub 0042                  ?___fltol 0070  
              ?__Umul8_16 0070                  ?___lwdiv 0070                  ?___lwmod 0078  
             ??_UART_Init 002A         __size_of_spiWrite 0006                 __pstrings 1000  
                _ADC_Init 14CF                  _ADC_Read 155B                  ?_spiInit 0070  
                ?_spiRead 0070          ___lwdiv@quotient 0075                  ?_sprintf 0020  
              UART_Init@x 0079         ??_UART_Write_Text 0073           ___aldiv@divisor 0070  
    spiInit@sTransmitEdge 0072           ___aldiv@counter 0020                 clear_ram0 14C7  
      spiInit@sDataSample 0070                  _GO_nDONE 00FA         UART_Init@baudrate 0026  
             __stringbase 100F     __size_of_spiDataReady 000E               ??_Quadra_Al 0060  
            Quadra_Al@max 01DE              Quadra_Al@out 01DA               ??__Umul8_16 0072  
        __size_of___aldiv 009D          __size_of___fladd 0298          __size_of___fldiv 01DD  
        __size_of___flneg 000B          __size_of___flmul 0361          __size_of___flsub 0024  
        __size_of___fltol 007A          __size_of___lwdiv 0044          __size_of___lwmod 003A  
      __end_of__stringtab 1010              _spiDataReady 14EC                sprintf@val 002B  
                ___xxtofl 0844           ___lwdiv@divisor 0070           ___lwdiv@counter 0077  
                __ptext10 09DA                  __ptext11 1586                  __ptext20 0AC2  
                __ptext12 0010                  __ptext21 0802                  __ptext13 0844  
                __ptext22 0004                  __ptext14 1510                  __ptext23 155B  
                __ptext15 0054                  __ptext24 14CF                  __ptext16 14E1  
                __ptext17 0C9F                  __ptext18 1534                  __ptext19 175E  
        __size_of_spiInit 0016          __size_of_spiRead 0009          __size_of_sprintf 00E8  
     UART_Write_Text@text 0071             __size_of_main 0087                  _spiWrite 14BA  
            spiInit@sType 0073                  main@data 0068         spiInit@sClockIdle 0071  
               sprintf@ap 0028                 sprintf@sp 002D          ___lwmod@dividend 007A  
        ??_spiReceiveWait 0070                 stringcode 100A    __Umul8_16@multiplicand 0070  
         _UART_Write_Text 0802                  sprintf@c 002E                  sprintf@f 0020  
         ___lwmod@divisor 0078           ___lwmod@counter 007D                  stringdir 100A  
                stringtab 1000              ___aldiv@sign 0021                _UART_Write 0004  
           ___fladd@signs 0078          UART_Write_Text@i 0076              ___fladd@aexp 0079  
            ___fladd@bexp 007A      __Umul8_16@multiplier 0078         __Umul8_16@product 0074  
