Microchip MPLAB XC8 Compiler V2.32

Linker command line:

-W-3 --edf=C:\Program Files\Microchip\xc8\v2.32\pic\dat\en_msgs.txt -cn \
  -h+dist/default/production\SLAVE1.X.production.sym \
  --cmf=dist/default/production\SLAVE1.X.production.cmf -z -Q16F877A \
  -oC:\Users\NGUYEN~1\AppData\Local\Temp\xcAsiq0.4 --defsym=__MPLAB_BUILD=1 \
  -Mdist/default/production/SLAVE1.X.production.map -E1 -ver=XC8 Compiler \
  --acfsm=1493 -ASTACK=0110h-016Fh -pstack=STACK -ACODE=00h-07FFhx4 \
  -ASTRCODE=00h-01FFFh -ASTRING=00h-0FFhx32 -ACONST=00h-0FFhx32 \
  -AENTRY=00h-0FFhx32 -ACOMMON=070h-07Fh -ABANK0=020h-06Fh \
  -ABANK1=0A0h-0EFh -ABANK2=0110h-016Fh -ABANK3=0190h-01EFh \
  -ARAM=020h-06Fh,0A0h-0EFh,0110h-016Fh,0190h-01EFh \
  -AABS1=020h-07Fh,0A0h-0EFh,0110h-016Fh,0190h-01EFh -ASFR0=00h-01Fh \
  -ASFR1=080h-09Fh -ASFR2=0100h-010Fh -ASFR3=0180h-018Fh \
  -ACONFIG=02007h-02007h -DCONFIG=2 -AIDLOC=02000h-02003h -DIDLOC=2 \
  -AEEDATA=00h-0FFh/02100h -peeprom_data=EEDATA -DEEDATA=2 -DCODE=2 \
  -DSTRCODE=2 -DSTRING=2 -DCONST=2 -DENTRY=2 \
  -preset_vec=00h,intentry,init,end_init -ppowerup=CODE -pcinit=CODE \
  -pfunctab=ENTRY -k C:\Users\NGUYEN~1\AppData\Local\Temp\xcAsiq0.o \
  dist/default/production\SLAVE1.X.production.o 

Object code version is 3.11

Machine type is 16F877A



                Name                               Link     Load   Length Selector   Space Scale
C:\Users\NGUYEN~1\AppData\Local\Temp\xcAsiq0.o
                end_init                              0        0        3        0       0
                config                             2007     2007        1        0       4
dist/default/production\SLAVE1.X.production.o
                cinit                               7EE      7EE       12      FDC       0
                config                             2007     2007        1        0       4
                text21                             1714     1714        9     2E28       0
                text20                                3        3        C        0       0
                text19                             178F     178F       37     2F1E       0
                text18                              B8B      B8B      1DD     1716       0
                text17                             1768     1768       27     2ED0       0
                text16                              48D      48D      361      91A       0
                text15                             1726     1726        B     2E4C       0
                text14                              D68      D68      298     1AD0       0
                text13                             1744     1744       24     2E88       0
                text12                              919      919       BA     1232       0
                text11                               25       25       44       4A       0
                text10                             17C6     17C6       3A     2F8C       0
                text9                                69       69       F5       D2       0
                text8                               15E      15E      32F      2BC       0
                text7                               87C      87C       9D     10F8       0
                text6                               9D3      9D3       DA     13A6       0
                text5                               800      800       7C      FDC       0
                text4                                 F        F       16       1E       0
                text3                              1706     1706        7     2E0C       0
                text2                              171D     171D        9     2E3A       0
                text1                              1700     1700        6     2E00       0
                maintext                            AAD      AAD       DE     155A       0
                cstackBANK0                          20       20       4F       20       1
                cstackCOMMON                         70       70        E       70       1
                cstackBANK1                          A0       A0       26       A0       1
                cstackBANK3                         190      190       58      190       1
                inittext                           1731     1731       13     2E62       0
                dataBANK3                           1E8      1E8        7      190       1
                strings                            1000     1000       3F     2000       0
                idataBANK3                         170D     170D        7     2E1A       0

TOTAL           Name                               Link     Load   Length     Space
        CLASS   STACK          

        CLASS   CODE           
                end_init                              0        0        3         0
                cinit                               7EE      7EE       12         0
                text21                             1714     1714        9         0
                text20                                3        3        C         0
                text19                             178F     178F       37         0
                text18                              B8B      B8B      1DD         0
                text17                             1768     1768       27         0
                text16                              48D      48D      361         0
                text15                             1726     1726        B         0
                text14                              D68      D68      298         0
                text13                             1744     1744       24         0
                text12                              919      919       BA         0
                text11                               25       25       44         0
                text10                             17C6     17C6       3A         0
                text9                                69       69       F5         0
                text8                               15E      15E      32F         0
                text7                               87C      87C       9D         0
                text6                               9D3      9D3       DA         0
                text5                               800      800       7C         0
                text4                                 F        F       16         0
                text3                              1706     1706        7         0
                text2                              171D     171D        9         0
                text1                              1700     1700        6         0
                maintext                            AAD      AAD       DE         0
                inittext                           1731     1731       13         0
                idataBANK3                         170D     170D        7         0

        CLASS   STRCODE        

        CLASS   STRING         
                strings                            1000     1000       3F         0

        CLASS   CONST          

        CLASS   ENTRY          

        CLASS   COMMON         
                cstackCOMMON                         70       70        E         1

        CLASS   BANK0          
                cstackBANK0                          20       20       4F         1

        CLASS   BANK1          
                cstackBANK1                          A0       A0       26         1

        CLASS   BANK2          

        CLASS   BANK3          
                cstackBANK3                         190      190       58         1
                dataBANK3                           1E8      1E8        7         1

        CLASS   RAM            

        CLASS   ABS1           
                abs_s1                               7E       7E        2         1

        CLASS   SFR0           

        CLASS   SFR1           

        CLASS   SFR2           

        CLASS   SFR3           

        CLASS   CONFIG         
                config                             2007     2007        1         4

        CLASS   IDLOC          

        CLASS   EEDATA         



SEGMENTS        Name                           Load    Length   Top    Selector   Space  Class     Delta

                reset_vec                      000000  00000F  00000F         0       0  CODE        2
                text4                          00000F  000016  000025        1E       0  CODE        2
                cstackBANK0                    000020  00004F  00006F        20       1  BANK0       1
                text11                         000025  000044  000069        4A       0  CODE        2
                cstackCOMMON                   000070  00000E  00007E        70       1  COMMON      1
                cstackBANK1                    0000A0  000026  0000C6        A0       1  BANK1       1
                text9                          000069  0000F5  00015E        D2       0  CODE        2
                cstackBANK3                    000190  00005F  0001EF       190       1  BANK3       1
                text8                          00015E  00032F  00048D       2BC       0  CODE        2
                text16                         00048D  000361  0007EE       91A       0  CODE        2
                cinit                          0007EE  00008E  00087C       FDC       0  CODE        2
                text7                          00087C  00009D  000919      10F8       0  CODE        2
                text12                         000919  0000BA  0009D3      1232       0  CODE        2
                text6                          0009D3  0000DA  000AAD      13A6       0  CODE        2
                maintext                       000AAD  0000DE  000B8B      155A       0  CODE        2
                text18                         000B8B  0001DD  000D68      1716       0  CODE        2
                text14                         000D68  000298  001000      1AD0       0  CODE        2
                strings                        001000  00003F  00103F      2000       0  STRING      2
                text1                          001700  000006  001706      2E00       0  CODE        2
                text3                          001706  000007  00170D      2E0C       0  CODE        2
                idataBANK3                     00170D  000007  001714      2E1A       0  CODE        2
                text21                         001714  000009  00171D      2E28       0  CODE        2
                text2                          00171D  000009  001726      2E3A       0  CODE        2
                text15                         001726  00000B  001731      2E4C       0  CODE        2
                inittext                       001731  000013  001744      2E62       0  CODE        2
                text13                         001744  000024  001768      2E88       0  CODE        2
                text17                         001768  000027  00178F      2ED0       0  CODE        2
                text19                         00178F  000037  0017C6      2F1E       0  CODE        2
                text10                         0017C6  00003A  001800      2F8C       0  CODE        2


UNUSED ADDRESS RANGES

        Name                Unused          Largest block    Delta
        BANK0            006F-006F              1           1
        BANK1            00C6-00EF             2A           1
        BANK2            0110-016F             60           1
        BANK3            01EF-01EF              1           1
        CODE             103F-16FF            6C1           2
                         1800-1FFF            800
        CONST            103F-16FF            100           2
                         1800-1FFF            100
        EEDATA           2100-21FF            100           2
        ENTRY            103F-16FF            100           2
                         1800-1FFF            100
        IDLOC            2000-2003              4           2
        RAM              006F-006F              1           1
                         00C6-00EF             2A
                         0110-016F             60
                         01EF-01EF              1
        SFR0             0000-001F             20           1
        SFR1             0080-009F             20           1
        SFR2             0100-010F             10           1
        SFR3             0180-018F             10           1
        STACK            0110-016F             60           1
        STRCODE          103F-16FF            6C1           2
                         1800-1FFF            800
        STRING           103F-16FF            100           2
                         1800-1FFF            100

                                  Symbol Table

?_Quadra_Al               cstackBANK0  005C
?__Umul8_16               cstackCOMMON 0070
?___aldiv                 cstackCOMMON 0070
?___fladd                 cstackCOMMON 0070
?___fldiv                 cstackBANK0  0042
?___flmul                 cstackBANK0  0028
?___flneg                 cstackCOMMON 0070
?___flsub                 cstackBANK0  0042
?___fltol                 cstackBANK1  00A0
?___lwdiv                 cstackCOMMON 0070
?___lwmod                 cstackCOMMON 0078
?___xxtofl                cstackCOMMON 0070
?_sprintf                 cstackBANK0  0020
Quadra_Al@F1224           dataBANK3    01E8
Quadra_Al@a               cstackBANK3  01DF
Quadra_Al@b               cstackBANK3  01C2
Quadra_Al@d               cstackBANK3  01C6
Quadra_Al@j               cstackBANK3  01E6
Quadra_Al@max             cstackBANK3  01E5
Quadra_Al@max1            cstackBANK3  01DE
Quadra_Al@max2            cstackBANK3  01D2
Quadra_Al@out             cstackBANK3  01DA
Quadra_Al@uart_logs       cstackBANK3  0190
Quadra_Al@x               cstackBANK3  01D3
Quadra_Al@xmax            cstackBANK3  01E3
UART_Init@baudrate        cstackBANK0  0026
UART_Init@x               cstackCOMMON 0079
UART_Write@data           cstackCOMMON 0070
UART_Write_Text@i         cstackCOMMON 0076
UART_Write_Text@text      cstackCOMMON 0071
_ADCON0                   (abs)        001F
_ADCON1                   (abs)        009F
_ADC_Init                 text21       1714
_ADRESH                   (abs)        001E
_ADRESL                   (abs)        009E
_BRGH                     (abs)        04C2
_CREN                     (abs)        00C4
_GIE                      (abs)        005F
_GO_nDONE                 (abs)        00FA
_PEIE                     (abs)        005E
_PORTD                    (abs)        0008
_Quadra_Al                text8        015E
_Quadra_Al$925            cstackBANK3  01CA
_Quadra_Al$926            cstackBANK3  01CE
_RCIF                     (abs)        0065
_RCREG                    (abs)        001A
_RD0                      (abs)        0040
_SPBRG                    (abs)        0099
_SPEN                     (abs)        00C7
_SSPBUF                   (abs)        0013
_SSPCON                   (abs)        0014
_SSPIE                    (abs)        0463
_SSPIF                    (abs)        0063
_SSPSTAT                  (abs)        0094
_SSPSTATbits              (abs)        0094
_SYNC                     (abs)        04C4
_TRISA                    (abs)        0085
_TRISC3                   (abs)        043B
_TRISC5                   (abs)        043D
_TRISC6                   (abs)        043E
_TRISC7                   (abs)        043F
_TRISD                    (abs)        0088
_TRMT                     (abs)        04C1
_TXEN                     (abs)        04C5
_TXREG                    (abs)        0019
_UART_Init                text6        09D3
_UART_Write               text20       0003
_UART_Write_Text          text19       178F
__Habs1                   abs1         0000
__Hbank0                  bank0        0000
__Hbank1                  bank1        0000
__Hbank2                  bank2        0000
__Hbank3                  bank3        0000
__Hcinit                  cinit        0800
__Hclrtext                clrtext      0000
__Hcode                   code         0000
__Hcommon                 common       0000
__Hconfig                 config       2008
__HcstackBANK0            cstackBANK0  0000
__HcstackBANK1            cstackBANK1  0000
__HcstackBANK3            cstackBANK3  0000
__HcstackCOMMON           cstackCOMMON 0000
__HdataBANK3              dataBANK3    0000
__Heeprom_data            eeprom_data  0000
__Hend_init               end_init     0003
__Hfunctab                functab      0000
__HidataBANK3             idataBANK3   0000
__Hinit                   init         0000
__Hinittext               inittext     0000
__Hintentry               intentry     0000
__Hmaintext               maintext     0000
__Hpowerup                powerup      0000
__Hram                    ram          0000
__Hreset_vec              reset_vec    0000
__Hsfr0                   sfr0         0000
__Hsfr1                   sfr1         0000
__Hsfr2                   sfr2         0000
__Hsfr3                   sfr3         0000
__Hspace_0                (abs)        1800
__Hspace_1                (abs)        01EF
__Hspace_2                (abs)        0000
__Hspace_3                (abs)        0000
__Hspace_4                (abs)        400F
__Hstack                  stack        0000
__Hstrings                strings      0000
__Htext                   text         0000
__Labs1                   abs1         0000
__Lbank0                  bank0        0000
__Lbank1                  bank1        0000
__Lbank2                  bank2        0000
__Lbank3                  bank3        0000
__Lcinit                  cinit        07EE
__Lclrtext                clrtext      0000
__Lcode                   code         0000
__Lcommon                 common       0000
__Lconfig                 config       0000
__LcstackBANK0            cstackBANK0  0000
__LcstackBANK1            cstackBANK1  0000
__LcstackBANK3            cstackBANK3  0000
__LcstackCOMMON           cstackCOMMON 0000
__LdataBANK3              dataBANK3    0000
__Leeprom_data            eeprom_data  0000
__Lend_init               end_init     0000
__Lfunctab                functab      0000
__LidataBANK3             idataBANK3   0000
__Linit                   init         0000
__Linittext               inittext     0000
__Lintentry               intentry     0000
__Lmaintext               maintext     0000
__Lpowerup                powerup      0000
__Lram                    ram          0000
__Lreset_vec              reset_vec    0000
__Lsfr0                   sfr0         0000
__Lsfr1                   sfr1         0000
__Lsfr2                   sfr2         0000
__Lsfr3                   sfr3         0000
__Lspace_0                (abs)        0000
__Lspace_1                (abs)        0000
__Lspace_2                (abs)        0000
__Lspace_3                (abs)        0000
__Lspace_4                (abs)        0000
__Lstack                  stack        0000
__Lstrings                strings      0000
__Ltext                   text         0000
__S0                      (abs)        1800
__S1                      (abs)        01EF
__S2                      (abs)        0000
__S3                      (abs)        0000
__Umul8_16                text17       1768
__Umul8_16@multiplicand   cstackCOMMON 0070
__Umul8_16@multiplier     cstackCOMMON 0078
__Umul8_16@product        cstackCOMMON 0074
__Umul8_16@word_mpld      cstackCOMMON 0076
___aldiv                  text7        087C
___aldiv@counter          cstackBANK0  0020
___aldiv@dividend         cstackCOMMON 0074
___aldiv@divisor          cstackCOMMON 0070
___aldiv@quotient         cstackBANK0  0022
___aldiv@sign             cstackBANK0  0021
___fladd                  text14       0D68
___fladd@a                cstackCOMMON 0074
___fladd@aexp             cstackCOMMON 0079
___fladd@b                cstackCOMMON 0070
___fladd@bexp             cstackCOMMON 007A
___fladd@grs              cstackCOMMON 007B
___fladd@signs            cstackCOMMON 0078
___fldiv                  text18       0B8B
___fldiv@a                cstackBANK0  0042
___fldiv@aexp             cstackBANK0  005B
___fldiv@b                cstackBANK0  0046
___fldiv@bexp             cstackBANK0  005A
___fldiv@grs              cstackBANK0  0056
___fldiv@new_exp          cstackBANK0  0054
___fldiv@rem              cstackBANK0  004F
___fldiv@sign             cstackBANK0  0053
___flmul                  text16       048D
___flmul@a                cstackBANK0  002C
___flmul@aexp             cstackBANK0  003A
___flmul@b                cstackBANK0  0028
___flmul@bexp             cstackBANK0  003B
___flmul@grs              cstackBANK0  0036
___flmul@prod             cstackBANK0  003C
___flmul@sign             cstackBANK0  0035
___flmul@temp             cstackBANK0  0040
___flneg                  text15       1726
___flneg@f1               cstackCOMMON 0070
___flsub                  text13       1744
___flsub@a                cstackBANK0  0042
___flsub@b                cstackBANK0  0046
___fltol                  text5        0800
___fltol@exp1             cstackBANK1  00AA
___fltol@f1               cstackBANK1  00A0
___fltol@sign1            cstackBANK1  00A9
___int_sp                 stack        0000
___latbits                (abs)        0002
___lwdiv                  text11       0025
___lwdiv@counter          cstackCOMMON 0077
___lwdiv@dividend         cstackCOMMON 0072
___lwdiv@divisor          cstackCOMMON 0070
___lwdiv@quotient         cstackCOMMON 0075
___lwmod                  text10       17C6
___lwmod@counter          cstackCOMMON 007D
___lwmod@dividend         cstackCOMMON 007A
___lwmod@divisor          cstackCOMMON 0078
___sp                     stack        0000
___stackhi                (abs)        0000
___stacklo                (abs)        0000
___xxtofl                 text12       0919
___xxtofl@arg             cstackCOMMON 007A
___xxtofl@exp             cstackCOMMON 0079
___xxtofl@sign            cstackCOMMON 0078
___xxtofl@val             cstackCOMMON 0070
__end_of_ADC_Init         text21       171D
__end_of_Quadra_Al        text8        048D
__end_of_UART_Init        text6        0AAD
__end_of_UART_Write       text20       000F
__end_of_UART_Write_Text  text19       17C6
__end_of__Umul8_16        text17       178F
__end_of___aldiv          text7        0919
__end_of___fladd          text14       1000
__end_of___fldiv          text18       0D68
__end_of___flmul          text16       07EE
__end_of___flneg          text15       1731
__end_of___flsub          text13       1768
__end_of___fltol          text5        087C
__end_of___lwdiv          text11       0069
__end_of___lwmod          text10       1800
__end_of___xxtofl         text12       09D3
__end_of__initialization  cinit        07FC
__end_of__stringtab       strings      1006
__end_of_dpowers          strings      1010
__end_of_main             maintext     0B8B
__end_of_spiInit          text4        0025
__end_of_spiRead          text2        1726
__end_of_spiReceiveWait   text3        170D
__end_of_spiWrite         text1        1706
__end_of_sprintf          text9        015E
__initialization          cinit        07EE
__pcstackBANK0            cstackBANK0  0020
__pcstackBANK1            cstackBANK1  00A0
__pcstackBANK3            cstackBANK3  0190
__pcstackCOMMON           cstackCOMMON 0070
__pdataBANK3              dataBANK3    01E8
__pidataBANK3             idataBANK3   170D
__pmaintext               maintext     0AAD
__pstrings                strings      1000
__ptext1                  text1        1700
__ptext10                 text10       17C6
__ptext11                 text11       0025
__ptext12                 text12       0919
__ptext13                 text13       1744
__ptext14                 text14       0D68
__ptext15                 text15       1726
__ptext16                 text16       048D
__ptext17                 text17       1768
__ptext18                 text18       0B8B
__ptext19                 text19       178F
__ptext2                  text2        171D
__ptext20                 text20       0003
__ptext21                 text21       1714
__ptext3                  text3        1706
__ptext4                  text4        000F
__ptext5                  text5        0800
__ptext6                  text6        09D3
__ptext7                  text7        087C
__ptext8                  text8        015E
__ptext9                  text9        0069
__size_of_ADC_Init        (abs)        0000
__size_of_Quadra_Al       (abs)        0000
__size_of_UART_Init       (abs)        0000
__size_of_UART_Write      (abs)        0000
__size_of_UART_Write_Text (abs)        0000
__size_of__Umul8_16       (abs)        0000
__size_of___aldiv         (abs)        0000
__size_of___fladd         (abs)        0000
__size_of___fldiv         (abs)        0000
__size_of___flmul         (abs)        0000
__size_of___flneg         (abs)        0000
__size_of___flsub         (abs)        0000
__size_of___fltol         (abs)        0000
__size_of___lwdiv         (abs)        0000
__size_of___lwmod         (abs)        0000
__size_of___xxtofl        (abs)        0000
__size_of_main            (abs)        0000
__size_of_spiInit         (abs)        0000
__size_of_spiRead         (abs)        0000
__size_of_spiReceiveWait  (abs)        0000
__size_of_spiWrite        (abs)        0000
__size_of_sprintf         (abs)        0000
__stringbase              strings      1005
__stringtab               strings      1000
_dpowers                  strings      1006
_main                     maintext     0AAD
_spiInit                  text4        000F
_spiRead                  text2        171D
_spiReceiveWait           text3        1706
_spiWrite                 text1        1700
_sprintf                  text9        0069
btemp                     (abs)        007E
end_of_initialization     cinit        07FC
init_fetch0               inittext     1731
init_ram0                 inittext     1735
intlevel0                 functab      0000
intlevel1                 functab      0000
intlevel2                 functab      0000
intlevel3                 functab      0000
intlevel4                 functab      0000
intlevel5                 functab      0000
main@data                 cstackBANK1  00C4
main@out                  cstackBANK1  00C2
main@uart_logs            cstackBANK1  00AE
reset_vec                 reset_vec    0000
spiInit@sClockIdle        cstackCOMMON 0071
spiInit@sDataSample       cstackCOMMON 0070
spiInit@sTransmitEdge     cstackCOMMON 0072
spiInit@sType             cstackCOMMON 0073
spiWrite@dat              cstackCOMMON 0070
sprintf@ap                cstackBANK0  0034
sprintf@c                 cstackBANK0  0039
sprintf@f                 cstackBANK0  0022
sprintf@flag              cstackBANK0  0035
sprintf@prec              cstackBANK0  0036
sprintf@sp                cstackBANK0  0020
sprintf@val               cstackBANK0  0037
start                     init         0000
start_initialization      cinit        07EE
wtemp0                    (abs)        007E


MODULE INFORMATION

Module		Function		Class		Link	Load	Size
C:\Program Files\Microchip\xc8\v2.32\pic\sources\c90\common\sprcadd.c
		___flsub       		CODE           	1744	0000	36
		___fladd       		CODE           	0D68	0000	664

C:\Program Files\Microchip\xc8\v2.32\pic\sources\c90\common\sprcadd.c estimated size: 700

C:\Program Files\Microchip\xc8\v2.32\pic\sources\c90\common\flneg.c
		___flneg       		CODE           	1726	0000	11

C:\Program Files\Microchip\xc8\v2.32\pic\sources\c90\common\flneg.c estimated size: 11

C:\Program Files\Microchip\xc8\v2.32\pic\sources\c90\common\xxtofl.c
		___xxtofl      		CODE           	0919	0000	186

C:\Program Files\Microchip\xc8\v2.32\pic\sources\c90\common\xxtofl.c estimated size: 186

C:\Program Files\Microchip\xc8\v2.32\pic\sources\c90\common\Umul8_16.c
		__Umul8_16     		CODE           	1768	0000	39

C:\Program Files\Microchip\xc8\v2.32\pic\sources\c90\common\Umul8_16.c estimated size: 39

newmain.c
		_main          		CODE           	0AAD	0000	222
		_Quadra_Al     		CODE           	015E	0000	815
		_ADC_Init      		CODE           	1714	0000	9

newmain.c estimated size: 1046

./uart.h
		_UART_Init     		CODE           	09D3	0000	218
		_UART_Write_Text		CODE           	178F	0000	55
		_UART_Write    		CODE           	0003	0000	12

./uart.h estimated size: 285

C:\Program Files\Microchip\xc8\v2.32\pic\sources\c90\common\lwmod.c
		___lwmod       		CODE           	17C6	0000	58

C:\Program Files\Microchip\xc8\v2.32\pic\sources\c90\common\lwmod.c estimated size: 58

spi.c
		_spiWrite      		CODE           	1700	0000	6
		_spiInit       		CODE           	000F	0000	22
		_spiReceiveWait		CODE           	1706	0000	7
		_spiRead       		CODE           	171D	0000	9

spi.c estimated size: 44

shared
		__stringtab    		STRING         	1000	0000	6
		_dpowers       		STRING         	1006	0000	10
		__initialization		CODE           	07EE	0000	14

shared estimated size: 30

C:\Program Files\Microchip\xc8\v2.32\pic\sources\c90\common\sprcmul.c
		___flmul       		CODE           	048D	0000	865

C:\Program Files\Microchip\xc8\v2.32\pic\sources\c90\common\sprcmul.c estimated size: 865

C:\Program Files\Microchip\xc8\v2.32\pic\sources\c90\common\sprcdiv.c
		___fldiv       		CODE           	0B8B	0000	477

C:\Program Files\Microchip\xc8\v2.32\pic\sources\c90\common\sprcdiv.c estimated size: 477

C:\Program Files\Microchip\xc8\v2.32\pic\sources\c90\common\doprnt.c
		_sprintf       		CODE           	0069	0000	245

C:\Program Files\Microchip\xc8\v2.32\pic\sources\c90\common\doprnt.c estimated size: 245

C:\Program Files\Microchip\xc8\v2.32\pic\sources\c90\common\lwdiv.c
		___lwdiv       		CODE           	0025	0000	68

C:\Program Files\Microchip\xc8\v2.32\pic\sources\c90\common\lwdiv.c estimated size: 68

C:\Program Files\Microchip\xc8\v2.32\pic\sources\c90\common\fltol.c
		___fltol       		CODE           	0800	0000	124

C:\Program Files\Microchip\xc8\v2.32\pic\sources\c90\common\fltol.c estimated size: 124

C:\Program Files\Microchip\xc8\v2.32\pic\sources\c90\common\aldiv.c
		___aldiv       		CODE           	087C	0000	157

C:\Program Files\Microchip\xc8\v2.32\pic\sources\c90\common\aldiv.c estimated size: 157

