

Microchip MPLAB XC8 Assembler V2.32 build 20210201212658 
                                                                                               Sat Nov 27 22:17:58 2021

Microchip MPLAB XC8 C Compiler v2.32 (Free license) build 20210201212658 Og1 
     1                           	processor	16F877A
     2                           	pagewidth 120
     3                           	opt	flic
     4                           	psect	idataBANK3,global,class=CODE,delta=2,noexec
     5                           	psect	strings,global,class=STRING,delta=2,noexec
     6                           	psect	cinit,global,class=CODE,merge=1,delta=2
     7                           	psect	dataBANK3,global,class=BANK3,space=1,delta=1,noexec
     8                           	psect	inittext,global,class=CODE,delta=2
     9                           	psect	cstackBANK3,global,class=BANK3,space=1,delta=1,noexec
    10                           	psect	cstackBANK1,global,class=BANK1,space=1,delta=1,noexec
    11                           	psect	cstackCOMMON,global,class=COMMON,space=1,delta=1,noexec
    12                           	psect	cstackBANK0,global,class=BANK0,space=1,delta=1,noexec
    13                           	psect	maintext,global,class=CODE,split=1,delta=2
    14                           	psect	text1,local,class=CODE,merge=1,delta=2
    15                           	psect	text2,local,class=CODE,merge=1,delta=2
    16                           	psect	text3,local,class=CODE,merge=1,delta=2
    17                           	psect	text4,local,class=CODE,merge=1,delta=2
    18                           	psect	text5,local,class=CODE,merge=1,delta=2
    19                           	psect	text6,local,class=CODE,merge=1,delta=2,group=2
    20                           	psect	text7,local,class=CODE,merge=1,delta=2
    21                           	psect	text8,local,class=CODE,merge=1,delta=2,group=2
    22                           	psect	text9,local,class=CODE,merge=1,delta=2
    23                           	psect	text10,local,class=CODE,merge=1,delta=2,group=1
    24                           	psect	text11,local,class=CODE,merge=1,delta=2,group=2
    25                           	psect	text12,local,class=CODE,merge=1,delta=2,group=2
    26                           	psect	text13,local,class=CODE,merge=1,delta=2,group=2
    27                           	psect	text14,local,class=CODE,merge=1,delta=2,group=2
    28                           	psect	text15,local,class=CODE,merge=1,delta=2,group=2
    29                           	psect	text16,local,class=CODE,merge=1,delta=2,group=2
    30                           	psect	text17,local,class=CODE,merge=1,delta=2,group=2
    31                           	psect	text18,local,class=CODE,merge=1,delta=2,group=2
    32                           	psect	text19,local,class=CODE,merge=1,delta=2,group=2
    33                           	psect	text20,local,class=CODE,merge=1,delta=2,group=2
    34                           	psect	text21,local,class=CODE,merge=1,delta=2
    35                           	psect	text22,local,class=CODE,merge=1,delta=2
    36                           	psect	text23,local,class=CODE,merge=1,delta=2
    37                           	psect	config,global,abs,ovrld,class=CONFIG,space=4,delta=2,noexec
    38                           	dabs	1,0x7E,2
    39  0000                     
    40                           ; Version 2.20
    41                           ; Generated 12/02/2020 GMT
    42                           ; 
    43                           ; Copyright © 2020, Microchip Technology Inc. and its subsidiaries ("Microchip")
    44                           ; All rights reserved.
    45                           ; 
    46                           ; This software is developed by Microchip Technology Inc. and its subsidiaries ("Microch
      +                          ip").
    47                           ; 
    48                           ; Redistribution and use in source and binary forms, with or without modification, are
    49                           ; permitted provided that the following conditions are met:
    50                           ; 
    51                           ;     1. Redistributions of source code must retain the above copyright notice, this lis
      +                          t of
    52                           ;        conditions and the following disclaimer.
    53                           ; 
    54                           ;     2. Redistributions in binary form must reproduce the above copyright notice, this 
      +                          list
    55                           ;        of conditions and the following disclaimer in the documentation and/or other
    56                           ;        materials provided with the distribution.
    57                           ; 
    58                           ;     3. Microchip's name may not be used to endorse or promote products derived from th
      +                          is
    59                           ;        software without specific prior written permission.
    60                           ; 
    61                           ; THIS SOFTWARE IS PROVIDED BY MICROCHIP "AS IS" AND ANY EXPRESS OR IMPLIED WARRANTIES,
    62                           ; INCLUDING, BUT NOT LIMITED TO, THE IMPLIED WARRANTIES OF MERCHANTABILITY AND FITNESS F
      +                          OR
    63                           ; PURPOSE ARE DISCLAIMED.  IN NO EVENT SHALL MICROCHIP BE LIABLE FOR ANY DIRECT, INDIREC
      +                          T,
    64                           ; INCIDENTAL, SPECIAL, EXEMPLARY, OR CONSEQUENTIAL DAMAGES (INCLUDING BUT NOT LIMITED TO
    65                           ; PROCUREMENT OF SUBSTITUTE GOODS OR SERVICES; LOSS OF USE, DATA OR PROFITS; OR BUSINESS
    66                           ; INTERRUPTION) HOWSOEVER CAUSED AND ON ANY THEORY OF LIABILITY, WHETHER IN CONTRACT, ST
      +                          RICT
    67                           ; LIABILITY, OR TORT (INCLUDING NEGLIGENCE OR OTHERWISE) ARISING IN ANY WAY OUT OF THE U
      +                          SE OF
    68                           ; THIS SOFTWARE, EVEN IF ADVISED OF THE POSSIBILITY OF SUCH DAMAGE.
    69                           ; 
    70                           ; 
    71                           ; Code-generator required, PIC16F877A Definitions
    72                           ; 
    73                           ; SFR Addresses
    74  0000                     	;# 
    75  0001                     	;# 
    76  0002                     	;# 
    77  0003                     	;# 
    78  0004                     	;# 
    79  0005                     	;# 
    80  0006                     	;# 
    81  0007                     	;# 
    82  0008                     	;# 
    83  0009                     	;# 
    84  000A                     	;# 
    85  000B                     	;# 
    86  000C                     	;# 
    87  000D                     	;# 
    88  000E                     	;# 
    89  000E                     	;# 
    90  000F                     	;# 
    91  0010                     	;# 
    92  0011                     	;# 
    93  0012                     	;# 
    94  0013                     	;# 
    95  0014                     	;# 
    96  0015                     	;# 
    97  0015                     	;# 
    98  0016                     	;# 
    99  0017                     	;# 
   100  0018                     	;# 
   101  0019                     	;# 
   102  001A                     	;# 
   103  001B                     	;# 
   104  001B                     	;# 
   105  001C                     	;# 
   106  001D                     	;# 
   107  001E                     	;# 
   108  001F                     	;# 
   109  0081                     	;# 
   110  0085                     	;# 
   111  0086                     	;# 
   112  0087                     	;# 
   113  0088                     	;# 
   114  0089                     	;# 
   115  008C                     	;# 
   116  008D                     	;# 
   117  008E                     	;# 
   118  0091                     	;# 
   119  0092                     	;# 
   120  0093                     	;# 
   121  0094                     	;# 
   122  0098                     	;# 
   123  0099                     	;# 
   124  009C                     	;# 
   125  009D                     	;# 
   126  009E                     	;# 
   127  009F                     	;# 
   128  010C                     	;# 
   129  010D                     	;# 
   130  010E                     	;# 
   131  010F                     	;# 
   132  018C                     	;# 
   133  018D                     	;# 
   134  0000                     	;# 
   135  0001                     	;# 
   136  0002                     	;# 
   137  0003                     	;# 
   138  0004                     	;# 
   139  0005                     	;# 
   140  0006                     	;# 
   141  0007                     	;# 
   142  0008                     	;# 
   143  0009                     	;# 
   144  000A                     	;# 
   145  000B                     	;# 
   146  000C                     	;# 
   147  000D                     	;# 
   148  000E                     	;# 
   149  000E                     	;# 
   150  000F                     	;# 
   151  0010                     	;# 
   152  0011                     	;# 
   153  0012                     	;# 
   154  0013                     	;# 
   155  0014                     	;# 
   156  0015                     	;# 
   157  0015                     	;# 
   158  0016                     	;# 
   159  0017                     	;# 
   160  0018                     	;# 
   161  0019                     	;# 
   162  001A                     	;# 
   163  001B                     	;# 
   164  001B                     	;# 
   165  001C                     	;# 
   166  001D                     	;# 
   167  001E                     	;# 
   168  001F                     	;# 
   169  0081                     	;# 
   170  0085                     	;# 
   171  0086                     	;# 
   172  0087                     	;# 
   173  0088                     	;# 
   174  0089                     	;# 
   175  008C                     	;# 
   176  008D                     	;# 
   177  008E                     	;# 
   178  0091                     	;# 
   179  0092                     	;# 
   180  0093                     	;# 
   181  0094                     	;# 
   182  0098                     	;# 
   183  0099                     	;# 
   184  009C                     	;# 
   185  009D                     	;# 
   186  009E                     	;# 
   187  009F                     	;# 
   188  010C                     	;# 
   189  010D                     	;# 
   190  010E                     	;# 
   191  010F                     	;# 
   192  018C                     	;# 
   193  018D                     	;# 
   194  0000                     	;# 
   195  0001                     	;# 
   196  0002                     	;# 
   197  0003                     	;# 
   198  0004                     	;# 
   199  0005                     	;# 
   200  0006                     	;# 
   201  0007                     	;# 
   202  0008                     	;# 
   203  0009                     	;# 
   204  000A                     	;# 
   205  000B                     	;# 
   206  000C                     	;# 
   207  000D                     	;# 
   208  000E                     	;# 
   209  000E                     	;# 
   210  000F                     	;# 
   211  0010                     	;# 
   212  0011                     	;# 
   213  0012                     	;# 
   214  0013                     	;# 
   215  0014                     	;# 
   216  0015                     	;# 
   217  0015                     	;# 
   218  0016                     	;# 
   219  0017                     	;# 
   220  0018                     	;# 
   221  0019                     	;# 
   222  001A                     	;# 
   223  001B                     	;# 
   224  001B                     	;# 
   225  001C                     	;# 
   226  001D                     	;# 
   227  001E                     	;# 
   228  001F                     	;# 
   229  0081                     	;# 
   230  0085                     	;# 
   231  0086                     	;# 
   232  0087                     	;# 
   233  0088                     	;# 
   234  0089                     	;# 
   235  008C                     	;# 
   236  008D                     	;# 
   237  008E                     	;# 
   238  0091                     	;# 
   239  0092                     	;# 
   240  0093                     	;# 
   241  0094                     	;# 
   242  0098                     	;# 
   243  0099                     	;# 
   244  009C                     	;# 
   245  009D                     	;# 
   246  009E                     	;# 
   247  009F                     	;# 
   248  010C                     	;# 
   249  010D                     	;# 
   250  010E                     	;# 
   251  010F                     	;# 
   252  018C                     	;# 
   253  018D                     	;# 
   254                           
   255                           	psect	idataBANK3
   256  15B9                     __pidataBANK3:
   257                           
   258                           ;initializer for Quadra_Al@F1224
   259  15B9  3400               	retlw	0
   260  15BA  3400               	retlw	0
   261  15BB  3420               	retlw	32
   262  15BC  3442               	retlw	66
   263  15BD  3400               	retlw	0
   264  15BE  3400               	retlw	0
   265  15BF  3428               	retlw	40
   266  15C0  3442               	retlw	66
   267  15C1  3400               	retlw	0
   268  15C2  3400               	retlw	0
   269  15C3  3424               	retlw	36
   270  15C4  3442               	retlw	66
   271  15C5  3400               	retlw	0
   272  15C6  3400               	retlw	0
   273  15C7  3418               	retlw	24
   274  15C8  3442               	retlw	66
   275  15C9  3400               	retlw	0
   276  15CA  34C0               	retlw	192
   277  15CB  341D               	retlw	29
   278  15CC  3444               	retlw	68
   279  15CD  3400               	retlw	0
   280  15CE  34C0               	retlw	192
   281  15CF  345E               	retlw	94
   282  15D0  3444               	retlw	68
   283  15D1  3400               	retlw	0
   284  15D2  3400               	retlw	0
   285  15D3  3473               	retlw	115
   286  15D4  3443               	retlw	67
   287                           
   288                           	psect	strings
   289  1000                     __pstrings:
   290  1000                     stringtab:
   291  1000                     __stringtab:
   292  1000                     stringcode:	
   293                           ;	String table - string pointers are 1 byte each
   294                           
   295  1000                     stringdir:
   296  1000  3010               	movlw	high stringdir
   297  1001  008A               	movwf	10
   298  1002  0804               	movf	4,w
   299  1003  0A84               	incf	4,f
   300  1004  0782               	addwf	2,f
   301  1005                     __stringbase:
   302  1005  3400               	retlw	0
   303  1006                     __end_of__stringtab:
   304  1006                     _dpowers:
   305  1006  3401               	retlw	1
   306  1007  3400               	retlw	0
   307  1008  340A               	retlw	10
   308  1009  3400               	retlw	0
   309  100A  3464               	retlw	100
   310  100B  3400               	retlw	0
   311  100C  34E8               	retlw	232
   312  100D  3403               	retlw	3
   313  100E  3410               	retlw	16
   314  100F  3427               	retlw	39
   315  1010                     __end_of_dpowers:
   316  0013                     _SSPBUF	set	19
   317  0014                     _SSPCON	set	20
   318  0008                     _PORTD	set	8
   319  001E                     _ADRESH	set	30
   320  001F                     _ADCON0	set	31
   321  0019                     _TXREG	set	25
   322  001A                     _RCREG	set	26
   323  0040                     _RD0	set	64
   324  0063                     _SSPIF	set	99
   325  005E                     _PEIE	set	94
   326  005F                     _GIE	set	95
   327  00FA                     _GO_nDONE	set	250
   328  0065                     _RCIF	set	101
   329  00C4                     _CREN	set	196
   330  00C7                     _SPEN	set	199
   331  0094                     _SSPSTATbits	set	148
   332  0094                     _SSPSTAT	set	148
   333  0088                     _TRISD	set	136
   334  0085                     _TRISA	set	133
   335  009E                     _ADRESL	set	158
   336  009F                     _ADCON1	set	159
   337  0099                     _SPBRG	set	153
   338  043B                     _TRISC3	set	1083
   339  043D                     _TRISC5	set	1085
   340  0463                     _SSPIE	set	1123
   341  04C1                     _TRMT	set	1217
   342  04C5                     _TXEN	set	1221
   343  043E                     _TRISC6	set	1086
   344  043F                     _TRISC7	set	1087
   345  04C4                     _SYNC	set	1220
   346  04C2                     _BRGH	set	1218
   347  1010                     STR_2:
   348  1010  3425               	retlw	37	;'%'
   349  1011  3464               	retlw	100	;'d'
   350  1012  3420               	retlw	32	;' '
   351  1013  3425               	retlw	37	;'%'
   352  1014  3464               	retlw	100	;'d'
   353  1015  3420               	retlw	32	;' '
   354  1016  3425               	retlw	37	;'%'
   355  1017  3464               	retlw	100	;'d'
   356  1018  3420               	retlw	32	;' '
   357  1019  3425               	retlw	37	;'%'
   358  101A  3464               	retlw	100	;'d'
   359  101B  3420               	retlw	32	;' '
   360  101C  3425               	retlw	37	;'%'
   361  101D  3464               	retlw	100	;'d'
   362  101E  3420               	retlw	32	;' '
   363  101F  3425               	retlw	37	;'%'
   364  1020  3464               	retlw	100	;'d'
   365  1021  3420               	retlw	32	;' '
   366  1022  3425               	retlw	37	;'%'
   367  1023  3464               	retlw	100	;'d'
   368  1024  340A               	retlw	10
   369  1025  340D               	retlw	13
   370  1026  3400               	retlw	0
   371  1027                     STR_3:
   372  1027  3464               	retlw	100	;'d'
   373  1028  3420               	retlw	32	;' '
   374  1029  343D               	retlw	61	;'='
   375  102A  3420               	retlw	32	;' '
   376  102B  3425               	retlw	37	;'%'
   377  102C  3464               	retlw	100	;'d'
   378  102D  340A               	retlw	10
   379  102E  340D               	retlw	13
   380  102F  3400               	retlw	0
   381  102B                     
   382                           	psect	cinit
   383  07EE                     start_initialization:	
   384                           ; #config settings
   385                           
   386  07EE                     __initialization:
   387                           
   388                           ; Initialize objects allocated to BANK3
   389  07EE  1783               	bsf	3,7	;select IRP bank2
   390  07EF  30DC               	movlw	low (__pdataBANK3+28)
   391  07F0  00FD               	movwf	btemp+-1
   392  07F1  3015               	movlw	high __pidataBANK3
   393  07F2  00FE               	movwf	btemp
   394  07F3  30B9               	movlw	low __pidataBANK3
   395  07F4  00FF               	movwf	btemp+1
   396  07F5  30C0               	movlw	low __pdataBANK3
   397  07F6  0084               	movwf	4
   398  07F7  160A  118A  2594  120A  118A  	fcall	init_ram0
   399  07FC                     end_of_initialization:	
   400                           ;End of C runtime variable initialization code
   401                           
   402  07FC                     __end_of__initialization:
   403  07FC  0183               	clrf	3
   404  07FD  160A  118A  2ECE   	ljmp	_main	;jump to C main() function
   405                           
   406                           	psect	dataBANK3
   407  01C0                     __pdataBANK3:
   408  01C0                     Quadra_Al@F1224:
   409  01C0                     	ds	28
   410                           
   411                           	psect	inittext
   412  1590                     init_fetch0:	
   413                           ;	Called with low address in FSR and high address in W
   414                           
   415  1590  087E               	movf	btemp,w
   416  1591  008A               	movwf	10
   417  1592  087F               	movf	btemp+1,w
   418  1593  0082               	movwf	2
   419  1594                     init_ram0:	
   420                           ;Called with:
   421                           ;	high address of idata address in btemp 
   422                           ;	low address of idata address in btemp+1 
   423                           ;	low address of data in FSR
   424                           ;	high address + 1 of data in btemp-1
   425                           
   426  1594  160A  118A  2590  160A  118A  	fcall	init_fetch0
   427  1599  0080               	movwf	0
   428  159A  0A84               	incf	4,f
   429  159B  0804               	movf	4,w
   430  159C  067D               	xorwf	btemp+-1,w
   431  159D  1903               	btfsc	3,2
   432  159E  3400               	retlw	0
   433  159F  0AFF               	incf	btemp+1,f
   434  15A0  1903               	btfsc	3,2
   435  15A1  0AFE               	incf	btemp,f
   436  15A2  2D94               	goto	init_ram0
   437                           
   438                           	psect	cstackBANK3
   439  0190                     __pcstackBANK3:
   440  0190                     Quadra_Al@x:
   441                           
   442                           ; 28 bytes @ 0x0
   443  0190                     	ds	28
   444  01AC                     Quadra_Al@max1:
   445                           
   446                           ; 4 bytes @ 0x1C
   447  01AC                     	ds	4
   448  01B0                     Quadra_Al@out:
   449                           
   450                           ; 4 bytes @ 0x20
   451  01B0                     	ds	4
   452  01B4                     Quadra_Al@a:
   453                           
   454                           ; 4 bytes @ 0x24
   455  01B4                     	ds	4
   456  01B8                     Quadra_Al@max:
   457                           
   458                           ; 4 bytes @ 0x28
   459  01B8                     	ds	4
   460  01BC                     main@data:
   461                           
   462                           ; 4 bytes @ 0x2C
   463  01BC                     	ds	4
   464                           
   465                           	psect	cstackBANK1
   466  00A0                     __pcstackBANK1:
   467  00A0                     Quadra_Al@uart_logs:
   468                           
   469                           ; 50 bytes @ 0x0
   470  00A0                     	ds	50
   471  00D2                     _Quadra_Al$924:
   472                           
   473                           ; 4 bytes @ 0x32
   474  00D2                     	ds	4
   475  00D6                     _Quadra_Al$925:
   476                           
   477                           ; 4 bytes @ 0x36
   478  00D6                     	ds	4
   479  00DA                     _Quadra_Al$926:
   480                           
   481                           ; 4 bytes @ 0x3A
   482  00DA                     	ds	4
   483  00DE                     _Quadra_Al$927:
   484                           
   485                           ; 4 bytes @ 0x3E
   486  00DE                     	ds	4
   487  00E2                     _Quadra_Al$928:
   488                           
   489                           ; 4 bytes @ 0x42
   490  00E2                     	ds	4
   491  00E6                     Quadra_Al@xmax:
   492                           
   493                           ; 2 bytes @ 0x46
   494  00E6                     	ds	2
   495  00E8                     Quadra_Al@j:
   496                           
   497                           ; 2 bytes @ 0x48
   498  00E8                     	ds	2
   499  00EA                     ??_main:
   500                           
   501                           ; 1 bytes @ 0x4A
   502  00EA                     	ds	3
   503                           
   504                           	psect	cstackCOMMON
   505  0070                     __pcstackCOMMON:
   506  0070                     ?___flge:
   507  0070                     ?_spiInit:	
   508                           ; 1 bit 
   509                           
   510  0070                     ?_spiRead:	
   511                           ; 1 bytes @ 0x0
   512                           
   513  0070                     ??_spiRead:	
   514                           ; 1 bytes @ 0x0
   515                           
   516  0070                     ?_spiWrite:	
   517                           ; 1 bytes @ 0x0
   518                           
   519  0070                     ??_spiWrite:	
   520                           ; 1 bytes @ 0x0
   521                           
   522  0070                     ?_UART_Write:	
   523                           ; 1 bytes @ 0x0
   524                           
   525  0070                     ??_UART_Write:	
   526                           ; 1 bytes @ 0x0
   527                           
   528  0070                     ?_UART_Write_Text:	
   529                           ; 1 bytes @ 0x0
   530                           
   531  0070                     ?_ADC_Init:	
   532                           ; 1 bytes @ 0x0
   533                           
   534  0070                     ??_ADC_Init:	
   535                           ; 1 bytes @ 0x0
   536                           
   537  0070                     ?_main:	
   538                           ; 1 bytes @ 0x0
   539                           
   540  0070                     ?_spiReceiveWait:	
   541                           ; 1 bytes @ 0x0
   542                           
   543  0070                     ??_spiReceiveWait:	
   544                           ; 1 bytes @ 0x0
   545                           
   546  0070                     ?_spiDataReady:	
   547                           ; 1 bytes @ 0x0
   548                           
   549  0070                     ?__Umul8_16:	
   550                           ; 2 bytes @ 0x0
   551                           
   552  0070                     ?___lwdiv:	
   553                           ; 2 bytes @ 0x0
   554                           
   555  0070                     ?___aldiv:	
   556                           ; 2 bytes @ 0x0
   557                           
   558  0070                     ?___flneg:	
   559                           ; 4 bytes @ 0x0
   560                           
   561  0070                     ?___fltol:	
   562                           ; 4 bytes @ 0x0
   563                           
   564  0070                     ?___fladd:	
   565                           ; 4 bytes @ 0x0
   566                           
   567  0070                     ?___xxtofl:	
   568                           ; 4 bytes @ 0x0
   569                           
   570  0070                     UART_Write@data:	
   571                           ; 4 bytes @ 0x0
   572                           
   573  0070                     spiInit@sDataSample:	
   574                           ; 1 bytes @ 0x0
   575                           
   576  0070                     spiWrite@dat:	
   577                           ; 1 bytes @ 0x0
   578                           
   579  0070                     __Umul8_16@multiplicand:	
   580                           ; 1 bytes @ 0x0
   581                           
   582  0070                     ___lwdiv@divisor:	
   583                           ; 1 bytes @ 0x0
   584                           
   585  0070                     ___aldiv@divisor:	
   586                           ; 2 bytes @ 0x0
   587                           
   588  0070                     ___flge@ff1:	
   589                           ; 4 bytes @ 0x0
   590                           
   591  0070                     ___flneg@f1:	
   592                           ; 4 bytes @ 0x0
   593                           
   594  0070                     ___fltol@f1:	
   595                           ; 4 bytes @ 0x0
   596                           
   597  0070                     ___fladd@b:	
   598                           ; 4 bytes @ 0x0
   599                           
   600  0070                     ___xxtofl@val:	
   601                           ; 4 bytes @ 0x0
   602                           
   603                           
   604                           ; 4 bytes @ 0x0
   605  0070                     	ds	1
   606  0071                     ??_UART_Write_Text:
   607  0071                     spiInit@sClockIdle:	
   608                           ; 1 bytes @ 0x1
   609                           
   610                           
   611                           ; 1 bytes @ 0x1
   612  0071                     	ds	1
   613  0072                     ??_spiDataReady:
   614  0072                     ??__Umul8_16:	
   615                           ; 1 bytes @ 0x2
   616                           
   617  0072                     spiInit@sTransmitEdge:	
   618                           ; 1 bytes @ 0x2
   619                           
   620  0072                     UART_Write_Text@i:	
   621                           ; 1 bytes @ 0x2
   622                           
   623  0072                     ___lwdiv@dividend:	
   624                           ; 2 bytes @ 0x2
   625                           
   626                           
   627                           ; 2 bytes @ 0x2
   628  0072                     	ds	1
   629  0073                     ??_spiInit:
   630  0073                     spiInit@sType:	
   631                           ; 1 bytes @ 0x3
   632                           
   633                           
   634                           ; 1 bytes @ 0x3
   635  0073                     	ds	1
   636  0074                     ??___flneg:
   637  0074                     ??___fltol:	
   638                           ; 1 bytes @ 0x4
   639                           
   640  0074                     ??___lwdiv:	
   641                           ; 1 bytes @ 0x4
   642                           
   643  0074                     ??___xxtofl:	
   644                           ; 1 bytes @ 0x4
   645                           
   646  0074                     UART_Write_Text@text:	
   647                           ; 1 bytes @ 0x4
   648                           
   649  0074                     __Umul8_16@product:	
   650                           ; 1 bytes @ 0x4
   651                           
   652  0074                     ___aldiv@dividend:	
   653                           ; 2 bytes @ 0x4
   654                           
   655  0074                     ___flge@ff2:	
   656                           ; 4 bytes @ 0x4
   657                           
   658  0074                     ___fladd@a:	
   659                           ; 4 bytes @ 0x4
   660                           
   661                           
   662                           ; 4 bytes @ 0x4
   663  0074                     	ds	1
   664  0075                     ___lwdiv@quotient:
   665                           
   666                           ; 2 bytes @ 0x5
   667  0075                     	ds	1
   668  0076                     __Umul8_16@word_mpld:
   669                           
   670                           ; 2 bytes @ 0x6
   671  0076                     	ds	1
   672  0077                     ___lwdiv@counter:
   673                           
   674                           ; 1 bytes @ 0x7
   675  0077                     	ds	1
   676  0078                     ??___aldiv:
   677  0078                     ??___flge:	
   678                           ; 1 bytes @ 0x8
   679                           
   680  0078                     ?___lwmod:	
   681                           ; 1 bytes @ 0x8
   682                           
   683  0078                     ___fladd@signs:	
   684                           ; 2 bytes @ 0x8
   685                           
   686  0078                     __Umul8_16@multiplier:	
   687                           ; 1 bytes @ 0x8
   688                           
   689  0078                     ___xxtofl@sign:	
   690                           ; 1 bytes @ 0x8
   691                           
   692  0078                     ___lwmod@divisor:	
   693                           ; 1 bytes @ 0x8
   694                           
   695                           
   696                           ; 2 bytes @ 0x8
   697  0078                     	ds	1
   698  0079                     ___fltol@sign1:
   699  0079                     ___fladd@aexp:	
   700                           ; 1 bytes @ 0x9
   701                           
   702  0079                     ___xxtofl@exp:	
   703                           ; 1 bytes @ 0x9
   704                           
   705  0079                     UART_Init@x:	
   706                           ; 1 bytes @ 0x9
   707                           
   708                           
   709                           ; 2 bytes @ 0x9
   710  0079                     	ds	1
   711  007A                     ___fltol@exp1:
   712  007A                     ___fladd@bexp:	
   713                           ; 1 bytes @ 0xA
   714                           
   715  007A                     ___lwmod@dividend:	
   716                           ; 1 bytes @ 0xA
   717                           
   718  007A                     ___xxtofl@arg:	
   719                           ; 2 bytes @ 0xA
   720                           
   721                           
   722                           ; 4 bytes @ 0xA
   723  007A                     	ds	1
   724  007B                     ___fladd@grs:
   725                           
   726                           ; 1 bytes @ 0xB
   727  007B                     	ds	1
   728  007C                     ??___lwmod:
   729                           
   730                           ; 1 bytes @ 0xC
   731  007C                     	ds	1
   732  007D                     ___lwmod@counter:
   733                           
   734                           ; 1 bytes @ 0xD
   735  007D                     	ds	1
   736  007E                     ??___flsub:
   737                           
   738                           	psect	cstackBANK0
   739  0020                     __pcstackBANK0:	
   740                           ; 1 bytes @ 0xE
   741                           
   742  0020                     ??___fladd:
   743  0020                     ?_sprintf:	
   744                           ; 1 bytes @ 0x0
   745                           
   746  0020                     sprintf@f:	
   747                           ; 2 bytes @ 0x0
   748                           
   749  0020                     ___aldiv@counter:	
   750                           ; 1 bytes @ 0x0
   751                           
   752                           
   753                           ; 1 bytes @ 0x0
   754  0020                     	ds	1
   755  0021                     ___aldiv@sign:
   756                           
   757                           ; 1 bytes @ 0x1
   758  0021                     	ds	1
   759  0022                     ___aldiv@quotient:
   760                           
   761                           ; 4 bytes @ 0x2
   762  0022                     	ds	4
   763  0026                     ?_UART_Init:
   764  0026                     UART_Init@baudrate:	
   765                           ; 1 bytes @ 0x6
   766                           
   767                           
   768                           ; 4 bytes @ 0x6
   769  0026                     	ds	2
   770  0028                     ?___flmul:
   771  0028                     ___flmul@b:	
   772                           ; 4 bytes @ 0x8
   773                           
   774                           
   775                           ; 4 bytes @ 0x8
   776  0028                     	ds	2
   777  002A                     ??_UART_Init:
   778                           
   779                           ; 1 bytes @ 0xA
   780  002A                     	ds	2
   781  002C                     ___flmul@a:
   782                           
   783                           ; 4 bytes @ 0xC
   784  002C                     	ds	4
   785  0030                     ??___flmul:
   786                           
   787                           ; 1 bytes @ 0x10
   788  0030                     	ds	5
   789  0035                     ___flmul@sign:
   790                           
   791                           ; 1 bytes @ 0x15
   792  0035                     	ds	1
   793  0036                     ___flmul@grs:
   794                           
   795                           ; 4 bytes @ 0x16
   796  0036                     	ds	4
   797  003A                     ___flmul@aexp:
   798                           
   799                           ; 1 bytes @ 0x1A
   800  003A                     	ds	1
   801  003B                     ___flmul@bexp:
   802                           
   803                           ; 1 bytes @ 0x1B
   804  003B                     	ds	1
   805  003C                     ___flmul@prod:
   806                           
   807                           ; 4 bytes @ 0x1C
   808  003C                     	ds	1
   809  003D                     ??_sprintf:
   810                           
   811                           ; 1 bytes @ 0x1D
   812  003D                     	ds	3
   813  0040                     sprintf@ap:
   814  0040                     ___flmul@temp:	
   815                           ; 1 bytes @ 0x20
   816                           
   817                           
   818                           ; 2 bytes @ 0x20
   819  0040                     	ds	1
   820  0041                     sprintf@flag:
   821                           
   822                           ; 1 bytes @ 0x21
   823  0041                     	ds	1
   824  0042                     ?___flsub:
   825  0042                     ?___fldiv:	
   826                           ; 4 bytes @ 0x22
   827                           
   828  0042                     sprintf@prec:	
   829                           ; 4 bytes @ 0x22
   830                           
   831  0042                     ___flsub@a:	
   832                           ; 1 bytes @ 0x22
   833                           
   834  0042                     ___fldiv@a:	
   835                           ; 4 bytes @ 0x22
   836                           
   837                           
   838                           ; 4 bytes @ 0x22
   839  0042                     	ds	1
   840  0043                     sprintf@val:
   841                           
   842                           ; 2 bytes @ 0x23
   843  0043                     	ds	2
   844  0045                     sprintf@sp:
   845                           
   846                           ; 1 bytes @ 0x25
   847  0045                     	ds	1
   848  0046                     sprintf@c:
   849  0046                     ___flsub@b:	
   850                           ; 1 bytes @ 0x26
   851                           
   852  0046                     ___fldiv@b:	
   853                           ; 4 bytes @ 0x26
   854                           
   855                           
   856                           ; 4 bytes @ 0x26
   857  0046                     	ds	4
   858  004A                     ??___fldiv:
   859                           
   860                           ; 1 bytes @ 0x2A
   861  004A                     	ds	5
   862  004F                     ___fldiv@rem:
   863                           
   864                           ; 4 bytes @ 0x2F
   865  004F                     	ds	4
   866  0053                     ___fldiv@sign:
   867                           
   868                           ; 1 bytes @ 0x33
   869  0053                     	ds	1
   870  0054                     ___fldiv@new_exp:
   871                           
   872                           ; 2 bytes @ 0x34
   873  0054                     	ds	2
   874  0056                     ___fldiv@grs:
   875                           
   876                           ; 4 bytes @ 0x36
   877  0056                     	ds	4
   878  005A                     ___fldiv@bexp:
   879                           
   880                           ; 1 bytes @ 0x3A
   881  005A                     	ds	1
   882  005B                     ___fldiv@aexp:
   883                           
   884                           ; 1 bytes @ 0x3B
   885  005B                     	ds	1
   886  005C                     ?_Quadra_Al:
   887                           
   888                           ; 4 bytes @ 0x3C
   889  005C                     	ds	4
   890  0060                     ??_Quadra_Al:
   891                           
   892                           ; 1 bytes @ 0x40
   893  0060                     	ds	4
   894  0064                     Quadra_Al@max2:
   895                           
   896                           ; 4 bytes @ 0x44
   897  0064                     	ds	4
   898  0068                     Quadra_Al@b:
   899                           
   900                           ; 4 bytes @ 0x48
   901  0068                     	ds	4
   902  006C                     Quadra_Al@d:
   903                           
   904                           ; 4 bytes @ 0x4C
   905  006C                     	ds	4
   906                           
   907                           	psect	maintext
   908  16CE                     __pmaintext:	
   909 ;;
   910 ;;Main: autosize = 0, tempsize = 3, incstack = 0, save=0
   911 ;;
   912 ;; *************** function _main *****************
   913 ;; Defined at:
   914 ;;		line 92 in file "newmain.c"
   915 ;; Parameters:    Size  Location     Type
   916 ;;		None
   917 ;; Auto vars:     Size  Location     Type
   918 ;;  data            4   44[BANK3 ] float 
   919 ;; Return value:  Size  Location     Type
   920 ;;                  1    wreg      void 
   921 ;; Registers used:
   922 ;;		wreg, fsr0l, fsr0h, status,2, status,0, btemp+1, pclath, cstack
   923 ;; Tracked objects:
   924 ;;		On entry : B00/0
   925 ;;		On exit  : 0/0
   926 ;;		Unchanged: 0/0
   927 ;; Data sizes:     COMMON   BANK0   BANK1   BANK3   BANK2
   928 ;;      Params:         0       0       0       0       0
   929 ;;      Locals:         0       0       0       4       0
   930 ;;      Temps:          0       0       3       0       0
   931 ;;      Totals:         0       0       3       4       0
   932 ;;Total ram usage:        7 bytes
   933 ;; Hardware stack levels required when called: 3
   934 ;; This function calls:
   935 ;;		_ADC_Init
   936 ;;		_Quadra_Al
   937 ;;		_UART_Init
   938 ;;		___fltol
   939 ;;		_spiDataReady
   940 ;;		_spiInit
   941 ;;		_spiRead
   942 ;;		_spiWrite
   943 ;; This function is called by:
   944 ;;		Startup code after reset
   945 ;; This function uses a non-reentrant model
   946 ;;
   947                           
   948                           
   949                           ;psect for function _main
   950  16CE                     _main:
   951  16CE                     l2656:	
   952                           ;incstack = 0
   953                           ; Regs used in _main: [wreg-fsr0h+status,2+status,0+btemp+1+pclath+cstack]
   954                           
   955                           
   956                           ;newmain.c: 94:    TRISA = 1;
   957  16CE  3001               	movlw	1
   958  16CF  1683               	bsf	3,5	;RP0=1, select bank1
   959  16D0  1303               	bcf	3,6	;RP1=0, select bank1
   960  16D1  0085               	movwf	5	;volatile
   961  16D2                     l2658:
   962                           
   963                           ;newmain.c: 95:    TRISD = 0;
   964  16D2  0188               	clrf	8	;volatile
   965  16D3                     l2660:
   966                           
   967                           ;newmain.c: 96:    PORTD = 0;
   968  16D3  1283               	bcf	3,5	;RP0=0, select bank0
   969  16D4  1303               	bcf	3,6	;RP1=0, select bank0
   970  16D5  0188               	clrf	8	;volatile
   971  16D6                     l2662:
   972                           
   973                           ;newmain.c: 98:    GIE = 1;
   974  16D6  178B               	bsf	11,7	;volatile
   975  16D7                     l2664:
   976                           
   977                           ;newmain.c: 99:    PEIE = 1;
   978  16D7  170B               	bsf	11,6	;volatile
   979  16D8                     l2666:
   980                           
   981                           ;newmain.c: 100:    SSPIF = 0;
   982  16D8  118C               	bcf	12,3	;volatile
   983  16D9                     l2668:
   984                           
   985                           ;newmain.c: 101:    SSPIE = 1;
   986  16D9  1683               	bsf	3,5	;RP0=1, select bank1
   987  16DA  1303               	bcf	3,6	;RP1=0, select bank1
   988  16DB  158C               	bsf	12,3	;volatile
   989                           
   990                           ;newmain.c: 102:    ADCON1 = 0x07;
   991  16DC  3007               	movlw	7
   992  16DD  009F               	movwf	31	;volatile
   993  16DE                     l2670:
   994                           
   995                           ;newmain.c: 104:    ADC_Init ();
   996  16DE  160A  118A  2567  160A  118A  	fcall	_ADC_Init
   997  16E3                     l2672:
   998                           
   999                           ;newmain.c: 105:    UART_Init (9600);
  1000  16E3  3000               	movlw	0
  1001  16E4  1283               	bcf	3,5	;RP0=0, select bank0
  1002  16E5  1303               	bcf	3,6	;RP1=0, select bank0
  1003  16E6  00A9               	movwf	UART_Init@baudrate+3
  1004  16E7  3000               	movlw	0
  1005  16E8  00A8               	movwf	UART_Init@baudrate+2
  1006  16E9  3025               	movlw	37
  1007  16EA  00A7               	movwf	UART_Init@baudrate+1
  1008  16EB  3080               	movlw	128
  1009  16EC  00A6               	movwf	UART_Init@baudrate
  1010  16ED  120A  158A  21C9  160A  118A  	fcall	_UART_Init
  1011  16F2                     l2674:
  1012                           
  1013                           ;newmain.c: 106:    spiInit(SPI_SLAVE_SS_EN, SPI_DATA_SAMPLE_MIDDLE, SPI_CLOCK_IDLE_LOW,
      +                           SPI_IDLE_2_ACTIVE);
  1014  16F2  01F0               	clrf	spiInit@sDataSample
  1015  16F3  01F1               	clrf	spiInit@sClockIdle
  1016  16F4  01F2               	clrf	spiInit@sTransmitEdge
  1017  16F5  3024               	movlw	36
  1018  16F6  160A  118A  25A3  160A  118A  	fcall	_spiInit
  1019  16FB                     l2676:
  1020                           
  1021                           ;newmain.c: 108:    {;newmain.c: 109:        if(spiDataReady())
  1022  16FB  120A  118A  2007  160A  118A  	fcall	_spiDataReady
  1023  1700  0870               	movf	?_spiDataReady,w
  1024  1701  0471               	iorwf	?_spiDataReady+1,w
  1025  1702  1903               	btfsc	3,2
  1026  1703  2F05               	goto	u4011
  1027  1704  2F06               	goto	u4010
  1028  1705                     u4011:
  1029  1705  2F55               	goto	l2692
  1030  1706                     u4010:
  1031  1706                     l2678:
  1032                           
  1033                           ;newmain.c: 110:        {;newmain.c: 111:            float data;;newmain.c: 112:        
      +                              if (spiRead ())
  1034  1706  160A  118A  2570  160A  118A  	fcall	_spiRead
  1035  170B  3A00               	xorlw	0
  1036  170C  1903               	skipnz
  1037  170D  2F0F               	goto	u4021
  1038  170E  2F10               	goto	u4020
  1039  170F                     u4021:
  1040  170F  2F51               	goto	l2688
  1041  1710                     u4020:
  1042  1710                     l2680:
  1043                           
  1044                           ;newmain.c: 113:            {;newmain.c: 114:                RD0 = 1;
  1045  1710  1283               	bcf	3,5	;RP0=0, select bank0
  1046  1711  1303               	bcf	3,6	;RP1=0, select bank0
  1047  1712  1408               	bsf	8,0	;volatile
  1048  1713                     l2682:
  1049                           
  1050                           ;newmain.c: 115:                data = Quadra_Al();
  1051  1713  120A  118A  2376  160A  118A  	fcall	_Quadra_Al
  1052  1718  1283               	bcf	3,5	;RP0=0, select bank0
  1053  1719  1303               	bcf	3,6	;RP1=0, select bank0
  1054  171A  085F               	movf	?_Quadra_Al+3,w
  1055  171B  1683               	bsf	3,5	;RP0=1, select bank3
  1056  171C  1703               	bsf	3,6	;RP1=1, select bank3
  1057  171D  00BF               	movwf	(main@data+3)^(0+384)
  1058  171E  1283               	bcf	3,5	;RP0=0, select bank0
  1059  171F  1303               	bcf	3,6	;RP1=0, select bank0
  1060  1720  085E               	movf	?_Quadra_Al+2,w
  1061  1721  1683               	bsf	3,5	;RP0=1, select bank3
  1062  1722  1703               	bsf	3,6	;RP1=1, select bank3
  1063  1723  00BE               	movwf	(main@data+2)^(0+384)
  1064  1724  1283               	bcf	3,5	;RP0=0, select bank0
  1065  1725  1303               	bcf	3,6	;RP1=0, select bank0
  1066  1726  085D               	movf	?_Quadra_Al+1,w
  1067  1727  1683               	bsf	3,5	;RP0=1, select bank3
  1068  1728  1703               	bsf	3,6	;RP1=1, select bank3
  1069  1729  00BD               	movwf	(main@data+1)^(0+384)
  1070  172A  1283               	bcf	3,5	;RP0=0, select bank0
  1071  172B  1303               	bcf	3,6	;RP1=0, select bank0
  1072  172C  085C               	movf	?_Quadra_Al,w
  1073  172D  1683               	bsf	3,5	;RP0=1, select bank3
  1074  172E  1703               	bsf	3,6	;RP1=1, select bank3
  1075  172F  00BC               	movwf	main@data^(0+384)
  1076  1730                     l2684:
  1077                           
  1078                           ;newmain.c: 116:                spiWrite(data);
  1079  1730  083F               	movf	(main@data+3)^(0+384),w
  1080  1731  00F3               	movwf	___fltol@f1+3
  1081  1732  083E               	movf	(main@data+2)^(0+384),w
  1082  1733  00F2               	movwf	___fltol@f1+2
  1083  1734  083D               	movf	(main@data+1)^(0+384),w
  1084  1735  00F1               	movwf	___fltol@f1+1
  1085  1736  083C               	movf	main@data^(0+384),w
  1086  1737  00F0               	movwf	___fltol@f1
  1087  1738  160A  118A  2654  160A  118A  	fcall	___fltol
  1088  173D  0870               	movf	?___fltol,w
  1089  173E  160A  118A  255A  160A  118A  	fcall	_spiWrite
  1090  1743                     l2686:
  1091                           
  1092                           ;newmain.c: 117:                _delay((unsigned long)((1000)*(8000000/4000.0)));
  1093  1743  300B               	movlw	11
  1094  1744  1683               	bsf	3,5	;RP0=1, select bank1
  1095  1745  1303               	bcf	3,6	;RP1=0, select bank1
  1096  1746  00EC               	movwf	(??_main^(0+128)+2)
  1097  1747  3026               	movlw	38
  1098  1748  00EB               	movwf	(??_main^(0+128)+1)
  1099  1749  305D               	movlw	93
  1100  174A  00EA               	movwf	??_main^(0+128)
  1101  174B                     u4037:
  1102  174B  0BEA               	decfsz	??_main^(0+128),f
  1103  174C  2F4B               	goto	u4037
  1104  174D  0BEB               	decfsz	(??_main^(0+128)+1),f
  1105  174E  2F4B               	goto	u4037
  1106  174F  0BEC               	decfsz	(??_main^(0+128)+2),f
  1107  1750  2F4B               	goto	u4037
  1108  1751                     l2688:
  1109                           
  1110                           ;newmain.c: 119:            RD0 = 0;
  1111  1751  1283               	bcf	3,5	;RP0=0, select bank0
  1112  1752  1303               	bcf	3,6	;RP1=0, select bank0
  1113  1753  1008               	bcf	8,0	;volatile
  1114  1754                     l2690:
  1115                           
  1116                           ;newmain.c: 120:            SSPIF = 0;
  1117  1754  118C               	bcf	12,3	;volatile
  1118  1755                     l2692:
  1119                           
  1120                           ;newmain.c: 122:        _delay((unsigned long)((5)*(8000000/4000.0)));
  1121  1755  300D               	movlw	13
  1122  1756  1683               	bsf	3,5	;RP0=1, select bank1
  1123  1757  1303               	bcf	3,6	;RP1=0, select bank1
  1124  1758  00EB               	movwf	(??_main^(0+128)+1)
  1125  1759  30FB               	movlw	251
  1126  175A  00EA               	movwf	??_main^(0+128)
  1127  175B                     u4047:
  1128  175B  0BEA               	decfsz	??_main^(0+128),f
  1129  175C  2F5B               	goto	u4047
  1130  175D  0BEB               	decfsz	(??_main^(0+128)+1),f
  1131  175E  2F5B               	goto	u4047
  1132  175F  2EFB               	goto	l2676
  1133  1760  120A  118A  2800   	ljmp	start
  1134  1763                     __end_of_main:
  1135                           
  1136                           	psect	text1
  1137  155A                     __ptext1:	
  1138 ;; *************** function _spiWrite *****************
  1139 ;; Defined at:
  1140 ;;		line 34 in file "spi.c"
  1141 ;; Parameters:    Size  Location     Type
  1142 ;;  dat             1    wreg     unsigned char 
  1143 ;; Auto vars:     Size  Location     Type
  1144 ;;  dat             1    0[COMMON] unsigned char 
  1145 ;; Return value:  Size  Location     Type
  1146 ;;                  1    wreg      void 
  1147 ;; Registers used:
  1148 ;;		wreg
  1149 ;; Tracked objects:
  1150 ;;		On entry : 0/0
  1151 ;;		On exit  : 0/0
  1152 ;;		Unchanged: 0/0
  1153 ;; Data sizes:     COMMON   BANK0   BANK1   BANK3   BANK2
  1154 ;;      Params:         0       0       0       0       0
  1155 ;;      Locals:         1       0       0       0       0
  1156 ;;      Temps:          0       0       0       0       0
  1157 ;;      Totals:         1       0       0       0       0
  1158 ;;Total ram usage:        1 bytes
  1159 ;; Hardware stack levels used: 1
  1160 ;; This function calls:
  1161 ;;		Nothing
  1162 ;; This function is called by:
  1163 ;;		_main
  1164 ;; This function uses a non-reentrant model
  1165 ;;
  1166                           
  1167                           
  1168                           ;psect for function _spiWrite
  1169  155A                     _spiWrite:
  1170                           
  1171                           ;incstack = 0
  1172                           ; Regs used in _spiWrite: [wreg]
  1173                           ;spiWrite@dat stored from wreg
  1174  155A  00F0               	movwf	spiWrite@dat
  1175  155B                     l2618:
  1176                           
  1177                           ;spi.c: 34: void spiWrite(char dat);spi.c: 35: {;spi.c: 36:     SSPBUF = dat;
  1178  155B  0870               	movf	spiWrite@dat,w
  1179  155C  1283               	bcf	3,5	;RP0=0, select bank0
  1180  155D  1303               	bcf	3,6	;RP1=0, select bank0
  1181  155E  0093               	movwf	19	;volatile
  1182  155F                     l150:
  1183  155F  0008               	return
  1184  1560                     __end_of_spiWrite:
  1185                           
  1186                           	psect	text2
  1187  1570                     __ptext2:	
  1188 ;; *************** function _spiRead *****************
  1189 ;; Defined at:
  1190 ;;		line 47 in file "spi.c"
  1191 ;; Parameters:    Size  Location     Type
  1192 ;;		None
  1193 ;; Auto vars:     Size  Location     Type
  1194 ;;		None
  1195 ;; Return value:  Size  Location     Type
  1196 ;;                  1    wreg      unsigned char 
  1197 ;; Registers used:
  1198 ;;		wreg, status,2, status,0, pclath, cstack
  1199 ;; Tracked objects:
  1200 ;;		On entry : 0/0
  1201 ;;		On exit  : 0/0
  1202 ;;		Unchanged: 0/0
  1203 ;; Data sizes:     COMMON   BANK0   BANK1   BANK3   BANK2
  1204 ;;      Params:         0       0       0       0       0
  1205 ;;      Locals:         0       0       0       0       0
  1206 ;;      Temps:          0       0       0       0       0
  1207 ;;      Totals:         0       0       0       0       0
  1208 ;;Total ram usage:        0 bytes
  1209 ;; Hardware stack levels used: 1
  1210 ;; Hardware stack levels required when called: 1
  1211 ;; This function calls:
  1212 ;;		_spiReceiveWait
  1213 ;; This function is called by:
  1214 ;;		_main
  1215 ;; This function uses a non-reentrant model
  1216 ;;
  1217                           
  1218                           
  1219                           ;psect for function _spiRead
  1220  1570                     _spiRead:
  1221  1570                     l2612:	
  1222                           ;incstack = 0
  1223                           ; Regs used in _spiRead: [wreg+status,2+status,0+pclath+cstack]
  1224                           
  1225                           
  1226                           ;spi.c: 49:     spiReceiveWait();
  1227  1570  160A  118A  2560  160A  118A  	fcall	_spiReceiveWait
  1228  1575                     l2614:
  1229                           
  1230                           ;spi.c: 50:     return(SSPBUF);
  1231  1575  1283               	bcf	3,5	;RP0=0, select bank0
  1232  1576  1303               	bcf	3,6	;RP1=0, select bank0
  1233  1577  0813               	movf	19,w	;volatile
  1234  1578                     l158:
  1235  1578  0008               	return
  1236  1579                     __end_of_spiRead:
  1237                           
  1238                           	psect	text3
  1239  1560                     __ptext3:	
  1240 ;; *************** function _spiReceiveWait *****************
  1241 ;; Defined at:
  1242 ;;		line 29 in file "spi.c"
  1243 ;; Parameters:    Size  Location     Type
  1244 ;;		None
  1245 ;; Auto vars:     Size  Location     Type
  1246 ;;		None
  1247 ;; Return value:  Size  Location     Type
  1248 ;;                  1    wreg      void 
  1249 ;; Registers used:
  1250 ;;		None
  1251 ;; Tracked objects:
  1252 ;;		On entry : 0/0
  1253 ;;		On exit  : 0/0
  1254 ;;		Unchanged: 0/0
  1255 ;; Data sizes:     COMMON   BANK0   BANK1   BANK3   BANK2
  1256 ;;      Params:         0       0       0       0       0
  1257 ;;      Locals:         0       0       0       0       0
  1258 ;;      Temps:          0       0       0       0       0
  1259 ;;      Totals:         0       0       0       0       0
  1260 ;;Total ram usage:        0 bytes
  1261 ;; Hardware stack levels used: 1
  1262 ;; This function calls:
  1263 ;;		Nothing
  1264 ;; This function is called by:
  1265 ;;		_spiRead
  1266 ;; This function uses a non-reentrant model
  1267 ;;
  1268                           
  1269                           
  1270                           ;psect for function _spiReceiveWait
  1271  1560                     _spiReceiveWait:
  1272  1560                     l2098:	
  1273                           ;incstack = 0
  1274                           ; Regs used in _spiReceiveWait: []
  1275                           
  1276  1560                     l144:	
  1277                           ;spi.c: 31:     while ( !SSPSTATbits.BF );
  1278                           
  1279  1560  1683               	bsf	3,5	;RP0=1, select bank1
  1280  1561  1303               	bcf	3,6	;RP1=0, select bank1
  1281  1562  1C14               	btfss	20,0	;volatile
  1282  1563  2D65               	goto	u2751
  1283  1564  2D66               	goto	u2750
  1284  1565                     u2751:
  1285  1565  2D60               	goto	l144
  1286  1566                     u2750:
  1287  1566                     l147:
  1288  1566  0008               	return
  1289  1567                     __end_of_spiReceiveWait:
  1290                           
  1291                           	psect	text4
  1292  15A3                     __ptext4:	
  1293 ;; *************** function _spiInit *****************
  1294 ;; Defined at:
  1295 ;;		line 12 in file "spi.c"
  1296 ;; Parameters:    Size  Location     Type
  1297 ;;  sType           1    wreg     enum E850
  1298 ;;  sDataSample     1    0[COMMON] enum E858
  1299 ;;  sClockIdle      1    1[COMMON] enum E862
  1300 ;;  sTransmitEdg    1    2[COMMON] enum E866
  1301 ;; Auto vars:     Size  Location     Type
  1302 ;;  sType           1    3[COMMON] enum E850
  1303 ;; Return value:  Size  Location     Type
  1304 ;;                  1    wreg      void 
  1305 ;; Registers used:
  1306 ;;		wreg, status,2, status,0
  1307 ;; Tracked objects:
  1308 ;;		On entry : 0/0
  1309 ;;		On exit  : 0/0
  1310 ;;		Unchanged: 0/0
  1311 ;; Data sizes:     COMMON   BANK0   BANK1   BANK3   BANK2
  1312 ;;      Params:         3       0       0       0       0
  1313 ;;      Locals:         1       0       0       0       0
  1314 ;;      Temps:          0       0       0       0       0
  1315 ;;      Totals:         4       0       0       0       0
  1316 ;;Total ram usage:        4 bytes
  1317 ;; Hardware stack levels used: 1
  1318 ;; This function calls:
  1319 ;;		Nothing
  1320 ;; This function is called by:
  1321 ;;		_main
  1322 ;; This function uses a non-reentrant model
  1323 ;;
  1324                           
  1325                           
  1326                           ;psect for function _spiInit
  1327  15A3                     _spiInit:
  1328                           
  1329                           ;incstack = 0
  1330                           ; Regs used in _spiInit: [wreg+status,2+status,0]
  1331                           ;spiInit@sType stored from wreg
  1332  15A3  00F3               	movwf	spiInit@sType
  1333  15A4                     l2590:
  1334                           
  1335                           ;spi.c: 12: void spiInit(Spi_Type sType, Spi_Data_Sample sDataSample, Spi_Clock_Idle sCl
      +                          ockIdle, Spi_Transmit_Edge sTransmitEdge);spi.c: 13: {;spi.c: 14:     TRISC5 = 0;
  1336  15A4  1683               	bsf	3,5	;RP0=1, select bank1
  1337  15A5  1303               	bcf	3,6	;RP1=0, select bank1
  1338  15A6  1287               	bcf	7,5	;volatile
  1339                           
  1340                           ;spi.c: 15:     if(sType & 0b00000100)
  1341  15A7  1D73               	btfss	spiInit@sType,2
  1342  15A8  2DAA               	goto	u3891
  1343  15A9  2DAB               	goto	u3890
  1344  15AA                     u3891:
  1345  15AA  2DAF               	goto	l2596
  1346  15AB                     u3890:
  1347  15AB                     l2592:
  1348                           
  1349                           ;spi.c: 16:     {;spi.c: 17:         SSPSTAT = sTransmitEdge;
  1350  15AB  0872               	movf	spiInit@sTransmitEdge,w
  1351  15AC  0094               	movwf	20	;volatile
  1352  15AD                     l2594:
  1353                           
  1354                           ;spi.c: 18:         TRISC3 = 1;
  1355  15AD  1587               	bsf	7,3	;volatile
  1356                           
  1357                           ;spi.c: 19:     }
  1358  15AE  2DB3               	goto	l140
  1359  15AF                     l2596:
  1360                           
  1361                           ;spi.c: 21:     {;spi.c: 22:         SSPSTAT = sDataSample | sTransmitEdge;
  1362  15AF  0870               	movf	spiInit@sDataSample,w
  1363  15B0  0472               	iorwf	spiInit@sTransmitEdge,w
  1364  15B1  0094               	movwf	20	;volatile
  1365  15B2                     l2598:
  1366                           
  1367                           ;spi.c: 23:         TRISC3 = 0;
  1368  15B2  1187               	bcf	7,3	;volatile
  1369  15B3                     l140:	
  1370                           ;spi.c: 24:     }
  1371                           
  1372                           
  1373                           ;spi.c: 26:     SSPCON = sType | sClockIdle;
  1374  15B3  0873               	movf	spiInit@sType,w
  1375  15B4  0471               	iorwf	spiInit@sClockIdle,w
  1376  15B5  1283               	bcf	3,5	;RP0=0, select bank0
  1377  15B6  1303               	bcf	3,6	;RP1=0, select bank0
  1378  15B7  0094               	movwf	20	;volatile
  1379  15B8                     l141:
  1380  15B8  0008               	return
  1381  15B9                     __end_of_spiInit:
  1382                           
  1383                           	psect	text5
  1384  0007                     __ptext5:	
  1385 ;; *************** function _spiDataReady *****************
  1386 ;; Defined at:
  1387 ;;		line 39 in file "spi.c"
  1388 ;; Parameters:    Size  Location     Type
  1389 ;;		None
  1390 ;; Auto vars:     Size  Location     Type
  1391 ;;		None
  1392 ;; Return value:  Size  Location     Type
  1393 ;;                  2    0[COMMON] unsigned int 
  1394 ;; Registers used:
  1395 ;;		wreg, status,2
  1396 ;; Tracked objects:
  1397 ;;		On entry : 0/0
  1398 ;;		On exit  : 0/0
  1399 ;;		Unchanged: 0/0
  1400 ;; Data sizes:     COMMON   BANK0   BANK1   BANK3   BANK2
  1401 ;;      Params:         2       0       0       0       0
  1402 ;;      Locals:         0       0       0       0       0
  1403 ;;      Temps:          0       0       0       0       0
  1404 ;;      Totals:         2       0       0       0       0
  1405 ;;Total ram usage:        2 bytes
  1406 ;; Hardware stack levels used: 1
  1407 ;; This function calls:
  1408 ;;		Nothing
  1409 ;; This function is called by:
  1410 ;;		_main
  1411 ;; This function uses a non-reentrant model
  1412 ;;
  1413                           
  1414                           
  1415                           ;psect for function _spiDataReady
  1416  0007                     _spiDataReady:
  1417  0007                     l2600:	
  1418                           ;incstack = 0
  1419                           ; Regs used in _spiDataReady: [wreg+status,2]
  1420                           
  1421                           
  1422                           ;spi.c: 41:     if(SSPSTATbits.BF)
  1423  0007  1683               	bsf	3,5	;RP0=1, select bank1
  1424  0008  1303               	bcf	3,6	;RP1=0, select bank1
  1425  0009  1C14               	btfss	20,0	;volatile
  1426  000A  280C               	goto	u3901
  1427  000B  280D               	goto	u3900
  1428  000C                     u3901:
  1429  000C  2812               	goto	l2608
  1430  000D                     u3900:
  1431  000D                     l2602:
  1432                           
  1433                           ;spi.c: 42:         return 1;
  1434  000D  3001               	movlw	1
  1435  000E  00F0               	movwf	?_spiDataReady
  1436  000F  3000               	movlw	0
  1437  0010  00F1               	movwf	?_spiDataReady+1
  1438  0011  2814               	goto	l154
  1439  0012                     l2608:
  1440                           
  1441                           ;spi.c: 44:         return 0;
  1442  0012  01F0               	clrf	?_spiDataReady
  1443  0013  01F1               	clrf	?_spiDataReady+1
  1444  0014                     l154:
  1445  0014  0008               	return
  1446  0015                     __end_of_spiDataReady:
  1447                           
  1448                           	psect	text6
  1449  1654                     __ptext6:	
  1450 ;; *************** function ___fltol *****************
  1451 ;; Defined at:
  1452 ;;		line 43 in file "C:\Program Files\Microchip\xc8\v2.32\pic\sources\c90\common\fltol.c"
  1453 ;; Parameters:    Size  Location     Type
  1454 ;;  f1              4    0[COMMON] unsigned int 
  1455 ;; Auto vars:     Size  Location     Type
  1456 ;;  exp1            1   10[COMMON] unsigned char 
  1457 ;;  sign1           1    9[COMMON] unsigned char 
  1458 ;; Return value:  Size  Location     Type
  1459 ;;                  4    0[COMMON] long 
  1460 ;; Registers used:
  1461 ;;		wreg, status,2, status,0
  1462 ;; Tracked objects:
  1463 ;;		On entry : 0/0
  1464 ;;		On exit  : 0/0
  1465 ;;		Unchanged: 0/0
  1466 ;; Data sizes:     COMMON   BANK0   BANK1   BANK3   BANK2
  1467 ;;      Params:         4       0       0       0       0
  1468 ;;      Locals:         2       0       0       0       0
  1469 ;;      Temps:          5       0       0       0       0
  1470 ;;      Totals:        11       0       0       0       0
  1471 ;;Total ram usage:       11 bytes
  1472 ;; Hardware stack levels used: 1
  1473 ;; This function calls:
  1474 ;;		Nothing
  1475 ;; This function is called by:
  1476 ;;		_main
  1477 ;; This function uses a non-reentrant model
  1478 ;;
  1479                           
  1480                           
  1481                           ;psect for function ___fltol
  1482  1654                     ___fltol:
  1483  1654                     l2620:	
  1484                           ;incstack = 0
  1485                           ; Regs used in ___fltol: [wreg+status,2+status,0]
  1486                           
  1487  1654  1003               	clrc
  1488  1655  0D72               	rlf	___fltol@f1+2,w
  1489  1656  0D73               	rlf	___fltol@f1+3,w
  1490  1657  00F4               	movwf	??___fltol
  1491  1658  0874               	movf	??___fltol,w
  1492  1659  00FA               	movwf	___fltol@exp1
  1493  165A  087A               	movf	___fltol@exp1,w
  1494  165B  1D03               	btfss	3,2
  1495  165C  2E5E               	goto	u3911
  1496  165D  2E5F               	goto	u3910
  1497  165E                     u3911:
  1498  165E  2E68               	goto	l2626
  1499  165F                     u3910:
  1500  165F                     l2622:
  1501  165F  3000               	movlw	0
  1502  1660  00F3               	movwf	?___fltol+3
  1503  1661  3000               	movlw	0
  1504  1662  00F2               	movwf	?___fltol+2
  1505  1663  3000               	movlw	0
  1506  1664  00F1               	movwf	?___fltol+1
  1507  1665  3000               	movlw	0
  1508  1666  00F0               	movwf	?___fltol
  1509  1667  2ECD               	goto	l458
  1510  1668                     l2626:
  1511  1668  0870               	movf	___fltol@f1,w
  1512  1669  00F4               	movwf	??___fltol
  1513  166A  0871               	movf	___fltol@f1+1,w
  1514  166B  00F5               	movwf	??___fltol+1
  1515  166C  0872               	movf	___fltol@f1+2,w
  1516  166D  00F6               	movwf	??___fltol+2
  1517  166E  0873               	movf	___fltol@f1+3,w
  1518  166F  00F7               	movwf	??___fltol+3
  1519  1670  301F               	movlw	31
  1520  1671                     u3925:
  1521  1671  1003               	clrc
  1522  1672  0CF7               	rrf	??___fltol+3,f
  1523  1673  0CF6               	rrf	??___fltol+2,f
  1524  1674  0CF5               	rrf	??___fltol+1,f
  1525  1675  0CF4               	rrf	??___fltol,f
  1526  1676                     u3920:
  1527  1676  3EFF               	addlw	-1
  1528  1677  1D03               	skipz
  1529  1678  2E71               	goto	u3925
  1530  1679  0874               	movf	??___fltol,w
  1531  167A  00F8               	movwf	??___fltol+4
  1532  167B  0878               	movf	??___fltol+4,w
  1533  167C  00F9               	movwf	___fltol@sign1
  1534  167D                     l2628:
  1535  167D  17F2               	bsf	___fltol@f1+2,7
  1536  167E                     l2630:
  1537  167E  30FF               	movlw	255
  1538  167F  05F0               	andwf	___fltol@f1,f
  1539  1680  30FF               	movlw	255
  1540  1681  05F1               	andwf	___fltol@f1+1,f
  1541  1682  30FF               	movlw	255
  1542  1683  05F2               	andwf	___fltol@f1+2,f
  1543  1684  3000               	movlw	0
  1544  1685  05F3               	andwf	___fltol@f1+3,f
  1545  1686                     l2632:
  1546  1686  3096               	movlw	150
  1547  1687  02FA               	subwf	___fltol@exp1,f
  1548  1688                     l2634:
  1549  1688  1FFA               	btfss	___fltol@exp1,7
  1550  1689  2E8B               	goto	u3931
  1551  168A  2E8C               	goto	u3930
  1552  168B                     u3931:
  1553  168B  2EA6               	goto	l2644
  1554  168C                     u3930:
  1555  168C                     l2636:
  1556  168C  087A               	movf	___fltol@exp1,w
  1557  168D  3A80               	xorlw	128
  1558  168E  3E97               	addlw	151
  1559  168F  1803               	skipnc
  1560  1690  2E92               	goto	u3941
  1561  1691  2E93               	goto	u3940
  1562  1692                     u3941:
  1563  1692  2E94               	goto	l2642
  1564  1693                     u3940:
  1565  1693  2E5F               	goto	l2622
  1566  1694                     l2642:
  1567  1694  3001               	movlw	1
  1568  1695                     u3955:
  1569  1695  1003               	clrc
  1570  1696  0CF3               	rrf	___fltol@f1+3,f
  1571  1697  0CF2               	rrf	___fltol@f1+2,f
  1572  1698  0CF1               	rrf	___fltol@f1+1,f
  1573  1699  0CF0               	rrf	___fltol@f1,f
  1574  169A  3EFF               	addlw	-1
  1575  169B  1D03               	skipz
  1576  169C  2E95               	goto	u3955
  1577  169D  3001               	movlw	1
  1578  169E  00F4               	movwf	??___fltol
  1579  169F  0874               	movf	??___fltol,w
  1580  16A0  07FA               	addwf	___fltol@exp1,f
  1581  16A1  1D03               	btfss	3,2
  1582  16A2  2EA4               	goto	u3961
  1583  16A3  2EA5               	goto	u3960
  1584  16A4                     u3961:
  1585  16A4  2E94               	goto	l2642
  1586  16A5                     u3960:
  1587  16A5  2EBD               	goto	l2652
  1588  16A6                     l2644:
  1589  16A6  3020               	movlw	32
  1590  16A7  027A               	subwf	___fltol@exp1,w
  1591  16A8  1C03               	skipc
  1592  16A9  2EAB               	goto	u3971
  1593  16AA  2EAC               	goto	u3970
  1594  16AB                     u3971:
  1595  16AB  2EB8               	goto	l465
  1596  16AC                     u3970:
  1597  16AC  2E5F               	goto	l2622
  1598  16AD                     l2650:
  1599  16AD  3001               	movlw	1
  1600  16AE  00F4               	movwf	??___fltol
  1601  16AF                     u3985:
  1602  16AF  1003               	clrc
  1603  16B0  0DF0               	rlf	___fltol@f1,f
  1604  16B1  0DF1               	rlf	___fltol@f1+1,f
  1605  16B2  0DF2               	rlf	___fltol@f1+2,f
  1606  16B3  0DF3               	rlf	___fltol@f1+3,f
  1607  16B4  0BF4               	decfsz	??___fltol,f
  1608  16B5  2EAF               	goto	u3985
  1609  16B6  3001               	movlw	1
  1610  16B7  02FA               	subwf	___fltol@exp1,f
  1611  16B8                     l465:
  1612  16B8  087A               	movf	___fltol@exp1,w
  1613  16B9  1D03               	btfss	3,2
  1614  16BA  2EBC               	goto	u3991
  1615  16BB  2EBD               	goto	u3990
  1616  16BC                     u3991:
  1617  16BC  2EAD               	goto	l2650
  1618  16BD                     u3990:
  1619  16BD                     l2652:
  1620  16BD  0879               	movf	___fltol@sign1,w
  1621  16BE  1903               	btfsc	3,2
  1622  16BF  2EC1               	goto	u4001
  1623  16C0  2EC2               	goto	u4000
  1624  16C1                     u4001:
  1625  16C1  2ECD               	goto	l468
  1626  16C2                     u4000:
  1627  16C2                     l2654:
  1628  16C2  09F0               	comf	___fltol@f1,f
  1629  16C3  09F1               	comf	___fltol@f1+1,f
  1630  16C4  09F2               	comf	___fltol@f1+2,f
  1631  16C5  09F3               	comf	___fltol@f1+3,f
  1632  16C6  0AF0               	incf	___fltol@f1,f
  1633  16C7  1903               	skipnz
  1634  16C8  0AF1               	incf	___fltol@f1+1,f
  1635  16C9  1903               	skipnz
  1636  16CA  0AF2               	incf	___fltol@f1+2,f
  1637  16CB  1903               	skipnz
  1638  16CC  0AF3               	incf	___fltol@f1+3,f
  1639  16CD                     l468:
  1640  16CD                     l458:
  1641  16CD  0008               	return
  1642  16CE                     __end_of___fltol:
  1643                           
  1644                           	psect	text7
  1645  09C9                     __ptext7:	
  1646 ;; *************** function _UART_Init *****************
  1647 ;; Defined at:
  1648 ;;		line 1 in file "./uart.h"
  1649 ;; Parameters:    Size  Location     Type
  1650 ;;  baudrate        4    6[BANK0 ] const long 
  1651 ;; Auto vars:     Size  Location     Type
  1652 ;;  x               2    9[COMMON] unsigned int 
  1653 ;; Return value:  Size  Location     Type
  1654 ;;                  1    wreg      unsigned char 
  1655 ;; Registers used:
  1656 ;;		wreg, status,2, status,0, pclath, cstack
  1657 ;; Tracked objects:
  1658 ;;		On entry : 0/0
  1659 ;;		On exit  : 0/0
  1660 ;;		Unchanged: 0/0
  1661 ;; Data sizes:     COMMON   BANK0   BANK1   BANK3   BANK2
  1662 ;;      Params:         0       4       0       0       0
  1663 ;;      Locals:         2       0       0       0       0
  1664 ;;      Temps:          0      12       0       0       0
  1665 ;;      Totals:         2      16       0       0       0
  1666 ;;Total ram usage:       18 bytes
  1667 ;; Hardware stack levels used: 1
  1668 ;; Hardware stack levels required when called: 1
  1669 ;; This function calls:
  1670 ;;		___aldiv
  1671 ;; This function is called by:
  1672 ;;		_main
  1673 ;; This function uses a non-reentrant model
  1674 ;;
  1675                           
  1676                           
  1677                           ;psect for function _UART_Init
  1678  09C9                     _UART_Init:
  1679  09C9                     l2500:	
  1680                           ;incstack = 0
  1681                           ; Regs used in _UART_Init: [wreg+status,2+status,0+pclath+cstack]
  1682                           
  1683                           
  1684                           ;./uart.h: 1: char UART_Init(const long int baudrate);./uart.h: 2: {;./uart.h: 3:  unsig
      +                          ned int x;;./uart.h: 4:  x = (8000000 - baudrate*64)/(baudrate*64);
  1685  09C9  1283               	bcf	3,5	;RP0=0, select bank0
  1686  09CA  1303               	bcf	3,6	;RP1=0, select bank0
  1687  09CB  0826               	movf	UART_Init@baudrate,w
  1688  09CC  00AA               	movwf	??_UART_Init
  1689  09CD  0827               	movf	UART_Init@baudrate+1,w
  1690  09CE  00AB               	movwf	??_UART_Init+1
  1691  09CF  0828               	movf	UART_Init@baudrate+2,w
  1692  09D0  00AC               	movwf	??_UART_Init+2
  1693  09D1  0829               	movf	UART_Init@baudrate+3,w
  1694  09D2  00AD               	movwf	??_UART_Init+3
  1695  09D3  3006               	movlw	6
  1696  09D4                     u3745:
  1697  09D4  1003               	clrc
  1698  09D5  0DAA               	rlf	??_UART_Init,f
  1699  09D6  0DAB               	rlf	??_UART_Init+1,f
  1700  09D7  0DAC               	rlf	??_UART_Init+2,f
  1701  09D8  0DAD               	rlf	??_UART_Init+3,f
  1702  09D9                     u3740:
  1703  09D9  3EFF               	addlw	-1
  1704  09DA  1D03               	skipz
  1705  09DB  29D4               	goto	u3745
  1706  09DC  082D               	movf	??_UART_Init+3,w
  1707  09DD  00F3               	movwf	___aldiv@divisor+3
  1708  09DE  082C               	movf	??_UART_Init+2,w
  1709  09DF  00F2               	movwf	___aldiv@divisor+2
  1710  09E0  082B               	movf	??_UART_Init+1,w
  1711  09E1  00F1               	movwf	___aldiv@divisor+1
  1712  09E2  082A               	movf	??_UART_Init,w
  1713  09E3  00F0               	movwf	___aldiv@divisor
  1714  09E4  0826               	movf	UART_Init@baudrate,w
  1715  09E5  00AE               	movwf	??_UART_Init+4
  1716  09E6  0827               	movf	UART_Init@baudrate+1,w
  1717  09E7  00AF               	movwf	??_UART_Init+5
  1718  09E8  0828               	movf	UART_Init@baudrate+2,w
  1719  09E9  00B0               	movwf	??_UART_Init+6
  1720  09EA  0829               	movf	UART_Init@baudrate+3,w
  1721  09EB  00B1               	movwf	??_UART_Init+7
  1722  09EC  3006               	movlw	6
  1723  09ED                     u3755:
  1724  09ED  1003               	clrc
  1725  09EE  0DAE               	rlf	??_UART_Init+4,f
  1726  09EF  0DAF               	rlf	??_UART_Init+5,f
  1727  09F0  0DB0               	rlf	??_UART_Init+6,f
  1728  09F1  0DB1               	rlf	??_UART_Init+7,f
  1729  09F2                     u3750:
  1730  09F2  3EFF               	addlw	-1
  1731  09F3  1D03               	skipz
  1732  09F4  29ED               	goto	u3755
  1733  09F5  3000               	movlw	0
  1734  09F6  00B2               	movwf	??_UART_Init+8
  1735  09F7  3012               	movlw	18
  1736  09F8  00B3               	movwf	??_UART_Init+9
  1737  09F9  307A               	movlw	122
  1738  09FA  00B4               	movwf	??_UART_Init+10
  1739  09FB  3000               	movlw	0
  1740  09FC  00B5               	movwf	??_UART_Init+11
  1741  09FD  082E               	movf	??_UART_Init+4,w
  1742  09FE  02B2               	subwf	??_UART_Init+8,f
  1743  09FF  082F               	movf	??_UART_Init+5,w
  1744  0A00  1C03               	skipc
  1745  0A01  0F2F               	incfsz	??_UART_Init+5,w
  1746  0A02  2A04               	goto	u3761
  1747  0A03  2A05               	goto	u3762
  1748  0A04                     u3761:
  1749  0A04  02B3               	subwf	??_UART_Init+9,f
  1750  0A05                     u3762:
  1751  0A05  0830               	movf	??_UART_Init+6,w
  1752  0A06  1C03               	skipc
  1753  0A07  0F30               	incfsz	??_UART_Init+6,w
  1754  0A08  2A0A               	goto	u3763
  1755  0A09  2A0B               	goto	u3764
  1756  0A0A                     u3763:
  1757  0A0A  02B4               	subwf	??_UART_Init+10,f
  1758  0A0B                     u3764:
  1759  0A0B  0831               	movf	??_UART_Init+7,w
  1760  0A0C  1C03               	skipc
  1761  0A0D  0F31               	incfsz	??_UART_Init+7,w
  1762  0A0E  2A10               	goto	u3765
  1763  0A0F  2A11               	goto	u3766
  1764  0A10                     u3765:
  1765  0A10  02B5               	subwf	??_UART_Init+11,f
  1766  0A11                     u3766:
  1767  0A11  0835               	movf	??_UART_Init+11,w
  1768  0A12  00F7               	movwf	___aldiv@dividend+3
  1769  0A13  0834               	movf	??_UART_Init+10,w
  1770  0A14  00F6               	movwf	___aldiv@dividend+2
  1771  0A15  0833               	movf	??_UART_Init+9,w
  1772  0A16  00F5               	movwf	___aldiv@dividend+1
  1773  0A17  0832               	movf	??_UART_Init+8,w
  1774  0A18  00F4               	movwf	___aldiv@dividend
  1775  0A19  160A  118A  2763  120A  158A  	fcall	___aldiv
  1776  0A1E  0871               	movf	?___aldiv+1,w
  1777  0A1F  00FA               	movwf	UART_Init@x+1
  1778  0A20  0870               	movf	?___aldiv,w
  1779  0A21  00F9               	movwf	UART_Init@x
  1780  0A22                     l2502:
  1781                           
  1782                           ;./uart.h: 5:  if(x>255)
  1783  0A22  3001               	movlw	1
  1784  0A23  027A               	subwf	UART_Init@x+1,w
  1785  0A24  3000               	movlw	0
  1786  0A25  1903               	skipnz
  1787  0A26  0279               	subwf	UART_Init@x,w
  1788  0A27  1C03               	skipc
  1789  0A28  2A2A               	goto	u3771
  1790  0A29  2A2B               	goto	u3770
  1791  0A2A                     u3771:
  1792  0A2A  2A87               	goto	l2508
  1793  0A2B                     u3770:
  1794  0A2B                     l2504:
  1795                           
  1796                           ;./uart.h: 6:  {;./uart.h: 7:   x = (8000000 - baudrate*16)/(baudrate*16);
  1797  0A2B  1283               	bcf	3,5	;RP0=0, select bank0
  1798  0A2C  1303               	bcf	3,6	;RP1=0, select bank0
  1799  0A2D  0826               	movf	UART_Init@baudrate,w
  1800  0A2E  00AA               	movwf	??_UART_Init
  1801  0A2F  0827               	movf	UART_Init@baudrate+1,w
  1802  0A30  00AB               	movwf	??_UART_Init+1
  1803  0A31  0828               	movf	UART_Init@baudrate+2,w
  1804  0A32  00AC               	movwf	??_UART_Init+2
  1805  0A33  0829               	movf	UART_Init@baudrate+3,w
  1806  0A34  00AD               	movwf	??_UART_Init+3
  1807  0A35  3004               	movlw	4
  1808  0A36                     u3785:
  1809  0A36  1003               	clrc
  1810  0A37  0DAA               	rlf	??_UART_Init,f
  1811  0A38  0DAB               	rlf	??_UART_Init+1,f
  1812  0A39  0DAC               	rlf	??_UART_Init+2,f
  1813  0A3A  0DAD               	rlf	??_UART_Init+3,f
  1814  0A3B                     u3780:
  1815  0A3B  3EFF               	addlw	-1
  1816  0A3C  1D03               	skipz
  1817  0A3D  2A36               	goto	u3785
  1818  0A3E  082D               	movf	??_UART_Init+3,w
  1819  0A3F  00F3               	movwf	___aldiv@divisor+3
  1820  0A40  082C               	movf	??_UART_Init+2,w
  1821  0A41  00F2               	movwf	___aldiv@divisor+2
  1822  0A42  082B               	movf	??_UART_Init+1,w
  1823  0A43  00F1               	movwf	___aldiv@divisor+1
  1824  0A44  082A               	movf	??_UART_Init,w
  1825  0A45  00F0               	movwf	___aldiv@divisor
  1826  0A46  0826               	movf	UART_Init@baudrate,w
  1827  0A47  00AE               	movwf	??_UART_Init+4
  1828  0A48  0827               	movf	UART_Init@baudrate+1,w
  1829  0A49  00AF               	movwf	??_UART_Init+5
  1830  0A4A  0828               	movf	UART_Init@baudrate+2,w
  1831  0A4B  00B0               	movwf	??_UART_Init+6
  1832  0A4C  0829               	movf	UART_Init@baudrate+3,w
  1833  0A4D  00B1               	movwf	??_UART_Init+7
  1834  0A4E  3004               	movlw	4
  1835  0A4F                     u3795:
  1836  0A4F  1003               	clrc
  1837  0A50  0DAE               	rlf	??_UART_Init+4,f
  1838  0A51  0DAF               	rlf	??_UART_Init+5,f
  1839  0A52  0DB0               	rlf	??_UART_Init+6,f
  1840  0A53  0DB1               	rlf	??_UART_Init+7,f
  1841  0A54                     u3790:
  1842  0A54  3EFF               	addlw	-1
  1843  0A55  1D03               	skipz
  1844  0A56  2A4F               	goto	u3795
  1845  0A57  3000               	movlw	0
  1846  0A58  00B2               	movwf	??_UART_Init+8
  1847  0A59  3012               	movlw	18
  1848  0A5A  00B3               	movwf	??_UART_Init+9
  1849  0A5B  307A               	movlw	122
  1850  0A5C  00B4               	movwf	??_UART_Init+10
  1851  0A5D  3000               	movlw	0
  1852  0A5E  00B5               	movwf	??_UART_Init+11
  1853  0A5F  082E               	movf	??_UART_Init+4,w
  1854  0A60  02B2               	subwf	??_UART_Init+8,f
  1855  0A61  082F               	movf	??_UART_Init+5,w
  1856  0A62  1C03               	skipc
  1857  0A63  0F2F               	incfsz	??_UART_Init+5,w
  1858  0A64  2A66               	goto	u3801
  1859  0A65  2A67               	goto	u3802
  1860  0A66                     u3801:
  1861  0A66  02B3               	subwf	??_UART_Init+9,f
  1862  0A67                     u3802:
  1863  0A67  0830               	movf	??_UART_Init+6,w
  1864  0A68  1C03               	skipc
  1865  0A69  0F30               	incfsz	??_UART_Init+6,w
  1866  0A6A  2A6C               	goto	u3803
  1867  0A6B  2A6D               	goto	u3804
  1868  0A6C                     u3803:
  1869  0A6C  02B4               	subwf	??_UART_Init+10,f
  1870  0A6D                     u3804:
  1871  0A6D  0831               	movf	??_UART_Init+7,w
  1872  0A6E  1C03               	skipc
  1873  0A6F  0F31               	incfsz	??_UART_Init+7,w
  1874  0A70  2A72               	goto	u3805
  1875  0A71  2A73               	goto	u3806
  1876  0A72                     u3805:
  1877  0A72  02B5               	subwf	??_UART_Init+11,f
  1878  0A73                     u3806:
  1879  0A73  0835               	movf	??_UART_Init+11,w
  1880  0A74  00F7               	movwf	___aldiv@dividend+3
  1881  0A75  0834               	movf	??_UART_Init+10,w
  1882  0A76  00F6               	movwf	___aldiv@dividend+2
  1883  0A77  0833               	movf	??_UART_Init+9,w
  1884  0A78  00F5               	movwf	___aldiv@dividend+1
  1885  0A79  0832               	movf	??_UART_Init+8,w
  1886  0A7A  00F4               	movwf	___aldiv@dividend
  1887  0A7B  160A  118A  2763  120A  158A  	fcall	___aldiv
  1888  0A80  0871               	movf	?___aldiv+1,w
  1889  0A81  00FA               	movwf	UART_Init@x+1
  1890  0A82  0870               	movf	?___aldiv,w
  1891  0A83  00F9               	movwf	UART_Init@x
  1892  0A84                     l2506:
  1893                           
  1894                           ;./uart.h: 8:   BRGH = 1;
  1895  0A84  1683               	bsf	3,5	;RP0=1, select bank1
  1896  0A85  1303               	bcf	3,6	;RP1=0, select bank1
  1897  0A86  1518               	bsf	24,2	;volatile
  1898  0A87                     l2508:
  1899                           
  1900                           ;./uart.h: 10:  if(x<256)
  1901  0A87  3001               	movlw	1
  1902  0A88  027A               	subwf	UART_Init@x+1,w
  1903  0A89  3000               	movlw	0
  1904  0A8A  1903               	skipnz
  1905  0A8B  0279               	subwf	UART_Init@x,w
  1906  0A8C  1803               	skipnc
  1907  0A8D  2A8F               	goto	u3811
  1908  0A8E  2A90               	goto	u3810
  1909  0A8F                     u3811:
  1910  0A8F  2AA2               	goto	l67
  1911  0A90                     u3810:
  1912  0A90                     l2510:
  1913                           
  1914                           ;./uart.h: 11:  {;./uart.h: 12:    SPBRG = x;
  1915  0A90  0879               	movf	UART_Init@x,w
  1916  0A91  1683               	bsf	3,5	;RP0=1, select bank1
  1917  0A92  1303               	bcf	3,6	;RP1=0, select bank1
  1918  0A93  0099               	movwf	25	;volatile
  1919  0A94                     l2512:
  1920                           
  1921                           ;./uart.h: 13:    SYNC = 0;
  1922  0A94  1218               	bcf	24,4	;volatile
  1923  0A95                     l2514:
  1924                           
  1925                           ;./uart.h: 14:    SPEN = 1;
  1926  0A95  1283               	bcf	3,5	;RP0=0, select bank0
  1927  0A96  1303               	bcf	3,6	;RP1=0, select bank0
  1928  0A97  1798               	bsf	24,7	;volatile
  1929  0A98                     l2516:
  1930                           
  1931                           ;./uart.h: 15:           TRISC7 = 1;
  1932  0A98  1683               	bsf	3,5	;RP0=1, select bank1
  1933  0A99  1303               	bcf	3,6	;RP1=0, select bank1
  1934  0A9A  1787               	bsf	7,7	;volatile
  1935  0A9B                     l2518:
  1936                           
  1937                           ;./uart.h: 16:           TRISC6 = 1;
  1938  0A9B  1707               	bsf	7,6	;volatile
  1939  0A9C                     l2520:
  1940                           
  1941                           ;./uart.h: 17:           CREN = 1;
  1942  0A9C  1283               	bcf	3,5	;RP0=0, select bank0
  1943  0A9D  1303               	bcf	3,6	;RP1=0, select bank0
  1944  0A9E  1618               	bsf	24,4	;volatile
  1945  0A9F                     l2522:
  1946                           
  1947                           ;./uart.h: 18:           TXEN = 1;
  1948  0A9F  1683               	bsf	3,5	;RP0=1, select bank1
  1949  0AA0  1303               	bcf	3,6	;RP1=0, select bank1
  1950  0AA1  1698               	bsf	24,5	;volatile
  1951  0AA2                     l67:
  1952  0AA2  0008               	return
  1953  0AA3                     __end_of_UART_Init:
  1954                           
  1955                           	psect	text8
  1956  1763                     __ptext8:	
  1957 ;; *************** function ___aldiv *****************
  1958 ;; Defined at:
  1959 ;;		line 5 in file "C:\Program Files\Microchip\xc8\v2.32\pic\sources\c90\common\aldiv.c"
  1960 ;; Parameters:    Size  Location     Type
  1961 ;;  divisor         4    0[COMMON] long 
  1962 ;;  dividend        4    4[COMMON] long 
  1963 ;; Auto vars:     Size  Location     Type
  1964 ;;  quotient        4    2[BANK0 ] long 
  1965 ;;  sign            1    1[BANK0 ] unsigned char 
  1966 ;;  counter         1    0[BANK0 ] unsigned char 
  1967 ;; Return value:  Size  Location     Type
  1968 ;;                  4    0[COMMON] long 
  1969 ;; Registers used:
  1970 ;;		wreg, status,2, status,0
  1971 ;; Tracked objects:
  1972 ;;		On entry : 0/0
  1973 ;;		On exit  : 0/0
  1974 ;;		Unchanged: 0/0
  1975 ;; Data sizes:     COMMON   BANK0   BANK1   BANK3   BANK2
  1976 ;;      Params:         8       0       0       0       0
  1977 ;;      Locals:         0       6       0       0       0
  1978 ;;      Temps:          1       0       0       0       0
  1979 ;;      Totals:         9       6       0       0       0
  1980 ;;Total ram usage:       15 bytes
  1981 ;; Hardware stack levels used: 1
  1982 ;; This function calls:
  1983 ;;		Nothing
  1984 ;; This function is called by:
  1985 ;;		_UART_Init
  1986 ;; This function uses a non-reentrant model
  1987 ;;
  1988                           
  1989                           
  1990                           ;psect for function ___aldiv
  1991  1763                     ___aldiv:
  1992  1763                     l2100:	
  1993                           ;incstack = 0
  1994                           ; Regs used in ___aldiv: [wreg+status,2+status,0]
  1995                           
  1996  1763  1283               	bcf	3,5	;RP0=0, select bank0
  1997  1764  1303               	bcf	3,6	;RP1=0, select bank0
  1998  1765  01A1               	clrf	___aldiv@sign
  1999  1766                     l2102:
  2000  1766  1FF3               	btfss	___aldiv@divisor+3,7
  2001  1767  2F69               	goto	u2761
  2002  1768  2F6A               	goto	u2760
  2003  1769                     u2761:
  2004  1769  2F77               	goto	l337
  2005  176A                     u2760:
  2006  176A                     l2104:
  2007  176A  09F0               	comf	___aldiv@divisor,f
  2008  176B  09F1               	comf	___aldiv@divisor+1,f
  2009  176C  09F2               	comf	___aldiv@divisor+2,f
  2010  176D  09F3               	comf	___aldiv@divisor+3,f
  2011  176E  0AF0               	incf	___aldiv@divisor,f
  2012  176F  1903               	skipnz
  2013  1770  0AF1               	incf	___aldiv@divisor+1,f
  2014  1771  1903               	skipnz
  2015  1772  0AF2               	incf	___aldiv@divisor+2,f
  2016  1773  1903               	skipnz
  2017  1774  0AF3               	incf	___aldiv@divisor+3,f
  2018  1775  01A1               	clrf	___aldiv@sign
  2019  1776  0AA1               	incf	___aldiv@sign,f
  2020  1777                     l337:
  2021  1777  1FF7               	btfss	___aldiv@dividend+3,7
  2022  1778  2F7A               	goto	u2771
  2023  1779  2F7B               	goto	u2770
  2024  177A                     u2771:
  2025  177A  2F8A               	goto	l2110
  2026  177B                     u2770:
  2027  177B                     l2106:
  2028  177B  09F4               	comf	___aldiv@dividend,f
  2029  177C  09F5               	comf	___aldiv@dividend+1,f
  2030  177D  09F6               	comf	___aldiv@dividend+2,f
  2031  177E  09F7               	comf	___aldiv@dividend+3,f
  2032  177F  0AF4               	incf	___aldiv@dividend,f
  2033  1780  1903               	skipnz
  2034  1781  0AF5               	incf	___aldiv@dividend+1,f
  2035  1782  1903               	skipnz
  2036  1783  0AF6               	incf	___aldiv@dividend+2,f
  2037  1784  1903               	skipnz
  2038  1785  0AF7               	incf	___aldiv@dividend+3,f
  2039  1786                     l2108:
  2040  1786  3001               	movlw	1
  2041  1787  00F8               	movwf	??___aldiv
  2042  1788  0878               	movf	??___aldiv,w
  2043  1789  06A1               	xorwf	___aldiv@sign,f
  2044  178A                     l2110:
  2045  178A  3000               	movlw	0
  2046  178B  00A5               	movwf	___aldiv@quotient+3
  2047  178C  3000               	movlw	0
  2048  178D  00A4               	movwf	___aldiv@quotient+2
  2049  178E  3000               	movlw	0
  2050  178F  00A3               	movwf	___aldiv@quotient+1
  2051  1790  3000               	movlw	0
  2052  1791  00A2               	movwf	___aldiv@quotient
  2053  1792                     l2112:
  2054  1792  0873               	movf	___aldiv@divisor+3,w
  2055  1793  0472               	iorwf	___aldiv@divisor+2,w
  2056  1794  0471               	iorwf	___aldiv@divisor+1,w
  2057  1795  0470               	iorwf	___aldiv@divisor,w
  2058  1796  1903               	skipnz
  2059  1797  2F99               	goto	u2781
  2060  1798  2F9A               	goto	u2780
  2061  1799                     u2781:
  2062  1799  2FE7               	goto	l2132
  2063  179A                     u2780:
  2064  179A                     l2114:
  2065  179A  01A0               	clrf	___aldiv@counter
  2066  179B  0AA0               	incf	___aldiv@counter,f
  2067  179C  2FAA               	goto	l2118
  2068  179D                     l2116:
  2069  179D  3001               	movlw	1
  2070  179E  00F8               	movwf	??___aldiv
  2071  179F                     u2795:
  2072  179F  1003               	clrc
  2073  17A0  0DF0               	rlf	___aldiv@divisor,f
  2074  17A1  0DF1               	rlf	___aldiv@divisor+1,f
  2075  17A2  0DF2               	rlf	___aldiv@divisor+2,f
  2076  17A3  0DF3               	rlf	___aldiv@divisor+3,f
  2077  17A4  0BF8               	decfsz	??___aldiv,f
  2078  17A5  2F9F               	goto	u2795
  2079  17A6  3001               	movlw	1
  2080  17A7  00F8               	movwf	??___aldiv
  2081  17A8  0878               	movf	??___aldiv,w
  2082  17A9  07A0               	addwf	___aldiv@counter,f
  2083  17AA                     l2118:
  2084  17AA  1FF3               	btfss	___aldiv@divisor+3,7
  2085  17AB  2FAD               	goto	u2801
  2086  17AC  2FAE               	goto	u2800
  2087  17AD                     u2801:
  2088  17AD  2F9D               	goto	l2116
  2089  17AE                     u2800:
  2090  17AE                     l2120:
  2091  17AE  3001               	movlw	1
  2092  17AF  00F8               	movwf	??___aldiv
  2093  17B0                     u2815:
  2094  17B0  1003               	clrc
  2095  17B1  0DA2               	rlf	___aldiv@quotient,f
  2096  17B2  0DA3               	rlf	___aldiv@quotient+1,f
  2097  17B3  0DA4               	rlf	___aldiv@quotient+2,f
  2098  17B4  0DA5               	rlf	___aldiv@quotient+3,f
  2099  17B5  0BF8               	decfsz	??___aldiv,f
  2100  17B6  2FB0               	goto	u2815
  2101  17B7                     l2122:
  2102  17B7  0873               	movf	___aldiv@divisor+3,w
  2103  17B8  0277               	subwf	___aldiv@dividend+3,w
  2104  17B9  1D03               	skipz
  2105  17BA  2FC5               	goto	u2825
  2106  17BB  0872               	movf	___aldiv@divisor+2,w
  2107  17BC  0276               	subwf	___aldiv@dividend+2,w
  2108  17BD  1D03               	skipz
  2109  17BE  2FC5               	goto	u2825
  2110  17BF  0871               	movf	___aldiv@divisor+1,w
  2111  17C0  0275               	subwf	___aldiv@dividend+1,w
  2112  17C1  1D03               	skipz
  2113  17C2  2FC5               	goto	u2825
  2114  17C3  0870               	movf	___aldiv@divisor,w
  2115  17C4  0274               	subwf	___aldiv@dividend,w
  2116  17C5                     u2825:
  2117  17C5  1C03               	skipc
  2118  17C6  2FC8               	goto	u2821
  2119  17C7  2FC9               	goto	u2820
  2120  17C8                     u2821:
  2121  17C8  2FD8               	goto	l2128
  2122  17C9                     u2820:
  2123  17C9                     l2124:
  2124  17C9  0870               	movf	___aldiv@divisor,w
  2125  17CA  02F4               	subwf	___aldiv@dividend,f
  2126  17CB  0871               	movf	___aldiv@divisor+1,w
  2127  17CC  1C03               	skipc
  2128  17CD  0F71               	incfsz	___aldiv@divisor+1,w
  2129  17CE  02F5               	subwf	___aldiv@dividend+1,f
  2130  17CF  0872               	movf	___aldiv@divisor+2,w
  2131  17D0  1C03               	skipc
  2132  17D1  0F72               	incfsz	___aldiv@divisor+2,w
  2133  17D2  02F6               	subwf	___aldiv@dividend+2,f
  2134  17D3  0873               	movf	___aldiv@divisor+3,w
  2135  17D4  1C03               	skipc
  2136  17D5  0F73               	incfsz	___aldiv@divisor+3,w
  2137  17D6  02F7               	subwf	___aldiv@dividend+3,f
  2138  17D7                     l2126:
  2139  17D7  1422               	bsf	___aldiv@quotient,0
  2140  17D8                     l2128:
  2141  17D8  3001               	movlw	1
  2142  17D9                     u2835:
  2143  17D9  1003               	clrc
  2144  17DA  0CF3               	rrf	___aldiv@divisor+3,f
  2145  17DB  0CF2               	rrf	___aldiv@divisor+2,f
  2146  17DC  0CF1               	rrf	___aldiv@divisor+1,f
  2147  17DD  0CF0               	rrf	___aldiv@divisor,f
  2148  17DE  3EFF               	addlw	-1
  2149  17DF  1D03               	skipz
  2150  17E0  2FD9               	goto	u2835
  2151  17E1                     l2130:
  2152  17E1  3001               	movlw	1
  2153  17E2  02A0               	subwf	___aldiv@counter,f
  2154  17E3  1D03               	btfss	3,2
  2155  17E4  2FE6               	goto	u2841
  2156  17E5  2FE7               	goto	u2840
  2157  17E6                     u2841:
  2158  17E6  2FAE               	goto	l2120
  2159  17E7                     u2840:
  2160  17E7                     l2132:
  2161  17E7  0821               	movf	___aldiv@sign,w
  2162  17E8  1903               	btfsc	3,2
  2163  17E9  2FEB               	goto	u2851
  2164  17EA  2FEC               	goto	u2850
  2165  17EB                     u2851:
  2166  17EB  2FF7               	goto	l2136
  2167  17EC                     u2850:
  2168  17EC                     l2134:
  2169  17EC  09A2               	comf	___aldiv@quotient,f
  2170  17ED  09A3               	comf	___aldiv@quotient+1,f
  2171  17EE  09A4               	comf	___aldiv@quotient+2,f
  2172  17EF  09A5               	comf	___aldiv@quotient+3,f
  2173  17F0  0AA2               	incf	___aldiv@quotient,f
  2174  17F1  1903               	skipnz
  2175  17F2  0AA3               	incf	___aldiv@quotient+1,f
  2176  17F3  1903               	skipnz
  2177  17F4  0AA4               	incf	___aldiv@quotient+2,f
  2178  17F5  1903               	skipnz
  2179  17F6  0AA5               	incf	___aldiv@quotient+3,f
  2180  17F7                     l2136:
  2181  17F7  0825               	movf	___aldiv@quotient+3,w
  2182  17F8  00F3               	movwf	?___aldiv+3
  2183  17F9  0824               	movf	___aldiv@quotient+2,w
  2184  17FA  00F2               	movwf	?___aldiv+2
  2185  17FB  0823               	movf	___aldiv@quotient+1,w
  2186  17FC  00F1               	movwf	?___aldiv+1
  2187  17FD  0822               	movf	___aldiv@quotient,w
  2188  17FE  00F0               	movwf	?___aldiv
  2189  17FF                     l347:
  2190  17FF  0008               	return
  2191  1800                     __end_of___aldiv:
  2192                           
  2193                           	psect	text9
  2194  0376                     __ptext9:	
  2195 ;; *************** function _Quadra_Al *****************
  2196 ;; Defined at:
  2197 ;;		line 45 in file "newmain.c"
  2198 ;; Parameters:    Size  Location     Type
  2199 ;;		None
  2200 ;; Auto vars:     Size  Location     Type
  2201 ;;  uart_logs      50    0[BANK1 ] unsigned char [50]
  2202 ;;  x              28    0[BANK3 ] float [7]
  2203 ;;  max             4   40[BANK3 ] float 
  2204 ;;  a               4   36[BANK3 ] float 
  2205 ;;  out             4   32[BANK3 ] float 
  2206 ;;  max1            4   28[BANK3 ] float 
  2207 ;;  d               4   76[BANK0 ] float 
  2208 ;;  b               4   72[BANK0 ] float 
  2209 ;;  max2            4   68[BANK0 ] float 
  2210 ;;  j               2   72[BANK1 ] int 
  2211 ;;  xmax            2   70[BANK1 ] int 
  2212 ;; Return value:  Size  Location     Type
  2213 ;;                  4   60[BANK0 ] float 
  2214 ;; Registers used:
  2215 ;;		wreg, fsr0l, fsr0h, status,2, status,0, btemp+1, pclath, cstack
  2216 ;; Tracked objects:
  2217 ;;		On entry : 0/0
  2218 ;;		On exit  : 0/0
  2219 ;;		Unchanged: 0/0
  2220 ;; Data sizes:     COMMON   BANK0   BANK1   BANK3   BANK2
  2221 ;;      Params:         0       4       0       0       0
  2222 ;;      Locals:         0      12      74      44       0
  2223 ;;      Temps:          0       4       0       0       0
  2224 ;;      Totals:         0      20      74      44       0
  2225 ;;Total ram usage:      138 bytes
  2226 ;; Hardware stack levels used: 1
  2227 ;; Hardware stack levels required when called: 2
  2228 ;; This function calls:
  2229 ;;		_UART_Write_Text
  2230 ;;		___fladd
  2231 ;;		___fldiv
  2232 ;;		___flge
  2233 ;;		___flmul
  2234 ;;		___flneg
  2235 ;;		___flsub
  2236 ;;		___xxtofl
  2237 ;;		_sprintf
  2238 ;; This function is called by:
  2239 ;;		_main
  2240 ;; This function uses a non-reentrant model
  2241 ;;
  2242                           
  2243                           
  2244                           ;psect for function _Quadra_Al
  2245  0376                     _Quadra_Al:
  2246  0376                     l2528:	
  2247                           ;incstack = 0
  2248                           ; Regs used in _Quadra_Al: [wreg-fsr0h+status,2+status,0+btemp+1+pclath+cstack]
  2249                           
  2250                           
  2251                           ;newmain.c: 47:     float x[7] = {40, 42, 41, 38, 631, 891, 243};
  2252  0376  3090               	movlw	Quadra_Al@x& (0+255)
  2253  0377  0084               	movwf	4
  2254  0378  30C0               	movlw	low Quadra_Al@F1224
  2255  0379  1283               	bcf	3,5	;RP0=0, select bank0
  2256  037A  1303               	bcf	3,6	;RP1=0, select bank0
  2257  037B  00E0               	movwf	??_Quadra_Al
  2258  037C  0804               	movf	4,w
  2259  037D  00E1               	movwf	??_Quadra_Al+1
  2260  037E  301C               	movlw	28
  2261  037F  00E2               	movwf	??_Quadra_Al+2
  2262  0380                     u3820:
  2263  0380  0860               	movf	??_Quadra_Al,w
  2264  0381  0084               	movwf	4
  2265  0382  1783               	bsf	3,7	;select IRP bank3
  2266  0383  0800               	movf	0,w
  2267  0384  00E3               	movwf	??_Quadra_Al+3
  2268  0385  0AE0               	incf	??_Quadra_Al,f
  2269  0386  0861               	movf	??_Quadra_Al+1,w
  2270  0387  0084               	movwf	4
  2271  0388  0863               	movf	??_Quadra_Al+3,w
  2272  0389  0080               	movwf	0
  2273  038A  0AE1               	incf	??_Quadra_Al+1,f
  2274  038B  0BE2               	decfsz	??_Quadra_Al+2,f
  2275  038C  2B80               	goto	u3820
  2276  038D                     l2530:
  2277                           
  2278                           ;newmain.c: 48:     float max, max1, max2;;newmain.c: 49:     max = 0;
  2279  038D  3000               	movlw	0
  2280  038E  1683               	bsf	3,5	;RP0=1, select bank3
  2281  038F  1703               	bsf	3,6	;RP1=1, select bank3
  2282  0390  00BB               	movwf	(Quadra_Al@max+3)^(0+384)
  2283  0391  3000               	movlw	0
  2284  0392  00BA               	movwf	(Quadra_Al@max+2)^(0+384)
  2285  0393  3000               	movlw	0
  2286  0394  00B9               	movwf	(Quadra_Al@max+1)^(0+384)
  2287  0395  3000               	movlw	0
  2288  0396  00B8               	movwf	Quadra_Al@max^(0+384)
  2289  0397                     l2532:
  2290                           
  2291                           ;newmain.c: 50:     float a, b, d, out;;newmain.c: 51:     int j, xmax;;newmain.c: 52:  
      +                             char uart_logs[50];;newmain.c: 64:     for (j = 0; j < 7; j++)
  2292  0397  1683               	bsf	3,5	;RP0=1, select bank1
  2293  0398  1303               	bcf	3,6	;RP1=0, select bank1
  2294  0399  01E8               	clrf	Quadra_Al@j^(0+128)
  2295  039A  01E9               	clrf	(Quadra_Al@j+1)^(0+128)
  2296  039B                     l2538:
  2297                           
  2298                           ;newmain.c: 65:     {;newmain.c: 66:         if (x[j] > max) {
  2299  039B  1683               	bsf	3,5	;RP0=1, select bank3
  2300  039C  1703               	bsf	3,6	;RP1=1, select bank3
  2301  039D  083B               	movf	(Quadra_Al@max+3)^(0+384),w
  2302  039E  00F3               	movwf	___flge@ff1+3
  2303  039F  083A               	movf	(Quadra_Al@max+2)^(0+384),w
  2304  03A0  00F2               	movwf	___flge@ff1+2
  2305  03A1  0839               	movf	(Quadra_Al@max+1)^(0+384),w
  2306  03A2  00F1               	movwf	___flge@ff1+1
  2307  03A3  0838               	movf	Quadra_Al@max^(0+384),w
  2308  03A4  00F0               	movwf	___flge@ff1
  2309  03A5  1683               	bsf	3,5	;RP0=1, select bank1
  2310  03A6  1303               	bcf	3,6	;RP1=0, select bank1
  2311  03A7  0868               	movf	Quadra_Al@j^(0+128),w
  2312  03A8  1283               	bcf	3,5	;RP0=0, select bank0
  2313  03A9  1303               	bcf	3,6	;RP1=0, select bank0
  2314  03AA  00E0               	movwf	??_Quadra_Al
  2315  03AB  3001               	movlw	1
  2316  03AC                     u3835:
  2317  03AC  1003               	clrc
  2318  03AD  0DE0               	rlf	??_Quadra_Al,f
  2319  03AE  3EFF               	addlw	-1
  2320  03AF  1D03               	skipz
  2321  03B0  2BAC               	goto	u3835
  2322  03B1  1003               	clrc
  2323  03B2  0D60               	rlf	??_Quadra_Al,w
  2324  03B3  3E90               	addlw	(low (Quadra_Al@x| (0+256)))& (0+255)
  2325  03B4  0084               	movwf	4
  2326  03B5  1783               	bsf	3,7	;select IRP bank3
  2327  03B6  0800               	movf	0,w
  2328  03B7  00F4               	movwf	___flge@ff2
  2329  03B8  0A84               	incf	4,f
  2330  03B9  0800               	movf	0,w
  2331  03BA  00F5               	movwf	___flge@ff2+1
  2332  03BB  0A84               	incf	4,f
  2333  03BC  0800               	movf	0,w
  2334  03BD  00F6               	movwf	___flge@ff2+2
  2335  03BE  0A84               	incf	4,f
  2336  03BF  0800               	movf	0,w
  2337  03C0  00F7               	movwf	___flge@ff2+3
  2338  03C1  120A  158A  206D  120A  118A  	fcall	___flge
  2339  03C6  1803               	btfsc	3,0
  2340  03C7  2BC9               	goto	u3841
  2341  03C8  2BCA               	goto	u3840
  2342  03C9                     u3841:
  2343  03C9  2C23               	goto	l2550
  2344  03CA                     u3840:
  2345  03CA                     l2540:
  2346                           
  2347                           ;newmain.c: 67:             max = x[j];
  2348  03CA  1683               	bsf	3,5	;RP0=1, select bank1
  2349  03CB  1303               	bcf	3,6	;RP1=0, select bank1
  2350  03CC  0868               	movf	Quadra_Al@j^(0+128),w
  2351  03CD  1283               	bcf	3,5	;RP0=0, select bank0
  2352  03CE  1303               	bcf	3,6	;RP1=0, select bank0
  2353  03CF  00E0               	movwf	??_Quadra_Al
  2354  03D0  3001               	movlw	1
  2355  03D1                     u3855:
  2356  03D1  1003               	clrc
  2357  03D2  0DE0               	rlf	??_Quadra_Al,f
  2358  03D3  3EFF               	addlw	-1
  2359  03D4  1D03               	skipz
  2360  03D5  2BD1               	goto	u3855
  2361  03D6  1003               	clrc
  2362  03D7  0D60               	rlf	??_Quadra_Al,w
  2363  03D8  3E90               	addlw	(low (Quadra_Al@x| (0+256)))& (0+255)
  2364  03D9  0084               	movwf	4
  2365  03DA  1783               	bsf	3,7	;select IRP bank3
  2366  03DB  0800               	movf	0,w
  2367  03DC  1683               	bsf	3,5	;RP0=1, select bank3
  2368  03DD  1703               	bsf	3,6	;RP1=1, select bank3
  2369  03DE  00B8               	movwf	Quadra_Al@max^(0+384)
  2370  03DF  0A84               	incf	4,f
  2371  03E0  0800               	movf	0,w
  2372  03E1  00B9               	movwf	(Quadra_Al@max+1)^(0+384)
  2373  03E2  0A84               	incf	4,f
  2374  03E3  0800               	movf	0,w
  2375  03E4  00BA               	movwf	(Quadra_Al@max+2)^(0+384)
  2376  03E5  0A84               	incf	4,f
  2377  03E6  0800               	movf	0,w
  2378  03E7  00BB               	movwf	(Quadra_Al@max+3)^(0+384)
  2379  03E8                     l2542:
  2380                           
  2381                           ;newmain.c: 68:             xmax = j;
  2382  03E8  1683               	bsf	3,5	;RP0=1, select bank1
  2383  03E9  1303               	bcf	3,6	;RP1=0, select bank1
  2384  03EA  0869               	movf	(Quadra_Al@j+1)^(0+128),w
  2385  03EB  00E7               	movwf	(Quadra_Al@xmax+1)^(0+128)
  2386  03EC  0868               	movf	Quadra_Al@j^(0+128),w
  2387  03ED  00E6               	movwf	Quadra_Al@xmax^(0+128)
  2388  03EE                     l2544:
  2389                           
  2390                           ;newmain.c: 69:             sprintf(uart_logs, "%d\n\r", max);
  2391  03EE  3026               	movlw	(low (((STR_3+4)-__stringbase)| (0+32768)))& (0+255)
  2392  03EF  1283               	bcf	3,5	;RP0=0, select bank0
  2393  03F0  1303               	bcf	3,6	;RP1=0, select bank0
  2394  03F1  00E0               	movwf	??_Quadra_Al
  2395  03F2  0860               	movf	??_Quadra_Al,w
  2396  03F3  00A0               	movwf	sprintf@f
  2397  03F4  1683               	bsf	3,5	;RP0=1, select bank3
  2398  03F5  1703               	bsf	3,6	;RP1=1, select bank3
  2399  03F6  083B               	movf	(Quadra_Al@max+3)^(0+384),w
  2400  03F7  1283               	bcf	3,5	;RP0=0, select bank0
  2401  03F8  1303               	bcf	3,6	;RP1=0, select bank0
  2402  03F9  00A4               	movwf	?_sprintf+4
  2403  03FA  1683               	bsf	3,5	;RP0=1, select bank3
  2404  03FB  1703               	bsf	3,6	;RP1=1, select bank3
  2405  03FC  083A               	movf	(Quadra_Al@max+2)^(0+384),w
  2406  03FD  1283               	bcf	3,5	;RP0=0, select bank0
  2407  03FE  1303               	bcf	3,6	;RP1=0, select bank0
  2408  03FF  00A3               	movwf	?_sprintf+3
  2409  0400  1683               	bsf	3,5	;RP0=1, select bank3
  2410  0401  1703               	bsf	3,6	;RP1=1, select bank3
  2411  0402  0839               	movf	(Quadra_Al@max+1)^(0+384),w
  2412  0403  1283               	bcf	3,5	;RP0=0, select bank0
  2413  0404  1303               	bcf	3,6	;RP1=0, select bank0
  2414  0405  00A2               	movwf	?_sprintf+2
  2415  0406  1683               	bsf	3,5	;RP0=1, select bank3
  2416  0407  1703               	bsf	3,6	;RP1=1, select bank3
  2417  0408  0838               	movf	Quadra_Al@max^(0+384),w
  2418  0409  1283               	bcf	3,5	;RP0=0, select bank0
  2419  040A  1303               	bcf	3,6	;RP1=0, select bank0
  2420  040B  00A1               	movwf	?_sprintf+1
  2421  040C  30A0               	movlw	(low (Quadra_Al@uart_logs| 0))& (0+255)
  2422  040D  120A  158A  22A3  120A  118A  	fcall	_sprintf
  2423  0412                     l2546:
  2424                           
  2425                           ;newmain.c: 70:             UART_Write_Text(uart_logs);
  2426  0412  30A0               	movlw	(low (Quadra_Al@uart_logs| 0))& (0+255)
  2427  0413  160A  118A  25D5  120A  118A  	fcall	_UART_Write_Text
  2428  0418                     l2548:
  2429                           
  2430                           ;newmain.c: 71:             _delay((unsigned long)((90)*(8000000/4000.0)));
  2431  0418  30EA               	movlw	234
  2432  0419  1283               	bcf	3,5	;RP0=0, select bank0
  2433  041A  1303               	bcf	3,6	;RP1=0, select bank0
  2434  041B  00E1               	movwf	??_Quadra_Al+1
  2435  041C  30C2               	movlw	194
  2436  041D  00E0               	movwf	??_Quadra_Al
  2437  041E                     u4057:
  2438  041E  0BE0               	decfsz	??_Quadra_Al,f
  2439  041F  2C1E               	goto	u4057
  2440  0420  0BE1               	decfsz	??_Quadra_Al+1,f
  2441  0421  2C1E               	goto	u4057
  2442  0422  0000               	nop
  2443  0423                     l2550:
  2444                           
  2445                           ;newmain.c: 73:     }
  2446  0423  3001               	movlw	1
  2447  0424  1683               	bsf	3,5	;RP0=1, select bank1
  2448  0425  1303               	bcf	3,6	;RP1=0, select bank1
  2449  0426  07E8               	addwf	Quadra_Al@j^(0+128),f
  2450  0427  1803               	skipnc
  2451  0428  0AE9               	incf	(Quadra_Al@j+1)^(0+128),f
  2452  0429  3000               	movlw	0
  2453  042A  07E9               	addwf	(Quadra_Al@j+1)^(0+128),f
  2454  042B                     l2552:
  2455  042B  0869               	movf	(Quadra_Al@j+1)^(0+128),w
  2456  042C  3A80               	xorlw	128
  2457  042D  00FF               	movwf	btemp+1
  2458  042E  3080               	movlw	128
  2459  042F  027F               	subwf	btemp+1,w
  2460  0430  1D03               	skipz
  2461  0431  2C34               	goto	u3865
  2462  0432  3007               	movlw	7
  2463  0433  0268               	subwf	Quadra_Al@j^(0+128),w
  2464  0434                     u3865:
  2465  0434  1C03               	skipc
  2466  0435  2C37               	goto	u3861
  2467  0436  2C38               	goto	u3860
  2468  0437                     u3861:
  2469  0437  2B9B               	goto	l2538
  2470  0438                     u3860:
  2471  0438                     l2554:
  2472                           
  2473                           ;newmain.c: 75:     max1 = x[xmax - 1];
  2474  0438  1683               	bsf	3,5	;RP0=1, select bank1
  2475  0439  1303               	bcf	3,6	;RP1=0, select bank1
  2476  043A  0866               	movf	Quadra_Al@xmax^(0+128),w
  2477  043B  1283               	bcf	3,5	;RP0=0, select bank0
  2478  043C  1303               	bcf	3,6	;RP1=0, select bank0
  2479  043D  00E0               	movwf	??_Quadra_Al
  2480  043E  3001               	movlw	1
  2481  043F                     u3875:
  2482  043F  1003               	clrc
  2483  0440  0DE0               	rlf	??_Quadra_Al,f
  2484  0441  3EFF               	addlw	-1
  2485  0442  1D03               	skipz
  2486  0443  2C3F               	goto	u3875
  2487  0444  1003               	clrc
  2488  0445  0D60               	rlf	??_Quadra_Al,w
  2489  0446  3EFC               	addlw	252
  2490  0447  3E90               	addlw	(low (Quadra_Al@x| (0+256)))& (0+255)
  2491  0448  0084               	movwf	4
  2492  0449  1783               	bsf	3,7	;select IRP bank3
  2493  044A  0800               	movf	0,w
  2494  044B  1683               	bsf	3,5	;RP0=1, select bank3
  2495  044C  1703               	bsf	3,6	;RP1=1, select bank3
  2496  044D  00AC               	movwf	Quadra_Al@max1^(0+384)
  2497  044E  0A84               	incf	4,f
  2498  044F  0800               	movf	0,w
  2499  0450  00AD               	movwf	(Quadra_Al@max1+1)^(0+384)
  2500  0451  0A84               	incf	4,f
  2501  0452  0800               	movf	0,w
  2502  0453  00AE               	movwf	(Quadra_Al@max1+2)^(0+384)
  2503  0454  0A84               	incf	4,f
  2504  0455  0800               	movf	0,w
  2505  0456  00AF               	movwf	(Quadra_Al@max1+3)^(0+384)
  2506                           
  2507                           ;newmain.c: 76:     max2 = x[xmax + 1];
  2508  0457  1683               	bsf	3,5	;RP0=1, select bank1
  2509  0458  1303               	bcf	3,6	;RP1=0, select bank1
  2510  0459  0866               	movf	Quadra_Al@xmax^(0+128),w
  2511  045A  1283               	bcf	3,5	;RP0=0, select bank0
  2512  045B  1303               	bcf	3,6	;RP1=0, select bank0
  2513  045C  00E0               	movwf	??_Quadra_Al
  2514  045D  3001               	movlw	1
  2515  045E                     u3885:
  2516  045E  1003               	clrc
  2517  045F  0DE0               	rlf	??_Quadra_Al,f
  2518  0460  3EFF               	addlw	-1
  2519  0461  1D03               	skipz
  2520  0462  2C5E               	goto	u3885
  2521  0463  1003               	clrc
  2522  0464  0D60               	rlf	??_Quadra_Al,w
  2523  0465  3E04               	addlw	4
  2524  0466  3E90               	addlw	(low (Quadra_Al@x| (0+256)))& (0+255)
  2525  0467  0084               	movwf	4
  2526  0468  0800               	movf	0,w
  2527  0469  00E4               	movwf	Quadra_Al@max2
  2528  046A  0A84               	incf	4,f
  2529  046B  0800               	movf	0,w
  2530  046C  00E5               	movwf	Quadra_Al@max2+1
  2531  046D  0A84               	incf	4,f
  2532  046E  0800               	movf	0,w
  2533  046F  00E6               	movwf	Quadra_Al@max2+2
  2534  0470  0A84               	incf	4,f
  2535  0471  0800               	movf	0,w
  2536  0472  00E7               	movwf	Quadra_Al@max2+3
  2537  0473                     l2556:
  2538                           
  2539                           ;newmain.c: 78:     a = (max1 + max2 - 2*max)*0.5;
  2540  0473  0867               	movf	Quadra_Al@max2+3,w
  2541  0474  00F3               	movwf	___fladd@b+3
  2542  0475  0866               	movf	Quadra_Al@max2+2,w
  2543  0476  00F2               	movwf	___fladd@b+2
  2544  0477  0865               	movf	Quadra_Al@max2+1,w
  2545  0478  00F1               	movwf	___fladd@b+1
  2546  0479  0864               	movf	Quadra_Al@max2,w
  2547  047A  00F0               	movwf	___fladd@b
  2548  047B  1683               	bsf	3,5	;RP0=1, select bank3
  2549  047C  1703               	bsf	3,6	;RP1=1, select bank3
  2550  047D  082F               	movf	(Quadra_Al@max1+3)^(0+384),w
  2551  047E  00F7               	movwf	___fladd@a+3
  2552  047F  082E               	movf	(Quadra_Al@max1+2)^(0+384),w
  2553  0480  00F6               	movwf	___fladd@a+2
  2554  0481  082D               	movf	(Quadra_Al@max1+1)^(0+384),w
  2555  0482  00F5               	movwf	___fladd@a+1
  2556  0483  082C               	movf	Quadra_Al@max1^(0+384),w
  2557  0484  00F4               	movwf	___fladd@a
  2558  0485  120A  158A  2568  120A  118A  	fcall	___fladd
  2559  048A  0873               	movf	?___fladd+3,w
  2560  048B  1683               	bsf	3,5	;RP0=1, select bank1
  2561  048C  1303               	bcf	3,6	;RP1=0, select bank1
  2562  048D  00D5               	movwf	(_Quadra_Al$924+3)^(0+128)
  2563  048E  0872               	movf	?___fladd+2,w
  2564  048F  00D4               	movwf	(_Quadra_Al$924+2)^(0+128)
  2565  0490  0871               	movf	?___fladd+1,w
  2566  0491  00D3               	movwf	(_Quadra_Al$924+1)^(0+128)
  2567  0492  0870               	movf	?___fladd,w
  2568  0493  00D2               	movwf	_Quadra_Al$924^(0+128)
  2569  0494                     l2558:
  2570                           
  2571                           ;newmain.c: 78:     a = (max1 + max2 - 2*max)*0.5;
  2572  0494  3040               	movlw	64
  2573  0495  1283               	bcf	3,5	;RP0=0, select bank0
  2574  0496  1303               	bcf	3,6	;RP1=0, select bank0
  2575  0497  00AB               	movwf	___flmul@b+3
  2576  0498  3000               	movlw	0
  2577  0499  00AA               	movwf	___flmul@b+2
  2578  049A  3000               	movlw	0
  2579  049B  00A9               	movwf	___flmul@b+1
  2580  049C  3000               	movlw	0
  2581  049D  00A8               	movwf	___flmul@b
  2582  049E  1683               	bsf	3,5	;RP0=1, select bank3
  2583  049F  1703               	bsf	3,6	;RP1=1, select bank3
  2584  04A0  083B               	movf	(Quadra_Al@max+3)^(0+384),w
  2585  04A1  1283               	bcf	3,5	;RP0=0, select bank0
  2586  04A2  1303               	bcf	3,6	;RP1=0, select bank0
  2587  04A3  00AF               	movwf	___flmul@a+3
  2588  04A4  1683               	bsf	3,5	;RP0=1, select bank3
  2589  04A5  1703               	bsf	3,6	;RP1=1, select bank3
  2590  04A6  083A               	movf	(Quadra_Al@max+2)^(0+384),w
  2591  04A7  1283               	bcf	3,5	;RP0=0, select bank0
  2592  04A8  1303               	bcf	3,6	;RP1=0, select bank0
  2593  04A9  00AE               	movwf	___flmul@a+2
  2594  04AA  1683               	bsf	3,5	;RP0=1, select bank3
  2595  04AB  1703               	bsf	3,6	;RP1=1, select bank3
  2596  04AC  0839               	movf	(Quadra_Al@max+1)^(0+384),w
  2597  04AD  1283               	bcf	3,5	;RP0=0, select bank0
  2598  04AE  1303               	bcf	3,6	;RP1=0, select bank0
  2599  04AF  00AD               	movwf	___flmul@a+1
  2600  04B0  1683               	bsf	3,5	;RP0=1, select bank3
  2601  04B1  1703               	bsf	3,6	;RP1=1, select bank3
  2602  04B2  0838               	movf	Quadra_Al@max^(0+384),w
  2603  04B3  1283               	bcf	3,5	;RP0=0, select bank0
  2604  04B4  1303               	bcf	3,6	;RP1=0, select bank0
  2605  04B5  00AC               	movwf	___flmul@a
  2606  04B6  120A  118A  2015  120A  118A  	fcall	___flmul
  2607  04BB  1283               	bcf	3,5	;RP0=0, select bank0
  2608  04BC  1303               	bcf	3,6	;RP1=0, select bank0
  2609  04BD  082B               	movf	?___flmul+3,w
  2610  04BE  00C5               	movwf	___flsub@a+3
  2611  04BF  082A               	movf	?___flmul+2,w
  2612  04C0  00C4               	movwf	___flsub@a+2
  2613  04C1  0829               	movf	?___flmul+1,w
  2614  04C2  00C3               	movwf	___flsub@a+1
  2615  04C3  0828               	movf	?___flmul,w
  2616  04C4  00C2               	movwf	___flsub@a
  2617  04C5  1683               	bsf	3,5	;RP0=1, select bank1
  2618  04C6  1303               	bcf	3,6	;RP1=0, select bank1
  2619  04C7  0855               	movf	(_Quadra_Al$924+3)^(0+128),w
  2620  04C8  1283               	bcf	3,5	;RP0=0, select bank0
  2621  04C9  1303               	bcf	3,6	;RP1=0, select bank0
  2622  04CA  00C9               	movwf	___flsub@b+3
  2623  04CB  1683               	bsf	3,5	;RP0=1, select bank1
  2624  04CC  1303               	bcf	3,6	;RP1=0, select bank1
  2625  04CD  0854               	movf	(_Quadra_Al$924+2)^(0+128),w
  2626  04CE  1283               	bcf	3,5	;RP0=0, select bank0
  2627  04CF  1303               	bcf	3,6	;RP1=0, select bank0
  2628  04D0  00C8               	movwf	___flsub@b+2
  2629  04D1  1683               	bsf	3,5	;RP0=1, select bank1
  2630  04D2  1303               	bcf	3,6	;RP1=0, select bank1
  2631  04D3  0853               	movf	(_Quadra_Al$924+1)^(0+128),w
  2632  04D4  1283               	bcf	3,5	;RP0=0, select bank0
  2633  04D5  1303               	bcf	3,6	;RP1=0, select bank0
  2634  04D6  00C7               	movwf	___flsub@b+1
  2635  04D7  1683               	bsf	3,5	;RP0=1, select bank1
  2636  04D8  1303               	bcf	3,6	;RP1=0, select bank1
  2637  04D9  0852               	movf	_Quadra_Al$924^(0+128),w
  2638  04DA  1283               	bcf	3,5	;RP0=0, select bank0
  2639  04DB  1303               	bcf	3,6	;RP1=0, select bank0
  2640  04DC  00C6               	movwf	___flsub@b
  2641  04DD  160A  118A  25F6  120A  118A  	fcall	___flsub
  2642  04E2  1283               	bcf	3,5	;RP0=0, select bank0
  2643  04E3  1303               	bcf	3,6	;RP1=0, select bank0
  2644  04E4  0845               	movf	?___flsub+3,w
  2645  04E5  1683               	bsf	3,5	;RP0=1, select bank1
  2646  04E6  1303               	bcf	3,6	;RP1=0, select bank1
  2647  04E7  00D9               	movwf	(_Quadra_Al$925+3)^(0+128)
  2648  04E8  1283               	bcf	3,5	;RP0=0, select bank0
  2649  04E9  1303               	bcf	3,6	;RP1=0, select bank0
  2650  04EA  0844               	movf	?___flsub+2,w
  2651  04EB  1683               	bsf	3,5	;RP0=1, select bank1
  2652  04EC  1303               	bcf	3,6	;RP1=0, select bank1
  2653  04ED  00D8               	movwf	(_Quadra_Al$925+2)^(0+128)
  2654  04EE  1283               	bcf	3,5	;RP0=0, select bank0
  2655  04EF  1303               	bcf	3,6	;RP1=0, select bank0
  2656  04F0  0843               	movf	?___flsub+1,w
  2657  04F1  1683               	bsf	3,5	;RP0=1, select bank1
  2658  04F2  1303               	bcf	3,6	;RP1=0, select bank1
  2659  04F3  00D7               	movwf	(_Quadra_Al$925+1)^(0+128)
  2660  04F4  1283               	bcf	3,5	;RP0=0, select bank0
  2661  04F5  1303               	bcf	3,6	;RP1=0, select bank0
  2662  04F6  0842               	movf	?___flsub,w
  2663  04F7  1683               	bsf	3,5	;RP0=1, select bank1
  2664  04F8  1303               	bcf	3,6	;RP1=0, select bank1
  2665  04F9  00D6               	movwf	_Quadra_Al$925^(0+128)
  2666  04FA                     l2560:
  2667                           
  2668                           ;newmain.c: 78:     a = (max1 + max2 - 2*max)*0.5;
  2669  04FA  303F               	movlw	63
  2670  04FB  1283               	bcf	3,5	;RP0=0, select bank0
  2671  04FC  1303               	bcf	3,6	;RP1=0, select bank0
  2672  04FD  00AB               	movwf	___flmul@b+3
  2673  04FE  3000               	movlw	0
  2674  04FF  00AA               	movwf	___flmul@b+2
  2675  0500  3000               	movlw	0
  2676  0501  00A9               	movwf	___flmul@b+1
  2677  0502  3000               	movlw	0
  2678  0503  00A8               	movwf	___flmul@b
  2679  0504  1683               	bsf	3,5	;RP0=1, select bank1
  2680  0505  1303               	bcf	3,6	;RP1=0, select bank1
  2681  0506  0859               	movf	(_Quadra_Al$925+3)^(0+128),w
  2682  0507  1283               	bcf	3,5	;RP0=0, select bank0
  2683  0508  1303               	bcf	3,6	;RP1=0, select bank0
  2684  0509  00AF               	movwf	___flmul@a+3
  2685  050A  1683               	bsf	3,5	;RP0=1, select bank1
  2686  050B  1303               	bcf	3,6	;RP1=0, select bank1
  2687  050C  0858               	movf	(_Quadra_Al$925+2)^(0+128),w
  2688  050D  1283               	bcf	3,5	;RP0=0, select bank0
  2689  050E  1303               	bcf	3,6	;RP1=0, select bank0
  2690  050F  00AE               	movwf	___flmul@a+2
  2691  0510  1683               	bsf	3,5	;RP0=1, select bank1
  2692  0511  1303               	bcf	3,6	;RP1=0, select bank1
  2693  0512  0857               	movf	(_Quadra_Al$925+1)^(0+128),w
  2694  0513  1283               	bcf	3,5	;RP0=0, select bank0
  2695  0514  1303               	bcf	3,6	;RP1=0, select bank0
  2696  0515  00AD               	movwf	___flmul@a+1
  2697  0516  1683               	bsf	3,5	;RP0=1, select bank1
  2698  0517  1303               	bcf	3,6	;RP1=0, select bank1
  2699  0518  0856               	movf	_Quadra_Al$925^(0+128),w
  2700  0519  1283               	bcf	3,5	;RP0=0, select bank0
  2701  051A  1303               	bcf	3,6	;RP1=0, select bank0
  2702  051B  00AC               	movwf	___flmul@a
  2703  051C  120A  118A  2015  120A  118A  	fcall	___flmul
  2704  0521  1283               	bcf	3,5	;RP0=0, select bank0
  2705  0522  1303               	bcf	3,6	;RP1=0, select bank0
  2706  0523  082B               	movf	?___flmul+3,w
  2707  0524  1683               	bsf	3,5	;RP0=1, select bank3
  2708  0525  1703               	bsf	3,6	;RP1=1, select bank3
  2709  0526  00B7               	movwf	(Quadra_Al@a+3)^(0+384)
  2710  0527  1283               	bcf	3,5	;RP0=0, select bank0
  2711  0528  1303               	bcf	3,6	;RP1=0, select bank0
  2712  0529  082A               	movf	?___flmul+2,w
  2713  052A  1683               	bsf	3,5	;RP0=1, select bank3
  2714  052B  1703               	bsf	3,6	;RP1=1, select bank3
  2715  052C  00B6               	movwf	(Quadra_Al@a+2)^(0+384)
  2716  052D  1283               	bcf	3,5	;RP0=0, select bank0
  2717  052E  1303               	bcf	3,6	;RP1=0, select bank0
  2718  052F  0829               	movf	?___flmul+1,w
  2719  0530  1683               	bsf	3,5	;RP0=1, select bank3
  2720  0531  1703               	bsf	3,6	;RP1=1, select bank3
  2721  0532  00B5               	movwf	(Quadra_Al@a+1)^(0+384)
  2722  0533  1283               	bcf	3,5	;RP0=0, select bank0
  2723  0534  1303               	bcf	3,6	;RP1=0, select bank0
  2724  0535  0828               	movf	?___flmul,w
  2725  0536  1683               	bsf	3,5	;RP0=1, select bank3
  2726  0537  1703               	bsf	3,6	;RP1=1, select bank3
  2727  0538  00B4               	movwf	Quadra_Al@a^(0+384)
  2728  0539                     l2562:
  2729                           
  2730                           ;newmain.c: 79:     b = max - max1 - 2*a*(xmax - 1) - a;
  2731  0539  3040               	movlw	64
  2732  053A  1283               	bcf	3,5	;RP0=0, select bank0
  2733  053B  1303               	bcf	3,6	;RP1=0, select bank0
  2734  053C  00AB               	movwf	___flmul@b+3
  2735  053D  3000               	movlw	0
  2736  053E  00AA               	movwf	___flmul@b+2
  2737  053F  3000               	movlw	0
  2738  0540  00A9               	movwf	___flmul@b+1
  2739  0541  3000               	movlw	0
  2740  0542  00A8               	movwf	___flmul@b
  2741  0543  1683               	bsf	3,5	;RP0=1, select bank3
  2742  0544  1703               	bsf	3,6	;RP1=1, select bank3
  2743  0545  0837               	movf	(Quadra_Al@a+3)^(0+384),w
  2744  0546  1283               	bcf	3,5	;RP0=0, select bank0
  2745  0547  1303               	bcf	3,6	;RP1=0, select bank0
  2746  0548  00AF               	movwf	___flmul@a+3
  2747  0549  1683               	bsf	3,5	;RP0=1, select bank3
  2748  054A  1703               	bsf	3,6	;RP1=1, select bank3
  2749  054B  0836               	movf	(Quadra_Al@a+2)^(0+384),w
  2750  054C  1283               	bcf	3,5	;RP0=0, select bank0
  2751  054D  1303               	bcf	3,6	;RP1=0, select bank0
  2752  054E  00AE               	movwf	___flmul@a+2
  2753  054F  1683               	bsf	3,5	;RP0=1, select bank3
  2754  0550  1703               	bsf	3,6	;RP1=1, select bank3
  2755  0551  0835               	movf	(Quadra_Al@a+1)^(0+384),w
  2756  0552  1283               	bcf	3,5	;RP0=0, select bank0
  2757  0553  1303               	bcf	3,6	;RP1=0, select bank0
  2758  0554  00AD               	movwf	___flmul@a+1
  2759  0555  1683               	bsf	3,5	;RP0=1, select bank3
  2760  0556  1703               	bsf	3,6	;RP1=1, select bank3
  2761  0557  0834               	movf	Quadra_Al@a^(0+384),w
  2762  0558  1283               	bcf	3,5	;RP0=0, select bank0
  2763  0559  1303               	bcf	3,6	;RP1=0, select bank0
  2764  055A  00AC               	movwf	___flmul@a
  2765  055B  120A  118A  2015  120A  118A  	fcall	___flmul
  2766  0560  1283               	bcf	3,5	;RP0=0, select bank0
  2767  0561  1303               	bcf	3,6	;RP1=0, select bank0
  2768  0562  082B               	movf	?___flmul+3,w
  2769  0563  1683               	bsf	3,5	;RP0=1, select bank1
  2770  0564  1303               	bcf	3,6	;RP1=0, select bank1
  2771  0565  00DD               	movwf	(_Quadra_Al$926+3)^(0+128)
  2772  0566  1283               	bcf	3,5	;RP0=0, select bank0
  2773  0567  1303               	bcf	3,6	;RP1=0, select bank0
  2774  0568  082A               	movf	?___flmul+2,w
  2775  0569  1683               	bsf	3,5	;RP0=1, select bank1
  2776  056A  1303               	bcf	3,6	;RP1=0, select bank1
  2777  056B  00DC               	movwf	(_Quadra_Al$926+2)^(0+128)
  2778  056C  1283               	bcf	3,5	;RP0=0, select bank0
  2779  056D  1303               	bcf	3,6	;RP1=0, select bank0
  2780  056E  0829               	movf	?___flmul+1,w
  2781  056F  1683               	bsf	3,5	;RP0=1, select bank1
  2782  0570  1303               	bcf	3,6	;RP1=0, select bank1
  2783  0571  00DB               	movwf	(_Quadra_Al$926+1)^(0+128)
  2784  0572  1283               	bcf	3,5	;RP0=0, select bank0
  2785  0573  1303               	bcf	3,6	;RP1=0, select bank0
  2786  0574  0828               	movf	?___flmul,w
  2787  0575  1683               	bsf	3,5	;RP0=1, select bank1
  2788  0576  1303               	bcf	3,6	;RP1=0, select bank1
  2789  0577  00DA               	movwf	_Quadra_Al$926^(0+128)
  2790  0578                     l2564:
  2791                           
  2792                           ;newmain.c: 79:     b = max - max1 - 2*a*(xmax - 1) - a;
  2793  0578  1683               	bsf	3,5	;RP0=1, select bank3
  2794  0579  1703               	bsf	3,6	;RP1=1, select bank3
  2795  057A  082F               	movf	(Quadra_Al@max1+3)^(0+384),w
  2796  057B  1283               	bcf	3,5	;RP0=0, select bank0
  2797  057C  1303               	bcf	3,6	;RP1=0, select bank0
  2798  057D  00C5               	movwf	___flsub@a+3
  2799  057E  1683               	bsf	3,5	;RP0=1, select bank3
  2800  057F  1703               	bsf	3,6	;RP1=1, select bank3
  2801  0580  082E               	movf	(Quadra_Al@max1+2)^(0+384),w
  2802  0581  1283               	bcf	3,5	;RP0=0, select bank0
  2803  0582  1303               	bcf	3,6	;RP1=0, select bank0
  2804  0583  00C4               	movwf	___flsub@a+2
  2805  0584  1683               	bsf	3,5	;RP0=1, select bank3
  2806  0585  1703               	bsf	3,6	;RP1=1, select bank3
  2807  0586  082D               	movf	(Quadra_Al@max1+1)^(0+384),w
  2808  0587  1283               	bcf	3,5	;RP0=0, select bank0
  2809  0588  1303               	bcf	3,6	;RP1=0, select bank0
  2810  0589  00C3               	movwf	___flsub@a+1
  2811  058A  1683               	bsf	3,5	;RP0=1, select bank3
  2812  058B  1703               	bsf	3,6	;RP1=1, select bank3
  2813  058C  082C               	movf	Quadra_Al@max1^(0+384),w
  2814  058D  1283               	bcf	3,5	;RP0=0, select bank0
  2815  058E  1303               	bcf	3,6	;RP1=0, select bank0
  2816  058F  00C2               	movwf	___flsub@a
  2817  0590  1683               	bsf	3,5	;RP0=1, select bank3
  2818  0591  1703               	bsf	3,6	;RP1=1, select bank3
  2819  0592  083B               	movf	(Quadra_Al@max+3)^(0+384),w
  2820  0593  1283               	bcf	3,5	;RP0=0, select bank0
  2821  0594  1303               	bcf	3,6	;RP1=0, select bank0
  2822  0595  00C9               	movwf	___flsub@b+3
  2823  0596  1683               	bsf	3,5	;RP0=1, select bank3
  2824  0597  1703               	bsf	3,6	;RP1=1, select bank3
  2825  0598  083A               	movf	(Quadra_Al@max+2)^(0+384),w
  2826  0599  1283               	bcf	3,5	;RP0=0, select bank0
  2827  059A  1303               	bcf	3,6	;RP1=0, select bank0
  2828  059B  00C8               	movwf	___flsub@b+2
  2829  059C  1683               	bsf	3,5	;RP0=1, select bank3
  2830  059D  1703               	bsf	3,6	;RP1=1, select bank3
  2831  059E  0839               	movf	(Quadra_Al@max+1)^(0+384),w
  2832  059F  1283               	bcf	3,5	;RP0=0, select bank0
  2833  05A0  1303               	bcf	3,6	;RP1=0, select bank0
  2834  05A1  00C7               	movwf	___flsub@b+1
  2835  05A2  1683               	bsf	3,5	;RP0=1, select bank3
  2836  05A3  1703               	bsf	3,6	;RP1=1, select bank3
  2837  05A4  0838               	movf	Quadra_Al@max^(0+384),w
  2838  05A5  1283               	bcf	3,5	;RP0=0, select bank0
  2839  05A6  1303               	bcf	3,6	;RP1=0, select bank0
  2840  05A7  00C6               	movwf	___flsub@b
  2841  05A8  160A  118A  25F6  120A  118A  	fcall	___flsub
  2842  05AD  1283               	bcf	3,5	;RP0=0, select bank0
  2843  05AE  1303               	bcf	3,6	;RP1=0, select bank0
  2844  05AF  0845               	movf	?___flsub+3,w
  2845  05B0  1683               	bsf	3,5	;RP0=1, select bank1
  2846  05B1  1303               	bcf	3,6	;RP1=0, select bank1
  2847  05B2  00E1               	movwf	(_Quadra_Al$927+3)^(0+128)
  2848  05B3  1283               	bcf	3,5	;RP0=0, select bank0
  2849  05B4  1303               	bcf	3,6	;RP1=0, select bank0
  2850  05B5  0844               	movf	?___flsub+2,w
  2851  05B6  1683               	bsf	3,5	;RP0=1, select bank1
  2852  05B7  1303               	bcf	3,6	;RP1=0, select bank1
  2853  05B8  00E0               	movwf	(_Quadra_Al$927+2)^(0+128)
  2854  05B9  1283               	bcf	3,5	;RP0=0, select bank0
  2855  05BA  1303               	bcf	3,6	;RP1=0, select bank0
  2856  05BB  0843               	movf	?___flsub+1,w
  2857  05BC  1683               	bsf	3,5	;RP0=1, select bank1
  2858  05BD  1303               	bcf	3,6	;RP1=0, select bank1
  2859  05BE  00DF               	movwf	(_Quadra_Al$927+1)^(0+128)
  2860  05BF  1283               	bcf	3,5	;RP0=0, select bank0
  2861  05C0  1303               	bcf	3,6	;RP1=0, select bank0
  2862  05C1  0842               	movf	?___flsub,w
  2863  05C2  1683               	bsf	3,5	;RP0=1, select bank1
  2864  05C3  1303               	bcf	3,6	;RP1=0, select bank1
  2865  05C4  00DE               	movwf	_Quadra_Al$927^(0+128)
  2866  05C5                     l2566:
  2867                           
  2868                           ;newmain.c: 79:     b = max - max1 - 2*a*(xmax - 1) - a;
  2869  05C5  0866               	movf	Quadra_Al@xmax^(0+128),w
  2870  05C6  3EFF               	addlw	255
  2871  05C7  00F0               	movwf	___xxtofl@val
  2872  05C8  0867               	movf	(Quadra_Al@xmax+1)^(0+128),w
  2873  05C9  1803               	skipnc
  2874  05CA  3E01               	addlw	1
  2875  05CB  3EFF               	addlw	255
  2876  05CC  00F1               	movwf	___xxtofl@val+1
  2877  05CD  01F2               	clrf	___xxtofl@val+2
  2878  05CE  1BF1               	btfsc	___xxtofl@val+1,7
  2879  05CF  03F2               	decf	___xxtofl@val+2,f
  2880  05D0  0872               	movf	___xxtofl@val+2,w
  2881  05D1  00F3               	movwf	___xxtofl@val+3
  2882  05D2  3001               	movlw	1
  2883  05D3  120A  158A  210F  120A  118A  	fcall	___xxtofl
  2884  05D8  0873               	movf	?___xxtofl+3,w
  2885  05D9  1283               	bcf	3,5	;RP0=0, select bank0
  2886  05DA  1303               	bcf	3,6	;RP1=0, select bank0
  2887  05DB  00AB               	movwf	___flmul@b+3
  2888  05DC  0872               	movf	?___xxtofl+2,w
  2889  05DD  00AA               	movwf	___flmul@b+2
  2890  05DE  0871               	movf	?___xxtofl+1,w
  2891  05DF  00A9               	movwf	___flmul@b+1
  2892  05E0  0870               	movf	?___xxtofl,w
  2893  05E1  00A8               	movwf	___flmul@b
  2894  05E2  1683               	bsf	3,5	;RP0=1, select bank1
  2895  05E3  1303               	bcf	3,6	;RP1=0, select bank1
  2896  05E4  085D               	movf	(_Quadra_Al$926+3)^(0+128),w
  2897  05E5  1283               	bcf	3,5	;RP0=0, select bank0
  2898  05E6  1303               	bcf	3,6	;RP1=0, select bank0
  2899  05E7  00AF               	movwf	___flmul@a+3
  2900  05E8  1683               	bsf	3,5	;RP0=1, select bank1
  2901  05E9  1303               	bcf	3,6	;RP1=0, select bank1
  2902  05EA  085C               	movf	(_Quadra_Al$926+2)^(0+128),w
  2903  05EB  1283               	bcf	3,5	;RP0=0, select bank0
  2904  05EC  1303               	bcf	3,6	;RP1=0, select bank0
  2905  05ED  00AE               	movwf	___flmul@a+2
  2906  05EE  1683               	bsf	3,5	;RP0=1, select bank1
  2907  05EF  1303               	bcf	3,6	;RP1=0, select bank1
  2908  05F0  085B               	movf	(_Quadra_Al$926+1)^(0+128),w
  2909  05F1  1283               	bcf	3,5	;RP0=0, select bank0
  2910  05F2  1303               	bcf	3,6	;RP1=0, select bank0
  2911  05F3  00AD               	movwf	___flmul@a+1
  2912  05F4  1683               	bsf	3,5	;RP0=1, select bank1
  2913  05F5  1303               	bcf	3,6	;RP1=0, select bank1
  2914  05F6  085A               	movf	_Quadra_Al$926^(0+128),w
  2915  05F7  1283               	bcf	3,5	;RP0=0, select bank0
  2916  05F8  1303               	bcf	3,6	;RP1=0, select bank0
  2917  05F9  00AC               	movwf	___flmul@a
  2918  05FA  120A  118A  2015  120A  118A  	fcall	___flmul
  2919  05FF  1283               	bcf	3,5	;RP0=0, select bank0
  2920  0600  1303               	bcf	3,6	;RP1=0, select bank0
  2921  0601  082B               	movf	?___flmul+3,w
  2922  0602  00C5               	movwf	___flsub@a+3
  2923  0603  082A               	movf	?___flmul+2,w
  2924  0604  00C4               	movwf	___flsub@a+2
  2925  0605  0829               	movf	?___flmul+1,w
  2926  0606  00C3               	movwf	___flsub@a+1
  2927  0607  0828               	movf	?___flmul,w
  2928  0608  00C2               	movwf	___flsub@a
  2929  0609  1683               	bsf	3,5	;RP0=1, select bank1
  2930  060A  1303               	bcf	3,6	;RP1=0, select bank1
  2931  060B  0861               	movf	(_Quadra_Al$927+3)^(0+128),w
  2932  060C  1283               	bcf	3,5	;RP0=0, select bank0
  2933  060D  1303               	bcf	3,6	;RP1=0, select bank0
  2934  060E  00C9               	movwf	___flsub@b+3
  2935  060F  1683               	bsf	3,5	;RP0=1, select bank1
  2936  0610  1303               	bcf	3,6	;RP1=0, select bank1
  2937  0611  0860               	movf	(_Quadra_Al$927+2)^(0+128),w
  2938  0612  1283               	bcf	3,5	;RP0=0, select bank0
  2939  0613  1303               	bcf	3,6	;RP1=0, select bank0
  2940  0614  00C8               	movwf	___flsub@b+2
  2941  0615  1683               	bsf	3,5	;RP0=1, select bank1
  2942  0616  1303               	bcf	3,6	;RP1=0, select bank1
  2943  0617  085F               	movf	(_Quadra_Al$927+1)^(0+128),w
  2944  0618  1283               	bcf	3,5	;RP0=0, select bank0
  2945  0619  1303               	bcf	3,6	;RP1=0, select bank0
  2946  061A  00C7               	movwf	___flsub@b+1
  2947  061B  1683               	bsf	3,5	;RP0=1, select bank1
  2948  061C  1303               	bcf	3,6	;RP1=0, select bank1
  2949  061D  085E               	movf	_Quadra_Al$927^(0+128),w
  2950  061E  1283               	bcf	3,5	;RP0=0, select bank0
  2951  061F  1303               	bcf	3,6	;RP1=0, select bank0
  2952  0620  00C6               	movwf	___flsub@b
  2953  0621  160A  118A  25F6  120A  118A  	fcall	___flsub
  2954  0626  1283               	bcf	3,5	;RP0=0, select bank0
  2955  0627  1303               	bcf	3,6	;RP1=0, select bank0
  2956  0628  0845               	movf	?___flsub+3,w
  2957  0629  1683               	bsf	3,5	;RP0=1, select bank1
  2958  062A  1303               	bcf	3,6	;RP1=0, select bank1
  2959  062B  00E5               	movwf	(_Quadra_Al$928+3)^(0+128)
  2960  062C  1283               	bcf	3,5	;RP0=0, select bank0
  2961  062D  1303               	bcf	3,6	;RP1=0, select bank0
  2962  062E  0844               	movf	?___flsub+2,w
  2963  062F  1683               	bsf	3,5	;RP0=1, select bank1
  2964  0630  1303               	bcf	3,6	;RP1=0, select bank1
  2965  0631  00E4               	movwf	(_Quadra_Al$928+2)^(0+128)
  2966  0632  1283               	bcf	3,5	;RP0=0, select bank0
  2967  0633  1303               	bcf	3,6	;RP1=0, select bank0
  2968  0634  0843               	movf	?___flsub+1,w
  2969  0635  1683               	bsf	3,5	;RP0=1, select bank1
  2970  0636  1303               	bcf	3,6	;RP1=0, select bank1
  2971  0637  00E3               	movwf	(_Quadra_Al$928+1)^(0+128)
  2972  0638  1283               	bcf	3,5	;RP0=0, select bank0
  2973  0639  1303               	bcf	3,6	;RP1=0, select bank0
  2974  063A  0842               	movf	?___flsub,w
  2975  063B  1683               	bsf	3,5	;RP0=1, select bank1
  2976  063C  1303               	bcf	3,6	;RP1=0, select bank1
  2977  063D  00E2               	movwf	_Quadra_Al$928^(0+128)
  2978  063E                     l2568:
  2979                           
  2980                           ;newmain.c: 79:     b = max - max1 - 2*a*(xmax - 1) - a;
  2981  063E  1683               	bsf	3,5	;RP0=1, select bank3
  2982  063F  1703               	bsf	3,6	;RP1=1, select bank3
  2983  0640  0837               	movf	(Quadra_Al@a+3)^(0+384),w
  2984  0641  1283               	bcf	3,5	;RP0=0, select bank0
  2985  0642  1303               	bcf	3,6	;RP1=0, select bank0
  2986  0643  00C5               	movwf	___flsub@a+3
  2987  0644  1683               	bsf	3,5	;RP0=1, select bank3
  2988  0645  1703               	bsf	3,6	;RP1=1, select bank3
  2989  0646  0836               	movf	(Quadra_Al@a+2)^(0+384),w
  2990  0647  1283               	bcf	3,5	;RP0=0, select bank0
  2991  0648  1303               	bcf	3,6	;RP1=0, select bank0
  2992  0649  00C4               	movwf	___flsub@a+2
  2993  064A  1683               	bsf	3,5	;RP0=1, select bank3
  2994  064B  1703               	bsf	3,6	;RP1=1, select bank3
  2995  064C  0835               	movf	(Quadra_Al@a+1)^(0+384),w
  2996  064D  1283               	bcf	3,5	;RP0=0, select bank0
  2997  064E  1303               	bcf	3,6	;RP1=0, select bank0
  2998  064F  00C3               	movwf	___flsub@a+1
  2999  0650  1683               	bsf	3,5	;RP0=1, select bank3
  3000  0651  1703               	bsf	3,6	;RP1=1, select bank3
  3001  0652  0834               	movf	Quadra_Al@a^(0+384),w
  3002  0653  1283               	bcf	3,5	;RP0=0, select bank0
  3003  0654  1303               	bcf	3,6	;RP1=0, select bank0
  3004  0655  00C2               	movwf	___flsub@a
  3005  0656  1683               	bsf	3,5	;RP0=1, select bank1
  3006  0657  1303               	bcf	3,6	;RP1=0, select bank1
  3007  0658  0865               	movf	(_Quadra_Al$928+3)^(0+128),w
  3008  0659  1283               	bcf	3,5	;RP0=0, select bank0
  3009  065A  1303               	bcf	3,6	;RP1=0, select bank0
  3010  065B  00C9               	movwf	___flsub@b+3
  3011  065C  1683               	bsf	3,5	;RP0=1, select bank1
  3012  065D  1303               	bcf	3,6	;RP1=0, select bank1
  3013  065E  0864               	movf	(_Quadra_Al$928+2)^(0+128),w
  3014  065F  1283               	bcf	3,5	;RP0=0, select bank0
  3015  0660  1303               	bcf	3,6	;RP1=0, select bank0
  3016  0661  00C8               	movwf	___flsub@b+2
  3017  0662  1683               	bsf	3,5	;RP0=1, select bank1
  3018  0663  1303               	bcf	3,6	;RP1=0, select bank1
  3019  0664  0863               	movf	(_Quadra_Al$928+1)^(0+128),w
  3020  0665  1283               	bcf	3,5	;RP0=0, select bank0
  3021  0666  1303               	bcf	3,6	;RP1=0, select bank0
  3022  0667  00C7               	movwf	___flsub@b+1
  3023  0668  1683               	bsf	3,5	;RP0=1, select bank1
  3024  0669  1303               	bcf	3,6	;RP1=0, select bank1
  3025  066A  0862               	movf	_Quadra_Al$928^(0+128),w
  3026  066B  1283               	bcf	3,5	;RP0=0, select bank0
  3027  066C  1303               	bcf	3,6	;RP1=0, select bank0
  3028  066D  00C6               	movwf	___flsub@b
  3029  066E  160A  118A  25F6  120A  118A  	fcall	___flsub
  3030  0673  1283               	bcf	3,5	;RP0=0, select bank0
  3031  0674  1303               	bcf	3,6	;RP1=0, select bank0
  3032  0675  0845               	movf	?___flsub+3,w
  3033  0676  00EB               	movwf	Quadra_Al@b+3
  3034  0677  0844               	movf	?___flsub+2,w
  3035  0678  00EA               	movwf	Quadra_Al@b+2
  3036  0679  0843               	movf	?___flsub+1,w
  3037  067A  00E9               	movwf	Quadra_Al@b+1
  3038  067B  0842               	movf	?___flsub,w
  3039  067C  00E8               	movwf	Quadra_Al@b
  3040  067D                     l2570:
  3041                           
  3042                           ;newmain.c: 80:     d = -b/(2*a);
  3043  067D  1683               	bsf	3,5	;RP0=1, select bank3
  3044  067E  1703               	bsf	3,6	;RP1=1, select bank3
  3045  067F  0837               	movf	(Quadra_Al@a+3)^(0+384),w
  3046  0680  1283               	bcf	3,5	;RP0=0, select bank0
  3047  0681  1303               	bcf	3,6	;RP1=0, select bank0
  3048  0682  00AF               	movwf	___flmul@a+3
  3049  0683  1683               	bsf	3,5	;RP0=1, select bank3
  3050  0684  1703               	bsf	3,6	;RP1=1, select bank3
  3051  0685  0836               	movf	(Quadra_Al@a+2)^(0+384),w
  3052  0686  1283               	bcf	3,5	;RP0=0, select bank0
  3053  0687  1303               	bcf	3,6	;RP1=0, select bank0
  3054  0688  00AE               	movwf	___flmul@a+2
  3055  0689  1683               	bsf	3,5	;RP0=1, select bank3
  3056  068A  1703               	bsf	3,6	;RP1=1, select bank3
  3057  068B  0835               	movf	(Quadra_Al@a+1)^(0+384),w
  3058  068C  1283               	bcf	3,5	;RP0=0, select bank0
  3059  068D  1303               	bcf	3,6	;RP1=0, select bank0
  3060  068E  00AD               	movwf	___flmul@a+1
  3061  068F  1683               	bsf	3,5	;RP0=1, select bank3
  3062  0690  1703               	bsf	3,6	;RP1=1, select bank3
  3063  0691  0834               	movf	Quadra_Al@a^(0+384),w
  3064  0692  1283               	bcf	3,5	;RP0=0, select bank0
  3065  0693  1303               	bcf	3,6	;RP1=0, select bank0
  3066  0694  00AC               	movwf	___flmul@a
  3067  0695  3040               	movlw	64
  3068  0696  00AB               	movwf	___flmul@b+3
  3069  0697  3000               	movlw	0
  3070  0698  00AA               	movwf	___flmul@b+2
  3071  0699  3000               	movlw	0
  3072  069A  00A9               	movwf	___flmul@b+1
  3073  069B  3000               	movlw	0
  3074  069C  00A8               	movwf	___flmul@b
  3075  069D  120A  118A  2015  120A  118A  	fcall	___flmul
  3076  06A2  1283               	bcf	3,5	;RP0=0, select bank0
  3077  06A3  1303               	bcf	3,6	;RP1=0, select bank0
  3078  06A4  082B               	movf	?___flmul+3,w
  3079  06A5  00C5               	movwf	___fldiv@a+3
  3080  06A6  082A               	movf	?___flmul+2,w
  3081  06A7  00C4               	movwf	___fldiv@a+2
  3082  06A8  0829               	movf	?___flmul+1,w
  3083  06A9  00C3               	movwf	___fldiv@a+1
  3084  06AA  0828               	movf	?___flmul,w
  3085  06AB  00C2               	movwf	___fldiv@a
  3086  06AC  086B               	movf	Quadra_Al@b+3,w
  3087  06AD  00F3               	movwf	___flneg@f1+3
  3088  06AE  086A               	movf	Quadra_Al@b+2,w
  3089  06AF  00F2               	movwf	___flneg@f1+2
  3090  06B0  0869               	movf	Quadra_Al@b+1,w
  3091  06B1  00F1               	movwf	___flneg@f1+1
  3092  06B2  0868               	movf	Quadra_Al@b,w
  3093  06B3  00F0               	movwf	___flneg@f1
  3094  06B4  160A  118A  2579  120A  118A  	fcall	___flneg
  3095  06B9  0873               	movf	?___flneg+3,w
  3096  06BA  1283               	bcf	3,5	;RP0=0, select bank0
  3097  06BB  1303               	bcf	3,6	;RP1=0, select bank0
  3098  06BC  00C9               	movwf	___fldiv@b+3
  3099  06BD  0872               	movf	?___flneg+2,w
  3100  06BE  00C8               	movwf	___fldiv@b+2
  3101  06BF  0871               	movf	?___flneg+1,w
  3102  06C0  00C7               	movwf	___fldiv@b+1
  3103  06C1  0870               	movf	?___flneg,w
  3104  06C2  00C6               	movwf	___fldiv@b
  3105  06C3  120A  158A  238B  120A  118A  	fcall	___fldiv
  3106  06C8  1283               	bcf	3,5	;RP0=0, select bank0
  3107  06C9  1303               	bcf	3,6	;RP1=0, select bank0
  3108  06CA  0845               	movf	?___fldiv+3,w
  3109  06CB  00EF               	movwf	Quadra_Al@d+3
  3110  06CC  0844               	movf	?___fldiv+2,w
  3111  06CD  00EE               	movwf	Quadra_Al@d+2
  3112  06CE  0843               	movf	?___fldiv+1,w
  3113  06CF  00ED               	movwf	Quadra_Al@d+1
  3114  06D0  0842               	movf	?___fldiv,w
  3115  06D1  00EC               	movwf	Quadra_Al@d
  3116  06D2                     l2572:
  3117                           
  3118                           ;newmain.c: 81:     out = 17*(d - 3);
  3119  06D2  3041               	movlw	65
  3120  06D3  00AB               	movwf	___flmul@b+3
  3121  06D4  3088               	movlw	136
  3122  06D5  00AA               	movwf	___flmul@b+2
  3123  06D6  3000               	movlw	0
  3124  06D7  00A9               	movwf	___flmul@b+1
  3125  06D8  3000               	movlw	0
  3126  06D9  00A8               	movwf	___flmul@b
  3127  06DA  30C0               	movlw	192
  3128  06DB  00F3               	movwf	___fladd@b+3
  3129  06DC  3040               	movlw	64
  3130  06DD  00F2               	movwf	___fladd@b+2
  3131  06DE  3000               	movlw	0
  3132  06DF  00F1               	movwf	___fladd@b+1
  3133  06E0  3000               	movlw	0
  3134  06E1  00F0               	movwf	___fladd@b
  3135  06E2  086F               	movf	Quadra_Al@d+3,w
  3136  06E3  00F7               	movwf	___fladd@a+3
  3137  06E4  086E               	movf	Quadra_Al@d+2,w
  3138  06E5  00F6               	movwf	___fladd@a+2
  3139  06E6  086D               	movf	Quadra_Al@d+1,w
  3140  06E7  00F5               	movwf	___fladd@a+1
  3141  06E8  086C               	movf	Quadra_Al@d,w
  3142  06E9  00F4               	movwf	___fladd@a
  3143  06EA  120A  158A  2568  120A  118A  	fcall	___fladd
  3144  06EF  0873               	movf	?___fladd+3,w
  3145  06F0  1283               	bcf	3,5	;RP0=0, select bank0
  3146  06F1  1303               	bcf	3,6	;RP1=0, select bank0
  3147  06F2  00AF               	movwf	___flmul@a+3
  3148  06F3  0872               	movf	?___fladd+2,w
  3149  06F4  00AE               	movwf	___flmul@a+2
  3150  06F5  0871               	movf	?___fladd+1,w
  3151  06F6  00AD               	movwf	___flmul@a+1
  3152  06F7  0870               	movf	?___fladd,w
  3153  06F8  00AC               	movwf	___flmul@a
  3154  06F9  120A  118A  2015  120A  118A  	fcall	___flmul
  3155  06FE  1283               	bcf	3,5	;RP0=0, select bank0
  3156  06FF  1303               	bcf	3,6	;RP1=0, select bank0
  3157  0700  082B               	movf	?___flmul+3,w
  3158  0701  1683               	bsf	3,5	;RP0=1, select bank3
  3159  0702  1703               	bsf	3,6	;RP1=1, select bank3
  3160  0703  00B3               	movwf	(Quadra_Al@out+3)^(0+384)
  3161  0704  1283               	bcf	3,5	;RP0=0, select bank0
  3162  0705  1303               	bcf	3,6	;RP1=0, select bank0
  3163  0706  082A               	movf	?___flmul+2,w
  3164  0707  1683               	bsf	3,5	;RP0=1, select bank3
  3165  0708  1703               	bsf	3,6	;RP1=1, select bank3
  3166  0709  00B2               	movwf	(Quadra_Al@out+2)^(0+384)
  3167  070A  1283               	bcf	3,5	;RP0=0, select bank0
  3168  070B  1303               	bcf	3,6	;RP1=0, select bank0
  3169  070C  0829               	movf	?___flmul+1,w
  3170  070D  1683               	bsf	3,5	;RP0=1, select bank3
  3171  070E  1703               	bsf	3,6	;RP1=1, select bank3
  3172  070F  00B1               	movwf	(Quadra_Al@out+1)^(0+384)
  3173  0710  1283               	bcf	3,5	;RP0=0, select bank0
  3174  0711  1303               	bcf	3,6	;RP1=0, select bank0
  3175  0712  0828               	movf	?___flmul,w
  3176  0713  1683               	bsf	3,5	;RP0=1, select bank3
  3177  0714  1703               	bsf	3,6	;RP1=1, select bank3
  3178  0715  00B0               	movwf	Quadra_Al@out^(0+384)
  3179  0716                     l2574:
  3180                           
  3181                           ;newmain.c: 83:     sprintf(uart_logs, "%d %d %d %d %d %d %d\n\r", x[0], x[1], x[2], x[3
      +                          ], x[4], x[5], x[6]);
  3182  0716  300B               	movlw	(low ((STR_2-__stringbase)| (0+32768)))& (0+255)
  3183  0717  1283               	bcf	3,5	;RP0=0, select bank0
  3184  0718  1303               	bcf	3,6	;RP1=0, select bank0
  3185  0719  00E0               	movwf	??_Quadra_Al
  3186  071A  0860               	movf	??_Quadra_Al,w
  3187  071B  00A0               	movwf	sprintf@f
  3188  071C  1683               	bsf	3,5	;RP0=1, select bank3
  3189  071D  1703               	bsf	3,6	;RP1=1, select bank3
  3190  071E  0813               	movf	(Quadra_Al@x+3)^(0+384),w
  3191  071F  1283               	bcf	3,5	;RP0=0, select bank0
  3192  0720  1303               	bcf	3,6	;RP1=0, select bank0
  3193  0721  00A4               	movwf	?_sprintf+4
  3194  0722  1683               	bsf	3,5	;RP0=1, select bank3
  3195  0723  1703               	bsf	3,6	;RP1=1, select bank3
  3196  0724  0812               	movf	(Quadra_Al@x+2)^(0+384),w
  3197  0725  1283               	bcf	3,5	;RP0=0, select bank0
  3198  0726  1303               	bcf	3,6	;RP1=0, select bank0
  3199  0727  00A3               	movwf	?_sprintf+3
  3200  0728  1683               	bsf	3,5	;RP0=1, select bank3
  3201  0729  1703               	bsf	3,6	;RP1=1, select bank3
  3202  072A  0811               	movf	(Quadra_Al@x+1)^(0+384),w
  3203  072B  1283               	bcf	3,5	;RP0=0, select bank0
  3204  072C  1303               	bcf	3,6	;RP1=0, select bank0
  3205  072D  00A2               	movwf	?_sprintf+2
  3206  072E  1683               	bsf	3,5	;RP0=1, select bank3
  3207  072F  1703               	bsf	3,6	;RP1=1, select bank3
  3208  0730  0810               	movf	Quadra_Al@x^(0+384),w
  3209  0731  1283               	bcf	3,5	;RP0=0, select bank0
  3210  0732  1303               	bcf	3,6	;RP1=0, select bank0
  3211  0733  00A1               	movwf	?_sprintf+1
  3212  0734  3004               	movlw	4
  3213  0735  3E90               	addlw	(low (Quadra_Al@x| (0+256)))& (0+255)
  3214  0736  0084               	movwf	4
  3215  0737  1783               	bsf	3,7	;select IRP bank3
  3216  0738  0800               	movf	0,w
  3217  0739  00A5               	movwf	?_sprintf+5
  3218  073A  0A84               	incf	4,f
  3219  073B  0800               	movf	0,w
  3220  073C  00A6               	movwf	?_sprintf+6
  3221  073D  0A84               	incf	4,f
  3222  073E  0800               	movf	0,w
  3223  073F  00A7               	movwf	?_sprintf+7
  3224  0740  0A84               	incf	4,f
  3225  0741  0800               	movf	0,w
  3226  0742  00A8               	movwf	?_sprintf+8
  3227  0743  3008               	movlw	8
  3228  0744  3E90               	addlw	(low (Quadra_Al@x| (0+256)))& (0+255)
  3229  0745  0084               	movwf	4
  3230  0746  0800               	movf	0,w
  3231  0747  00A9               	movwf	?_sprintf+9
  3232  0748  0A84               	incf	4,f
  3233  0749  0800               	movf	0,w
  3234  074A  00AA               	movwf	?_sprintf+10
  3235  074B  0A84               	incf	4,f
  3236  074C  0800               	movf	0,w
  3237  074D  00AB               	movwf	?_sprintf+11
  3238  074E  0A84               	incf	4,f
  3239  074F  0800               	movf	0,w
  3240  0750  00AC               	movwf	?_sprintf+12
  3241  0751  300C               	movlw	12
  3242  0752  3E90               	addlw	(low (Quadra_Al@x| (0+256)))& (0+255)
  3243  0753  0084               	movwf	4
  3244  0754  0800               	movf	0,w
  3245  0755  00AD               	movwf	?_sprintf+13
  3246  0756  0A84               	incf	4,f
  3247  0757  0800               	movf	0,w
  3248  0758  00AE               	movwf	?_sprintf+14
  3249  0759  0A84               	incf	4,f
  3250  075A  0800               	movf	0,w
  3251  075B  00AF               	movwf	?_sprintf+15
  3252  075C  0A84               	incf	4,f
  3253  075D  0800               	movf	0,w
  3254  075E  00B0               	movwf	?_sprintf+16
  3255  075F  3010               	movlw	16
  3256  0760  3E90               	addlw	(low (Quadra_Al@x| (0+256)))& (0+255)
  3257  0761  0084               	movwf	4
  3258  0762  0800               	movf	0,w
  3259  0763  00B1               	movwf	?_sprintf+17
  3260  0764  0A84               	incf	4,f
  3261  0765  0800               	movf	0,w
  3262  0766  00B2               	movwf	?_sprintf+18
  3263  0767  0A84               	incf	4,f
  3264  0768  0800               	movf	0,w
  3265  0769  00B3               	movwf	?_sprintf+19
  3266  076A  0A84               	incf	4,f
  3267  076B  0800               	movf	0,w
  3268  076C  00B4               	movwf	?_sprintf+20
  3269  076D  3014               	movlw	20
  3270  076E  3E90               	addlw	(low (Quadra_Al@x| (0+256)))& (0+255)
  3271  076F  0084               	movwf	4
  3272  0770  0800               	movf	0,w
  3273  0771  00B5               	movwf	?_sprintf+21
  3274  0772  0A84               	incf	4,f
  3275  0773  0800               	movf	0,w
  3276  0774  00B6               	movwf	?_sprintf+22
  3277  0775  0A84               	incf	4,f
  3278  0776  0800               	movf	0,w
  3279  0777  00B7               	movwf	?_sprintf+23
  3280  0778  0A84               	incf	4,f
  3281  0779  0800               	movf	0,w
  3282  077A  00B8               	movwf	?_sprintf+24
  3283  077B  3018               	movlw	24
  3284  077C  3E90               	addlw	(low (Quadra_Al@x| (0+256)))& (0+255)
  3285  077D  0084               	movwf	4
  3286  077E  0800               	movf	0,w
  3287  077F  00B9               	movwf	?_sprintf+25
  3288  0780  0A84               	incf	4,f
  3289  0781  0800               	movf	0,w
  3290  0782  00BA               	movwf	?_sprintf+26
  3291  0783  0A84               	incf	4,f
  3292  0784  0800               	movf	0,w
  3293  0785  00BB               	movwf	?_sprintf+27
  3294  0786  0A84               	incf	4,f
  3295  0787  0800               	movf	0,w
  3296  0788  00BC               	movwf	?_sprintf+28
  3297  0789  30A0               	movlw	(low (Quadra_Al@uart_logs| 0))& (0+255)
  3298  078A  120A  158A  22A3  120A  118A  	fcall	_sprintf
  3299  078F                     l2576:
  3300                           
  3301                           ;newmain.c: 84:     UART_Write_Text(uart_logs);
  3302  078F  30A0               	movlw	(low (Quadra_Al@uart_logs| 0))& (0+255)
  3303  0790  160A  118A  25D5  120A  118A  	fcall	_UART_Write_Text
  3304  0795                     l2578:
  3305                           
  3306                           ;newmain.c: 85:     _delay((unsigned long)((90)*(8000000/4000.0)));
  3307  0795  30EA               	movlw	234
  3308  0796  1283               	bcf	3,5	;RP0=0, select bank0
  3309  0797  1303               	bcf	3,6	;RP1=0, select bank0
  3310  0798  00E1               	movwf	??_Quadra_Al+1
  3311  0799  30C2               	movlw	194
  3312  079A  00E0               	movwf	??_Quadra_Al
  3313  079B                     u4067:
  3314  079B  0BE0               	decfsz	??_Quadra_Al,f
  3315  079C  2F9B               	goto	u4067
  3316  079D  0BE1               	decfsz	??_Quadra_Al+1,f
  3317  079E  2F9B               	goto	u4067
  3318  079F  0000               	nop
  3319  07A0                     l2580:
  3320                           
  3321                           ;newmain.c: 86:     sprintf(uart_logs, "d = %d\n\r", out);
  3322  07A0  3022               	movlw	(low ((STR_3-__stringbase)| (0+32768)))& (0+255)
  3323  07A1  1283               	bcf	3,5	;RP0=0, select bank0
  3324  07A2  1303               	bcf	3,6	;RP1=0, select bank0
  3325  07A3  00E0               	movwf	??_Quadra_Al
  3326  07A4  0860               	movf	??_Quadra_Al,w
  3327  07A5  00A0               	movwf	sprintf@f
  3328  07A6  1683               	bsf	3,5	;RP0=1, select bank3
  3329  07A7  1703               	bsf	3,6	;RP1=1, select bank3
  3330  07A8  0833               	movf	(Quadra_Al@out+3)^(0+384),w
  3331  07A9  1283               	bcf	3,5	;RP0=0, select bank0
  3332  07AA  1303               	bcf	3,6	;RP1=0, select bank0
  3333  07AB  00A4               	movwf	?_sprintf+4
  3334  07AC  1683               	bsf	3,5	;RP0=1, select bank3
  3335  07AD  1703               	bsf	3,6	;RP1=1, select bank3
  3336  07AE  0832               	movf	(Quadra_Al@out+2)^(0+384),w
  3337  07AF  1283               	bcf	3,5	;RP0=0, select bank0
  3338  07B0  1303               	bcf	3,6	;RP1=0, select bank0
  3339  07B1  00A3               	movwf	?_sprintf+3
  3340  07B2  1683               	bsf	3,5	;RP0=1, select bank3
  3341  07B3  1703               	bsf	3,6	;RP1=1, select bank3
  3342  07B4  0831               	movf	(Quadra_Al@out+1)^(0+384),w
  3343  07B5  1283               	bcf	3,5	;RP0=0, select bank0
  3344  07B6  1303               	bcf	3,6	;RP1=0, select bank0
  3345  07B7  00A2               	movwf	?_sprintf+2
  3346  07B8  1683               	bsf	3,5	;RP0=1, select bank3
  3347  07B9  1703               	bsf	3,6	;RP1=1, select bank3
  3348  07BA  0830               	movf	Quadra_Al@out^(0+384),w
  3349  07BB  1283               	bcf	3,5	;RP0=0, select bank0
  3350  07BC  1303               	bcf	3,6	;RP1=0, select bank0
  3351  07BD  00A1               	movwf	?_sprintf+1
  3352  07BE  30A0               	movlw	(low (Quadra_Al@uart_logs| 0))& (0+255)
  3353  07BF  120A  158A  22A3  120A  118A  	fcall	_sprintf
  3354  07C4                     l2582:
  3355                           
  3356                           ;newmain.c: 87:     UART_Write_Text(uart_logs);
  3357  07C4  30A0               	movlw	(low (Quadra_Al@uart_logs| 0))& (0+255)
  3358  07C5  160A  118A  25D5  120A  118A  	fcall	_UART_Write_Text
  3359  07CA                     l2584:
  3360                           
  3361                           ;newmain.c: 88:     _delay((unsigned long)((90)*(8000000/4000.0)));
  3362  07CA  30EA               	movlw	234
  3363  07CB  1283               	bcf	3,5	;RP0=0, select bank0
  3364  07CC  1303               	bcf	3,6	;RP1=0, select bank0
  3365  07CD  00E1               	movwf	??_Quadra_Al+1
  3366  07CE  30C2               	movlw	194
  3367  07CF  00E0               	movwf	??_Quadra_Al
  3368  07D0                     u4077:
  3369  07D0  0BE0               	decfsz	??_Quadra_Al,f
  3370  07D1  2FD0               	goto	u4077
  3371  07D2  0BE1               	decfsz	??_Quadra_Al+1,f
  3372  07D3  2FD0               	goto	u4077
  3373  07D4  0000               	nop
  3374  07D5                     l2586:
  3375                           
  3376                           ;newmain.c: 89:     return out;
  3377  07D5  1683               	bsf	3,5	;RP0=1, select bank3
  3378  07D6  1703               	bsf	3,6	;RP1=1, select bank3
  3379  07D7  0833               	movf	(Quadra_Al@out+3)^(0+384),w
  3380  07D8  1283               	bcf	3,5	;RP0=0, select bank0
  3381  07D9  1303               	bcf	3,6	;RP1=0, select bank0
  3382  07DA  00DF               	movwf	?_Quadra_Al+3
  3383  07DB  1683               	bsf	3,5	;RP0=1, select bank3
  3384  07DC  1703               	bsf	3,6	;RP1=1, select bank3
  3385  07DD  0832               	movf	(Quadra_Al@out+2)^(0+384),w
  3386  07DE  1283               	bcf	3,5	;RP0=0, select bank0
  3387  07DF  1303               	bcf	3,6	;RP1=0, select bank0
  3388  07E0  00DE               	movwf	?_Quadra_Al+2
  3389  07E1  1683               	bsf	3,5	;RP0=1, select bank3
  3390  07E2  1703               	bsf	3,6	;RP1=1, select bank3
  3391  07E3  0831               	movf	(Quadra_Al@out+1)^(0+384),w
  3392  07E4  1283               	bcf	3,5	;RP0=0, select bank0
  3393  07E5  1303               	bcf	3,6	;RP1=0, select bank0
  3394  07E6  00DD               	movwf	?_Quadra_Al+1
  3395  07E7  1683               	bsf	3,5	;RP0=1, select bank3
  3396  07E8  1703               	bsf	3,6	;RP1=1, select bank3
  3397  07E9  0830               	movf	Quadra_Al@out^(0+384),w
  3398  07EA  1283               	bcf	3,5	;RP0=0, select bank0
  3399  07EB  1303               	bcf	3,6	;RP1=0, select bank0
  3400  07EC  00DC               	movwf	?_Quadra_Al
  3401  07ED                     l114:
  3402  07ED  0008               	return
  3403  07EE                     __end_of_Quadra_Al:
  3404                           
  3405                           	psect	text10
  3406  0AA3                     __ptext10:	
  3407 ;; *************** function _sprintf *****************
  3408 ;; Defined at:
  3409 ;;		line 505 in file "C:\Program Files\Microchip\xc8\v2.32\pic\sources\c90\common\doprnt.c"
  3410 ;; Parameters:    Size  Location     Type
  3411 ;;  sp              1    wreg     PTR unsigned char 
  3412 ;;		 -> Quadra_Al@uart_logs(50), 
  3413 ;;  f               1    0[BANK0 ] PTR const unsigned char 
  3414 ;;		 -> STR_3(9), STR_2(23), STR_1(5), 
  3415 ;; Auto vars:     Size  Location     Type
  3416 ;;  sp              1   37[BANK0 ] PTR unsigned char 
  3417 ;;		 -> Quadra_Al@uart_logs(50), 
  3418 ;;  tmpval          4    0        struct .
  3419 ;;  val             2   35[BANK0 ] unsigned int 
  3420 ;;  cp              2    0        PTR const unsigned char 
  3421 ;;  len             2    0        unsigned int 
  3422 ;;  c               1   38[BANK0 ] unsigned char 
  3423 ;;  prec            1   34[BANK0 ] char 
  3424 ;;  flag            1   33[BANK0 ] unsigned char 
  3425 ;;  ap              1   32[BANK0 ] PTR void [1]
  3426 ;;		 -> ?_sprintf(2), 
  3427 ;; Return value:  Size  Location     Type
  3428 ;;                  2    0[BANK0 ] int 
  3429 ;; Registers used:
  3430 ;;		wreg, fsr0l, fsr0h, status,2, status,0, btemp+1, pclath, cstack
  3431 ;; Tracked objects:
  3432 ;;		On entry : 0/0
  3433 ;;		On exit  : 0/0
  3434 ;;		Unchanged: 0/0
  3435 ;; Data sizes:     COMMON   BANK0   BANK1   BANK3   BANK2
  3436 ;;      Params:         0      29       0       0       0
  3437 ;;      Locals:         0       7       0       0       0
  3438 ;;      Temps:          0       3       0       0       0
  3439 ;;      Totals:         0      39       0       0       0
  3440 ;;Total ram usage:       39 bytes
  3441 ;; Hardware stack levels used: 1
  3442 ;; Hardware stack levels required when called: 1
  3443 ;; This function calls:
  3444 ;;		___lwdiv
  3445 ;;		___lwmod
  3446 ;; This function is called by:
  3447 ;;		_Quadra_Al
  3448 ;; This function uses a non-reentrant model
  3449 ;;
  3450                           
  3451                           
  3452                           ;psect for function _sprintf
  3453  0AA3                     _sprintf:
  3454                           
  3455                           ;incstack = 0
  3456                           ; Regs used in _sprintf: [wreg-fsr0h+status,2+status,0+btemp+1+pclath+cstack]
  3457                           ;sprintf@sp stored from wreg
  3458  0AA3  1283               	bcf	3,5	;RP0=0, select bank0
  3459  0AA4  1303               	bcf	3,6	;RP1=0, select bank0
  3460  0AA5  00C5               	movwf	sprintf@sp
  3461  0AA6                     l2036:
  3462                           
  3463                           ;C:\Program Files\Microchip\xc8\v2.32\pic\sources\c90\common\doprnt.c: 505: sprintf(char
      +                           * sp, const char * f, ...);C:\Program Files\Microchip\xc8\v2.32\pic\sources\c90\common\
      +                          doprnt.c: 506: {;C:\Program Files\Microchip\xc8\v2.32\pic\sources\c90\common\doprnt.c: 5
      +                          07:  va_list ap;;C:\Program Files\Microchip\xc8\v2.32\pic\sources\c90\common\doprnt.c: 5
      +                          12:  char c;;C:\Program Files\Microchip\xc8\v2.32\pic\sources\c90\common\doprnt.c: 521: 
      +                           signed char prec;;C:\Program Files\Microchip\xc8\v2.32\pic\sources\c90\common\doprnt.c:
      +                           525:  unsigned char flag;
  3464  0AA6  3021               	movlw	(low ((?_sprintf| 0+1)))& (0+255)
  3465  0AA7  00BD               	movwf	??_sprintf
  3466  0AA8  083D               	movf	??_sprintf,w
  3467  0AA9  00C0               	movwf	sprintf@ap
  3468                           
  3469                           ;C:\Program Files\Microchip\xc8\v2.32\pic\sources\c90\common\doprnt.c: 553:  while((c = 
      +                          *f++)) {
  3470  0AAA  2B74               	goto	l2088
  3471  0AAB                     l2038:
  3472                           
  3473                           ;C:\Program Files\Microchip\xc8\v2.32\pic\sources\c90\common\doprnt.c: 555:   if(c != '%
      +                          ')
  3474  0AAB  3025               	movlw	37
  3475  0AAC  0646               	xorwf	sprintf@c,w
  3476  0AAD  1903               	btfsc	3,2
  3477  0AAE  2AB0               	goto	u2681
  3478  0AAF  2AB1               	goto	u2680
  3479  0AB0                     u2681:
  3480  0AB0  2ABD               	goto	l2044
  3481  0AB1                     u2680:
  3482  0AB1                     l2040:
  3483                           
  3484                           ;C:\Program Files\Microchip\xc8\v2.32\pic\sources\c90\common\doprnt.c: 557:   {;C:\Progr
      +                          am Files\Microchip\xc8\v2.32\pic\sources\c90\common\doprnt.c: 558:    ((*sp++ = (c)));
  3485  0AB1  0846               	movf	sprintf@c,w
  3486  0AB2  00BD               	movwf	??_sprintf
  3487  0AB3  0845               	movf	sprintf@sp,w
  3488  0AB4  0084               	movwf	4
  3489  0AB5  083D               	movf	??_sprintf,w
  3490  0AB6  1383               	bcf	3,7	;select IRP bank0
  3491  0AB7  0080               	movwf	0
  3492  0AB8                     l2042:
  3493  0AB8  3001               	movlw	1
  3494  0AB9  00BD               	movwf	??_sprintf
  3495  0ABA  083D               	movf	??_sprintf,w
  3496  0ABB  07C5               	addwf	sprintf@sp,f
  3497                           
  3498                           ;C:\Program Files\Microchip\xc8\v2.32\pic\sources\c90\common\doprnt.c: 559:    continue;
  3499  0ABC  2B74               	goto	l2088
  3500  0ABD                     l2044:
  3501                           
  3502                           ;C:\Program Files\Microchip\xc8\v2.32\pic\sources\c90\common\doprnt.c: 565:   flag = 0;
  3503  0ABD  01C1               	clrf	sprintf@flag
  3504  0ABE                     l2048:	
  3505                           ;C:\Program Files\Microchip\xc8\v2.32\pic\sources\c90\common\doprnt.c: 661:   switch(c =
      +                           *f++) {
  3506                           
  3507  0ABE  3001               	movlw	1
  3508  0ABF  07A0               	addwf	sprintf@f,f
  3509  0AC0  30FF               	movlw	-1
  3510  0AC1  0720               	addwf	sprintf@f,w
  3511  0AC2  0084               	movwf	4
  3512  0AC3  160A  118A  2000  120A  158A  	fcall	stringdir
  3513  0AC8  00C6               	movwf	sprintf@c
  3514  0AC9  00BD               	movwf	??_sprintf
  3515  0ACA  01BE               	clrf	??_sprintf+1
  3516                           
  3517                           ; Switch on 2 bytes has been partitioned into a top level switch of size 1, and 1 sub-sw
      +                          itches
  3518                           ; Switch size 1, requested type "simple"
  3519                           ; Number of cases is 1, Range of values is 0 to 0
  3520                           ; switch strategies available:
  3521                           ; Name         Instructions Cycles
  3522                           ; simple_byte            4     3 (average)
  3523                           ; direct_byte           11     8 (fixed)
  3524                           ; jumptable            260     6 (fixed)
  3525                           ;	Chosen strategy is simple_byte
  3526  0ACB  083E               	movf	??_sprintf+1,w
  3527  0ACC  3A00               	xorlw	0	; case 0
  3528  0ACD  1903               	skipnz
  3529  0ACE  2AD0               	goto	l2714
  3530  0ACF  2B74               	goto	l2088
  3531  0AD0                     l2714:
  3532                           
  3533                           ; Switch size 1, requested type "simple"
  3534                           ; Number of cases is 3, Range of values is 0 to 105
  3535                           ; switch strategies available:
  3536                           ; Name         Instructions Cycles
  3537                           ; simple_byte           10     6 (average)
  3538                           ; jumptable            260     6 (fixed)
  3539                           ;	Chosen strategy is simple_byte
  3540  0AD0  083D               	movf	??_sprintf,w
  3541  0AD1  3A00               	xorlw	0	; case 0
  3542  0AD2  1903               	skipnz
  3543  0AD3  2B86               	goto	l2090
  3544  0AD4  3A64               	xorlw	100	; case 100
  3545  0AD5  1903               	skipnz
  3546  0AD6  2ADB               	goto	l2050
  3547  0AD7  3A0D               	xorlw	13	; case 105
  3548  0AD8  1903               	skipnz
  3549  0AD9  2ADB               	goto	l2050
  3550  0ADA  2B74               	goto	l2088
  3551  0ADB                     l2050:
  3552                           
  3553                           ;C:\Program Files\Microchip\xc8\v2.32\pic\sources\c90\common\doprnt.c: 1279:   {;C:\Prog
      +                          ram Files\Microchip\xc8\v2.32\pic\sources\c90\common\doprnt.c: 1285:     val = (unsigned
      +                           int)(*(int *)__va_arg((*(int **)ap), (int)0));
  3554  0ADB  0840               	movf	sprintf@ap,w
  3555  0ADC  0084               	movwf	4
  3556  0ADD  1383               	bcf	3,7	;select IRP bank0
  3557  0ADE  0800               	movf	0,w
  3558  0ADF  00C3               	movwf	sprintf@val
  3559  0AE0  0A84               	incf	4,f
  3560  0AE1  0800               	movf	0,w
  3561  0AE2  00C4               	movwf	sprintf@val+1
  3562  0AE3                     l2052:
  3563  0AE3  3002               	movlw	2
  3564  0AE4  00BD               	movwf	??_sprintf
  3565  0AE5  083D               	movf	??_sprintf,w
  3566  0AE6  07C0               	addwf	sprintf@ap,f
  3567  0AE7                     l2054:
  3568                           
  3569                           ;C:\Program Files\Microchip\xc8\v2.32\pic\sources\c90\common\doprnt.c: 1287:    if((int)
      +                          val < 0) {
  3570  0AE7  1FC4               	btfss	sprintf@val+1,7
  3571  0AE8  2AEA               	goto	u2691
  3572  0AE9  2AEB               	goto	u2690
  3573  0AEA                     u2691:
  3574  0AEA  2AF4               	goto	l2060
  3575  0AEB                     u2690:
  3576  0AEB                     l2056:
  3577                           
  3578                           ;C:\Program Files\Microchip\xc8\v2.32\pic\sources\c90\common\doprnt.c: 1288:     flag |=
      +                           0x03;
  3579  0AEB  3003               	movlw	3
  3580  0AEC  00BD               	movwf	??_sprintf
  3581  0AED  083D               	movf	??_sprintf,w
  3582  0AEE  04C1               	iorwf	sprintf@flag,f
  3583  0AEF                     l2058:
  3584                           
  3585                           ;C:\Program Files\Microchip\xc8\v2.32\pic\sources\c90\common\doprnt.c: 1289:     val = -
      +                          val;
  3586  0AEF  09C3               	comf	sprintf@val,f
  3587  0AF0  09C4               	comf	sprintf@val+1,f
  3588  0AF1  0AC3               	incf	sprintf@val,f
  3589  0AF2  1903               	skipnz
  3590  0AF3  0AC4               	incf	sprintf@val+1,f
  3591  0AF4                     l2060:
  3592                           
  3593                           ;C:\Program Files\Microchip\xc8\v2.32\pic\sources\c90\common\doprnt.c: 1292:   };C:\Prog
      +                          ram Files\Microchip\xc8\v2.32\pic\sources\c90\common\doprnt.c: 1331:    for(c = 1 ; c !=
      +                           sizeof dpowers/sizeof dpowers[0] ; c++)
  3594  0AF4  01C6               	clrf	sprintf@c
  3595  0AF5  0AC6               	incf	sprintf@c,f
  3596  0AF6                     l2066:
  3597                           
  3598                           ;C:\Program Files\Microchip\xc8\v2.32\pic\sources\c90\common\doprnt.c: 1332:     if(val 
      +                          < dpowers[c])
  3599  0AF6  0846               	movf	sprintf@c,w
  3600  0AF7  00BD               	movwf	??_sprintf
  3601  0AF8  073D               	addwf	??_sprintf,w
  3602  0AF9  3E01               	addlw	low ((_dpowers-__stringbase)| (0+32768))
  3603  0AFA  0084               	movwf	4
  3604  0AFB  160A  118A  2000  120A  158A  	fcall	stringdir
  3605  0B00  00BE               	movwf	??_sprintf+1
  3606  0B01  160A  118A  2000  120A  158A  	fcall	stringdir
  3607  0B06  00BF               	movwf	??_sprintf+2
  3608  0B07  083F               	movf	??_sprintf+2,w
  3609  0B08  0244               	subwf	sprintf@val+1,w
  3610  0B09  1D03               	skipz
  3611  0B0A  2B0D               	goto	u2705
  3612  0B0B  083E               	movf	??_sprintf+1,w
  3613  0B0C  0243               	subwf	sprintf@val,w
  3614  0B0D                     u2705:
  3615  0B0D  1803               	skipnc
  3616  0B0E  2B10               	goto	u2701
  3617  0B0F  2B11               	goto	u2700
  3618  0B10                     u2701:
  3619  0B10  2B12               	goto	l2070
  3620  0B11                     u2700:
  3621  0B11  2B1C               	goto	l2072
  3622  0B12                     l2070:
  3623  0B12  3001               	movlw	1
  3624  0B13  00BD               	movwf	??_sprintf
  3625  0B14  083D               	movf	??_sprintf,w
  3626  0B15  07C6               	addwf	sprintf@c,f
  3627  0B16  3005               	movlw	5
  3628  0B17  0646               	xorwf	sprintf@c,w
  3629  0B18  1D03               	btfss	3,2
  3630  0B19  2B1B               	goto	u2711
  3631  0B1A  2B1C               	goto	u2710
  3632  0B1B                     u2711:
  3633  0B1B  2AF6               	goto	l2066
  3634  0B1C                     u2710:
  3635  0B1C                     l2072:
  3636                           
  3637                           ;C:\Program Files\Microchip\xc8\v2.32\pic\sources\c90\common\doprnt.c: 1448:   {;C:\Prog
      +                          ram Files\Microchip\xc8\v2.32\pic\sources\c90\common\doprnt.c: 1464:    if(flag & 0x03)
  3638  0B1C  0841               	movf	sprintf@flag,w
  3639  0B1D  3903               	andlw	3
  3640  0B1E  1903               	btfsc	3,2
  3641  0B1F  2B21               	goto	u2721
  3642  0B20  2B22               	goto	u2720
  3643  0B21                     u2721:
  3644  0B21  2B2D               	goto	l2078
  3645  0B22                     u2720:
  3646  0B22                     l2074:
  3647                           
  3648                           ;C:\Program Files\Microchip\xc8\v2.32\pic\sources\c90\common\doprnt.c: 1465:     ((*sp++
      +                           = ('-')));
  3649  0B22  302D               	movlw	45
  3650  0B23  00BD               	movwf	??_sprintf
  3651  0B24  0845               	movf	sprintf@sp,w
  3652  0B25  0084               	movwf	4
  3653  0B26  083D               	movf	??_sprintf,w
  3654  0B27  1383               	bcf	3,7	;select IRP bank0
  3655  0B28  0080               	movwf	0
  3656  0B29                     l2076:
  3657  0B29  3001               	movlw	1
  3658  0B2A  00BD               	movwf	??_sprintf
  3659  0B2B  083D               	movf	??_sprintf,w
  3660  0B2C  07C5               	addwf	sprintf@sp,f
  3661  0B2D                     l2078:
  3662                           
  3663                           ;C:\Program Files\Microchip\xc8\v2.32\pic\sources\c90\common\doprnt.c: 1495:   };C:\Prog
      +                          ram Files\Microchip\xc8\v2.32\pic\sources\c90\common\doprnt.c: 1498:   prec = c;
  3664  0B2D  0846               	movf	sprintf@c,w
  3665  0B2E  00BD               	movwf	??_sprintf
  3666  0B2F  083D               	movf	??_sprintf,w
  3667  0B30  00C2               	movwf	sprintf@prec
  3668                           
  3669                           ;C:\Program Files\Microchip\xc8\v2.32\pic\sources\c90\common\doprnt.c: 1500:   while(pre
      +                          c--) {
  3670  0B31  2B6B               	goto	l2086
  3671  0B32                     l2080:
  3672                           
  3673                           ;C:\Program Files\Microchip\xc8\v2.32\pic\sources\c90\common\doprnt.c: 1504:    {;C:\Pro
      +                          gram Files\Microchip\xc8\v2.32\pic\sources\c90\common\doprnt.c: 1515:     c = (val / dpo
      +                          wers[(unsigned char)prec]) % 10 + '0';
  3674  0B32  300A               	movlw	10
  3675  0B33  00F8               	movwf	___lwmod@divisor
  3676  0B34  3000               	movlw	0
  3677  0B35  00F9               	movwf	___lwmod@divisor+1
  3678  0B36  0842               	movf	sprintf@prec,w
  3679  0B37  00BD               	movwf	??_sprintf
  3680  0B38  073D               	addwf	??_sprintf,w
  3681  0B39  3E01               	addlw	low ((_dpowers-__stringbase)| (0+32768))
  3682  0B3A  0084               	movwf	4
  3683  0B3B  160A  118A  2000  120A  158A  	fcall	stringdir
  3684  0B40  00F0               	movwf	___lwdiv@divisor
  3685  0B41  160A  118A  2000  120A  158A  	fcall	stringdir
  3686  0B46  00F1               	movwf	___lwdiv@divisor+1
  3687  0B47  0844               	movf	sprintf@val+1,w
  3688  0B48  00F3               	movwf	___lwdiv@dividend+1
  3689  0B49  0843               	movf	sprintf@val,w
  3690  0B4A  00F2               	movwf	___lwdiv@dividend
  3691  0B4B  120A  158A  2029  120A  158A  	fcall	___lwdiv
  3692  0B50  0871               	movf	?___lwdiv+1,w
  3693  0B51  00FB               	movwf	___lwmod@dividend+1
  3694  0B52  0870               	movf	?___lwdiv,w
  3695  0B53  00FA               	movwf	___lwmod@dividend
  3696  0B54  160A  118A  261A  120A  158A  	fcall	___lwmod
  3697  0B59  0878               	movf	?___lwmod,w
  3698  0B5A  3E30               	addlw	48
  3699  0B5B  1283               	bcf	3,5	;RP0=0, select bank0
  3700  0B5C  1303               	bcf	3,6	;RP1=0, select bank0
  3701  0B5D  00BE               	movwf	??_sprintf+1
  3702  0B5E  083E               	movf	??_sprintf+1,w
  3703  0B5F  00C6               	movwf	sprintf@c
  3704  0B60                     l2082:
  3705                           
  3706                           ;C:\Program Files\Microchip\xc8\v2.32\pic\sources\c90\common\doprnt.c: 1549:    };C:\Pro
      +                          gram Files\Microchip\xc8\v2.32\pic\sources\c90\common\doprnt.c: 1550:    ((*sp++ = (c)))
      +                          ;
  3707  0B60  0846               	movf	sprintf@c,w
  3708  0B61  00BD               	movwf	??_sprintf
  3709  0B62  0845               	movf	sprintf@sp,w
  3710  0B63  0084               	movwf	4
  3711  0B64  083D               	movf	??_sprintf,w
  3712  0B65  1383               	bcf	3,7	;select IRP bank0
  3713  0B66  0080               	movwf	0
  3714  0B67                     l2084:
  3715  0B67  3001               	movlw	1
  3716  0B68  00BD               	movwf	??_sprintf
  3717  0B69  083D               	movf	??_sprintf,w
  3718  0B6A  07C5               	addwf	sprintf@sp,f
  3719  0B6B                     l2086:
  3720                           
  3721                           ;C:\Program Files\Microchip\xc8\v2.32\pic\sources\c90\common\doprnt.c: 1500:   while(pre
      +                          c--) {
  3722  0B6B  30FF               	movlw	255
  3723  0B6C  00BD               	movwf	??_sprintf
  3724  0B6D  083D               	movf	??_sprintf,w
  3725  0B6E  07C2               	addwf	sprintf@prec,f
  3726  0B6F  0A42               	incf	sprintf@prec,w
  3727  0B70  1D03               	btfss	3,2
  3728  0B71  2B73               	goto	u2731
  3729  0B72  2B74               	goto	u2730
  3730  0B73                     u2731:
  3731  0B73  2B32               	goto	l2080
  3732  0B74                     u2730:
  3733  0B74                     l2088:
  3734                           
  3735                           ;C:\Program Files\Microchip\xc8\v2.32\pic\sources\c90\common\doprnt.c: 553:  while((c = 
      +                          *f++)) {
  3736  0B74  3001               	movlw	1
  3737  0B75  07A0               	addwf	sprintf@f,f
  3738  0B76  30FF               	movlw	-1
  3739  0B77  0720               	addwf	sprintf@f,w
  3740  0B78  0084               	movwf	4
  3741  0B79  160A  118A  2000  120A  158A  	fcall	stringdir
  3742  0B7E  00BD               	movwf	??_sprintf
  3743  0B7F  083D               	movf	??_sprintf,w
  3744  0B80  00C6               	movwf	sprintf@c
  3745  0B81  0846               	movf	sprintf@c,w
  3746  0B82  1D03               	btfss	3,2
  3747  0B83  2B85               	goto	u2741
  3748  0B84  2B86               	goto	u2740
  3749  0B85                     u2741:
  3750  0B85  2AAB               	goto	l2038
  3751  0B86                     u2740:
  3752  0B86                     l2090:
  3753                           
  3754                           ;C:\Program Files\Microchip\xc8\v2.32\pic\sources\c90\common\doprnt.c: 1564:  *sp = 0;
  3755  0B86  0845               	movf	sprintf@sp,w
  3756  0B87  0084               	movwf	4
  3757  0B88  1383               	bcf	3,7	;select IRP bank0
  3758  0B89  0180               	clrf	0
  3759  0B8A                     l268:
  3760  0B8A  0008               	return
  3761  0B8B                     __end_of_sprintf:
  3762                           
  3763                           	psect	text11
  3764  161A                     __ptext11:	
  3765 ;; *************** function ___lwmod *****************
  3766 ;; Defined at:
  3767 ;;		line 5 in file "C:\Program Files\Microchip\xc8\v2.32\pic\sources\c90\common\lwmod.c"
  3768 ;; Parameters:    Size  Location     Type
  3769 ;;  divisor         2    8[COMMON] unsigned int 
  3770 ;;  dividend        2   10[COMMON] unsigned int 
  3771 ;; Auto vars:     Size  Location     Type
  3772 ;;  counter         1   13[COMMON] unsigned char 
  3773 ;; Return value:  Size  Location     Type
  3774 ;;                  2    8[COMMON] unsigned int 
  3775 ;; Registers used:
  3776 ;;		wreg, status,2, status,0
  3777 ;; Tracked objects:
  3778 ;;		On entry : 0/0
  3779 ;;		On exit  : 0/0
  3780 ;;		Unchanged: 0/0
  3781 ;; Data sizes:     COMMON   BANK0   BANK1   BANK3   BANK2
  3782 ;;      Params:         4       0       0       0       0
  3783 ;;      Locals:         1       0       0       0       0
  3784 ;;      Temps:          1       0       0       0       0
  3785 ;;      Totals:         6       0       0       0       0
  3786 ;;Total ram usage:        6 bytes
  3787 ;; Hardware stack levels used: 1
  3788 ;; This function calls:
  3789 ;;		Nothing
  3790 ;; This function is called by:
  3791 ;;		_sprintf
  3792 ;; This function uses a non-reentrant model
  3793 ;;
  3794                           
  3795                           
  3796                           ;psect for function ___lwmod
  3797  161A                     ___lwmod:
  3798  161A                     l1798:	
  3799                           ;incstack = 0
  3800                           ; Regs used in ___lwmod: [wreg+status,2+status,0]
  3801                           
  3802  161A  0878               	movf	___lwmod@divisor,w
  3803  161B  0479               	iorwf	___lwmod@divisor+1,w
  3804  161C  1903               	btfsc	3,2
  3805  161D  2E1F               	goto	u2121
  3806  161E  2E20               	goto	u2120
  3807  161F                     u2121:
  3808  161F  2E4F               	goto	l1816
  3809  1620                     u2120:
  3810  1620                     l1800:
  3811  1620  01FD               	clrf	___lwmod@counter
  3812  1621  0AFD               	incf	___lwmod@counter,f
  3813  1622  2E2E               	goto	l1806
  3814  1623                     l1802:
  3815  1623  3001               	movlw	1
  3816  1624                     u2135:
  3817  1624  1003               	clrc
  3818  1625  0DF8               	rlf	___lwmod@divisor,f
  3819  1626  0DF9               	rlf	___lwmod@divisor+1,f
  3820  1627  3EFF               	addlw	-1
  3821  1628  1D03               	skipz
  3822  1629  2E24               	goto	u2135
  3823  162A                     l1804:
  3824  162A  3001               	movlw	1
  3825  162B  00FC               	movwf	??___lwmod
  3826  162C  087C               	movf	??___lwmod,w
  3827  162D  07FD               	addwf	___lwmod@counter,f
  3828  162E                     l1806:
  3829  162E  1FF9               	btfss	___lwmod@divisor+1,7
  3830  162F  2E31               	goto	u2141
  3831  1630  2E32               	goto	u2140
  3832  1631                     u2141:
  3833  1631  2E23               	goto	l1802
  3834  1632                     u2140:
  3835  1632                     l1808:
  3836  1632  0879               	movf	___lwmod@divisor+1,w
  3837  1633  027B               	subwf	___lwmod@dividend+1,w
  3838  1634  1D03               	skipz
  3839  1635  2E38               	goto	u2155
  3840  1636  0878               	movf	___lwmod@divisor,w
  3841  1637  027A               	subwf	___lwmod@dividend,w
  3842  1638                     u2155:
  3843  1638  1C03               	skipc
  3844  1639  2E3B               	goto	u2151
  3845  163A  2E3C               	goto	u2150
  3846  163B                     u2151:
  3847  163B  2E42               	goto	l1812
  3848  163C                     u2150:
  3849  163C                     l1810:
  3850  163C  0878               	movf	___lwmod@divisor,w
  3851  163D  02FA               	subwf	___lwmod@dividend,f
  3852  163E  0879               	movf	___lwmod@divisor+1,w
  3853  163F  1C03               	skipc
  3854  1640  03FB               	decf	___lwmod@dividend+1,f
  3855  1641  02FB               	subwf	___lwmod@dividend+1,f
  3856  1642                     l1812:
  3857  1642  3001               	movlw	1
  3858  1643                     u2165:
  3859  1643  1003               	clrc
  3860  1644  0CF9               	rrf	___lwmod@divisor+1,f
  3861  1645  0CF8               	rrf	___lwmod@divisor,f
  3862  1646  3EFF               	addlw	-1
  3863  1647  1D03               	skipz
  3864  1648  2E43               	goto	u2165
  3865  1649                     l1814:
  3866  1649  3001               	movlw	1
  3867  164A  02FD               	subwf	___lwmod@counter,f
  3868  164B  1D03               	btfss	3,2
  3869  164C  2E4E               	goto	u2171
  3870  164D  2E4F               	goto	u2170
  3871  164E                     u2171:
  3872  164E  2E32               	goto	l1808
  3873  164F                     u2170:
  3874  164F                     l1816:
  3875  164F  087B               	movf	___lwmod@dividend+1,w
  3876  1650  00F9               	movwf	?___lwmod+1
  3877  1651  087A               	movf	___lwmod@dividend,w
  3878  1652  00F8               	movwf	?___lwmod
  3879  1653                     l554:
  3880  1653  0008               	return
  3881  1654                     __end_of___lwmod:
  3882                           
  3883                           	psect	text12
  3884  0829                     __ptext12:	
  3885 ;; *************** function ___lwdiv *****************
  3886 ;; Defined at:
  3887 ;;		line 5 in file "C:\Program Files\Microchip\xc8\v2.32\pic\sources\c90\common\lwdiv.c"
  3888 ;; Parameters:    Size  Location     Type
  3889 ;;  divisor         2    0[COMMON] unsigned int 
  3890 ;;  dividend        2    2[COMMON] unsigned int 
  3891 ;; Auto vars:     Size  Location     Type
  3892 ;;  quotient        2    5[COMMON] unsigned int 
  3893 ;;  counter         1    7[COMMON] unsigned char 
  3894 ;; Return value:  Size  Location     Type
  3895 ;;                  2    0[COMMON] unsigned int 
  3896 ;; Registers used:
  3897 ;;		wreg, status,2, status,0
  3898 ;; Tracked objects:
  3899 ;;		On entry : 0/0
  3900 ;;		On exit  : 0/0
  3901 ;;		Unchanged: 0/0
  3902 ;; Data sizes:     COMMON   BANK0   BANK1   BANK3   BANK2
  3903 ;;      Params:         4       0       0       0       0
  3904 ;;      Locals:         3       0       0       0       0
  3905 ;;      Temps:          1       0       0       0       0
  3906 ;;      Totals:         8       0       0       0       0
  3907 ;;Total ram usage:        8 bytes
  3908 ;; Hardware stack levels used: 1
  3909 ;; This function calls:
  3910 ;;		Nothing
  3911 ;; This function is called by:
  3912 ;;		_sprintf
  3913 ;; This function uses a non-reentrant model
  3914 ;;
  3915                           
  3916                           
  3917                           ;psect for function ___lwdiv
  3918  0829                     ___lwdiv:
  3919  0829                     l1772:	
  3920                           ;incstack = 0
  3921                           ; Regs used in ___lwdiv: [wreg+status,2+status,0]
  3922                           
  3923  0829  01F5               	clrf	___lwdiv@quotient
  3924  082A  01F6               	clrf	___lwdiv@quotient+1
  3925  082B                     l1774:
  3926  082B  0870               	movf	___lwdiv@divisor,w
  3927  082C  0471               	iorwf	___lwdiv@divisor+1,w
  3928  082D  1903               	btfsc	3,2
  3929  082E  2830               	goto	u2051
  3930  082F  2831               	goto	u2050
  3931  0830                     u2051:
  3932  0830  2868               	goto	l1794
  3933  0831                     u2050:
  3934  0831                     l1776:
  3935  0831  01F7               	clrf	___lwdiv@counter
  3936  0832  0AF7               	incf	___lwdiv@counter,f
  3937  0833  283F               	goto	l1782
  3938  0834                     l1778:
  3939  0834  3001               	movlw	1
  3940  0835                     u2065:
  3941  0835  1003               	clrc
  3942  0836  0DF0               	rlf	___lwdiv@divisor,f
  3943  0837  0DF1               	rlf	___lwdiv@divisor+1,f
  3944  0838  3EFF               	addlw	-1
  3945  0839  1D03               	skipz
  3946  083A  2835               	goto	u2065
  3947  083B                     l1780:
  3948  083B  3001               	movlw	1
  3949  083C  00F4               	movwf	??___lwdiv
  3950  083D  0874               	movf	??___lwdiv,w
  3951  083E  07F7               	addwf	___lwdiv@counter,f
  3952  083F                     l1782:
  3953  083F  1FF1               	btfss	___lwdiv@divisor+1,7
  3954  0840  2842               	goto	u2071
  3955  0841  2843               	goto	u2070
  3956  0842                     u2071:
  3957  0842  2834               	goto	l1778
  3958  0843                     u2070:
  3959  0843                     l1784:
  3960  0843  3001               	movlw	1
  3961  0844                     u2085:
  3962  0844  1003               	clrc
  3963  0845  0DF5               	rlf	___lwdiv@quotient,f
  3964  0846  0DF6               	rlf	___lwdiv@quotient+1,f
  3965  0847  3EFF               	addlw	-1
  3966  0848  1D03               	skipz
  3967  0849  2844               	goto	u2085
  3968  084A  0871               	movf	___lwdiv@divisor+1,w
  3969  084B  0273               	subwf	___lwdiv@dividend+1,w
  3970  084C  1D03               	skipz
  3971  084D  2850               	goto	u2095
  3972  084E  0870               	movf	___lwdiv@divisor,w
  3973  084F  0272               	subwf	___lwdiv@dividend,w
  3974  0850                     u2095:
  3975  0850  1C03               	skipc
  3976  0851  2853               	goto	u2091
  3977  0852  2854               	goto	u2090
  3978  0853                     u2091:
  3979  0853  285B               	goto	l1790
  3980  0854                     u2090:
  3981  0854                     l1786:
  3982  0854  0870               	movf	___lwdiv@divisor,w
  3983  0855  02F2               	subwf	___lwdiv@dividend,f
  3984  0856  0871               	movf	___lwdiv@divisor+1,w
  3985  0857  1C03               	skipc
  3986  0858  03F3               	decf	___lwdiv@dividend+1,f
  3987  0859  02F3               	subwf	___lwdiv@dividend+1,f
  3988  085A                     l1788:
  3989  085A  1475               	bsf	___lwdiv@quotient,0
  3990  085B                     l1790:
  3991  085B  3001               	movlw	1
  3992  085C                     u2105:
  3993  085C  1003               	clrc
  3994  085D  0CF1               	rrf	___lwdiv@divisor+1,f
  3995  085E  0CF0               	rrf	___lwdiv@divisor,f
  3996  085F  3EFF               	addlw	-1
  3997  0860  1D03               	skipz
  3998  0861  285C               	goto	u2105
  3999  0862                     l1792:
  4000  0862  3001               	movlw	1
  4001  0863  02F7               	subwf	___lwdiv@counter,f
  4002  0864  1D03               	btfss	3,2
  4003  0865  2867               	goto	u2111
  4004  0866  2868               	goto	u2110
  4005  0867                     u2111:
  4006  0867  2843               	goto	l1784
  4007  0868                     u2110:
  4008  0868                     l1794:
  4009  0868  0876               	movf	___lwdiv@quotient+1,w
  4010  0869  00F1               	movwf	?___lwdiv+1
  4011  086A  0875               	movf	___lwdiv@quotient,w
  4012  086B  00F0               	movwf	?___lwdiv
  4013  086C                     l544:
  4014  086C  0008               	return
  4015  086D                     __end_of___lwdiv:
  4016                           
  4017                           	psect	text13
  4018  090F                     __ptext13:	
  4019 ;; *************** function ___xxtofl *****************
  4020 ;; Defined at:
  4021 ;;		line 10 in file "C:\Program Files\Microchip\xc8\v2.32\pic\sources\c90\common\xxtofl.c"
  4022 ;; Parameters:    Size  Location     Type
  4023 ;;  sign            1    wreg     unsigned char 
  4024 ;;  val             4    0[COMMON] long 
  4025 ;; Auto vars:     Size  Location     Type
  4026 ;;  sign            1    8[COMMON] unsigned char 
  4027 ;;  arg             4   10[COMMON] unsigned long 
  4028 ;;  exp             1    9[COMMON] unsigned char 
  4029 ;; Return value:  Size  Location     Type
  4030 ;;                  4    0[COMMON] unsigned char 
  4031 ;; Registers used:
  4032 ;;		wreg, status,2, status,0
  4033 ;; Tracked objects:
  4034 ;;		On entry : 0/0
  4035 ;;		On exit  : 0/0
  4036 ;;		Unchanged: 0/0
  4037 ;; Data sizes:     COMMON   BANK0   BANK1   BANK3   BANK2
  4038 ;;      Params:         4       0       0       0       0
  4039 ;;      Locals:         6       0       0       0       0
  4040 ;;      Temps:          4       0       0       0       0
  4041 ;;      Totals:        14       0       0       0       0
  4042 ;;Total ram usage:       14 bytes
  4043 ;; Hardware stack levels used: 1
  4044 ;; This function calls:
  4045 ;;		Nothing
  4046 ;; This function is called by:
  4047 ;;		_Quadra_Al
  4048 ;; This function uses a non-reentrant model
  4049 ;;
  4050                           
  4051                           
  4052                           ;psect for function ___xxtofl
  4053  090F                     ___xxtofl:
  4054                           
  4055                           ;incstack = 0
  4056                           ; Regs used in ___xxtofl: [wreg+status,2+status,0]
  4057                           ;___xxtofl@sign stored from wreg
  4058  090F  00F8               	movwf	___xxtofl@sign
  4059  0910                     l2456:
  4060  0910  0878               	movf	___xxtofl@sign,w
  4061  0911  1903               	btfsc	3,2
  4062  0912  2914               	goto	u3601
  4063  0913  2915               	goto	u3600
  4064  0914                     u3601:
  4065  0914  2929               	goto	l2462
  4066  0915                     u3600:
  4067  0915                     l2458:
  4068  0915  1FF3               	btfss	___xxtofl@val+3,7
  4069  0916  2918               	goto	u3611
  4070  0917  2919               	goto	u3610
  4071  0918                     u3611:
  4072  0918  2929               	goto	l2462
  4073  0919                     u3610:
  4074  0919                     l2460:
  4075  0919  0970               	comf	___xxtofl@val,w
  4076  091A  00FA               	movwf	___xxtofl@arg
  4077  091B  0971               	comf	___xxtofl@val+1,w
  4078  091C  00FB               	movwf	___xxtofl@arg+1
  4079  091D  0972               	comf	___xxtofl@val+2,w
  4080  091E  00FC               	movwf	___xxtofl@arg+2
  4081  091F  0973               	comf	___xxtofl@val+3,w
  4082  0920  00FD               	movwf	___xxtofl@arg+3
  4083  0921  0AFA               	incf	___xxtofl@arg,f
  4084  0922  1903               	skipnz
  4085  0923  0AFB               	incf	___xxtofl@arg+1,f
  4086  0924  1903               	skipnz
  4087  0925  0AFC               	incf	___xxtofl@arg+2,f
  4088  0926  1903               	skipnz
  4089  0927  0AFD               	incf	___xxtofl@arg+3,f
  4090  0928  2931               	goto	l705
  4091  0929                     l2462:
  4092  0929  0873               	movf	___xxtofl@val+3,w
  4093  092A  00FD               	movwf	___xxtofl@arg+3
  4094  092B  0872               	movf	___xxtofl@val+2,w
  4095  092C  00FC               	movwf	___xxtofl@arg+2
  4096  092D  0871               	movf	___xxtofl@val+1,w
  4097  092E  00FB               	movwf	___xxtofl@arg+1
  4098  092F  0870               	movf	___xxtofl@val,w
  4099  0930  00FA               	movwf	___xxtofl@arg
  4100  0931                     l705:
  4101  0931  0873               	movf	___xxtofl@val+3,w
  4102  0932  0472               	iorwf	___xxtofl@val+2,w
  4103  0933  0471               	iorwf	___xxtofl@val+1,w
  4104  0934  0470               	iorwf	___xxtofl@val,w
  4105  0935  1D03               	skipz
  4106  0936  2938               	goto	u3621
  4107  0937  2939               	goto	u3620
  4108  0938                     u3621:
  4109  0938  2942               	goto	l2468
  4110  0939                     u3620:
  4111  0939                     l2464:
  4112  0939  3000               	movlw	0
  4113  093A  00F3               	movwf	?___xxtofl+3
  4114  093B  3000               	movlw	0
  4115  093C  00F2               	movwf	?___xxtofl+2
  4116  093D  3000               	movlw	0
  4117  093E  00F1               	movwf	?___xxtofl+1
  4118  093F  3000               	movlw	0
  4119  0940  00F0               	movwf	?___xxtofl
  4120  0941  29C8               	goto	l707
  4121  0942                     l2468:
  4122  0942  3096               	movlw	150
  4123  0943  00F4               	movwf	??___xxtofl
  4124  0944  0874               	movf	??___xxtofl,w
  4125  0945  00F9               	movwf	___xxtofl@exp
  4126  0946  2954               	goto	l2472
  4127  0947                     l2470:
  4128  0947  3001               	movlw	1
  4129  0948  00F4               	movwf	??___xxtofl
  4130  0949  0874               	movf	??___xxtofl,w
  4131  094A  07F9               	addwf	___xxtofl@exp,f
  4132  094B  3001               	movlw	1
  4133  094C                     u3635:
  4134  094C  1003               	clrc
  4135  094D  0CFD               	rrf	___xxtofl@arg+3,f
  4136  094E  0CFC               	rrf	___xxtofl@arg+2,f
  4137  094F  0CFB               	rrf	___xxtofl@arg+1,f
  4138  0950  0CFA               	rrf	___xxtofl@arg,f
  4139  0951  3EFF               	addlw	-1
  4140  0952  1D03               	skipz
  4141  0953  294C               	goto	u3635
  4142  0954                     l2472:
  4143  0954  30FE               	movlw	254
  4144  0955  057D               	andwf	___xxtofl@arg+3,w
  4145  0956  1D03               	btfss	3,2
  4146  0957  2959               	goto	u3641
  4147  0958  295A               	goto	u3640
  4148  0959                     u3641:
  4149  0959  2947               	goto	l2470
  4150  095A                     u3640:
  4151  095A  2976               	goto	l711
  4152  095B                     l2474:
  4153  095B  3001               	movlw	1
  4154  095C  00F4               	movwf	??___xxtofl
  4155  095D  0874               	movf	??___xxtofl,w
  4156  095E  07F9               	addwf	___xxtofl@exp,f
  4157  095F                     l2476:
  4158  095F  3001               	movlw	1
  4159  0960  07FA               	addwf	___xxtofl@arg,f
  4160  0961  3000               	movlw	0
  4161  0962  1803               	skipnc
  4162  0963  3001               	movlw	1
  4163  0964  07FB               	addwf	___xxtofl@arg+1,f
  4164  0965  3000               	movlw	0
  4165  0966  1803               	skipnc
  4166  0967  3001               	movlw	1
  4167  0968  07FC               	addwf	___xxtofl@arg+2,f
  4168  0969  3000               	movlw	0
  4169  096A  1803               	skipnc
  4170  096B  3001               	movlw	1
  4171  096C  07FD               	addwf	___xxtofl@arg+3,f
  4172  096D                     l2478:
  4173  096D  3001               	movlw	1
  4174  096E                     u3655:
  4175  096E  1003               	clrc
  4176  096F  0CFD               	rrf	___xxtofl@arg+3,f
  4177  0970  0CFC               	rrf	___xxtofl@arg+2,f
  4178  0971  0CFB               	rrf	___xxtofl@arg+1,f
  4179  0972  0CFA               	rrf	___xxtofl@arg,f
  4180  0973  3EFF               	addlw	-1
  4181  0974  1D03               	skipz
  4182  0975  296E               	goto	u3655
  4183  0976                     l711:
  4184  0976  30FF               	movlw	255
  4185  0977  057D               	andwf	___xxtofl@arg+3,w
  4186  0978  1D03               	btfss	3,2
  4187  0979  297B               	goto	u3661
  4188  097A  297C               	goto	u3660
  4189  097B                     u3661:
  4190  097B  295B               	goto	l2474
  4191  097C                     u3660:
  4192  097C  2988               	goto	l2482
  4193  097D                     l2480:
  4194  097D  3001               	movlw	1
  4195  097E  02F9               	subwf	___xxtofl@exp,f
  4196  097F  3001               	movlw	1
  4197  0980  00F4               	movwf	??___xxtofl
  4198  0981                     u3675:
  4199  0981  1003               	clrc
  4200  0982  0DFA               	rlf	___xxtofl@arg,f
  4201  0983  0DFB               	rlf	___xxtofl@arg+1,f
  4202  0984  0DFC               	rlf	___xxtofl@arg+2,f
  4203  0985  0DFD               	rlf	___xxtofl@arg+3,f
  4204  0986  0BF4               	decfsz	??___xxtofl,f
  4205  0987  2981               	goto	u3675
  4206  0988                     l2482:
  4207  0988  1BFC               	btfsc	___xxtofl@arg+2,7
  4208  0989  298B               	goto	u3681
  4209  098A  298C               	goto	u3680
  4210  098B                     u3681:
  4211  098B  2992               	goto	l718
  4212  098C                     u3680:
  4213  098C                     l2484:
  4214  098C  3002               	movlw	2
  4215  098D  0279               	subwf	___xxtofl@exp,w
  4216  098E  1803               	skipnc
  4217  098F  2991               	goto	u3691
  4218  0990  2992               	goto	u3690
  4219  0991                     u3691:
  4220  0991  297D               	goto	l2480
  4221  0992                     u3690:
  4222  0992                     l718:
  4223  0992  1879               	btfsc	___xxtofl@exp,0
  4224  0993  2995               	goto	u3701
  4225  0994  2996               	goto	u3700
  4226  0995                     u3701:
  4227  0995  299E               	goto	l719
  4228  0996                     u3700:
  4229  0996                     l2486:
  4230  0996  30FF               	movlw	255
  4231  0997  05FA               	andwf	___xxtofl@arg,f
  4232  0998  30FF               	movlw	255
  4233  0999  05FB               	andwf	___xxtofl@arg+1,f
  4234  099A  307F               	movlw	127
  4235  099B  05FC               	andwf	___xxtofl@arg+2,f
  4236  099C  30FF               	movlw	255
  4237  099D  05FD               	andwf	___xxtofl@arg+3,f
  4238  099E                     l719:
  4239  099E  1003               	clrc
  4240  099F  0CF9               	rrf	___xxtofl@exp,f
  4241  09A0                     l2488:
  4242  09A0  0879               	movf	___xxtofl@exp,w
  4243  09A1  00F4               	movwf	??___xxtofl
  4244  09A2  01F5               	clrf	??___xxtofl+1
  4245  09A3  01F6               	clrf	??___xxtofl+2
  4246  09A4  01F7               	clrf	??___xxtofl+3
  4247  09A5  3018               	movlw	24
  4248  09A6                     u3715:
  4249  09A6  1003               	clrc
  4250  09A7  0DF4               	rlf	??___xxtofl,f
  4251  09A8  0DF5               	rlf	??___xxtofl+1,f
  4252  09A9  0DF6               	rlf	??___xxtofl+2,f
  4253  09AA  0DF7               	rlf	??___xxtofl+3,f
  4254  09AB                     u3710:
  4255  09AB  3EFF               	addlw	-1
  4256  09AC  1D03               	skipz
  4257  09AD  29A6               	goto	u3715
  4258  09AE  0874               	movf	??___xxtofl,w
  4259  09AF  04FA               	iorwf	___xxtofl@arg,f
  4260  09B0  0875               	movf	??___xxtofl+1,w
  4261  09B1  04FB               	iorwf	___xxtofl@arg+1,f
  4262  09B2  0876               	movf	??___xxtofl+2,w
  4263  09B3  04FC               	iorwf	___xxtofl@arg+2,f
  4264  09B4  0877               	movf	??___xxtofl+3,w
  4265  09B5  04FD               	iorwf	___xxtofl@arg+3,f
  4266  09B6                     l2490:
  4267  09B6  0878               	movf	___xxtofl@sign,w
  4268  09B7  1903               	btfsc	3,2
  4269  09B8  29BA               	goto	u3721
  4270  09B9  29BB               	goto	u3720
  4271  09BA                     u3721:
  4272  09BA  29C0               	goto	l2496
  4273  09BB                     u3720:
  4274  09BB                     l2492:
  4275  09BB  1FF3               	btfss	___xxtofl@val+3,7
  4276  09BC  29BE               	goto	u3731
  4277  09BD  29BF               	goto	u3730
  4278  09BE                     u3731:
  4279  09BE  29C0               	goto	l2496
  4280  09BF                     u3730:
  4281  09BF                     l2494:
  4282  09BF  17FD               	bsf	___xxtofl@arg+3,7
  4283  09C0                     l2496:
  4284  09C0  087D               	movf	___xxtofl@arg+3,w
  4285  09C1  00F3               	movwf	?___xxtofl+3
  4286  09C2  087C               	movf	___xxtofl@arg+2,w
  4287  09C3  00F2               	movwf	?___xxtofl+2
  4288  09C4  087B               	movf	___xxtofl@arg+1,w
  4289  09C5  00F1               	movwf	?___xxtofl+1
  4290  09C6  087A               	movf	___xxtofl@arg,w
  4291  09C7  00F0               	movwf	?___xxtofl
  4292  09C8                     l707:
  4293  09C8  0008               	return
  4294  09C9                     __end_of___xxtofl:
  4295                           
  4296                           	psect	text14
  4297  15F6                     __ptext14:	
  4298 ;; *************** function ___flsub *****************
  4299 ;; Defined at:
  4300 ;;		line 242 in file "C:\Program Files\Microchip\xc8\v2.32\pic\sources\c90\common\sprcadd.c"
  4301 ;; Parameters:    Size  Location     Type
  4302 ;;  a               4   34[BANK0 ] unsigned char 
  4303 ;;  b               4   38[BANK0 ] unsigned char 
  4304 ;; Auto vars:     Size  Location     Type
  4305 ;;		None
  4306 ;; Return value:  Size  Location     Type
  4307 ;;                  4   34[BANK0 ] unsigned char 
  4308 ;; Registers used:
  4309 ;;		wreg, status,2, status,0, btemp+1, pclath, cstack
  4310 ;; Tracked objects:
  4311 ;;		On entry : 0/0
  4312 ;;		On exit  : 0/0
  4313 ;;		Unchanged: 0/0
  4314 ;; Data sizes:     COMMON   BANK0   BANK1   BANK3   BANK2
  4315 ;;      Params:         0       8       0       0       0
  4316 ;;      Locals:         0       0       0       0       0
  4317 ;;      Temps:          0       0       0       0       0
  4318 ;;      Totals:         0       8       0       0       0
  4319 ;;Total ram usage:        8 bytes
  4320 ;; Hardware stack levels used: 1
  4321 ;; Hardware stack levels required when called: 1
  4322 ;; This function calls:
  4323 ;;		___fladd
  4324 ;; This function is called by:
  4325 ;;		_Quadra_Al
  4326 ;; This function uses a non-reentrant model
  4327 ;;
  4328                           
  4329                           
  4330                           ;psect for function ___flsub
  4331  15F6                     ___flsub:
  4332  15F6                     l2168:	
  4333                           ;incstack = 0
  4334                           ; Regs used in ___flsub: [wreg+status,2+status,0+btemp+1+pclath+cstack]
  4335                           
  4336  15F6  3080               	movlw	128
  4337  15F7  1283               	bcf	3,5	;RP0=0, select bank0
  4338  15F8  1303               	bcf	3,6	;RP1=0, select bank0
  4339  15F9  06C5               	xorwf	___flsub@a+3,f
  4340  15FA                     l2170:
  4341  15FA  0849               	movf	___flsub@b+3,w
  4342  15FB  00F3               	movwf	___fladd@b+3
  4343  15FC  0848               	movf	___flsub@b+2,w
  4344  15FD  00F2               	movwf	___fladd@b+2
  4345  15FE  0847               	movf	___flsub@b+1,w
  4346  15FF  00F1               	movwf	___fladd@b+1
  4347  1600  0846               	movf	___flsub@b,w
  4348  1601  00F0               	movwf	___fladd@b
  4349  1602  0845               	movf	___flsub@a+3,w
  4350  1603  00F7               	movwf	___fladd@a+3
  4351  1604  0844               	movf	___flsub@a+2,w
  4352  1605  00F6               	movwf	___fladd@a+2
  4353  1606  0843               	movf	___flsub@a+1,w
  4354  1607  00F5               	movwf	___fladd@a+1
  4355  1608  0842               	movf	___flsub@a,w
  4356  1609  00F4               	movwf	___fladd@a
  4357  160A  120A  158A  2568  160A  118A  	fcall	___fladd
  4358  160F  0873               	movf	?___fladd+3,w
  4359  1610  1283               	bcf	3,5	;RP0=0, select bank0
  4360  1611  1303               	bcf	3,6	;RP1=0, select bank0
  4361  1612  00C5               	movwf	?___flsub+3
  4362  1613  0872               	movf	?___fladd+2,w
  4363  1614  00C4               	movwf	?___flsub+2
  4364  1615  0871               	movf	?___fladd+1,w
  4365  1616  00C3               	movwf	?___flsub+1
  4366  1617  0870               	movf	?___fladd,w
  4367  1618  00C2               	movwf	?___flsub
  4368  1619                     l611:
  4369  1619  0008               	return
  4370  161A                     __end_of___flsub:
  4371                           
  4372                           	psect	text15
  4373  0D68                     __ptext15:	
  4374 ;; *************** function ___fladd *****************
  4375 ;; Defined at:
  4376 ;;		line 10 in file "C:\Program Files\Microchip\xc8\v2.32\pic\sources\c90\common\sprcadd.c"
  4377 ;; Parameters:    Size  Location     Type
  4378 ;;  b               4    0[COMMON] unsigned char 
  4379 ;;  a               4    4[COMMON] unsigned char 
  4380 ;; Auto vars:     Size  Location     Type
  4381 ;;  grs             1   11[COMMON] unsigned char 
  4382 ;;  bexp            1   10[COMMON] unsigned char 
  4383 ;;  aexp            1    9[COMMON] unsigned char 
  4384 ;;  signs           1    8[COMMON] unsigned char 
  4385 ;; Return value:  Size  Location     Type
  4386 ;;                  4    0[COMMON] unsigned char 
  4387 ;; Registers used:
  4388 ;;		wreg, status,2, status,0, btemp+1
  4389 ;; Tracked objects:
  4390 ;;		On entry : 0/0
  4391 ;;		On exit  : 0/0
  4392 ;;		Unchanged: 0/0
  4393 ;; Data sizes:     COMMON   BANK0   BANK1   BANK3   BANK2
  4394 ;;      Params:         8       0       0       0       0
  4395 ;;      Locals:         4       0       0       0       0
  4396 ;;      Temps:          0       8       0       0       0
  4397 ;;      Totals:        12       8       0       0       0
  4398 ;;Total ram usage:       20 bytes
  4399 ;; Hardware stack levels used: 1
  4400 ;; This function calls:
  4401 ;;		Nothing
  4402 ;; This function is called by:
  4403 ;;		_Quadra_Al
  4404 ;;		___flsub
  4405 ;; This function uses a non-reentrant model
  4406 ;;
  4407                           
  4408                           
  4409                           ;psect for function ___fladd
  4410  0D68                     ___fladd:
  4411  0D68                     l1820:	
  4412                           ;incstack = 0
  4413                           ; Regs used in ___fladd: [wreg+status,2+status,0+btemp+1]
  4414                           
  4415  0D68  0873               	movf	___fladd@b+3,w
  4416  0D69  3980               	andlw	128
  4417  0D6A  1283               	bcf	3,5	;RP0=0, select bank0
  4418  0D6B  1303               	bcf	3,6	;RP1=0, select bank0
  4419  0D6C  00A0               	movwf	??___fladd
  4420  0D6D  0820               	movf	??___fladd,w
  4421  0D6E  00F8               	movwf	___fladd@signs
  4422  0D6F                     l1822:
  4423  0D6F  0873               	movf	___fladd@b+3,w
  4424  0D70  00A0               	movwf	??___fladd
  4425  0D71  0720               	addwf	??___fladd,w
  4426  0D72  00A1               	movwf	??___fladd+1
  4427  0D73  0821               	movf	??___fladd+1,w
  4428  0D74  00FA               	movwf	___fladd@bexp
  4429  0D75                     l1824:
  4430  0D75  1FF2               	btfss	___fladd@b+2,7
  4431  0D76  2D78               	goto	u2181
  4432  0D77  2D79               	goto	u2180
  4433  0D78                     u2181:
  4434  0D78  2D7A               	goto	l1828
  4435  0D79                     u2180:
  4436  0D79                     l1826:
  4437  0D79  147A               	bsf	___fladd@bexp,0
  4438  0D7A                     l1828:
  4439  0D7A  087A               	movf	___fladd@bexp,w
  4440  0D7B  1903               	btfsc	3,2
  4441  0D7C  2D7E               	goto	u2191
  4442  0D7D  2D7F               	goto	u2190
  4443  0D7E                     u2191:
  4444  0D7E  2D8F               	goto	l1838
  4445  0D7F                     u2190:
  4446  0D7F                     l1830:
  4447  0D7F  0A7A               	incf	___fladd@bexp,w
  4448  0D80  1D03               	btfss	3,2
  4449  0D81  2D83               	goto	u2201
  4450  0D82  2D84               	goto	u2200
  4451  0D83                     u2201:
  4452  0D83  2D8C               	goto	l1834
  4453  0D84                     u2200:
  4454  0D84                     l1832:
  4455  0D84  3000               	movlw	0
  4456  0D85  00F3               	movwf	___fladd@b+3
  4457  0D86  3000               	movlw	0
  4458  0D87  00F2               	movwf	___fladd@b+2
  4459  0D88  3000               	movlw	0
  4460  0D89  00F1               	movwf	___fladd@b+1
  4461  0D8A  3000               	movlw	0
  4462  0D8B  00F0               	movwf	___fladd@b
  4463  0D8C                     l1834:
  4464  0D8C  17F2               	bsf	___fladd@b+2,7
  4465  0D8D                     l1836:
  4466  0D8D  01F3               	clrf	___fladd@b+3
  4467  0D8E  2D97               	goto	l1840
  4468  0D8F                     l1838:
  4469  0D8F  3000               	movlw	0
  4470  0D90  00F3               	movwf	___fladd@b+3
  4471  0D91  3000               	movlw	0
  4472  0D92  00F2               	movwf	___fladd@b+2
  4473  0D93  3000               	movlw	0
  4474  0D94  00F1               	movwf	___fladd@b+1
  4475  0D95  3000               	movlw	0
  4476  0D96  00F0               	movwf	___fladd@b
  4477  0D97                     l1840:
  4478  0D97  0877               	movf	___fladd@a+3,w
  4479  0D98  3980               	andlw	128
  4480  0D99  00A0               	movwf	??___fladd
  4481  0D9A  0820               	movf	??___fladd,w
  4482  0D9B  00F9               	movwf	___fladd@aexp
  4483  0D9C                     l1842:
  4484  0D9C  0879               	movf	___fladd@aexp,w
  4485  0D9D  0678               	xorwf	___fladd@signs,w
  4486  0D9E  1903               	skipnz
  4487  0D9F  2DA1               	goto	u2211
  4488  0DA0  2DA2               	goto	u2210
  4489  0DA1                     u2211:
  4490  0DA1  2DA3               	goto	l1846
  4491  0DA2                     u2210:
  4492  0DA2                     l1844:
  4493  0DA2  1778               	bsf	___fladd@signs,6
  4494  0DA3                     l1846:
  4495  0DA3  0877               	movf	___fladd@a+3,w
  4496  0DA4  00A0               	movwf	??___fladd
  4497  0DA5  0720               	addwf	??___fladd,w
  4498  0DA6  00A1               	movwf	??___fladd+1
  4499  0DA7  0821               	movf	??___fladd+1,w
  4500  0DA8  00F9               	movwf	___fladd@aexp
  4501  0DA9                     l1848:
  4502  0DA9  1FF6               	btfss	___fladd@a+2,7
  4503  0DAA  2DAC               	goto	u2221
  4504  0DAB  2DAD               	goto	u2220
  4505  0DAC                     u2221:
  4506  0DAC  2DAE               	goto	l1852
  4507  0DAD                     u2220:
  4508  0DAD                     l1850:
  4509  0DAD  1479               	bsf	___fladd@aexp,0
  4510  0DAE                     l1852:
  4511  0DAE  0879               	movf	___fladd@aexp,w
  4512  0DAF  1903               	btfsc	3,2
  4513  0DB0  2DB2               	goto	u2231
  4514  0DB1  2DB3               	goto	u2230
  4515  0DB2                     u2231:
  4516  0DB2  2DC3               	goto	l1862
  4517  0DB3                     u2230:
  4518  0DB3                     l1854:
  4519  0DB3  0A79               	incf	___fladd@aexp,w
  4520  0DB4  1D03               	btfss	3,2
  4521  0DB5  2DB7               	goto	u2241
  4522  0DB6  2DB8               	goto	u2240
  4523  0DB7                     u2241:
  4524  0DB7  2DC0               	goto	l1858
  4525  0DB8                     u2240:
  4526  0DB8                     l1856:
  4527  0DB8  3000               	movlw	0
  4528  0DB9  00F7               	movwf	___fladd@a+3
  4529  0DBA  3000               	movlw	0
  4530  0DBB  00F6               	movwf	___fladd@a+2
  4531  0DBC  3000               	movlw	0
  4532  0DBD  00F5               	movwf	___fladd@a+1
  4533  0DBE  3000               	movlw	0
  4534  0DBF  00F4               	movwf	___fladd@a
  4535  0DC0                     l1858:
  4536  0DC0  17F6               	bsf	___fladd@a+2,7
  4537  0DC1                     l1860:
  4538  0DC1  01F7               	clrf	___fladd@a+3
  4539  0DC2  2DCB               	goto	l565
  4540  0DC3                     l1862:
  4541  0DC3  3000               	movlw	0
  4542  0DC4  00F7               	movwf	___fladd@a+3
  4543  0DC5  3000               	movlw	0
  4544  0DC6  00F6               	movwf	___fladd@a+2
  4545  0DC7  3000               	movlw	0
  4546  0DC8  00F5               	movwf	___fladd@a+1
  4547  0DC9  3000               	movlw	0
  4548  0DCA  00F4               	movwf	___fladd@a
  4549  0DCB                     l565:
  4550  0DCB  087A               	movf	___fladd@bexp,w
  4551  0DCC  0279               	subwf	___fladd@aexp,w
  4552  0DCD  1803               	skipnc
  4553  0DCE  2DD0               	goto	u2251
  4554  0DCF  2DD1               	goto	u2250
  4555  0DD0                     u2251:
  4556  0DD0  2E15               	goto	l1898
  4557  0DD1                     u2250:
  4558  0DD1                     l1864:
  4559  0DD1  1F78               	btfss	___fladd@signs,6
  4560  0DD2  2DD4               	goto	u2261
  4561  0DD3  2DD5               	goto	u2260
  4562  0DD4                     u2261:
  4563  0DD4  2DD9               	goto	l1868
  4564  0DD5                     u2260:
  4565  0DD5                     l1866:
  4566  0DD5  3080               	movlw	128
  4567  0DD6  00A0               	movwf	??___fladd
  4568  0DD7  0820               	movf	??___fladd,w
  4569  0DD8  06F8               	xorwf	___fladd@signs,f
  4570  0DD9                     l1868:
  4571  0DD9  087A               	movf	___fladd@bexp,w
  4572  0DDA  00A0               	movwf	??___fladd
  4573  0DDB  0820               	movf	??___fladd,w
  4574  0DDC  00FB               	movwf	___fladd@grs
  4575  0DDD                     l1870:
  4576  0DDD  0879               	movf	___fladd@aexp,w
  4577  0DDE  00A0               	movwf	??___fladd
  4578  0DDF  0820               	movf	??___fladd,w
  4579  0DE0  00FA               	movwf	___fladd@bexp
  4580  0DE1                     l1872:
  4581  0DE1  087B               	movf	___fladd@grs,w
  4582  0DE2  00A0               	movwf	??___fladd
  4583  0DE3  0820               	movf	??___fladd,w
  4584  0DE4  00F9               	movwf	___fladd@aexp
  4585  0DE5                     l1874:
  4586  0DE5  0870               	movf	___fladd@b,w
  4587  0DE6  00A0               	movwf	??___fladd
  4588  0DE7  0820               	movf	??___fladd,w
  4589  0DE8  00FB               	movwf	___fladd@grs
  4590  0DE9                     l1876:
  4591  0DE9  0874               	movf	___fladd@a,w
  4592  0DEA  00A0               	movwf	??___fladd
  4593  0DEB  0820               	movf	??___fladd,w
  4594  0DEC  00F0               	movwf	___fladd@b
  4595  0DED                     l1878:
  4596  0DED  087B               	movf	___fladd@grs,w
  4597  0DEE  00A0               	movwf	??___fladd
  4598  0DEF  0820               	movf	??___fladd,w
  4599  0DF0  00F4               	movwf	___fladd@a
  4600  0DF1                     l1880:
  4601  0DF1  0871               	movf	___fladd@b+1,w
  4602  0DF2  00A0               	movwf	??___fladd
  4603  0DF3  0820               	movf	??___fladd,w
  4604  0DF4  00FB               	movwf	___fladd@grs
  4605  0DF5                     l1882:
  4606  0DF5  0875               	movf	___fladd@a+1,w
  4607  0DF6  00A0               	movwf	??___fladd
  4608  0DF7  0820               	movf	??___fladd,w
  4609  0DF8  00F1               	movwf	___fladd@b+1
  4610  0DF9                     l1884:
  4611  0DF9  087B               	movf	___fladd@grs,w
  4612  0DFA  00A0               	movwf	??___fladd
  4613  0DFB  0820               	movf	??___fladd,w
  4614  0DFC  00F5               	movwf	___fladd@a+1
  4615  0DFD                     l1886:
  4616  0DFD  0872               	movf	___fladd@b+2,w
  4617  0DFE  00A0               	movwf	??___fladd
  4618  0DFF  0820               	movf	??___fladd,w
  4619  0E00  00FB               	movwf	___fladd@grs
  4620  0E01                     l1888:
  4621  0E01  0876               	movf	___fladd@a+2,w
  4622  0E02  00A0               	movwf	??___fladd
  4623  0E03  0820               	movf	??___fladd,w
  4624  0E04  00F2               	movwf	___fladd@b+2
  4625  0E05                     l1890:
  4626  0E05  087B               	movf	___fladd@grs,w
  4627  0E06  00A0               	movwf	??___fladd
  4628  0E07  0820               	movf	??___fladd,w
  4629  0E08  00F6               	movwf	___fladd@a+2
  4630  0E09                     l1892:
  4631  0E09  0873               	movf	___fladd@b+3,w
  4632  0E0A  00A0               	movwf	??___fladd
  4633  0E0B  0820               	movf	??___fladd,w
  4634  0E0C  00FB               	movwf	___fladd@grs
  4635  0E0D                     l1894:
  4636  0E0D  0877               	movf	___fladd@a+3,w
  4637  0E0E  00A0               	movwf	??___fladd
  4638  0E0F  0820               	movf	??___fladd,w
  4639  0E10  00F3               	movwf	___fladd@b+3
  4640  0E11                     l1896:
  4641  0E11  087B               	movf	___fladd@grs,w
  4642  0E12  00A0               	movwf	??___fladd
  4643  0E13  0820               	movf	??___fladd,w
  4644  0E14  00F7               	movwf	___fladd@a+3
  4645  0E15                     l1898:
  4646  0E15  01FB               	clrf	___fladd@grs
  4647  0E16                     l1900:
  4648  0E16  0879               	movf	___fladd@aexp,w
  4649  0E17  00A0               	movwf	??___fladd
  4650  0E18  01A1               	clrf	??___fladd+1
  4651  0E19  0821               	movf	??___fladd+1,w
  4652  0E1A  00A3               	movwf	??___fladd+3
  4653  0E1B  087A               	movf	___fladd@bexp,w
  4654  0E1C  0220               	subwf	??___fladd,w
  4655  0E1D  00A2               	movwf	??___fladd+2
  4656  0E1E  1C03               	skipc
  4657  0E1F  03A3               	decf	??___fladd+3,f
  4658  0E20  0823               	movf	??___fladd+3,w
  4659  0E21  3A80               	xorlw	128
  4660  0E22  00FF               	movwf	btemp+1
  4661  0E23  3080               	movlw	128
  4662  0E24  027F               	subwf	btemp+1,w
  4663  0E25  1D03               	skipz
  4664  0E26  2E29               	goto	u2275
  4665  0E27  301A               	movlw	26
  4666  0E28  0222               	subwf	??___fladd+2,w
  4667  0E29                     u2275:
  4668  0E29  1C03               	skipc
  4669  0E2A  2E2C               	goto	u2271
  4670  0E2B  2E2D               	goto	u2270
  4671  0E2C                     u2271:
  4672  0E2C  2E6E               	goto	l1916
  4673  0E2D                     u2270:
  4674  0E2D                     l1902:
  4675  0E2D  0873               	movf	___fladd@b+3,w
  4676  0E2E  0472               	iorwf	___fladd@b+2,w
  4677  0E2F  0471               	iorwf	___fladd@b+1,w
  4678  0E30  0470               	iorwf	___fladd@b,w
  4679  0E31  1D03               	skipz
  4680  0E32  2E34               	goto	u2281
  4681  0E33  2E36               	goto	u2280
  4682  0E34                     u2281:
  4683  0E34  3001               	movlw	1
  4684  0E35  2E37               	goto	u2290
  4685  0E36                     u2280:
  4686  0E36  3000               	movlw	0
  4687  0E37                     u2290:
  4688  0E37  1283               	bcf	3,5	;RP0=0, select bank0
  4689  0E38  1303               	bcf	3,6	;RP1=0, select bank0
  4690  0E39  00A0               	movwf	??___fladd
  4691  0E3A  0820               	movf	??___fladd,w
  4692  0E3B  00FB               	movwf	___fladd@grs
  4693  0E3C  3000               	movlw	0
  4694  0E3D  00F3               	movwf	___fladd@b+3
  4695  0E3E  3000               	movlw	0
  4696  0E3F  00F2               	movwf	___fladd@b+2
  4697  0E40  3000               	movlw	0
  4698  0E41  00F1               	movwf	___fladd@b+1
  4699  0E42  3000               	movlw	0
  4700  0E43  00F0               	movwf	___fladd@b
  4701  0E44  0879               	movf	___fladd@aexp,w
  4702  0E45  00A0               	movwf	??___fladd
  4703  0E46  0820               	movf	??___fladd,w
  4704  0E47  00FA               	movwf	___fladd@bexp
  4705  0E48  2E74               	goto	l569
  4706  0E49                     l571:
  4707  0E49  1C7B               	btfss	___fladd@grs,0
  4708  0E4A  2E4C               	goto	u2301
  4709  0E4B  2E4D               	goto	u2300
  4710  0E4C                     u2301:
  4711  0E4C  2E58               	goto	l1906
  4712  0E4D                     u2300:
  4713  0E4D                     l1904:
  4714  0E4D  087B               	movf	___fladd@grs,w
  4715  0E4E  1283               	bcf	3,5	;RP0=0, select bank0
  4716  0E4F  1303               	bcf	3,6	;RP1=0, select bank0
  4717  0E50  00A0               	movwf	??___fladd
  4718  0E51  1003               	clrc
  4719  0E52  0C20               	rrf	??___fladd,w
  4720  0E53  3801               	iorlw	1
  4721  0E54  00A1               	movwf	??___fladd+1
  4722  0E55  0821               	movf	??___fladd+1,w
  4723  0E56  00FB               	movwf	___fladd@grs
  4724  0E57  2E5A               	goto	l1908
  4725  0E58                     l1906:
  4726  0E58  1003               	clrc
  4727  0E59  0CFB               	rrf	___fladd@grs,f
  4728  0E5A                     l1908:
  4729  0E5A  1C70               	btfss	___fladd@b,0
  4730  0E5B  2E5D               	goto	u2311
  4731  0E5C  2E5E               	goto	u2310
  4732  0E5D                     u2311:
  4733  0E5D  2E5F               	goto	l1912
  4734  0E5E                     u2310:
  4735  0E5E                     l1910:
  4736  0E5E  17FB               	bsf	___fladd@grs,7
  4737  0E5F                     l1912:
  4738  0E5F  3001               	movlw	1
  4739  0E60  1283               	bcf	3,5	;RP0=0, select bank0
  4740  0E61  1303               	bcf	3,6	;RP1=0, select bank0
  4741  0E62  00A0               	movwf	??___fladd
  4742  0E63                     u2325:
  4743  0E63  0D73               	rlf	___fladd@b+3,w
  4744  0E64  0CF3               	rrf	___fladd@b+3,f
  4745  0E65  0CF2               	rrf	___fladd@b+2,f
  4746  0E66  0CF1               	rrf	___fladd@b+1,f
  4747  0E67  0CF0               	rrf	___fladd@b,f
  4748  0E68  0BA0               	decfsz	??___fladd& (0+127),f
  4749  0E69  2E63               	goto	u2325
  4750  0E6A                     l1914:
  4751  0E6A  3001               	movlw	1
  4752  0E6B  00A0               	movwf	??___fladd
  4753  0E6C  0820               	movf	??___fladd,w
  4754  0E6D  07FA               	addwf	___fladd@bexp,f
  4755  0E6E                     l1916:
  4756  0E6E  0879               	movf	___fladd@aexp,w
  4757  0E6F  027A               	subwf	___fladd@bexp,w
  4758  0E70  1C03               	skipc
  4759  0E71  2E73               	goto	u2331
  4760  0E72  2E74               	goto	u2330
  4761  0E73                     u2331:
  4762  0E73  2E49               	goto	l571
  4763  0E74                     u2330:
  4764  0E74                     l569:
  4765  0E74  1B78               	btfsc	___fladd@signs,6
  4766  0E75  2E77               	goto	u2341
  4767  0E76  2E78               	goto	u2340
  4768  0E77                     u2341:
  4769  0E77  2EC7               	goto	l1942
  4770  0E78                     u2340:
  4771  0E78                     l1918:
  4772  0E78  087A               	movf	___fladd@bexp,w
  4773  0E79  1D03               	btfss	3,2
  4774  0E7A  2E7C               	goto	u2351
  4775  0E7B  2E7D               	goto	u2350
  4776  0E7C                     u2351:
  4777  0E7C  2E86               	goto	l1924
  4778  0E7D                     u2350:
  4779  0E7D                     l1920:
  4780  0E7D  3000               	movlw	0
  4781  0E7E  00F3               	movwf	?___fladd+3
  4782  0E7F  3000               	movlw	0
  4783  0E80  00F2               	movwf	?___fladd+2
  4784  0E81  3000               	movlw	0
  4785  0E82  00F1               	movwf	?___fladd+1
  4786  0E83  3000               	movlw	0
  4787  0E84  00F0               	movwf	?___fladd
  4788  0E85  2FFF               	goto	l578
  4789  0E86                     l1924:
  4790  0E86  0874               	movf	___fladd@a,w
  4791  0E87  07F0               	addwf	___fladd@b,f
  4792  0E88  0875               	movf	___fladd@a+1,w
  4793  0E89  1103               	clrz
  4794  0E8A  1803               	skipnc
  4795  0E8B  3E01               	addlw	1
  4796  0E8C  1903               	skipnz
  4797  0E8D  2E8F               	goto	u2361
  4798  0E8E  07F1               	addwf	___fladd@b+1,f
  4799  0E8F                     u2361:
  4800  0E8F  0876               	movf	___fladd@a+2,w
  4801  0E90  1103               	clrz
  4802  0E91  1803               	skipnc
  4803  0E92  3E01               	addlw	1
  4804  0E93  1903               	skipnz
  4805  0E94  2E96               	goto	u2362
  4806  0E95  07F2               	addwf	___fladd@b+2,f
  4807  0E96                     u2362:
  4808  0E96  0877               	movf	___fladd@a+3,w
  4809  0E97  1103               	clrz
  4810  0E98  1803               	skipnc
  4811  0E99  3E01               	addlw	1
  4812  0E9A  1903               	skipnz
  4813  0E9B  2E9D               	goto	u2363
  4814  0E9C  07F3               	addwf	___fladd@b+3,f
  4815  0E9D                     u2363:
  4816  0E9D                     l1926:
  4817  0E9D  1C73               	btfss	___fladd@b+3,0
  4818  0E9E  2EA0               	goto	u2371
  4819  0E9F  2EA1               	goto	u2370
  4820  0EA0                     u2371:
  4821  0EA0  2F7F               	goto	l1976
  4822  0EA1                     u2370:
  4823  0EA1                     l1928:
  4824  0EA1  1C7B               	btfss	___fladd@grs,0
  4825  0EA2  2EA4               	goto	u2381
  4826  0EA3  2EA5               	goto	u2380
  4827  0EA4                     u2381:
  4828  0EA4  2EB0               	goto	l1932
  4829  0EA5                     u2380:
  4830  0EA5                     l1930:
  4831  0EA5  087B               	movf	___fladd@grs,w
  4832  0EA6  1283               	bcf	3,5	;RP0=0, select bank0
  4833  0EA7  1303               	bcf	3,6	;RP1=0, select bank0
  4834  0EA8  00A0               	movwf	??___fladd
  4835  0EA9  1003               	clrc
  4836  0EAA  0C20               	rrf	??___fladd,w
  4837  0EAB  3801               	iorlw	1
  4838  0EAC  00A1               	movwf	??___fladd+1
  4839  0EAD  0821               	movf	??___fladd+1,w
  4840  0EAE  00FB               	movwf	___fladd@grs
  4841  0EAF  2EB2               	goto	l1934
  4842  0EB0                     l1932:
  4843  0EB0  1003               	clrc
  4844  0EB1  0CFB               	rrf	___fladd@grs,f
  4845  0EB2                     l1934:
  4846  0EB2  1C70               	btfss	___fladd@b,0
  4847  0EB3  2EB5               	goto	u2391
  4848  0EB4  2EB6               	goto	u2390
  4849  0EB5                     u2391:
  4850  0EB5  2EB7               	goto	l1938
  4851  0EB6                     u2390:
  4852  0EB6                     l1936:
  4853  0EB6  17FB               	bsf	___fladd@grs,7
  4854  0EB7                     l1938:
  4855  0EB7  3001               	movlw	1
  4856  0EB8  1283               	bcf	3,5	;RP0=0, select bank0
  4857  0EB9  1303               	bcf	3,6	;RP1=0, select bank0
  4858  0EBA  00A0               	movwf	??___fladd
  4859  0EBB                     u2405:
  4860  0EBB  0D73               	rlf	___fladd@b+3,w
  4861  0EBC  0CF3               	rrf	___fladd@b+3,f
  4862  0EBD  0CF2               	rrf	___fladd@b+2,f
  4863  0EBE  0CF1               	rrf	___fladd@b+1,f
  4864  0EBF  0CF0               	rrf	___fladd@b,f
  4865  0EC0  0BA0               	decfsz	??___fladd& (0+127),f
  4866  0EC1  2EBB               	goto	u2405
  4867  0EC2                     l1940:
  4868  0EC2  3001               	movlw	1
  4869  0EC3  00A0               	movwf	??___fladd
  4870  0EC4  0820               	movf	??___fladd,w
  4871  0EC5  07FA               	addwf	___fladd@bexp,f
  4872  0EC6  2F7F               	goto	l1976
  4873  0EC7                     l1942:
  4874  0EC7  0873               	movf	___fladd@b+3,w
  4875  0EC8  3A80               	xorlw	128
  4876  0EC9  00FF               	movwf	btemp+1
  4877  0ECA  0877               	movf	___fladd@a+3,w
  4878  0ECB  3A80               	xorlw	128
  4879  0ECC  027F               	subwf	btemp+1,w
  4880  0ECD  1D03               	skipz
  4881  0ECE  2ED9               	goto	u2413
  4882  0ECF  0876               	movf	___fladd@a+2,w
  4883  0ED0  0272               	subwf	___fladd@b+2,w
  4884  0ED1  1D03               	skipz
  4885  0ED2  2ED9               	goto	u2413
  4886  0ED3  0875               	movf	___fladd@a+1,w
  4887  0ED4  0271               	subwf	___fladd@b+1,w
  4888  0ED5  1D03               	skipz
  4889  0ED6  2ED9               	goto	u2413
  4890  0ED7  0874               	movf	___fladd@a,w
  4891  0ED8  0270               	subwf	___fladd@b,w
  4892  0ED9                     u2413:
  4893  0ED9  1803               	skipnc
  4894  0EDA  2EDC               	goto	u2411
  4895  0EDB  2EDD               	goto	u2410
  4896  0EDC                     u2411:
  4897  0EDC  2F37               	goto	l1952
  4898  0EDD                     u2410:
  4899  0EDD                     l1944:
  4900  0EDD  30FF               	movlw	255
  4901  0EDE  1283               	bcf	3,5	;RP0=0, select bank0
  4902  0EDF  1303               	bcf	3,6	;RP1=0, select bank0
  4903  0EE0  00A0               	movwf	??___fladd
  4904  0EE1  30FF               	movlw	255
  4905  0EE2  00A1               	movwf	??___fladd+1
  4906  0EE3  30FF               	movlw	255
  4907  0EE4  00A2               	movwf	??___fladd+2
  4908  0EE5  30FF               	movlw	255
  4909  0EE6  00A3               	movwf	??___fladd+3
  4910  0EE7  0874               	movf	___fladd@a,w
  4911  0EE8  00A4               	movwf	??___fladd+4
  4912  0EE9  0875               	movf	___fladd@a+1,w
  4913  0EEA  00A5               	movwf	??___fladd+5
  4914  0EEB  0876               	movf	___fladd@a+2,w
  4915  0EEC  00A6               	movwf	??___fladd+6
  4916  0EED  0877               	movf	___fladd@a+3,w
  4917  0EEE  00A7               	movwf	??___fladd+7
  4918  0EEF  0870               	movf	___fladd@b,w
  4919  0EF0  02A4               	subwf	??___fladd+4,f
  4920  0EF1  0871               	movf	___fladd@b+1,w
  4921  0EF2  1C03               	skipc
  4922  0EF3  0F71               	incfsz	___fladd@b+1,w
  4923  0EF4  2EF6               	goto	u2421
  4924  0EF5  2EF7               	goto	u2422
  4925  0EF6                     u2421:
  4926  0EF6  02A5               	subwf	??___fladd+5,f
  4927  0EF7                     u2422:
  4928  0EF7  0872               	movf	___fladd@b+2,w
  4929  0EF8  1C03               	skipc
  4930  0EF9  0F72               	incfsz	___fladd@b+2,w
  4931  0EFA  2EFC               	goto	u2423
  4932  0EFB  2EFD               	goto	u2424
  4933  0EFC                     u2423:
  4934  0EFC  02A6               	subwf	??___fladd+6,f
  4935  0EFD                     u2424:
  4936  0EFD  0873               	movf	___fladd@b+3,w
  4937  0EFE  1C03               	skipc
  4938  0EFF  0F73               	incfsz	___fladd@b+3,w
  4939  0F00  2F02               	goto	u2425
  4940  0F01  2F03               	goto	u2426
  4941  0F02                     u2425:
  4942  0F02  02A7               	subwf	??___fladd+7,f
  4943  0F03                     u2426:
  4944  0F03  0824               	movf	??___fladd+4,w
  4945  0F04  07A0               	addwf	??___fladd,f
  4946  0F05  0825               	movf	??___fladd+5,w
  4947  0F06  1803               	skipnc
  4948  0F07  0F25               	incfsz	??___fladd+5,w
  4949  0F08  2F0A               	goto	u2430
  4950  0F09  2F0B               	goto	u2431
  4951  0F0A                     u2430:
  4952  0F0A  07A1               	addwf	??___fladd+1,f
  4953  0F0B                     u2431:
  4954  0F0B  0826               	movf	??___fladd+6,w
  4955  0F0C  1803               	skipnc
  4956  0F0D  0F26               	incfsz	??___fladd+6,w
  4957  0F0E  2F10               	goto	u2432
  4958  0F0F  2F11               	goto	u2433
  4959  0F10                     u2432:
  4960  0F10  07A2               	addwf	??___fladd+2,f
  4961  0F11                     u2433:
  4962  0F11  0827               	movf	??___fladd+7,w
  4963  0F12  1803               	skipnc
  4964  0F13  0A27               	incf	??___fladd+7,w
  4965  0F14  07A3               	addwf	??___fladd+3,f
  4966  0F15  0823               	movf	??___fladd+3,w
  4967  0F16  00F3               	movwf	___fladd@b+3
  4968  0F17  0822               	movf	??___fladd+2,w
  4969  0F18  00F2               	movwf	___fladd@b+2
  4970  0F19  0821               	movf	??___fladd+1,w
  4971  0F1A  00F1               	movwf	___fladd@b+1
  4972  0F1B  0820               	movf	??___fladd,w
  4973  0F1C  00F0               	movwf	___fladd@b
  4974  0F1D                     l1946:
  4975  0F1D  3080               	movlw	128
  4976  0F1E  00A0               	movwf	??___fladd
  4977  0F1F  0820               	movf	??___fladd,w
  4978  0F20  06F8               	xorwf	___fladd@signs,f
  4979  0F21  09FB               	comf	___fladd@grs,f
  4980  0F22  0AFB               	incf	___fladd@grs,f
  4981  0F23                     l1948:
  4982  0F23  087B               	movf	___fladd@grs,w
  4983  0F24  1D03               	btfss	3,2
  4984  0F25  2F27               	goto	u2441
  4985  0F26  2F28               	goto	u2440
  4986  0F27                     u2441:
  4987  0F27  2F45               	goto	l586
  4988  0F28                     u2440:
  4989  0F28                     l1950:
  4990  0F28  3001               	movlw	1
  4991  0F29  07F0               	addwf	___fladd@b,f
  4992  0F2A  3000               	movlw	0
  4993  0F2B  1803               	skipnc
  4994  0F2C  3001               	movlw	1
  4995  0F2D  07F1               	addwf	___fladd@b+1,f
  4996  0F2E  3000               	movlw	0
  4997  0F2F  1803               	skipnc
  4998  0F30  3001               	movlw	1
  4999  0F31  07F2               	addwf	___fladd@b+2,f
  5000  0F32  3000               	movlw	0
  5001  0F33  1803               	skipnc
  5002  0F34  3001               	movlw	1
  5003  0F35  07F3               	addwf	___fladd@b+3,f
  5004  0F36  2F45               	goto	l586
  5005  0F37                     l1952:
  5006  0F37  0874               	movf	___fladd@a,w
  5007  0F38  02F0               	subwf	___fladd@b,f
  5008  0F39  0875               	movf	___fladd@a+1,w
  5009  0F3A  1C03               	skipc
  5010  0F3B  0F75               	incfsz	___fladd@a+1,w
  5011  0F3C  02F1               	subwf	___fladd@b+1,f
  5012  0F3D  0876               	movf	___fladd@a+2,w
  5013  0F3E  1C03               	skipc
  5014  0F3F  0F76               	incfsz	___fladd@a+2,w
  5015  0F40  02F2               	subwf	___fladd@b+2,f
  5016  0F41  0877               	movf	___fladd@a+3,w
  5017  0F42  1C03               	skipc
  5018  0F43  0F77               	incfsz	___fladd@a+3,w
  5019  0F44  02F3               	subwf	___fladd@b+3,f
  5020  0F45                     l586:
  5021  0F45  0873               	movf	___fladd@b+3,w
  5022  0F46  0472               	iorwf	___fladd@b+2,w
  5023  0F47  0471               	iorwf	___fladd@b+1,w
  5024  0F48  0470               	iorwf	___fladd@b,w
  5025  0F49  1D03               	skipz
  5026  0F4A  2F4C               	goto	u2451
  5027  0F4B  2F4D               	goto	u2450
  5028  0F4C                     u2451:
  5029  0F4C  2F7B               	goto	l1974
  5030  0F4D                     u2450:
  5031  0F4D                     l1954:
  5032  0F4D  087B               	movf	___fladd@grs,w
  5033  0F4E  1D03               	btfss	3,2
  5034  0F4F  2F51               	goto	u2461
  5035  0F50  2F52               	goto	u2460
  5036  0F51                     u2461:
  5037  0F51  2F7B               	goto	l1974
  5038  0F52                     u2460:
  5039  0F52                     l1956:
  5040  0F52  3000               	movlw	0
  5041  0F53  00F3               	movwf	?___fladd+3
  5042  0F54  3000               	movlw	0
  5043  0F55  00F2               	movwf	?___fladd+2
  5044  0F56  3000               	movlw	0
  5045  0F57  00F1               	movwf	?___fladd+1
  5046  0F58  3000               	movlw	0
  5047  0F59  00F0               	movwf	?___fladd
  5048  0F5A  2FFF               	goto	l578
  5049  0F5B                     l1960:
  5050  0F5B  3001               	movlw	1
  5051  0F5C  1283               	bcf	3,5	;RP0=0, select bank0
  5052  0F5D  1303               	bcf	3,6	;RP1=0, select bank0
  5053  0F5E  00A0               	movwf	??___fladd
  5054  0F5F                     u2475:
  5055  0F5F  1003               	clrc
  5056  0F60  0DF0               	rlf	___fladd@b,f
  5057  0F61  0DF1               	rlf	___fladd@b+1,f
  5058  0F62  0DF2               	rlf	___fladd@b+2,f
  5059  0F63  0DF3               	rlf	___fladd@b+3,f
  5060  0F64  0BA0               	decfsz	??___fladd,f
  5061  0F65  2F5F               	goto	u2475
  5062  0F66                     l1962:
  5063  0F66  1FFB               	btfss	___fladd@grs,7
  5064  0F67  2F69               	goto	u2481
  5065  0F68  2F6A               	goto	u2480
  5066  0F69                     u2481:
  5067  0F69  2F6B               	goto	l590
  5068  0F6A                     u2480:
  5069  0F6A                     l1964:
  5070  0F6A  1470               	bsf	___fladd@b,0
  5071  0F6B                     l590:
  5072  0F6B  1C7B               	btfss	___fladd@grs,0
  5073  0F6C  2F6E               	goto	u2491
  5074  0F6D  2F6F               	goto	u2490
  5075  0F6E                     u2491:
  5076  0F6E  2F72               	goto	l1968
  5077  0F6F                     u2490:
  5078  0F6F                     l1966:
  5079  0F6F  1403               	setc
  5080  0F70  0DFB               	rlf	___fladd@grs,f
  5081  0F71  2F74               	goto	l1970
  5082  0F72                     l1968:
  5083  0F72  1003               	clrc
  5084  0F73  0DFB               	rlf	___fladd@grs,f
  5085  0F74                     l1970:
  5086  0F74  087A               	movf	___fladd@bexp,w
  5087  0F75  1903               	btfsc	3,2
  5088  0F76  2F78               	goto	u2501
  5089  0F77  2F79               	goto	u2500
  5090  0F78                     u2501:
  5091  0F78  2F7B               	goto	l1974
  5092  0F79                     u2500:
  5093  0F79                     l1972:
  5094  0F79  3001               	movlw	1
  5095  0F7A  02FA               	subwf	___fladd@bexp,f
  5096  0F7B                     l1974:
  5097  0F7B  1FF2               	btfss	___fladd@b+2,7
  5098  0F7C  2F7E               	goto	u2511
  5099  0F7D  2F7F               	goto	u2510
  5100  0F7E                     u2511:
  5101  0F7E  2F5B               	goto	l1960
  5102  0F7F                     u2510:
  5103  0F7F                     l1976:
  5104  0F7F  01F9               	clrf	___fladd@aexp
  5105  0F80                     l1978:
  5106  0F80  1FFB               	btfss	___fladd@grs,7
  5107  0F81  2F83               	goto	u2521
  5108  0F82  2F84               	goto	u2520
  5109  0F83                     u2521:
  5110  0F83  2F92               	goto	l1986
  5111  0F84                     u2520:
  5112  0F84                     l1980:
  5113  0F84  087B               	movf	___fladd@grs,w
  5114  0F85  397F               	andlw	127
  5115  0F86  1903               	btfsc	3,2
  5116  0F87  2F89               	goto	u2531
  5117  0F88  2F8A               	goto	u2530
  5118  0F89                     u2531:
  5119  0F89  2F8D               	goto	l596
  5120  0F8A                     u2530:
  5121  0F8A                     l1982:
  5122  0F8A  01F9               	clrf	___fladd@aexp
  5123  0F8B  0AF9               	incf	___fladd@aexp,f
  5124  0F8C  2F92               	goto	l1986
  5125  0F8D                     l596:
  5126  0F8D  1C70               	btfss	___fladd@b,0
  5127  0F8E  2F90               	goto	u2541
  5128  0F8F  2F91               	goto	u2540
  5129  0F90                     u2541:
  5130  0F90  2F92               	goto	l1986
  5131  0F91                     u2540:
  5132  0F91  2F8A               	goto	l1982
  5133  0F92                     l1986:
  5134  0F92  0879               	movf	___fladd@aexp,w
  5135  0F93  1903               	btfsc	3,2
  5136  0F94  2F96               	goto	u2551
  5137  0F95  2F97               	goto	u2550
  5138  0F96                     u2551:
  5139  0F96  2FCD               	goto	l599
  5140  0F97                     u2550:
  5141  0F97                     l1988:
  5142  0F97  3001               	movlw	1
  5143  0F98  07F0               	addwf	___fladd@b,f
  5144  0F99  3000               	movlw	0
  5145  0F9A  1803               	skipnc
  5146  0F9B  3001               	movlw	1
  5147  0F9C  07F1               	addwf	___fladd@b+1,f
  5148  0F9D  3000               	movlw	0
  5149  0F9E  1803               	skipnc
  5150  0F9F  3001               	movlw	1
  5151  0FA0  07F2               	addwf	___fladd@b+2,f
  5152  0FA1  3000               	movlw	0
  5153  0FA2  1803               	skipnc
  5154  0FA3  3001               	movlw	1
  5155  0FA4  07F3               	addwf	___fladd@b+3,f
  5156  0FA5                     l1990:
  5157  0FA5  1C73               	btfss	___fladd@b+3,0
  5158  0FA6  2FA8               	goto	u2561
  5159  0FA7  2FA9               	goto	u2560
  5160  0FA8                     u2561:
  5161  0FA8  2FCD               	goto	l599
  5162  0FA9                     u2560:
  5163  0FA9                     l1992:
  5164  0FA9  0870               	movf	___fladd@b,w
  5165  0FAA  1283               	bcf	3,5	;RP0=0, select bank0
  5166  0FAB  1303               	bcf	3,6	;RP1=0, select bank0
  5167  0FAC  00A0               	movwf	??___fladd
  5168  0FAD  0871               	movf	___fladd@b+1,w
  5169  0FAE  00A1               	movwf	??___fladd+1
  5170  0FAF  0872               	movf	___fladd@b+2,w
  5171  0FB0  00A2               	movwf	??___fladd+2
  5172  0FB1  0873               	movf	___fladd@b+3,w
  5173  0FB2  00A3               	movwf	??___fladd+3
  5174  0FB3  3001               	movlw	1
  5175  0FB4  00A4               	movwf	??___fladd+4
  5176  0FB5                     u2575:
  5177  0FB5  0D23               	rlf	??___fladd+3,w
  5178  0FB6  0CA3               	rrf	??___fladd+3,f
  5179  0FB7  0CA2               	rrf	??___fladd+2,f
  5180  0FB8  0CA1               	rrf	??___fladd+1,f
  5181  0FB9  0CA0               	rrf	??___fladd,f
  5182  0FBA                     u2570:
  5183  0FBA  0BA4               	decfsz	??___fladd+4,f
  5184  0FBB  2FB5               	goto	u2575
  5185  0FBC  0823               	movf	??___fladd+3,w
  5186  0FBD  00F3               	movwf	___fladd@b+3
  5187  0FBE  0822               	movf	??___fladd+2,w
  5188  0FBF  00F2               	movwf	___fladd@b+2
  5189  0FC0  0821               	movf	??___fladd+1,w
  5190  0FC1  00F1               	movwf	___fladd@b+1
  5191  0FC2  0820               	movf	??___fladd,w
  5192  0FC3  00F0               	movwf	___fladd@b
  5193  0FC4  0A7A               	incf	___fladd@bexp,w
  5194  0FC5  1903               	btfsc	3,2
  5195  0FC6  2FC8               	goto	u2581
  5196  0FC7  2FC9               	goto	u2580
  5197  0FC8                     u2581:
  5198  0FC8  2FCD               	goto	l599
  5199  0FC9                     u2580:
  5200  0FC9                     l1994:
  5201  0FC9  3001               	movlw	1
  5202  0FCA  00A0               	movwf	??___fladd
  5203  0FCB  0820               	movf	??___fladd,w
  5204  0FCC  07FA               	addwf	___fladd@bexp,f
  5205  0FCD                     l599:
  5206  0FCD  0A7A               	incf	___fladd@bexp,w
  5207  0FCE  1903               	btfsc	3,2
  5208  0FCF  2FD1               	goto	u2591
  5209  0FD0  2FD2               	goto	u2590
  5210  0FD1                     u2591:
  5211  0FD1  2FD7               	goto	l1998
  5212  0FD2                     u2590:
  5213  0FD2                     l1996:
  5214  0FD2  087A               	movf	___fladd@bexp,w
  5215  0FD3  1D03               	btfss	3,2
  5216  0FD4  2FD6               	goto	u2601
  5217  0FD5  2FD7               	goto	u2600
  5218  0FD6                     u2601:
  5219  0FD6  2FE5               	goto	l2004
  5220  0FD7                     u2600:
  5221  0FD7                     l1998:
  5222  0FD7  3000               	movlw	0
  5223  0FD8  00F3               	movwf	___fladd@b+3
  5224  0FD9  3000               	movlw	0
  5225  0FDA  00F2               	movwf	___fladd@b+2
  5226  0FDB  3000               	movlw	0
  5227  0FDC  00F1               	movwf	___fladd@b+1
  5228  0FDD  3000               	movlw	0
  5229  0FDE  00F0               	movwf	___fladd@b
  5230  0FDF                     l2000:
  5231  0FDF  087A               	movf	___fladd@bexp,w
  5232  0FE0  1D03               	btfss	3,2
  5233  0FE1  2FE3               	goto	u2611
  5234  0FE2  2FE4               	goto	u2610
  5235  0FE3                     u2611:
  5236  0FE3  2FE5               	goto	l2004
  5237  0FE4                     u2610:
  5238  0FE4                     l2002:
  5239  0FE4  01F8               	clrf	___fladd@signs
  5240  0FE5                     l2004:
  5241  0FE5  1C7A               	btfss	___fladd@bexp,0
  5242  0FE6  2FE8               	goto	u2621
  5243  0FE7  2FE9               	goto	u2620
  5244  0FE8                     u2621:
  5245  0FE8  2FEB               	goto	l2008
  5246  0FE9                     u2620:
  5247  0FE9                     l2006:
  5248  0FE9  17F2               	bsf	___fladd@b+2,7
  5249  0FEA  2FF1               	goto	l607
  5250  0FEB                     l2008:
  5251  0FEB  307F               	movlw	127
  5252  0FEC  1283               	bcf	3,5	;RP0=0, select bank0
  5253  0FED  1303               	bcf	3,6	;RP1=0, select bank0
  5254  0FEE  00A0               	movwf	??___fladd
  5255  0FEF  0820               	movf	??___fladd,w
  5256  0FF0  05F2               	andwf	___fladd@b+2,f
  5257  0FF1                     l607:
  5258  0FF1  087A               	movf	___fladd@bexp,w
  5259  0FF2  1283               	bcf	3,5	;RP0=0, select bank0
  5260  0FF3  1303               	bcf	3,6	;RP1=0, select bank0
  5261  0FF4  00A0               	movwf	??___fladd
  5262  0FF5  1003               	clrc
  5263  0FF6  0C20               	rrf	??___fladd,w
  5264  0FF7  00A1               	movwf	??___fladd+1
  5265  0FF8  0821               	movf	??___fladd+1,w
  5266  0FF9  00F3               	movwf	___fladd@b+3
  5267  0FFA                     l2010:
  5268  0FFA  1FF8               	btfss	___fladd@signs,7
  5269  0FFB  2FFD               	goto	u2631
  5270  0FFC  2FFE               	goto	u2630
  5271  0FFD                     u2631:
  5272  0FFD  2FFF               	goto	l608
  5273  0FFE                     u2630:
  5274  0FFE                     l2012:
  5275  0FFE  17F3               	bsf	___fladd@b+3,7
  5276  0FFF                     l608:
  5277  0FFF                     l578:
  5278  0FFF  0008               	return
  5279  1000                     __end_of___fladd:
  5280                           
  5281                           	psect	text16
  5282  1579                     __ptext16:	
  5283 ;; *************** function ___flneg *****************
  5284 ;; Defined at:
  5285 ;;		line 15 in file "C:\Program Files\Microchip\xc8\v2.32\pic\sources\c90\common\flneg.c"
  5286 ;; Parameters:    Size  Location     Type
  5287 ;;  f1              4    0[COMMON] unsigned char 
  5288 ;; Auto vars:     Size  Location     Type
  5289 ;;		None
  5290 ;; Return value:  Size  Location     Type
  5291 ;;                  4    0[COMMON] unsigned char 
  5292 ;; Registers used:
  5293 ;;		wreg
  5294 ;; Tracked objects:
  5295 ;;		On entry : 0/0
  5296 ;;		On exit  : 0/0
  5297 ;;		Unchanged: 0/0
  5298 ;; Data sizes:     COMMON   BANK0   BANK1   BANK3   BANK2
  5299 ;;      Params:         4       0       0       0       0
  5300 ;;      Locals:         0       0       0       0       0
  5301 ;;      Temps:          0       0       0       0       0
  5302 ;;      Totals:         4       0       0       0       0
  5303 ;;Total ram usage:        4 bytes
  5304 ;; Hardware stack levels used: 1
  5305 ;; This function calls:
  5306 ;;		Nothing
  5307 ;; This function is called by:
  5308 ;;		_Quadra_Al
  5309 ;; This function uses a non-reentrant model
  5310 ;;
  5311                           
  5312                           
  5313                           ;psect for function ___flneg
  5314  1579                     ___flneg:
  5315  1579                     l2160:	
  5316                           ;incstack = 0
  5317                           ; Regs used in ___flneg: [wreg]
  5318                           
  5319  1579  0873               	movf	___flneg@f1+3,w
  5320  157A  0472               	iorwf	___flneg@f1+2,w
  5321  157B  0471               	iorwf	___flneg@f1+1,w
  5322  157C  0470               	iorwf	___flneg@f1,w
  5323  157D  1903               	skipnz
  5324  157E  2D80               	goto	u2931
  5325  157F  2D81               	goto	u2930
  5326  1580                     u2931:
  5327  1580  2D83               	goto	l2164
  5328  1581                     u2930:
  5329  1581                     l2162:
  5330  1581  3080               	movlw	128
  5331  1582  06F3               	xorwf	___flneg@f1+3,f
  5332  1583                     l2164:
  5333  1583                     l454:
  5334  1583  0008               	return
  5335  1584                     __end_of___flneg:
  5336                           
  5337                           	psect	text17
  5338  0015                     __ptext17:	
  5339 ;; *************** function ___flmul *****************
  5340 ;; Defined at:
  5341 ;;		line 8 in file "C:\Program Files\Microchip\xc8\v2.32\pic\sources\c90\common\sprcmul.c"
  5342 ;; Parameters:    Size  Location     Type
  5343 ;;  b               4    8[BANK0 ] unsigned char 
  5344 ;;  a               4   12[BANK0 ] unsigned char 
  5345 ;; Auto vars:     Size  Location     Type
  5346 ;;  prod            4   28[BANK0 ] struct .
  5347 ;;  grs             4   22[BANK0 ] unsigned long 
  5348 ;;  temp            2   32[BANK0 ] struct .
  5349 ;;  bexp            1   27[BANK0 ] unsigned char 
  5350 ;;  aexp            1   26[BANK0 ] unsigned char 
  5351 ;;  sign            1   21[BANK0 ] unsigned char 
  5352 ;; Return value:  Size  Location     Type
  5353 ;;                  4    8[BANK0 ] unsigned char 
  5354 ;; Registers used:
  5355 ;;		wreg, status,2, status,0, btemp+1, pclath, cstack
  5356 ;; Tracked objects:
  5357 ;;		On entry : 0/0
  5358 ;;		On exit  : 0/0
  5359 ;;		Unchanged: 0/0
  5360 ;; Data sizes:     COMMON   BANK0   BANK1   BANK3   BANK2
  5361 ;;      Params:         0       8       0       0       0
  5362 ;;      Locals:         0      13       0       0       0
  5363 ;;      Temps:          0       5       0       0       0
  5364 ;;      Totals:         0      26       0       0       0
  5365 ;;Total ram usage:       26 bytes
  5366 ;; Hardware stack levels used: 1
  5367 ;; Hardware stack levels required when called: 1
  5368 ;; This function calls:
  5369 ;;		__Umul8_16
  5370 ;; This function is called by:
  5371 ;;		_Quadra_Al
  5372 ;; This function uses a non-reentrant model
  5373 ;;
  5374                           
  5375                           
  5376                           ;psect for function ___flmul
  5377  0015                     ___flmul:
  5378  0015                     l2316:	
  5379                           ;incstack = 0
  5380                           ; Regs used in ___flmul: [wreg+status,2+status,0+btemp+1+pclath+cstack]
  5381                           
  5382  0015  1283               	bcf	3,5	;RP0=0, select bank0
  5383  0016  1303               	bcf	3,6	;RP1=0, select bank0
  5384  0017  082B               	movf	___flmul@b+3,w
  5385  0018  3980               	andlw	128
  5386  0019  00B0               	movwf	??___flmul
  5387  001A  0830               	movf	??___flmul,w
  5388  001B  00B5               	movwf	___flmul@sign
  5389  001C                     l2318:
  5390  001C  082B               	movf	___flmul@b+3,w
  5391  001D  00B0               	movwf	??___flmul
  5392  001E  0730               	addwf	??___flmul,w
  5393  001F  00B1               	movwf	??___flmul+1
  5394  0020  0831               	movf	??___flmul+1,w
  5395  0021  00BB               	movwf	___flmul@bexp
  5396  0022                     l2320:
  5397  0022  1FAA               	btfss	___flmul@b+2,7
  5398  0023  2825               	goto	u3231
  5399  0024  2826               	goto	u3230
  5400  0025                     u3231:
  5401  0025  2827               	goto	l2324
  5402  0026                     u3230:
  5403  0026                     l2322:
  5404  0026  143B               	bsf	___flmul@bexp,0
  5405  0027                     l2324:
  5406  0027  083B               	movf	___flmul@bexp,w
  5407  0028  1903               	btfsc	3,2
  5408  0029  282B               	goto	u3241
  5409  002A  282C               	goto	u3240
  5410  002B                     u3241:
  5411  002B  283B               	goto	l2332
  5412  002C                     u3240:
  5413  002C                     l2326:
  5414  002C  0A3B               	incf	___flmul@bexp,w
  5415  002D  1D03               	btfss	3,2
  5416  002E  2830               	goto	u3251
  5417  002F  2831               	goto	u3250
  5418  0030                     u3251:
  5419  0030  2839               	goto	l2330
  5420  0031                     u3250:
  5421  0031                     l2328:
  5422  0031  3000               	movlw	0
  5423  0032  00AB               	movwf	___flmul@b+3
  5424  0033  3000               	movlw	0
  5425  0034  00AA               	movwf	___flmul@b+2
  5426  0035  3000               	movlw	0
  5427  0036  00A9               	movwf	___flmul@b+1
  5428  0037  3000               	movlw	0
  5429  0038  00A8               	movwf	___flmul@b
  5430  0039                     l2330:
  5431  0039  17AA               	bsf	___flmul@b+2,7
  5432  003A  2843               	goto	l2334
  5433  003B                     l2332:
  5434  003B  3000               	movlw	0
  5435  003C  00AB               	movwf	___flmul@b+3
  5436  003D  3000               	movlw	0
  5437  003E  00AA               	movwf	___flmul@b+2
  5438  003F  3000               	movlw	0
  5439  0040  00A9               	movwf	___flmul@b+1
  5440  0041  3000               	movlw	0
  5441  0042  00A8               	movwf	___flmul@b
  5442  0043                     l2334:
  5443  0043  082F               	movf	___flmul@a+3,w
  5444  0044  3980               	andlw	128
  5445  0045  00B0               	movwf	??___flmul
  5446  0046  0830               	movf	??___flmul,w
  5447  0047  06B5               	xorwf	___flmul@sign,f
  5448  0048                     l2336:
  5449  0048  082F               	movf	___flmul@a+3,w
  5450  0049  00B0               	movwf	??___flmul
  5451  004A  0730               	addwf	??___flmul,w
  5452  004B  00B1               	movwf	??___flmul+1
  5453  004C  0831               	movf	??___flmul+1,w
  5454  004D  00BA               	movwf	___flmul@aexp
  5455  004E                     l2338:
  5456  004E  1FAE               	btfss	___flmul@a+2,7
  5457  004F  2851               	goto	u3261
  5458  0050  2852               	goto	u3260
  5459  0051                     u3261:
  5460  0051  2853               	goto	l2342
  5461  0052                     u3260:
  5462  0052                     l2340:
  5463  0052  143A               	bsf	___flmul@aexp,0
  5464  0053                     l2342:
  5465  0053  083A               	movf	___flmul@aexp,w
  5466  0054  1903               	btfsc	3,2
  5467  0055  2857               	goto	u3271
  5468  0056  2858               	goto	u3270
  5469  0057                     u3271:
  5470  0057  2867               	goto	l2350
  5471  0058                     u3270:
  5472  0058                     l2344:
  5473  0058  0A3A               	incf	___flmul@aexp,w
  5474  0059  1D03               	btfss	3,2
  5475  005A  285C               	goto	u3281
  5476  005B  285D               	goto	u3280
  5477  005C                     u3281:
  5478  005C  2865               	goto	l2348
  5479  005D                     u3280:
  5480  005D                     l2346:
  5481  005D  3000               	movlw	0
  5482  005E  00AF               	movwf	___flmul@a+3
  5483  005F  3000               	movlw	0
  5484  0060  00AE               	movwf	___flmul@a+2
  5485  0061  3000               	movlw	0
  5486  0062  00AD               	movwf	___flmul@a+1
  5487  0063  3000               	movlw	0
  5488  0064  00AC               	movwf	___flmul@a
  5489  0065                     l2348:
  5490  0065  17AE               	bsf	___flmul@a+2,7
  5491  0066  286F               	goto	l2352
  5492  0067                     l2350:
  5493  0067  3000               	movlw	0
  5494  0068  00AF               	movwf	___flmul@a+3
  5495  0069  3000               	movlw	0
  5496  006A  00AE               	movwf	___flmul@a+2
  5497  006B  3000               	movlw	0
  5498  006C  00AD               	movwf	___flmul@a+1
  5499  006D  3000               	movlw	0
  5500  006E  00AC               	movwf	___flmul@a
  5501  006F                     l2352:
  5502  006F  083A               	movf	___flmul@aexp,w
  5503  0070  1903               	btfsc	3,2
  5504  0071  2873               	goto	u3291
  5505  0072  2874               	goto	u3290
  5506  0073                     u3291:
  5507  0073  2879               	goto	l2356
  5508  0074                     u3290:
  5509  0074                     l2354:
  5510  0074  083B               	movf	___flmul@bexp,w
  5511  0075  1D03               	btfss	3,2
  5512  0076  2878               	goto	u3301
  5513  0077  2879               	goto	u3300
  5514  0078                     u3301:
  5515  0078  2882               	goto	l2360
  5516  0079                     u3300:
  5517  0079                     l2356:
  5518  0079  3000               	movlw	0
  5519  007A  00AB               	movwf	?___flmul+3
  5520  007B  3000               	movlw	0
  5521  007C  00AA               	movwf	?___flmul+2
  5522  007D  3000               	movlw	0
  5523  007E  00A9               	movwf	?___flmul+1
  5524  007F  3000               	movlw	0
  5525  0080  00A8               	movwf	?___flmul
  5526  0081  2B75               	goto	l661
  5527  0082                     l2360:
  5528  0082  0828               	movf	___flmul@b,w
  5529  0083  00B0               	movwf	??___flmul
  5530  0084  0830               	movf	??___flmul,w
  5531  0085  00F0               	movwf	__Umul8_16@multiplicand
  5532  0086  082E               	movf	___flmul@a+2,w
  5533  0087  120A  158A  2002  120A  118A  	fcall	__Umul8_16
  5534  008C  0871               	movf	?__Umul8_16+1,w
  5535  008D  1283               	bcf	3,5	;RP0=0, select bank0
  5536  008E  1303               	bcf	3,6	;RP1=0, select bank0
  5537  008F  00C1               	movwf	___flmul@temp+1
  5538  0090  0870               	movf	?__Umul8_16,w
  5539  0091  00C0               	movwf	___flmul@temp
  5540  0092                     l2362:
  5541  0092  0840               	movf	___flmul@temp,w
  5542  0093  00B0               	movwf	??___flmul
  5543  0094  01B1               	clrf	??___flmul+1
  5544  0095  01B2               	clrf	??___flmul+2
  5545  0096  01B3               	clrf	??___flmul+3
  5546  0097  0833               	movf	??___flmul+3,w
  5547  0098  00B9               	movwf	___flmul@grs+3
  5548  0099  0832               	movf	??___flmul+2,w
  5549  009A  00B8               	movwf	___flmul@grs+2
  5550  009B  0831               	movf	??___flmul+1,w
  5551  009C  00B7               	movwf	___flmul@grs+1
  5552  009D  0830               	movf	??___flmul,w
  5553  009E  00B6               	movwf	___flmul@grs
  5554  009F                     l2364:
  5555  009F  0841               	movf	___flmul@temp+1,w
  5556  00A0  00B0               	movwf	??___flmul
  5557  00A1  01B1               	clrf	??___flmul+1
  5558  00A2  01B2               	clrf	??___flmul+2
  5559  00A3  01B3               	clrf	??___flmul+3
  5560  00A4  0833               	movf	??___flmul+3,w
  5561  00A5  00BF               	movwf	___flmul@prod+3
  5562  00A6  0832               	movf	??___flmul+2,w
  5563  00A7  00BE               	movwf	___flmul@prod+2
  5564  00A8  0831               	movf	??___flmul+1,w
  5565  00A9  00BD               	movwf	___flmul@prod+1
  5566  00AA  0830               	movf	??___flmul,w
  5567  00AB  00BC               	movwf	___flmul@prod
  5568  00AC  0829               	movf	___flmul@b+1,w
  5569  00AD  00B0               	movwf	??___flmul
  5570  00AE  0830               	movf	??___flmul,w
  5571  00AF  00F0               	movwf	__Umul8_16@multiplicand
  5572  00B0  082D               	movf	___flmul@a+1,w
  5573  00B1  120A  158A  2002  120A  118A  	fcall	__Umul8_16
  5574  00B6  0871               	movf	?__Umul8_16+1,w
  5575  00B7  1283               	bcf	3,5	;RP0=0, select bank0
  5576  00B8  1303               	bcf	3,6	;RP1=0, select bank0
  5577  00B9  00C1               	movwf	___flmul@temp+1
  5578  00BA  0870               	movf	?__Umul8_16,w
  5579  00BB  00C0               	movwf	___flmul@temp
  5580  00BC                     l2366:
  5581  00BC  0840               	movf	___flmul@temp,w
  5582  00BD  00B0               	movwf	??___flmul
  5583  00BE  01B1               	clrf	??___flmul+1
  5584  00BF  01B2               	clrf	??___flmul+2
  5585  00C0  01B3               	clrf	??___flmul+3
  5586  00C1  0830               	movf	??___flmul,w
  5587  00C2  07B6               	addwf	___flmul@grs,f
  5588  00C3  0831               	movf	??___flmul+1,w
  5589  00C4  1103               	clrz
  5590  00C5  1803               	skipnc
  5591  00C6  3E01               	addlw	1
  5592  00C7  1903               	skipnz
  5593  00C8  28CA               	goto	u3311
  5594  00C9  07B7               	addwf	___flmul@grs+1,f
  5595  00CA                     u3311:
  5596  00CA  0832               	movf	??___flmul+2,w
  5597  00CB  1103               	clrz
  5598  00CC  1803               	skipnc
  5599  00CD  3E01               	addlw	1
  5600  00CE  1903               	skipnz
  5601  00CF  28D1               	goto	u3312
  5602  00D0  07B8               	addwf	___flmul@grs+2,f
  5603  00D1                     u3312:
  5604  00D1  0833               	movf	??___flmul+3,w
  5605  00D2  1103               	clrz
  5606  00D3  1803               	skipnc
  5607  00D4  3E01               	addlw	1
  5608  00D5  1903               	skipnz
  5609  00D6  28D8               	goto	u3313
  5610  00D7  07B9               	addwf	___flmul@grs+3,f
  5611  00D8                     u3313:
  5612  00D8                     l2368:
  5613  00D8  0841               	movf	___flmul@temp+1,w
  5614  00D9  00B0               	movwf	??___flmul
  5615  00DA  01B1               	clrf	??___flmul+1
  5616  00DB  01B2               	clrf	??___flmul+2
  5617  00DC  01B3               	clrf	??___flmul+3
  5618  00DD  0830               	movf	??___flmul,w
  5619  00DE  07BC               	addwf	___flmul@prod,f
  5620  00DF  0831               	movf	??___flmul+1,w
  5621  00E0  1103               	clrz
  5622  00E1  1803               	skipnc
  5623  00E2  3E01               	addlw	1
  5624  00E3  1903               	skipnz
  5625  00E4  28E6               	goto	u3321
  5626  00E5  07BD               	addwf	___flmul@prod+1,f
  5627  00E6                     u3321:
  5628  00E6  0832               	movf	??___flmul+2,w
  5629  00E7  1103               	clrz
  5630  00E8  1803               	skipnc
  5631  00E9  3E01               	addlw	1
  5632  00EA  1903               	skipnz
  5633  00EB  28ED               	goto	u3322
  5634  00EC  07BE               	addwf	___flmul@prod+2,f
  5635  00ED                     u3322:
  5636  00ED  0833               	movf	??___flmul+3,w
  5637  00EE  1103               	clrz
  5638  00EF  1803               	skipnc
  5639  00F0  3E01               	addlw	1
  5640  00F1  1903               	skipnz
  5641  00F2  28F4               	goto	u3323
  5642  00F3  07BF               	addwf	___flmul@prod+3,f
  5643  00F4                     u3323:
  5644  00F4  082A               	movf	___flmul@b+2,w
  5645  00F5  00B0               	movwf	??___flmul
  5646  00F6  0830               	movf	??___flmul,w
  5647  00F7  00F0               	movwf	__Umul8_16@multiplicand
  5648  00F8  082C               	movf	___flmul@a,w
  5649  00F9  120A  158A  2002  120A  118A  	fcall	__Umul8_16
  5650  00FE  0871               	movf	?__Umul8_16+1,w
  5651  00FF  1283               	bcf	3,5	;RP0=0, select bank0
  5652  0100  1303               	bcf	3,6	;RP1=0, select bank0
  5653  0101  00C1               	movwf	___flmul@temp+1
  5654  0102  0870               	movf	?__Umul8_16,w
  5655  0103  00C0               	movwf	___flmul@temp
  5656  0104                     l2370:
  5657  0104  0840               	movf	___flmul@temp,w
  5658  0105  00B0               	movwf	??___flmul
  5659  0106  01B1               	clrf	??___flmul+1
  5660  0107  01B2               	clrf	??___flmul+2
  5661  0108  01B3               	clrf	??___flmul+3
  5662  0109  0830               	movf	??___flmul,w
  5663  010A  07B6               	addwf	___flmul@grs,f
  5664  010B  0831               	movf	??___flmul+1,w
  5665  010C  1103               	clrz
  5666  010D  1803               	skipnc
  5667  010E  3E01               	addlw	1
  5668  010F  1903               	skipnz
  5669  0110  2912               	goto	u3331
  5670  0111  07B7               	addwf	___flmul@grs+1,f
  5671  0112                     u3331:
  5672  0112  0832               	movf	??___flmul+2,w
  5673  0113  1103               	clrz
  5674  0114  1803               	skipnc
  5675  0115  3E01               	addlw	1
  5676  0116  1903               	skipnz
  5677  0117  2919               	goto	u3332
  5678  0118  07B8               	addwf	___flmul@grs+2,f
  5679  0119                     u3332:
  5680  0119  0833               	movf	??___flmul+3,w
  5681  011A  1103               	clrz
  5682  011B  1803               	skipnc
  5683  011C  3E01               	addlw	1
  5684  011D  1903               	skipnz
  5685  011E  2920               	goto	u3333
  5686  011F  07B9               	addwf	___flmul@grs+3,f
  5687  0120                     u3333:
  5688  0120                     l2372:
  5689  0120  0841               	movf	___flmul@temp+1,w
  5690  0121  00B0               	movwf	??___flmul
  5691  0122  01B1               	clrf	??___flmul+1
  5692  0123  01B2               	clrf	??___flmul+2
  5693  0124  01B3               	clrf	??___flmul+3
  5694  0125  0830               	movf	??___flmul,w
  5695  0126  07BC               	addwf	___flmul@prod,f
  5696  0127  0831               	movf	??___flmul+1,w
  5697  0128  1103               	clrz
  5698  0129  1803               	skipnc
  5699  012A  3E01               	addlw	1
  5700  012B  1903               	skipnz
  5701  012C  292E               	goto	u3341
  5702  012D  07BD               	addwf	___flmul@prod+1,f
  5703  012E                     u3341:
  5704  012E  0832               	movf	??___flmul+2,w
  5705  012F  1103               	clrz
  5706  0130  1803               	skipnc
  5707  0131  3E01               	addlw	1
  5708  0132  1903               	skipnz
  5709  0133  2935               	goto	u3342
  5710  0134  07BE               	addwf	___flmul@prod+2,f
  5711  0135                     u3342:
  5712  0135  0833               	movf	??___flmul+3,w
  5713  0136  1103               	clrz
  5714  0137  1803               	skipnc
  5715  0138  3E01               	addlw	1
  5716  0139  1903               	skipnz
  5717  013A  293C               	goto	u3343
  5718  013B  07BF               	addwf	___flmul@prod+3,f
  5719  013C                     u3343:
  5720  013C                     l2374:
  5721  013C  3008               	movlw	8
  5722  013D  00B0               	movwf	??___flmul
  5723  013E                     u3355:
  5724  013E  1003               	clrc
  5725  013F  0DB6               	rlf	___flmul@grs,f
  5726  0140  0DB7               	rlf	___flmul@grs+1,f
  5727  0141  0DB8               	rlf	___flmul@grs+2,f
  5728  0142  0DB9               	rlf	___flmul@grs+3,f
  5729  0143  0BB0               	decfsz	??___flmul,f
  5730  0144  293E               	goto	u3355
  5731  0145                     l2376:
  5732  0145  0829               	movf	___flmul@b+1,w
  5733  0146  00B0               	movwf	??___flmul
  5734  0147  0830               	movf	??___flmul,w
  5735  0148  00F0               	movwf	__Umul8_16@multiplicand
  5736  0149  082C               	movf	___flmul@a,w
  5737  014A  120A  158A  2002  120A  118A  	fcall	__Umul8_16
  5738  014F  0871               	movf	?__Umul8_16+1,w
  5739  0150  1283               	bcf	3,5	;RP0=0, select bank0
  5740  0151  1303               	bcf	3,6	;RP1=0, select bank0
  5741  0152  00C1               	movwf	___flmul@temp+1
  5742  0153  0870               	movf	?__Umul8_16,w
  5743  0154  00C0               	movwf	___flmul@temp
  5744  0155                     l2378:
  5745  0155  0840               	movf	___flmul@temp,w
  5746  0156  00B0               	movwf	??___flmul
  5747  0157  0841               	movf	___flmul@temp+1,w
  5748  0158  00B1               	movwf	??___flmul+1
  5749  0159  01B2               	clrf	??___flmul+2
  5750  015A  01B3               	clrf	??___flmul+3
  5751  015B  0830               	movf	??___flmul,w
  5752  015C  07B6               	addwf	___flmul@grs,f
  5753  015D  0831               	movf	??___flmul+1,w
  5754  015E  1103               	clrz
  5755  015F  1803               	skipnc
  5756  0160  3E01               	addlw	1
  5757  0161  1903               	skipnz
  5758  0162  2964               	goto	u3361
  5759  0163  07B7               	addwf	___flmul@grs+1,f
  5760  0164                     u3361:
  5761  0164  0832               	movf	??___flmul+2,w
  5762  0165  1103               	clrz
  5763  0166  1803               	skipnc
  5764  0167  3E01               	addlw	1
  5765  0168  1903               	skipnz
  5766  0169  296B               	goto	u3362
  5767  016A  07B8               	addwf	___flmul@grs+2,f
  5768  016B                     u3362:
  5769  016B  0833               	movf	??___flmul+3,w
  5770  016C  1103               	clrz
  5771  016D  1803               	skipnc
  5772  016E  3E01               	addlw	1
  5773  016F  1903               	skipnz
  5774  0170  2972               	goto	u3363
  5775  0171  07B9               	addwf	___flmul@grs+3,f
  5776  0172                     u3363:
  5777  0172                     l2380:
  5778  0172  0828               	movf	___flmul@b,w
  5779  0173  00B0               	movwf	??___flmul
  5780  0174  0830               	movf	??___flmul,w
  5781  0175  00F0               	movwf	__Umul8_16@multiplicand
  5782  0176  082D               	movf	___flmul@a+1,w
  5783  0177  120A  158A  2002  120A  118A  	fcall	__Umul8_16
  5784  017C  0871               	movf	?__Umul8_16+1,w
  5785  017D  1283               	bcf	3,5	;RP0=0, select bank0
  5786  017E  1303               	bcf	3,6	;RP1=0, select bank0
  5787  017F  00C1               	movwf	___flmul@temp+1
  5788  0180  0870               	movf	?__Umul8_16,w
  5789  0181  00C0               	movwf	___flmul@temp
  5790  0182                     l2382:
  5791  0182  0840               	movf	___flmul@temp,w
  5792  0183  00B0               	movwf	??___flmul
  5793  0184  0841               	movf	___flmul@temp+1,w
  5794  0185  00B1               	movwf	??___flmul+1
  5795  0186  01B2               	clrf	??___flmul+2
  5796  0187  01B3               	clrf	??___flmul+3
  5797  0188  0830               	movf	??___flmul,w
  5798  0189  07B6               	addwf	___flmul@grs,f
  5799  018A  0831               	movf	??___flmul+1,w
  5800  018B  1103               	clrz
  5801  018C  1803               	skipnc
  5802  018D  3E01               	addlw	1
  5803  018E  1903               	skipnz
  5804  018F  2991               	goto	u3371
  5805  0190  07B7               	addwf	___flmul@grs+1,f
  5806  0191                     u3371:
  5807  0191  0832               	movf	??___flmul+2,w
  5808  0192  1103               	clrz
  5809  0193  1803               	skipnc
  5810  0194  3E01               	addlw	1
  5811  0195  1903               	skipnz
  5812  0196  2998               	goto	u3372
  5813  0197  07B8               	addwf	___flmul@grs+2,f
  5814  0198                     u3372:
  5815  0198  0833               	movf	??___flmul+3,w
  5816  0199  1103               	clrz
  5817  019A  1803               	skipnc
  5818  019B  3E01               	addlw	1
  5819  019C  1903               	skipnz
  5820  019D  299F               	goto	u3373
  5821  019E  07B9               	addwf	___flmul@grs+3,f
  5822  019F                     u3373:
  5823  019F                     l2384:
  5824  019F  3008               	movlw	8
  5825  01A0  00B0               	movwf	??___flmul
  5826  01A1                     u3385:
  5827  01A1  1003               	clrc
  5828  01A2  0DB6               	rlf	___flmul@grs,f
  5829  01A3  0DB7               	rlf	___flmul@grs+1,f
  5830  01A4  0DB8               	rlf	___flmul@grs+2,f
  5831  01A5  0DB9               	rlf	___flmul@grs+3,f
  5832  01A6  0BB0               	decfsz	??___flmul,f
  5833  01A7  29A1               	goto	u3385
  5834  01A8  0828               	movf	___flmul@b,w
  5835  01A9  00B0               	movwf	??___flmul
  5836  01AA  0830               	movf	??___flmul,w
  5837  01AB  00F0               	movwf	__Umul8_16@multiplicand
  5838  01AC  082C               	movf	___flmul@a,w
  5839  01AD  120A  158A  2002  120A  118A  	fcall	__Umul8_16
  5840  01B2  0871               	movf	?__Umul8_16+1,w
  5841  01B3  1283               	bcf	3,5	;RP0=0, select bank0
  5842  01B4  1303               	bcf	3,6	;RP1=0, select bank0
  5843  01B5  00C1               	movwf	___flmul@temp+1
  5844  01B6  0870               	movf	?__Umul8_16,w
  5845  01B7  00C0               	movwf	___flmul@temp
  5846  01B8                     l2386:
  5847  01B8  0840               	movf	___flmul@temp,w
  5848  01B9  00B0               	movwf	??___flmul
  5849  01BA  0841               	movf	___flmul@temp+1,w
  5850  01BB  00B1               	movwf	??___flmul+1
  5851  01BC  01B2               	clrf	??___flmul+2
  5852  01BD  01B3               	clrf	??___flmul+3
  5853  01BE  0830               	movf	??___flmul,w
  5854  01BF  07B6               	addwf	___flmul@grs,f
  5855  01C0  0831               	movf	??___flmul+1,w
  5856  01C1  1103               	clrz
  5857  01C2  1803               	skipnc
  5858  01C3  3E01               	addlw	1
  5859  01C4  1903               	skipnz
  5860  01C5  29C7               	goto	u3391
  5861  01C6  07B7               	addwf	___flmul@grs+1,f
  5862  01C7                     u3391:
  5863  01C7  0832               	movf	??___flmul+2,w
  5864  01C8  1103               	clrz
  5865  01C9  1803               	skipnc
  5866  01CA  3E01               	addlw	1
  5867  01CB  1903               	skipnz
  5868  01CC  29CE               	goto	u3392
  5869  01CD  07B8               	addwf	___flmul@grs+2,f
  5870  01CE                     u3392:
  5871  01CE  0833               	movf	??___flmul+3,w
  5872  01CF  1103               	clrz
  5873  01D0  1803               	skipnc
  5874  01D1  3E01               	addlw	1
  5875  01D2  1903               	skipnz
  5876  01D3  29D5               	goto	u3393
  5877  01D4  07B9               	addwf	___flmul@grs+3,f
  5878  01D5                     u3393:
  5879  01D5                     l2388:
  5880  01D5  0829               	movf	___flmul@b+1,w
  5881  01D6  00B0               	movwf	??___flmul
  5882  01D7  0830               	movf	??___flmul,w
  5883  01D8  00F0               	movwf	__Umul8_16@multiplicand
  5884  01D9  082E               	movf	___flmul@a+2,w
  5885  01DA  120A  158A  2002  120A  118A  	fcall	__Umul8_16
  5886  01DF  0871               	movf	?__Umul8_16+1,w
  5887  01E0  1283               	bcf	3,5	;RP0=0, select bank0
  5888  01E1  1303               	bcf	3,6	;RP1=0, select bank0
  5889  01E2  00C1               	movwf	___flmul@temp+1
  5890  01E3  0870               	movf	?__Umul8_16,w
  5891  01E4  00C0               	movwf	___flmul@temp
  5892  01E5  0840               	movf	___flmul@temp,w
  5893  01E6  00B0               	movwf	??___flmul
  5894  01E7  0841               	movf	___flmul@temp+1,w
  5895  01E8  00B1               	movwf	??___flmul+1
  5896  01E9  01B2               	clrf	??___flmul+2
  5897  01EA  01B3               	clrf	??___flmul+3
  5898  01EB  0830               	movf	??___flmul,w
  5899  01EC  07BC               	addwf	___flmul@prod,f
  5900  01ED  0831               	movf	??___flmul+1,w
  5901  01EE  1103               	clrz
  5902  01EF  1803               	skipnc
  5903  01F0  3E01               	addlw	1
  5904  01F1  1903               	skipnz
  5905  01F2  29F4               	goto	u3401
  5906  01F3  07BD               	addwf	___flmul@prod+1,f
  5907  01F4                     u3401:
  5908  01F4  0832               	movf	??___flmul+2,w
  5909  01F5  1103               	clrz
  5910  01F6  1803               	skipnc
  5911  01F7  3E01               	addlw	1
  5912  01F8  1903               	skipnz
  5913  01F9  29FB               	goto	u3402
  5914  01FA  07BE               	addwf	___flmul@prod+2,f
  5915  01FB                     u3402:
  5916  01FB  0833               	movf	??___flmul+3,w
  5917  01FC  1103               	clrz
  5918  01FD  1803               	skipnc
  5919  01FE  3E01               	addlw	1
  5920  01FF  1903               	skipnz
  5921  0200  2A02               	goto	u3403
  5922  0201  07BF               	addwf	___flmul@prod+3,f
  5923  0202                     u3403:
  5924  0202                     l2390:
  5925  0202  082A               	movf	___flmul@b+2,w
  5926  0203  00B0               	movwf	??___flmul
  5927  0204  0830               	movf	??___flmul,w
  5928  0205  00F0               	movwf	__Umul8_16@multiplicand
  5929  0206  082D               	movf	___flmul@a+1,w
  5930  0207  120A  158A  2002  120A  118A  	fcall	__Umul8_16
  5931  020C  0871               	movf	?__Umul8_16+1,w
  5932  020D  1283               	bcf	3,5	;RP0=0, select bank0
  5933  020E  1303               	bcf	3,6	;RP1=0, select bank0
  5934  020F  00C1               	movwf	___flmul@temp+1
  5935  0210  0870               	movf	?__Umul8_16,w
  5936  0211  00C0               	movwf	___flmul@temp
  5937  0212                     l2392:
  5938  0212  0840               	movf	___flmul@temp,w
  5939  0213  00B0               	movwf	??___flmul
  5940  0214  0841               	movf	___flmul@temp+1,w
  5941  0215  00B1               	movwf	??___flmul+1
  5942  0216  01B2               	clrf	??___flmul+2
  5943  0217  01B3               	clrf	??___flmul+3
  5944  0218  0830               	movf	??___flmul,w
  5945  0219  07BC               	addwf	___flmul@prod,f
  5946  021A  0831               	movf	??___flmul+1,w
  5947  021B  1103               	clrz
  5948  021C  1803               	skipnc
  5949  021D  3E01               	addlw	1
  5950  021E  1903               	skipnz
  5951  021F  2A21               	goto	u3411
  5952  0220  07BD               	addwf	___flmul@prod+1,f
  5953  0221                     u3411:
  5954  0221  0832               	movf	??___flmul+2,w
  5955  0222  1103               	clrz
  5956  0223  1803               	skipnc
  5957  0224  3E01               	addlw	1
  5958  0225  1903               	skipnz
  5959  0226  2A28               	goto	u3412
  5960  0227  07BE               	addwf	___flmul@prod+2,f
  5961  0228                     u3412:
  5962  0228  0833               	movf	??___flmul+3,w
  5963  0229  1103               	clrz
  5964  022A  1803               	skipnc
  5965  022B  3E01               	addlw	1
  5966  022C  1903               	skipnz
  5967  022D  2A2F               	goto	u3413
  5968  022E  07BF               	addwf	___flmul@prod+3,f
  5969  022F                     u3413:
  5970  022F  082A               	movf	___flmul@b+2,w
  5971  0230  00B0               	movwf	??___flmul
  5972  0231  0830               	movf	??___flmul,w
  5973  0232  00F0               	movwf	__Umul8_16@multiplicand
  5974  0233  082E               	movf	___flmul@a+2,w
  5975  0234  120A  158A  2002  120A  118A  	fcall	__Umul8_16
  5976  0239  0871               	movf	?__Umul8_16+1,w
  5977  023A  1283               	bcf	3,5	;RP0=0, select bank0
  5978  023B  1303               	bcf	3,6	;RP1=0, select bank0
  5979  023C  00C1               	movwf	___flmul@temp+1
  5980  023D  0870               	movf	?__Umul8_16,w
  5981  023E  00C0               	movwf	___flmul@temp
  5982  023F                     l2394:
  5983  023F  0840               	movf	___flmul@temp,w
  5984  0240  00B0               	movwf	??___flmul
  5985  0241  0841               	movf	___flmul@temp+1,w
  5986  0242  00B1               	movwf	??___flmul+1
  5987  0243  01B2               	clrf	??___flmul+2
  5988  0244  01B3               	clrf	??___flmul+3
  5989  0245  3008               	movlw	8
  5990  0246                     u3425:
  5991  0246  1003               	clrc
  5992  0247  0DB0               	rlf	??___flmul,f
  5993  0248  0DB1               	rlf	??___flmul+1,f
  5994  0249  0DB2               	rlf	??___flmul+2,f
  5995  024A  0DB3               	rlf	??___flmul+3,f
  5996  024B                     u3420:
  5997  024B  3EFF               	addlw	-1
  5998  024C  1D03               	skipz
  5999  024D  2A46               	goto	u3425
  6000  024E  0830               	movf	??___flmul,w
  6001  024F  07BC               	addwf	___flmul@prod,f
  6002  0250  0831               	movf	??___flmul+1,w
  6003  0251  1103               	clrz
  6004  0252  1803               	skipnc
  6005  0253  3E01               	addlw	1
  6006  0254  1903               	skipnz
  6007  0255  2A57               	goto	u3431
  6008  0256  07BD               	addwf	___flmul@prod+1,f
  6009  0257                     u3431:
  6010  0257  0832               	movf	??___flmul+2,w
  6011  0258  1103               	clrz
  6012  0259  1803               	skipnc
  6013  025A  3E01               	addlw	1
  6014  025B  1903               	skipnz
  6015  025C  2A5E               	goto	u3432
  6016  025D  07BE               	addwf	___flmul@prod+2,f
  6017  025E                     u3432:
  6018  025E  0833               	movf	??___flmul+3,w
  6019  025F  1103               	clrz
  6020  0260  1803               	skipnc
  6021  0261  3E01               	addlw	1
  6022  0262  1903               	skipnz
  6023  0263  2A65               	goto	u3433
  6024  0264  07BF               	addwf	___flmul@prod+3,f
  6025  0265                     u3433:
  6026  0265                     l2396:
  6027  0265  0836               	movf	___flmul@grs,w
  6028  0266  00B0               	movwf	??___flmul
  6029  0267  0837               	movf	___flmul@grs+1,w
  6030  0268  00B1               	movwf	??___flmul+1
  6031  0269  0838               	movf	___flmul@grs+2,w
  6032  026A  00B2               	movwf	??___flmul+2
  6033  026B  0839               	movf	___flmul@grs+3,w
  6034  026C  00B3               	movwf	??___flmul+3
  6035  026D  3018               	movlw	24
  6036  026E                     u3445:
  6037  026E  1003               	clrc
  6038  026F  0CB3               	rrf	??___flmul+3,f
  6039  0270  0CB2               	rrf	??___flmul+2,f
  6040  0271  0CB1               	rrf	??___flmul+1,f
  6041  0272  0CB0               	rrf	??___flmul,f
  6042  0273                     u3440:
  6043  0273  3EFF               	addlw	-1
  6044  0274  1D03               	skipz
  6045  0275  2A6E               	goto	u3445
  6046  0276  0830               	movf	??___flmul,w
  6047  0277  07BC               	addwf	___flmul@prod,f
  6048  0278  0831               	movf	??___flmul+1,w
  6049  0279  1103               	clrz
  6050  027A  1803               	skipnc
  6051  027B  3E01               	addlw	1
  6052  027C  1903               	skipnz
  6053  027D  2A7F               	goto	u3451
  6054  027E  07BD               	addwf	___flmul@prod+1,f
  6055  027F                     u3451:
  6056  027F  0832               	movf	??___flmul+2,w
  6057  0280  1103               	clrz
  6058  0281  1803               	skipnc
  6059  0282  3E01               	addlw	1
  6060  0283  1903               	skipnz
  6061  0284  2A86               	goto	u3452
  6062  0285  07BE               	addwf	___flmul@prod+2,f
  6063  0286                     u3452:
  6064  0286  0833               	movf	??___flmul+3,w
  6065  0287  1103               	clrz
  6066  0288  1803               	skipnc
  6067  0289  3E01               	addlw	1
  6068  028A  1903               	skipnz
  6069  028B  2A8D               	goto	u3453
  6070  028C  07BF               	addwf	___flmul@prod+3,f
  6071  028D                     u3453:
  6072  028D                     l2398:
  6073  028D  3008               	movlw	8
  6074  028E  00B0               	movwf	??___flmul
  6075  028F                     u3465:
  6076  028F  1003               	clrc
  6077  0290  0DB6               	rlf	___flmul@grs,f
  6078  0291  0DB7               	rlf	___flmul@grs+1,f
  6079  0292  0DB8               	rlf	___flmul@grs+2,f
  6080  0293  0DB9               	rlf	___flmul@grs+3,f
  6081  0294  0BB0               	decfsz	??___flmul,f
  6082  0295  2A8F               	goto	u3465
  6083  0296                     l2400:
  6084  0296  083B               	movf	___flmul@bexp,w
  6085  0297  073A               	addwf	___flmul@aexp,w
  6086  0298  00B0               	movwf	??___flmul
  6087  0299  01B1               	clrf	??___flmul+1
  6088  029A  0DB1               	rlf	??___flmul+1,f
  6089  029B  0830               	movf	??___flmul,w
  6090  029C  3E82               	addlw	130
  6091  029D  00C0               	movwf	___flmul@temp
  6092  029E  0831               	movf	??___flmul+1,w
  6093  029F  1803               	skipnc
  6094  02A0  3E01               	addlw	1
  6095  02A1  3EFF               	addlw	255
  6096  02A2  00C1               	movwf	___flmul@temp+1
  6097  02A3  2AC1               	goto	l2412
  6098  02A4                     l2402:
  6099  02A4  3001               	movlw	1
  6100  02A5  00B0               	movwf	??___flmul
  6101  02A6                     u3475:
  6102  02A6  1003               	clrc
  6103  02A7  0DBC               	rlf	___flmul@prod,f
  6104  02A8  0DBD               	rlf	___flmul@prod+1,f
  6105  02A9  0DBE               	rlf	___flmul@prod+2,f
  6106  02AA  0DBF               	rlf	___flmul@prod+3,f
  6107  02AB  0BB0               	decfsz	??___flmul,f
  6108  02AC  2AA6               	goto	u3475
  6109  02AD                     l2404:
  6110  02AD  1FB9               	btfss	___flmul@grs+3,7
  6111  02AE  2AB0               	goto	u3481
  6112  02AF  2AB1               	goto	u3480
  6113  02B0                     u3481:
  6114  02B0  2AB2               	goto	l2408
  6115  02B1                     u3480:
  6116  02B1                     l2406:
  6117  02B1  143C               	bsf	___flmul@prod,0
  6118  02B2                     l2408:
  6119  02B2  3001               	movlw	1
  6120  02B3  00B0               	movwf	??___flmul
  6121  02B4                     u3495:
  6122  02B4  1003               	clrc
  6123  02B5  0DB6               	rlf	___flmul@grs,f
  6124  02B6  0DB7               	rlf	___flmul@grs+1,f
  6125  02B7  0DB8               	rlf	___flmul@grs+2,f
  6126  02B8  0DB9               	rlf	___flmul@grs+3,f
  6127  02B9  0BB0               	decfsz	??___flmul,f
  6128  02BA  2AB4               	goto	u3495
  6129  02BB                     l2410:
  6130  02BB  30FF               	movlw	255
  6131  02BC  07C0               	addwf	___flmul@temp,f
  6132  02BD  1803               	skipnc
  6133  02BE  0AC1               	incf	___flmul@temp+1,f
  6134  02BF  30FF               	movlw	255
  6135  02C0  07C1               	addwf	___flmul@temp+1,f
  6136  02C1                     l2412:
  6137  02C1  1FBE               	btfss	___flmul@prod+2,7
  6138  02C2  2AC4               	goto	u3501
  6139  02C3  2AC5               	goto	u3500
  6140  02C4                     u3501:
  6141  02C4  2AA4               	goto	l2402
  6142  02C5                     u3500:
  6143  02C5                     l2414:
  6144  02C5  01BA               	clrf	___flmul@aexp
  6145  02C6                     l2416:
  6146  02C6  1FB9               	btfss	___flmul@grs+3,7
  6147  02C7  2AC9               	goto	u3511
  6148  02C8  2ACA               	goto	u3510
  6149  02C9                     u3511:
  6150  02C9  2AE6               	goto	l2424
  6151  02CA                     u3510:
  6152  02CA                     l2418:
  6153  02CA  30FF               	movlw	255
  6154  02CB  0536               	andwf	___flmul@grs,w
  6155  02CC  00B0               	movwf	??___flmul
  6156  02CD  30FF               	movlw	255
  6157  02CE  0537               	andwf	___flmul@grs+1,w
  6158  02CF  00B1               	movwf	??___flmul+1
  6159  02D0  30FF               	movlw	255
  6160  02D1  0538               	andwf	___flmul@grs+2,w
  6161  02D2  00B2               	movwf	??___flmul+2
  6162  02D3  307F               	movlw	127
  6163  02D4  0539               	andwf	___flmul@grs+3,w
  6164  02D5  00B3               	movwf	??___flmul+3
  6165  02D6  0833               	movf	??___flmul+3,w
  6166  02D7  0432               	iorwf	??___flmul+2,w
  6167  02D8  0431               	iorwf	??___flmul+1,w
  6168  02D9  0430               	iorwf	??___flmul,w
  6169  02DA  1903               	skipnz
  6170  02DB  2ADD               	goto	u3521
  6171  02DC  2ADE               	goto	u3520
  6172  02DD                     u3521:
  6173  02DD  2AE1               	goto	l667
  6174  02DE                     u3520:
  6175  02DE                     l2420:
  6176  02DE  01BA               	clrf	___flmul@aexp
  6177  02DF  0ABA               	incf	___flmul@aexp,f
  6178  02E0  2AE6               	goto	l2424
  6179  02E1                     l667:
  6180  02E1  1C3C               	btfss	___flmul@prod,0
  6181  02E2  2AE4               	goto	u3531
  6182  02E3  2AE5               	goto	u3530
  6183  02E4                     u3531:
  6184  02E4  2AE6               	goto	l2424
  6185  02E5                     u3530:
  6186  02E5  2ADE               	goto	l2420
  6187  02E6                     l2424:
  6188  02E6  083A               	movf	___flmul@aexp,w
  6189  02E7  1903               	btfsc	3,2
  6190  02E8  2AEA               	goto	u3541
  6191  02E9  2AEB               	goto	u3540
  6192  02EA                     u3541:
  6193  02EA  2B1C               	goto	l2434
  6194  02EB                     u3540:
  6195  02EB                     l2426:
  6196  02EB  3001               	movlw	1
  6197  02EC  07BC               	addwf	___flmul@prod,f
  6198  02ED  3000               	movlw	0
  6199  02EE  1803               	skipnc
  6200  02EF  3001               	movlw	1
  6201  02F0  07BD               	addwf	___flmul@prod+1,f
  6202  02F1  3000               	movlw	0
  6203  02F2  1803               	skipnc
  6204  02F3  3001               	movlw	1
  6205  02F4  07BE               	addwf	___flmul@prod+2,f
  6206  02F5  3000               	movlw	0
  6207  02F6  1803               	skipnc
  6208  02F7  3001               	movlw	1
  6209  02F8  07BF               	addwf	___flmul@prod+3,f
  6210  02F9                     l2428:
  6211  02F9  1C3F               	btfss	___flmul@prod+3,0
  6212  02FA  2AFC               	goto	u3551
  6213  02FB  2AFD               	goto	u3550
  6214  02FC                     u3551:
  6215  02FC  2B1C               	goto	l2434
  6216  02FD                     u3550:
  6217  02FD                     l2430:
  6218  02FD  083C               	movf	___flmul@prod,w
  6219  02FE  00B0               	movwf	??___flmul
  6220  02FF  083D               	movf	___flmul@prod+1,w
  6221  0300  00B1               	movwf	??___flmul+1
  6222  0301  083E               	movf	___flmul@prod+2,w
  6223  0302  00B2               	movwf	??___flmul+2
  6224  0303  083F               	movf	___flmul@prod+3,w
  6225  0304  00B3               	movwf	??___flmul+3
  6226  0305  3001               	movlw	1
  6227  0306  00B4               	movwf	??___flmul+4
  6228  0307                     u3565:
  6229  0307  0D33               	rlf	??___flmul+3,w
  6230  0308  0CB3               	rrf	??___flmul+3,f
  6231  0309  0CB2               	rrf	??___flmul+2,f
  6232  030A  0CB1               	rrf	??___flmul+1,f
  6233  030B  0CB0               	rrf	??___flmul,f
  6234  030C                     u3560:
  6235  030C  0BB4               	decfsz	??___flmul+4,f
  6236  030D  2B07               	goto	u3565
  6237  030E  0833               	movf	??___flmul+3,w
  6238  030F  00BF               	movwf	___flmul@prod+3
  6239  0310  0832               	movf	??___flmul+2,w
  6240  0311  00BE               	movwf	___flmul@prod+2
  6241  0312  0831               	movf	??___flmul+1,w
  6242  0313  00BD               	movwf	___flmul@prod+1
  6243  0314  0830               	movf	??___flmul,w
  6244  0315  00BC               	movwf	___flmul@prod
  6245  0316                     l2432:
  6246  0316  3001               	movlw	1
  6247  0317  07C0               	addwf	___flmul@temp,f
  6248  0318  1803               	skipnc
  6249  0319  0AC1               	incf	___flmul@temp+1,f
  6250  031A  3000               	movlw	0
  6251  031B  07C1               	addwf	___flmul@temp+1,f
  6252  031C                     l2434:
  6253  031C  0841               	movf	___flmul@temp+1,w
  6254  031D  3A80               	xorlw	128
  6255  031E  00FF               	movwf	btemp+1
  6256  031F  3080               	movlw	128
  6257  0320  027F               	subwf	btemp+1,w
  6258  0321  1D03               	skipz
  6259  0322  2B25               	goto	u3575
  6260  0323  30FF               	movlw	255
  6261  0324  0240               	subwf	___flmul@temp,w
  6262  0325                     u3575:
  6263  0325  1C03               	skipc
  6264  0326  2B28               	goto	u3571
  6265  0327  2B29               	goto	u3570
  6266  0328                     u3571:
  6267  0328  2B34               	goto	l2438
  6268  0329                     u3570:
  6269  0329                     l2436:
  6270  0329  307F               	movlw	127
  6271  032A  1283               	bcf	3,5	;RP0=0, select bank0
  6272  032B  1303               	bcf	3,6	;RP1=0, select bank0
  6273  032C  00BF               	movwf	___flmul@prod+3
  6274  032D  3080               	movlw	128
  6275  032E  00BE               	movwf	___flmul@prod+2
  6276  032F  3000               	movlw	0
  6277  0330  00BD               	movwf	___flmul@prod+1
  6278  0331  3000               	movlw	0
  6279  0332  00BC               	movwf	___flmul@prod
  6280  0333  2B69               	goto	l673
  6281  0334                     l2438:
  6282  0334  1283               	bcf	3,5	;RP0=0, select bank0
  6283  0335  1303               	bcf	3,6	;RP1=0, select bank0
  6284  0336  0841               	movf	___flmul@temp+1,w
  6285  0337  3A80               	xorlw	128
  6286  0338  00FF               	movwf	btemp+1
  6287  0339  3080               	movlw	128
  6288  033A  027F               	subwf	btemp+1,w
  6289  033B  1D03               	skipz
  6290  033C  2B3F               	goto	u3585
  6291  033D  3001               	movlw	1
  6292  033E  0240               	subwf	___flmul@temp,w
  6293  033F                     u3585:
  6294  033F  1803               	skipnc
  6295  0340  2B42               	goto	u3581
  6296  0341  2B43               	goto	u3580
  6297  0342                     u3581:
  6298  0342  2B4F               	goto	l2444
  6299  0343                     u3580:
  6300  0343                     l2440:
  6301  0343  3000               	movlw	0
  6302  0344  1283               	bcf	3,5	;RP0=0, select bank0
  6303  0345  1303               	bcf	3,6	;RP1=0, select bank0
  6304  0346  00BF               	movwf	___flmul@prod+3
  6305  0347  3000               	movlw	0
  6306  0348  00BE               	movwf	___flmul@prod+2
  6307  0349  3000               	movlw	0
  6308  034A  00BD               	movwf	___flmul@prod+1
  6309  034B  3000               	movlw	0
  6310  034C  00BC               	movwf	___flmul@prod
  6311  034D                     l2442:
  6312  034D  01B5               	clrf	___flmul@sign
  6313  034E  2B69               	goto	l673
  6314  034F                     l2444:
  6315  034F  1283               	bcf	3,5	;RP0=0, select bank0
  6316  0350  1303               	bcf	3,6	;RP1=0, select bank0
  6317  0351  0840               	movf	___flmul@temp,w
  6318  0352  00B0               	movwf	??___flmul
  6319  0353  0830               	movf	??___flmul,w
  6320  0354  00BB               	movwf	___flmul@bexp
  6321  0355  30FF               	movlw	255
  6322  0356  05BC               	andwf	___flmul@prod,f
  6323  0357  30FF               	movlw	255
  6324  0358  05BD               	andwf	___flmul@prod+1,f
  6325  0359  307F               	movlw	127
  6326  035A  05BE               	andwf	___flmul@prod+2,f
  6327  035B  3000               	movlw	0
  6328  035C  05BF               	andwf	___flmul@prod+3,f
  6329  035D                     l2446:
  6330  035D  1C3B               	btfss	___flmul@bexp,0
  6331  035E  2B60               	goto	u3591
  6332  035F  2B61               	goto	u3590
  6333  0360                     u3591:
  6334  0360  2B62               	goto	l2450
  6335  0361                     u3590:
  6336  0361                     l2448:
  6337  0361  17BE               	bsf	___flmul@prod+2,7
  6338  0362                     l2450:
  6339  0362  083B               	movf	___flmul@bexp,w
  6340  0363  00B0               	movwf	??___flmul
  6341  0364  1003               	clrc
  6342  0365  0C30               	rrf	??___flmul,w
  6343  0366  00B1               	movwf	??___flmul+1
  6344  0367  0831               	movf	??___flmul+1,w
  6345  0368  00BF               	movwf	___flmul@prod+3
  6346  0369                     l673:
  6347  0369  0835               	movf	___flmul@sign,w
  6348  036A  00B0               	movwf	??___flmul
  6349  036B  0830               	movf	??___flmul,w
  6350  036C  04BF               	iorwf	___flmul@prod+3,f
  6351  036D                     l2452:
  6352  036D  083F               	movf	___flmul@prod+3,w
  6353  036E  00AB               	movwf	?___flmul+3
  6354  036F  083E               	movf	___flmul@prod+2,w
  6355  0370  00AA               	movwf	?___flmul+2
  6356  0371  083D               	movf	___flmul@prod+1,w
  6357  0372  00A9               	movwf	?___flmul+1
  6358  0373  083C               	movf	___flmul@prod,w
  6359  0374  00A8               	movwf	?___flmul
  6360  0375                     l661:
  6361  0375  0008               	return
  6362  0376                     __end_of___flmul:
  6363                           
  6364                           	psect	text18
  6365  0802                     __ptext18:	
  6366 ;; *************** function __Umul8_16 *****************
  6367 ;; Defined at:
  6368 ;;		line 4 in file "C:\Program Files\Microchip\xc8\v2.32\pic\sources\c90\common\Umul8_16.c"
  6369 ;; Parameters:    Size  Location     Type
  6370 ;;  multiplier      1    wreg     unsigned char 
  6371 ;;  multiplicand    1    0[COMMON] unsigned char 
  6372 ;; Auto vars:     Size  Location     Type
  6373 ;;  multiplier      1    8[COMMON] unsigned char 
  6374 ;;  word_mpld       2    6[COMMON] unsigned int 
  6375 ;;  product         2    4[COMMON] unsigned int 
  6376 ;; Return value:  Size  Location     Type
  6377 ;;                  2    0[COMMON] unsigned int 
  6378 ;; Registers used:
  6379 ;;		wreg, status,2, status,0
  6380 ;; Tracked objects:
  6381 ;;		On entry : 0/0
  6382 ;;		On exit  : 0/0
  6383 ;;		Unchanged: 0/0
  6384 ;; Data sizes:     COMMON   BANK0   BANK1   BANK3   BANK2
  6385 ;;      Params:         2       0       0       0       0
  6386 ;;      Locals:         5       0       0       0       0
  6387 ;;      Temps:          2       0       0       0       0
  6388 ;;      Totals:         9       0       0       0       0
  6389 ;;Total ram usage:        9 bytes
  6390 ;; Hardware stack levels used: 1
  6391 ;; This function calls:
  6392 ;;		Nothing
  6393 ;; This function is called by:
  6394 ;;		___flmul
  6395 ;; This function uses a non-reentrant model
  6396 ;;
  6397                           
  6398                           
  6399                           ;psect for function __Umul8_16
  6400  0802                     __Umul8_16:
  6401                           
  6402                           ;incstack = 0
  6403                           ; Regs used in __Umul8_16: [wreg+status,2+status,0]
  6404                           ;__Umul8_16@multiplier stored from wreg
  6405  0802  00F8               	movwf	__Umul8_16@multiplier
  6406  0803                     l2014:
  6407  0803  01F4               	clrf	__Umul8_16@product
  6408  0804  01F5               	clrf	__Umul8_16@product+1
  6409  0805                     l2016:
  6410  0805  0870               	movf	__Umul8_16@multiplicand,w
  6411  0806  00F2               	movwf	??__Umul8_16
  6412  0807  01F3               	clrf	??__Umul8_16+1
  6413  0808  0872               	movf	??__Umul8_16,w
  6414  0809  00F6               	movwf	__Umul8_16@word_mpld
  6415  080A  0873               	movf	??__Umul8_16+1,w
  6416  080B  00F7               	movwf	__Umul8_16@word_mpld+1
  6417  080C                     l2018:
  6418  080C  1C78               	btfss	__Umul8_16@multiplier,0
  6419  080D  280F               	goto	u2641
  6420  080E  2810               	goto	u2640
  6421  080F                     u2641:
  6422  080F  2816               	goto	l680
  6423  0810                     u2640:
  6424  0810                     l2020:
  6425  0810  0876               	movf	__Umul8_16@word_mpld,w
  6426  0811  07F4               	addwf	__Umul8_16@product,f
  6427  0812  1803               	skipnc
  6428  0813  0AF5               	incf	__Umul8_16@product+1,f
  6429  0814  0877               	movf	__Umul8_16@word_mpld+1,w
  6430  0815  07F5               	addwf	__Umul8_16@product+1,f
  6431  0816                     l680:
  6432  0816  3001               	movlw	1
  6433  0817                     u2655:
  6434  0817  1003               	clrc
  6435  0818  0DF6               	rlf	__Umul8_16@word_mpld,f
  6436  0819  0DF7               	rlf	__Umul8_16@word_mpld+1,f
  6437  081A  3EFF               	addlw	-1
  6438  081B  1D03               	skipz
  6439  081C  2817               	goto	u2655
  6440  081D  1003               	clrc
  6441  081E  0CF8               	rrf	__Umul8_16@multiplier,f
  6442  081F                     l2022:
  6443  081F  0878               	movf	__Umul8_16@multiplier,w
  6444  0820  1D03               	btfss	3,2
  6445  0821  2823               	goto	u2661
  6446  0822  2824               	goto	u2660
  6447  0823                     u2661:
  6448  0823  280C               	goto	l2018
  6449  0824                     u2660:
  6450  0824                     l2024:
  6451  0824  0875               	movf	__Umul8_16@product+1,w
  6452  0825  00F1               	movwf	?__Umul8_16+1
  6453  0826  0874               	movf	__Umul8_16@product,w
  6454  0827  00F0               	movwf	?__Umul8_16
  6455  0828                     l682:
  6456  0828  0008               	return
  6457  0829                     __end_of__Umul8_16:
  6458                           
  6459                           	psect	text19
  6460  086D                     __ptext19:	
  6461 ;; *************** function ___flge *****************
  6462 ;; Defined at:
  6463 ;;		line 4 in file "C:\Program Files\Microchip\xc8\v2.32\pic\sources\c90\common\flge.c"
  6464 ;; Parameters:    Size  Location     Type
  6465 ;;  ff1             4    0[COMMON] unsigned int 
  6466 ;;  ff2             4    4[COMMON] unsigned int 
  6467 ;; Auto vars:     Size  Location     Type
  6468 ;;		None
  6469 ;; Return value:  Size  Location     Type
  6470 ;;		None               void
  6471 ;; Registers used:
  6472 ;;		wreg, status,2, status,0
  6473 ;; Tracked objects:
  6474 ;;		On entry : 0/0
  6475 ;;		On exit  : 0/0
  6476 ;;		Unchanged: 0/0
  6477 ;; Data sizes:     COMMON   BANK0   BANK1   BANK3   BANK2
  6478 ;;      Params:         8       0       0       0       0
  6479 ;;      Locals:         0       0       0       0       0
  6480 ;;      Temps:          4       0       0       0       0
  6481 ;;      Totals:        12       0       0       0       0
  6482 ;;Total ram usage:       12 bytes
  6483 ;; Hardware stack levels used: 1
  6484 ;; This function calls:
  6485 ;;		Nothing
  6486 ;; This function is called by:
  6487 ;;		_Quadra_Al
  6488 ;; This function uses a non-reentrant model
  6489 ;;
  6490                           
  6491                           
  6492                           ;psect for function ___flge
  6493  086D                     ___flge:
  6494  086D                     l2140:	
  6495                           ;incstack = 0
  6496                           ; Regs used in ___flge: [wreg+status,2+status,0]
  6497                           
  6498  086D  3000               	movlw	0
  6499  086E  0570               	andwf	___flge@ff1,w
  6500  086F  00F8               	movwf	??___flge
  6501  0870  3000               	movlw	0
  6502  0871  0571               	andwf	___flge@ff1+1,w
  6503  0872  00F9               	movwf	??___flge+1
  6504  0873  3080               	movlw	128
  6505  0874  0572               	andwf	___flge@ff1+2,w
  6506  0875  00FA               	movwf	??___flge+2
  6507  0876  307F               	movlw	127
  6508  0877  0573               	andwf	___flge@ff1+3,w
  6509  0878  00FB               	movwf	??___flge+3
  6510  0879  087B               	movf	??___flge+3,w
  6511  087A  047A               	iorwf	??___flge+2,w
  6512  087B  0479               	iorwf	??___flge+1,w
  6513  087C  0478               	iorwf	??___flge,w
  6514  087D  1D03               	skipz
  6515  087E  2880               	goto	u2861
  6516  087F  2881               	goto	u2860
  6517  0880                     u2861:
  6518  0880  2889               	goto	l446
  6519  0881                     u2860:
  6520  0881                     l2142:
  6521  0881  3000               	movlw	0
  6522  0882  00F3               	movwf	___flge@ff1+3
  6523  0883  3000               	movlw	0
  6524  0884  00F2               	movwf	___flge@ff1+2
  6525  0885  3000               	movlw	0
  6526  0886  00F1               	movwf	___flge@ff1+1
  6527  0887  3000               	movlw	0
  6528  0888  00F0               	movwf	___flge@ff1
  6529  0889                     l446:
  6530  0889  3000               	movlw	0
  6531  088A  0574               	andwf	___flge@ff2,w
  6532  088B  00F8               	movwf	??___flge
  6533  088C  3000               	movlw	0
  6534  088D  0575               	andwf	___flge@ff2+1,w
  6535  088E  00F9               	movwf	??___flge+1
  6536  088F  3080               	movlw	128
  6537  0890  0576               	andwf	___flge@ff2+2,w
  6538  0891  00FA               	movwf	??___flge+2
  6539  0892  307F               	movlw	127
  6540  0893  0577               	andwf	___flge@ff2+3,w
  6541  0894  00FB               	movwf	??___flge+3
  6542  0895  087B               	movf	??___flge+3,w
  6543  0896  047A               	iorwf	??___flge+2,w
  6544  0897  0479               	iorwf	??___flge+1,w
  6545  0898  0478               	iorwf	??___flge,w
  6546  0899  1D03               	skipz
  6547  089A  289C               	goto	u2871
  6548  089B  289D               	goto	u2870
  6549  089C                     u2871:
  6550  089C  28A5               	goto	l2146
  6551  089D                     u2870:
  6552  089D                     l2144:
  6553  089D  3000               	movlw	0
  6554  089E  00F7               	movwf	___flge@ff2+3
  6555  089F  3000               	movlw	0
  6556  08A0  00F6               	movwf	___flge@ff2+2
  6557  08A1  3000               	movlw	0
  6558  08A2  00F5               	movwf	___flge@ff2+1
  6559  08A3  3000               	movlw	0
  6560  08A4  00F4               	movwf	___flge@ff2
  6561  08A5                     l2146:
  6562  08A5  1FF3               	btfss	___flge@ff1+3,7
  6563  08A6  28A8               	goto	u2881
  6564  08A7  28A9               	goto	u2880
  6565  08A8                     u2881:
  6566  08A8  28CD               	goto	l2150
  6567  08A9                     u2880:
  6568  08A9                     l2148:
  6569  08A9  3000               	movlw	0
  6570  08AA  00F8               	movwf	??___flge
  6571  08AB  3000               	movlw	0
  6572  08AC  00F9               	movwf	??___flge+1
  6573  08AD  3000               	movlw	0
  6574  08AE  00FA               	movwf	??___flge+2
  6575  08AF  3080               	movlw	128
  6576  08B0  00FB               	movwf	??___flge+3
  6577  08B1  0870               	movf	___flge@ff1,w
  6578  08B2  02F8               	subwf	??___flge,f
  6579  08B3  0871               	movf	___flge@ff1+1,w
  6580  08B4  1C03               	skipc
  6581  08B5  0F71               	incfsz	___flge@ff1+1,w
  6582  08B6  28B8               	goto	u2891
  6583  08B7  28B9               	goto	u2892
  6584  08B8                     u2891:
  6585  08B8  02F9               	subwf	??___flge+1,f
  6586  08B9                     u2892:
  6587  08B9  0872               	movf	___flge@ff1+2,w
  6588  08BA  1C03               	skipc
  6589  08BB  0F72               	incfsz	___flge@ff1+2,w
  6590  08BC  28BE               	goto	u2893
  6591  08BD  28BF               	goto	u2894
  6592  08BE                     u2893:
  6593  08BE  02FA               	subwf	??___flge+2,f
  6594  08BF                     u2894:
  6595  08BF  0873               	movf	___flge@ff1+3,w
  6596  08C0  1C03               	skipc
  6597  08C1  0F73               	incfsz	___flge@ff1+3,w
  6598  08C2  28C4               	goto	u2895
  6599  08C3  28C5               	goto	u2896
  6600  08C4                     u2895:
  6601  08C4  02FB               	subwf	??___flge+3,f
  6602  08C5                     u2896:
  6603  08C5  087B               	movf	??___flge+3,w
  6604  08C6  00F3               	movwf	___flge@ff1+3
  6605  08C7  087A               	movf	??___flge+2,w
  6606  08C8  00F2               	movwf	___flge@ff1+2
  6607  08C9  0879               	movf	??___flge+1,w
  6608  08CA  00F1               	movwf	___flge@ff1+1
  6609  08CB  0878               	movf	??___flge,w
  6610  08CC  00F0               	movwf	___flge@ff1
  6611  08CD                     l2150:
  6612  08CD  1FF7               	btfss	___flge@ff2+3,7
  6613  08CE  28D0               	goto	u2901
  6614  08CF  28D1               	goto	u2900
  6615  08D0                     u2901:
  6616  08D0  28F5               	goto	l449
  6617  08D1                     u2900:
  6618  08D1                     l2152:
  6619  08D1  3000               	movlw	0
  6620  08D2  00F8               	movwf	??___flge
  6621  08D3  3000               	movlw	0
  6622  08D4  00F9               	movwf	??___flge+1
  6623  08D5  3000               	movlw	0
  6624  08D6  00FA               	movwf	??___flge+2
  6625  08D7  3080               	movlw	128
  6626  08D8  00FB               	movwf	??___flge+3
  6627  08D9  0874               	movf	___flge@ff2,w
  6628  08DA  02F8               	subwf	??___flge,f
  6629  08DB  0875               	movf	___flge@ff2+1,w
  6630  08DC  1C03               	skipc
  6631  08DD  0F75               	incfsz	___flge@ff2+1,w
  6632  08DE  28E0               	goto	u2911
  6633  08DF  28E1               	goto	u2912
  6634  08E0                     u2911:
  6635  08E0  02F9               	subwf	??___flge+1,f
  6636  08E1                     u2912:
  6637  08E1  0876               	movf	___flge@ff2+2,w
  6638  08E2  1C03               	skipc
  6639  08E3  0F76               	incfsz	___flge@ff2+2,w
  6640  08E4  28E6               	goto	u2913
  6641  08E5  28E7               	goto	u2914
  6642  08E6                     u2913:
  6643  08E6  02FA               	subwf	??___flge+2,f
  6644  08E7                     u2914:
  6645  08E7  0877               	movf	___flge@ff2+3,w
  6646  08E8  1C03               	skipc
  6647  08E9  0F77               	incfsz	___flge@ff2+3,w
  6648  08EA  28EC               	goto	u2915
  6649  08EB  28ED               	goto	u2916
  6650  08EC                     u2915:
  6651  08EC  02FB               	subwf	??___flge+3,f
  6652  08ED                     u2916:
  6653  08ED  087B               	movf	??___flge+3,w
  6654  08EE  00F7               	movwf	___flge@ff2+3
  6655  08EF  087A               	movf	??___flge+2,w
  6656  08F0  00F6               	movwf	___flge@ff2+2
  6657  08F1  0879               	movf	??___flge+1,w
  6658  08F2  00F5               	movwf	___flge@ff2+1
  6659  08F3  0878               	movf	??___flge,w
  6660  08F4  00F4               	movwf	___flge@ff2
  6661  08F5                     l449:
  6662  08F5  3080               	movlw	128
  6663  08F6  06F3               	xorwf	___flge@ff1+3,f
  6664  08F7  3080               	movlw	128
  6665  08F8  06F7               	xorwf	___flge@ff2+3,f
  6666  08F9  0877               	movf	___flge@ff2+3,w
  6667  08FA  0273               	subwf	___flge@ff1+3,w
  6668  08FB  1D03               	skipz
  6669  08FC  2907               	goto	u2925
  6670  08FD  0876               	movf	___flge@ff2+2,w
  6671  08FE  0272               	subwf	___flge@ff1+2,w
  6672  08FF  1D03               	skipz
  6673  0900  2907               	goto	u2925
  6674  0901  0875               	movf	___flge@ff2+1,w
  6675  0902  0271               	subwf	___flge@ff1+1,w
  6676  0903  1D03               	skipz
  6677  0904  2907               	goto	u2925
  6678  0905  0874               	movf	___flge@ff2,w
  6679  0906  0270               	subwf	___flge@ff1,w
  6680  0907                     u2925:
  6681  0907  1803               	skipnc
  6682  0908  290A               	goto	u2921
  6683  0909  290B               	goto	u2920
  6684  090A                     u2921:
  6685  090A  290D               	goto	l2156
  6686  090B                     u2920:
  6687  090B                     l2154:
  6688  090B  1003               	clrc
  6689  090C  290E               	goto	l450
  6690  090D                     l2156:
  6691  090D  1403               	setc
  6692  090E                     l450:
  6693  090E  0008               	return
  6694  090F                     __end_of___flge:
  6695                           
  6696                           	psect	text20
  6697  0B8B                     __ptext20:	
  6698 ;; *************** function ___fldiv *****************
  6699 ;; Defined at:
  6700 ;;		line 8 in file "C:\Program Files\Microchip\xc8\v2.32\pic\sources\c90\common\sprcdiv.c"
  6701 ;; Parameters:    Size  Location     Type
  6702 ;;  a               4   34[BANK0 ] unsigned int 
  6703 ;;  b               4   38[BANK0 ] unsigned int 
  6704 ;; Auto vars:     Size  Location     Type
  6705 ;;  grs             4   54[BANK0 ] unsigned long 
  6706 ;;  rem             4   47[BANK0 ] unsigned long 
  6707 ;;  new_exp         2   52[BANK0 ] int 
  6708 ;;  aexp            1   59[BANK0 ] unsigned char 
  6709 ;;  bexp            1   58[BANK0 ] unsigned char 
  6710 ;;  sign            1   51[BANK0 ] unsigned char 
  6711 ;; Return value:  Size  Location     Type
  6712 ;;                  4   34[BANK0 ] unsigned char 
  6713 ;; Registers used:
  6714 ;;		wreg, status,2, status,0, btemp+1
  6715 ;; Tracked objects:
  6716 ;;		On entry : 0/0
  6717 ;;		On exit  : 0/0
  6718 ;;		Unchanged: 0/0
  6719 ;; Data sizes:     COMMON   BANK0   BANK1   BANK3   BANK2
  6720 ;;      Params:         0       8       0       0       0
  6721 ;;      Locals:         0      13       0       0       0
  6722 ;;      Temps:          0       5       0       0       0
  6723 ;;      Totals:         0      26       0       0       0
  6724 ;;Total ram usage:       26 bytes
  6725 ;; Hardware stack levels used: 1
  6726 ;; This function calls:
  6727 ;;		Nothing
  6728 ;; This function is called by:
  6729 ;;		_Quadra_Al
  6730 ;; This function uses a non-reentrant model
  6731 ;;
  6732                           
  6733                           
  6734                           ;psect for function ___fldiv
  6735  0B8B                     ___fldiv:
  6736  0B8B                     l2174:	
  6737                           ;incstack = 0
  6738                           ; Regs used in ___fldiv: [wreg+status,2+status,0+btemp+1]
  6739                           
  6740  0B8B  1283               	bcf	3,5	;RP0=0, select bank0
  6741  0B8C  1303               	bcf	3,6	;RP1=0, select bank0
  6742  0B8D  0849               	movf	___fldiv@b+3,w
  6743  0B8E  3980               	andlw	128
  6744  0B8F  00CA               	movwf	??___fldiv
  6745  0B90  084A               	movf	??___fldiv,w
  6746  0B91  00D3               	movwf	___fldiv@sign
  6747  0B92                     l2176:
  6748  0B92  0849               	movf	___fldiv@b+3,w
  6749  0B93  00CA               	movwf	??___fldiv
  6750  0B94  074A               	addwf	??___fldiv,w
  6751  0B95  00CB               	movwf	??___fldiv+1
  6752  0B96  084B               	movf	??___fldiv+1,w
  6753  0B97  00DA               	movwf	___fldiv@bexp
  6754  0B98                     l2178:
  6755  0B98  1FC8               	btfss	___fldiv@b+2,7
  6756  0B99  2B9B               	goto	u2941
  6757  0B9A  2B9C               	goto	u2940
  6758  0B9B                     u2941:
  6759  0B9B  2B9D               	goto	l2182
  6760  0B9C                     u2940:
  6761  0B9C                     l2180:
  6762  0B9C  145A               	bsf	___fldiv@bexp,0
  6763  0B9D                     l2182:
  6764  0B9D  085A               	movf	___fldiv@bexp,w
  6765  0B9E  1903               	btfsc	3,2
  6766  0B9F  2BA1               	goto	u2951
  6767  0BA0  2BA2               	goto	u2950
  6768  0BA1                     u2951:
  6769  0BA1  2BB2               	goto	l2192
  6770  0BA2                     u2950:
  6771  0BA2                     l2184:
  6772  0BA2  0A5A               	incf	___fldiv@bexp,w
  6773  0BA3  1D03               	btfss	3,2
  6774  0BA4  2BA6               	goto	u2961
  6775  0BA5  2BA7               	goto	u2960
  6776  0BA6                     u2961:
  6777  0BA6  2BAF               	goto	l2188
  6778  0BA7                     u2960:
  6779  0BA7                     l2186:
  6780  0BA7  3000               	movlw	0
  6781  0BA8  00C9               	movwf	___fldiv@b+3
  6782  0BA9  3000               	movlw	0
  6783  0BAA  00C8               	movwf	___fldiv@b+2
  6784  0BAB  3000               	movlw	0
  6785  0BAC  00C7               	movwf	___fldiv@b+1
  6786  0BAD  3000               	movlw	0
  6787  0BAE  00C6               	movwf	___fldiv@b
  6788  0BAF                     l2188:
  6789  0BAF  17C8               	bsf	___fldiv@b+2,7
  6790  0BB0                     l2190:
  6791  0BB0  01C9               	clrf	___fldiv@b+3
  6792  0BB1  2BBA               	goto	l2194
  6793  0BB2                     l2192:
  6794  0BB2  3000               	movlw	0
  6795  0BB3  00C9               	movwf	___fldiv@b+3
  6796  0BB4  3000               	movlw	0
  6797  0BB5  00C8               	movwf	___fldiv@b+2
  6798  0BB6  3000               	movlw	0
  6799  0BB7  00C7               	movwf	___fldiv@b+1
  6800  0BB8  3000               	movlw	0
  6801  0BB9  00C6               	movwf	___fldiv@b
  6802  0BBA                     l2194:
  6803  0BBA  0845               	movf	___fldiv@a+3,w
  6804  0BBB  3980               	andlw	128
  6805  0BBC  00CA               	movwf	??___fldiv
  6806  0BBD  084A               	movf	??___fldiv,w
  6807  0BBE  06D3               	xorwf	___fldiv@sign,f
  6808  0BBF                     l2196:
  6809  0BBF  0845               	movf	___fldiv@a+3,w
  6810  0BC0  00CA               	movwf	??___fldiv
  6811  0BC1  074A               	addwf	??___fldiv,w
  6812  0BC2  00CB               	movwf	??___fldiv+1
  6813  0BC3  084B               	movf	??___fldiv+1,w
  6814  0BC4  00DB               	movwf	___fldiv@aexp
  6815  0BC5                     l2198:
  6816  0BC5  1FC4               	btfss	___fldiv@a+2,7
  6817  0BC6  2BC8               	goto	u2971
  6818  0BC7  2BC9               	goto	u2970
  6819  0BC8                     u2971:
  6820  0BC8  2BCA               	goto	l2202
  6821  0BC9                     u2970:
  6822  0BC9                     l2200:
  6823  0BC9  145B               	bsf	___fldiv@aexp,0
  6824  0BCA                     l2202:
  6825  0BCA  085B               	movf	___fldiv@aexp,w
  6826  0BCB  1903               	btfsc	3,2
  6827  0BCC  2BCE               	goto	u2981
  6828  0BCD  2BCF               	goto	u2980
  6829  0BCE                     u2981:
  6830  0BCE  2BDF               	goto	l2212
  6831  0BCF                     u2980:
  6832  0BCF                     l2204:
  6833  0BCF  0A5B               	incf	___fldiv@aexp,w
  6834  0BD0  1D03               	btfss	3,2
  6835  0BD1  2BD3               	goto	u2991
  6836  0BD2  2BD4               	goto	u2990
  6837  0BD3                     u2991:
  6838  0BD3  2BDC               	goto	l2208
  6839  0BD4                     u2990:
  6840  0BD4                     l2206:
  6841  0BD4  3000               	movlw	0
  6842  0BD5  00C5               	movwf	___fldiv@a+3
  6843  0BD6  3000               	movlw	0
  6844  0BD7  00C4               	movwf	___fldiv@a+2
  6845  0BD8  3000               	movlw	0
  6846  0BD9  00C3               	movwf	___fldiv@a+1
  6847  0BDA  3000               	movlw	0
  6848  0BDB  00C2               	movwf	___fldiv@a
  6849  0BDC                     l2208:
  6850  0BDC  17C4               	bsf	___fldiv@a+2,7
  6851  0BDD                     l2210:
  6852  0BDD  01C5               	clrf	___fldiv@a+3
  6853  0BDE  2BE7               	goto	l621
  6854  0BDF                     l2212:
  6855  0BDF  3000               	movlw	0
  6856  0BE0  00C5               	movwf	___fldiv@a+3
  6857  0BE1  3000               	movlw	0
  6858  0BE2  00C4               	movwf	___fldiv@a+2
  6859  0BE3  3000               	movlw	0
  6860  0BE4  00C3               	movwf	___fldiv@a+1
  6861  0BE5  3000               	movlw	0
  6862  0BE6  00C2               	movwf	___fldiv@a
  6863  0BE7                     l621:
  6864  0BE7  0845               	movf	___fldiv@a+3,w
  6865  0BE8  0444               	iorwf	___fldiv@a+2,w
  6866  0BE9  0443               	iorwf	___fldiv@a+1,w
  6867  0BEA  0442               	iorwf	___fldiv@a,w
  6868  0BEB  1D03               	skipz
  6869  0BEC  2BEE               	goto	u3001
  6870  0BED  2BEF               	goto	u3000
  6871  0BEE                     u3001:
  6872  0BEE  2C08               	goto	l2222
  6873  0BEF                     u3000:
  6874  0BEF                     l2214:
  6875  0BEF  3000               	movlw	0
  6876  0BF0  00C9               	movwf	___fldiv@b+3
  6877  0BF1  3000               	movlw	0
  6878  0BF2  00C8               	movwf	___fldiv@b+2
  6879  0BF3  3000               	movlw	0
  6880  0BF4  00C7               	movwf	___fldiv@b+1
  6881  0BF5  3000               	movlw	0
  6882  0BF6  00C6               	movwf	___fldiv@b
  6883  0BF7  3080               	movlw	128
  6884  0BF8  04C8               	iorwf	___fldiv@b+2,f
  6885  0BF9  307F               	movlw	127
  6886  0BFA  04C9               	iorwf	___fldiv@b+3,f
  6887  0BFB                     l2216:
  6888  0BFB  0853               	movf	___fldiv@sign,w
  6889  0BFC  00CA               	movwf	??___fldiv
  6890  0BFD  084A               	movf	??___fldiv,w
  6891  0BFE  04C9               	iorwf	___fldiv@b+3,f
  6892  0BFF                     l2218:
  6893  0BFF  0849               	movf	___fldiv@b+3,w
  6894  0C00  00C5               	movwf	?___fldiv+3
  6895  0C01  0848               	movf	___fldiv@b+2,w
  6896  0C02  00C4               	movwf	?___fldiv+2
  6897  0C03  0847               	movf	___fldiv@b+1,w
  6898  0C04  00C3               	movwf	?___fldiv+1
  6899  0C05  0846               	movf	___fldiv@b,w
  6900  0C06  00C2               	movwf	?___fldiv
  6901  0C07  2D67               	goto	l623
  6902  0C08                     l2222:
  6903  0C08  085A               	movf	___fldiv@bexp,w
  6904  0C09  1D03               	btfss	3,2
  6905  0C0A  2C0C               	goto	u3011
  6906  0C0B  2C0D               	goto	u3010
  6907  0C0C                     u3011:
  6908  0C0C  2C16               	goto	l2228
  6909  0C0D                     u3010:
  6910  0C0D                     l2224:
  6911  0C0D  3000               	movlw	0
  6912  0C0E  00C5               	movwf	?___fldiv+3
  6913  0C0F  3000               	movlw	0
  6914  0C10  00C4               	movwf	?___fldiv+2
  6915  0C11  3000               	movlw	0
  6916  0C12  00C3               	movwf	?___fldiv+1
  6917  0C13  3000               	movlw	0
  6918  0C14  00C2               	movwf	?___fldiv
  6919  0C15  2D67               	goto	l623
  6920  0C16                     l2228:
  6921  0C16  085A               	movf	___fldiv@bexp,w
  6922  0C17  00CA               	movwf	??___fldiv
  6923  0C18  01CB               	clrf	??___fldiv+1
  6924  0C19  084B               	movf	??___fldiv+1,w
  6925  0C1A  00CD               	movwf	??___fldiv+3
  6926  0C1B  085B               	movf	___fldiv@aexp,w
  6927  0C1C  024A               	subwf	??___fldiv,w
  6928  0C1D  00CC               	movwf	??___fldiv+2
  6929  0C1E  1C03               	skipc
  6930  0C1F  03CD               	decf	??___fldiv+3,f
  6931  0C20  084C               	movf	??___fldiv+2,w
  6932  0C21  3E7F               	addlw	127
  6933  0C22  00D4               	movwf	___fldiv@new_exp
  6934  0C23  084D               	movf	??___fldiv+3,w
  6935  0C24  1803               	skipnc
  6936  0C25  3E01               	addlw	1
  6937  0C26  3E00               	addlw	0
  6938  0C27  00D5               	movwf	___fldiv@new_exp+1
  6939  0C28                     l2230:
  6940  0C28  0849               	movf	___fldiv@b+3,w
  6941  0C29  00D2               	movwf	___fldiv@rem+3
  6942  0C2A  0848               	movf	___fldiv@b+2,w
  6943  0C2B  00D1               	movwf	___fldiv@rem+2
  6944  0C2C  0847               	movf	___fldiv@b+1,w
  6945  0C2D  00D0               	movwf	___fldiv@rem+1
  6946  0C2E  0846               	movf	___fldiv@b,w
  6947  0C2F  00CF               	movwf	___fldiv@rem
  6948  0C30                     l2232:
  6949  0C30  3000               	movlw	0
  6950  0C31  00C9               	movwf	___fldiv@b+3
  6951  0C32  3000               	movlw	0
  6952  0C33  00C8               	movwf	___fldiv@b+2
  6953  0C34  3000               	movlw	0
  6954  0C35  00C7               	movwf	___fldiv@b+1
  6955  0C36  3000               	movlw	0
  6956  0C37  00C6               	movwf	___fldiv@b
  6957  0C38                     l2234:
  6958  0C38  3000               	movlw	0
  6959  0C39  00D9               	movwf	___fldiv@grs+3
  6960  0C3A  3000               	movlw	0
  6961  0C3B  00D8               	movwf	___fldiv@grs+2
  6962  0C3C  3000               	movlw	0
  6963  0C3D  00D7               	movwf	___fldiv@grs+1
  6964  0C3E  3000               	movlw	0
  6965  0C3F  00D6               	movwf	___fldiv@grs
  6966  0C40                     l2236:
  6967  0C40  01DB               	clrf	___fldiv@aexp
  6968  0C41  2C8C               	goto	l2256
  6969  0C42                     l2238:
  6970  0C42  085B               	movf	___fldiv@aexp,w
  6971  0C43  1903               	btfsc	3,2
  6972  0C44  2C46               	goto	u3021
  6973  0C45  2C47               	goto	u3020
  6974  0C46                     u3021:
  6975  0C46  2C67               	goto	l2248
  6976  0C47                     u3020:
  6977  0C47                     l2240:
  6978  0C47  3001               	movlw	1
  6979  0C48  00CA               	movwf	??___fldiv
  6980  0C49                     u3035:
  6981  0C49  1003               	clrc
  6982  0C4A  0DCF               	rlf	___fldiv@rem,f
  6983  0C4B  0DD0               	rlf	___fldiv@rem+1,f
  6984  0C4C  0DD1               	rlf	___fldiv@rem+2,f
  6985  0C4D  0DD2               	rlf	___fldiv@rem+3,f
  6986  0C4E  0BCA               	decfsz	??___fldiv,f
  6987  0C4F  2C49               	goto	u3035
  6988  0C50  3001               	movlw	1
  6989  0C51  00CA               	movwf	??___fldiv
  6990  0C52                     u3045:
  6991  0C52  1003               	clrc
  6992  0C53  0DC6               	rlf	___fldiv@b,f
  6993  0C54  0DC7               	rlf	___fldiv@b+1,f
  6994  0C55  0DC8               	rlf	___fldiv@b+2,f
  6995  0C56  0DC9               	rlf	___fldiv@b+3,f
  6996  0C57  0BCA               	decfsz	??___fldiv,f
  6997  0C58  2C52               	goto	u3045
  6998  0C59                     l2242:
  6999  0C59  1FD9               	btfss	___fldiv@grs+3,7
  7000  0C5A  2C5C               	goto	u3051
  7001  0C5B  2C5D               	goto	u3050
  7002  0C5C                     u3051:
  7003  0C5C  2C5E               	goto	l2246
  7004  0C5D                     u3050:
  7005  0C5D                     l2244:
  7006  0C5D  1446               	bsf	___fldiv@b,0
  7007  0C5E                     l2246:
  7008  0C5E  3001               	movlw	1
  7009  0C5F  00CA               	movwf	??___fldiv
  7010  0C60                     u3065:
  7011  0C60  1003               	clrc
  7012  0C61  0DD6               	rlf	___fldiv@grs,f
  7013  0C62  0DD7               	rlf	___fldiv@grs+1,f
  7014  0C63  0DD8               	rlf	___fldiv@grs+2,f
  7015  0C64  0DD9               	rlf	___fldiv@grs+3,f
  7016  0C65  0BCA               	decfsz	??___fldiv,f
  7017  0C66  2C60               	goto	u3065
  7018  0C67                     l2248:
  7019  0C67  0845               	movf	___fldiv@a+3,w
  7020  0C68  0252               	subwf	___fldiv@rem+3,w
  7021  0C69  1D03               	skipz
  7022  0C6A  2C75               	goto	u3075
  7023  0C6B  0844               	movf	___fldiv@a+2,w
  7024  0C6C  0251               	subwf	___fldiv@rem+2,w
  7025  0C6D  1D03               	skipz
  7026  0C6E  2C75               	goto	u3075
  7027  0C6F  0843               	movf	___fldiv@a+1,w
  7028  0C70  0250               	subwf	___fldiv@rem+1,w
  7029  0C71  1D03               	skipz
  7030  0C72  2C75               	goto	u3075
  7031  0C73  0842               	movf	___fldiv@a,w
  7032  0C74  024F               	subwf	___fldiv@rem,w
  7033  0C75                     u3075:
  7034  0C75  1C03               	skipc
  7035  0C76  2C78               	goto	u3071
  7036  0C77  2C79               	goto	u3070
  7037  0C78                     u3071:
  7038  0C78  2C88               	goto	l2254
  7039  0C79                     u3070:
  7040  0C79                     l2250:
  7041  0C79  1759               	bsf	___fldiv@grs+3,6
  7042  0C7A                     l2252:
  7043  0C7A  0842               	movf	___fldiv@a,w
  7044  0C7B  02CF               	subwf	___fldiv@rem,f
  7045  0C7C  0843               	movf	___fldiv@a+1,w
  7046  0C7D  1C03               	skipc
  7047  0C7E  0F43               	incfsz	___fldiv@a+1,w
  7048  0C7F  02D0               	subwf	___fldiv@rem+1,f
  7049  0C80  0844               	movf	___fldiv@a+2,w
  7050  0C81  1C03               	skipc
  7051  0C82  0F44               	incfsz	___fldiv@a+2,w
  7052  0C83  02D1               	subwf	___fldiv@rem+2,f
  7053  0C84  0845               	movf	___fldiv@a+3,w
  7054  0C85  1C03               	skipc
  7055  0C86  0F45               	incfsz	___fldiv@a+3,w
  7056  0C87  02D2               	subwf	___fldiv@rem+3,f
  7057  0C88                     l2254:
  7058  0C88  3001               	movlw	1
  7059  0C89  00CA               	movwf	??___fldiv
  7060  0C8A  084A               	movf	??___fldiv,w
  7061  0C8B  07DB               	addwf	___fldiv@aexp,f
  7062  0C8C                     l2256:
  7063  0C8C  301A               	movlw	26
  7064  0C8D  025B               	subwf	___fldiv@aexp,w
  7065  0C8E  1C03               	skipc
  7066  0C8F  2C91               	goto	u3081
  7067  0C90  2C92               	goto	u3080
  7068  0C91                     u3081:
  7069  0C91  2C42               	goto	l2238
  7070  0C92                     u3080:
  7071  0C92                     l2258:
  7072  0C92  0852               	movf	___fldiv@rem+3,w
  7073  0C93  0451               	iorwf	___fldiv@rem+2,w
  7074  0C94  0450               	iorwf	___fldiv@rem+1,w
  7075  0C95  044F               	iorwf	___fldiv@rem,w
  7076  0C96  1903               	skipnz
  7077  0C97  2C99               	goto	u3091
  7078  0C98  2C9A               	goto	u3090
  7079  0C99                     u3091:
  7080  0C99  2CB9               	goto	l2272
  7081  0C9A                     u3090:
  7082  0C9A                     l2260:
  7083  0C9A  1456               	bsf	___fldiv@grs,0
  7084  0C9B  2CB9               	goto	l2272
  7085  0C9C                     l2262:
  7086  0C9C  3001               	movlw	1
  7087  0C9D  00CA               	movwf	??___fldiv
  7088  0C9E                     u3105:
  7089  0C9E  1003               	clrc
  7090  0C9F  0DC6               	rlf	___fldiv@b,f
  7091  0CA0  0DC7               	rlf	___fldiv@b+1,f
  7092  0CA1  0DC8               	rlf	___fldiv@b+2,f
  7093  0CA2  0DC9               	rlf	___fldiv@b+3,f
  7094  0CA3  0BCA               	decfsz	??___fldiv,f
  7095  0CA4  2C9E               	goto	u3105
  7096  0CA5                     l2264:
  7097  0CA5  1FD9               	btfss	___fldiv@grs+3,7
  7098  0CA6  2CA8               	goto	u3111
  7099  0CA7  2CA9               	goto	u3110
  7100  0CA8                     u3111:
  7101  0CA8  2CAA               	goto	l2268
  7102  0CA9                     u3110:
  7103  0CA9                     l2266:
  7104  0CA9  1446               	bsf	___fldiv@b,0
  7105  0CAA                     l2268:
  7106  0CAA  3001               	movlw	1
  7107  0CAB  00CA               	movwf	??___fldiv
  7108  0CAC                     u3125:
  7109  0CAC  1003               	clrc
  7110  0CAD  0DD6               	rlf	___fldiv@grs,f
  7111  0CAE  0DD7               	rlf	___fldiv@grs+1,f
  7112  0CAF  0DD8               	rlf	___fldiv@grs+2,f
  7113  0CB0  0DD9               	rlf	___fldiv@grs+3,f
  7114  0CB1  0BCA               	decfsz	??___fldiv,f
  7115  0CB2  2CAC               	goto	u3125
  7116  0CB3                     l2270:
  7117  0CB3  30FF               	movlw	255
  7118  0CB4  07D4               	addwf	___fldiv@new_exp,f
  7119  0CB5  1803               	skipnc
  7120  0CB6  0AD5               	incf	___fldiv@new_exp+1,f
  7121  0CB7  30FF               	movlw	255
  7122  0CB8  07D5               	addwf	___fldiv@new_exp+1,f
  7123  0CB9                     l2272:
  7124  0CB9  1FC8               	btfss	___fldiv@b+2,7
  7125  0CBA  2CBC               	goto	u3131
  7126  0CBB  2CBD               	goto	u3130
  7127  0CBC                     u3131:
  7128  0CBC  2C9C               	goto	l2262
  7129  0CBD                     u3130:
  7130  0CBD                     l2274:
  7131  0CBD  01DB               	clrf	___fldiv@aexp
  7132  0CBE                     l2276:
  7133  0CBE  1FD9               	btfss	___fldiv@grs+3,7
  7134  0CBF  2CC1               	goto	u3141
  7135  0CC0  2CC2               	goto	u3140
  7136  0CC1                     u3141:
  7137  0CC1  2CDE               	goto	l2284
  7138  0CC2                     u3140:
  7139  0CC2                     l2278:
  7140  0CC2  30FF               	movlw	255
  7141  0CC3  0556               	andwf	___fldiv@grs,w
  7142  0CC4  00CA               	movwf	??___fldiv
  7143  0CC5  30FF               	movlw	255
  7144  0CC6  0557               	andwf	___fldiv@grs+1,w
  7145  0CC7  00CB               	movwf	??___fldiv+1
  7146  0CC8  30FF               	movlw	255
  7147  0CC9  0558               	andwf	___fldiv@grs+2,w
  7148  0CCA  00CC               	movwf	??___fldiv+2
  7149  0CCB  307F               	movlw	127
  7150  0CCC  0559               	andwf	___fldiv@grs+3,w
  7151  0CCD  00CD               	movwf	??___fldiv+3
  7152  0CCE  084D               	movf	??___fldiv+3,w
  7153  0CCF  044C               	iorwf	??___fldiv+2,w
  7154  0CD0  044B               	iorwf	??___fldiv+1,w
  7155  0CD1  044A               	iorwf	??___fldiv,w
  7156  0CD2  1903               	skipnz
  7157  0CD3  2CD5               	goto	u3151
  7158  0CD4  2CD6               	goto	u3150
  7159  0CD5                     u3151:
  7160  0CD5  2CD9               	goto	l637
  7161  0CD6                     u3150:
  7162  0CD6                     l2280:
  7163  0CD6  01DB               	clrf	___fldiv@aexp
  7164  0CD7  0ADB               	incf	___fldiv@aexp,f
  7165  0CD8  2CDE               	goto	l2284
  7166  0CD9                     l637:
  7167  0CD9  1C46               	btfss	___fldiv@b,0
  7168  0CDA  2CDC               	goto	u3161
  7169  0CDB  2CDD               	goto	u3160
  7170  0CDC                     u3161:
  7171  0CDC  2CDE               	goto	l2284
  7172  0CDD                     u3160:
  7173  0CDD  2CD6               	goto	l2280
  7174  0CDE                     l2284:
  7175  0CDE  085B               	movf	___fldiv@aexp,w
  7176  0CDF  1903               	btfsc	3,2
  7177  0CE0  2CE2               	goto	u3171
  7178  0CE1  2CE3               	goto	u3170
  7179  0CE2                     u3171:
  7180  0CE2  2D14               	goto	l2294
  7181  0CE3                     u3170:
  7182  0CE3                     l2286:
  7183  0CE3  3001               	movlw	1
  7184  0CE4  07C6               	addwf	___fldiv@b,f
  7185  0CE5  3000               	movlw	0
  7186  0CE6  1803               	skipnc
  7187  0CE7  3001               	movlw	1
  7188  0CE8  07C7               	addwf	___fldiv@b+1,f
  7189  0CE9  3000               	movlw	0
  7190  0CEA  1803               	skipnc
  7191  0CEB  3001               	movlw	1
  7192  0CEC  07C8               	addwf	___fldiv@b+2,f
  7193  0CED  3000               	movlw	0
  7194  0CEE  1803               	skipnc
  7195  0CEF  3001               	movlw	1
  7196  0CF0  07C9               	addwf	___fldiv@b+3,f
  7197  0CF1                     l2288:
  7198  0CF1  1C49               	btfss	___fldiv@b+3,0
  7199  0CF2  2CF4               	goto	u3181
  7200  0CF3  2CF5               	goto	u3180
  7201  0CF4                     u3181:
  7202  0CF4  2D14               	goto	l2294
  7203  0CF5                     u3180:
  7204  0CF5                     l2290:
  7205  0CF5  0846               	movf	___fldiv@b,w
  7206  0CF6  00CA               	movwf	??___fldiv
  7207  0CF7  0847               	movf	___fldiv@b+1,w
  7208  0CF8  00CB               	movwf	??___fldiv+1
  7209  0CF9  0848               	movf	___fldiv@b+2,w
  7210  0CFA  00CC               	movwf	??___fldiv+2
  7211  0CFB  0849               	movf	___fldiv@b+3,w
  7212  0CFC  00CD               	movwf	??___fldiv+3
  7213  0CFD  3001               	movlw	1
  7214  0CFE  00CE               	movwf	??___fldiv+4
  7215  0CFF                     u3195:
  7216  0CFF  0D4D               	rlf	??___fldiv+3,w
  7217  0D00  0CCD               	rrf	??___fldiv+3,f
  7218  0D01  0CCC               	rrf	??___fldiv+2,f
  7219  0D02  0CCB               	rrf	??___fldiv+1,f
  7220  0D03  0CCA               	rrf	??___fldiv,f
  7221  0D04                     u3190:
  7222  0D04  0BCE               	decfsz	??___fldiv+4,f
  7223  0D05  2CFF               	goto	u3195
  7224  0D06  084D               	movf	??___fldiv+3,w
  7225  0D07  00C9               	movwf	___fldiv@b+3
  7226  0D08  084C               	movf	??___fldiv+2,w
  7227  0D09  00C8               	movwf	___fldiv@b+2
  7228  0D0A  084B               	movf	??___fldiv+1,w
  7229  0D0B  00C7               	movwf	___fldiv@b+1
  7230  0D0C  084A               	movf	??___fldiv,w
  7231  0D0D  00C6               	movwf	___fldiv@b
  7232  0D0E                     l2292:
  7233  0D0E  3001               	movlw	1
  7234  0D0F  07D4               	addwf	___fldiv@new_exp,f
  7235  0D10  1803               	skipnc
  7236  0D11  0AD5               	incf	___fldiv@new_exp+1,f
  7237  0D12  3000               	movlw	0
  7238  0D13  07D5               	addwf	___fldiv@new_exp+1,f
  7239  0D14                     l2294:
  7240  0D14  0855               	movf	___fldiv@new_exp+1,w
  7241  0D15  3A80               	xorlw	128
  7242  0D16  00FF               	movwf	btemp+1
  7243  0D17  3080               	movlw	128
  7244  0D18  027F               	subwf	btemp+1,w
  7245  0D19  1D03               	skipz
  7246  0D1A  2D1D               	goto	u3205
  7247  0D1B  30FF               	movlw	255
  7248  0D1C  0254               	subwf	___fldiv@new_exp,w
  7249  0D1D                     u3205:
  7250  0D1D  1C03               	skipc
  7251  0D1E  2D20               	goto	u3201
  7252  0D1F  2D21               	goto	u3200
  7253  0D20                     u3201:
  7254  0D20  2D2F               	goto	l2298
  7255  0D21                     u3200:
  7256  0D21                     l2296:
  7257  0D21  30FF               	movlw	255
  7258  0D22  1283               	bcf	3,5	;RP0=0, select bank0
  7259  0D23  1303               	bcf	3,6	;RP1=0, select bank0
  7260  0D24  00D4               	movwf	___fldiv@new_exp
  7261  0D25  3000               	movlw	0
  7262  0D26  00D5               	movwf	___fldiv@new_exp+1
  7263  0D27  3000               	movlw	0
  7264  0D28  00C9               	movwf	___fldiv@b+3
  7265  0D29  3000               	movlw	0
  7266  0D2A  00C8               	movwf	___fldiv@b+2
  7267  0D2B  3000               	movlw	0
  7268  0D2C  00C7               	movwf	___fldiv@b+1
  7269  0D2D  3000               	movlw	0
  7270  0D2E  00C6               	movwf	___fldiv@b
  7271  0D2F                     l2298:
  7272  0D2F  1283               	bcf	3,5	;RP0=0, select bank0
  7273  0D30  1303               	bcf	3,6	;RP1=0, select bank0
  7274  0D31  0855               	movf	___fldiv@new_exp+1,w
  7275  0D32  3A80               	xorlw	128
  7276  0D33  00FF               	movwf	btemp+1
  7277  0D34  3080               	movlw	128
  7278  0D35  027F               	subwf	btemp+1,w
  7279  0D36  1D03               	skipz
  7280  0D37  2D3A               	goto	u3215
  7281  0D38  3001               	movlw	1
  7282  0D39  0254               	subwf	___fldiv@new_exp,w
  7283  0D3A                     u3215:
  7284  0D3A  1803               	skipnc
  7285  0D3B  2D3D               	goto	u3211
  7286  0D3C  2D3E               	goto	u3210
  7287  0D3D                     u3211:
  7288  0D3D  2D4B               	goto	l643
  7289  0D3E                     u3210:
  7290  0D3E                     l2300:
  7291  0D3E  1283               	bcf	3,5	;RP0=0, select bank0
  7292  0D3F  1303               	bcf	3,6	;RP1=0, select bank0
  7293  0D40  01D4               	clrf	___fldiv@new_exp
  7294  0D41  01D5               	clrf	___fldiv@new_exp+1
  7295  0D42                     l2302:
  7296  0D42  3000               	movlw	0
  7297  0D43  00C9               	movwf	___fldiv@b+3
  7298  0D44  3000               	movlw	0
  7299  0D45  00C8               	movwf	___fldiv@b+2
  7300  0D46  3000               	movlw	0
  7301  0D47  00C7               	movwf	___fldiv@b+1
  7302  0D48  3000               	movlw	0
  7303  0D49  00C6               	movwf	___fldiv@b
  7304  0D4A                     l2304:
  7305  0D4A  01D3               	clrf	___fldiv@sign
  7306  0D4B                     l643:
  7307  0D4B  1283               	bcf	3,5	;RP0=0, select bank0
  7308  0D4C  1303               	bcf	3,6	;RP1=0, select bank0
  7309  0D4D  0854               	movf	___fldiv@new_exp,w
  7310  0D4E  00CA               	movwf	??___fldiv
  7311  0D4F  084A               	movf	??___fldiv,w
  7312  0D50  00DA               	movwf	___fldiv@bexp
  7313  0D51                     l2306:
  7314  0D51  1C5A               	btfss	___fldiv@bexp,0
  7315  0D52  2D54               	goto	u3221
  7316  0D53  2D55               	goto	u3220
  7317  0D54                     u3221:
  7318  0D54  2D57               	goto	l2310
  7319  0D55                     u3220:
  7320  0D55                     l2308:
  7321  0D55  17C8               	bsf	___fldiv@b+2,7
  7322  0D56  2D5B               	goto	l645
  7323  0D57                     l2310:
  7324  0D57  307F               	movlw	127
  7325  0D58  00CA               	movwf	??___fldiv
  7326  0D59  084A               	movf	??___fldiv,w
  7327  0D5A  05C8               	andwf	___fldiv@b+2,f
  7328  0D5B                     l645:
  7329  0D5B  085A               	movf	___fldiv@bexp,w
  7330  0D5C  00CA               	movwf	??___fldiv
  7331  0D5D  1003               	clrc
  7332  0D5E  0C4A               	rrf	??___fldiv,w
  7333  0D5F  00CB               	movwf	??___fldiv+1
  7334  0D60  084B               	movf	??___fldiv+1,w
  7335  0D61  00C9               	movwf	___fldiv@b+3
  7336  0D62  0853               	movf	___fldiv@sign,w
  7337  0D63  00CA               	movwf	??___fldiv
  7338  0D64  084A               	movf	??___fldiv,w
  7339  0D65  04C9               	iorwf	___fldiv@b+3,f
  7340  0D66  2BFF               	goto	l2218
  7341  0D67                     l623:
  7342  0D67  0008               	return
  7343  0D68                     __end_of___fldiv:
  7344                           
  7345                           	psect	text21
  7346  15D5                     __ptext21:	
  7347 ;; *************** function _UART_Write_Text *****************
  7348 ;; Defined at:
  7349 ;;		line 53 in file "./uart.h"
  7350 ;; Parameters:    Size  Location     Type
  7351 ;;  text            1    wreg     PTR unsigned char 
  7352 ;;		 -> Quadra_Al@uart_logs(50), 
  7353 ;; Auto vars:     Size  Location     Type
  7354 ;;  text            1    4[COMMON] PTR unsigned char 
  7355 ;;		 -> Quadra_Al@uart_logs(50), 
  7356 ;;  i               2    2[COMMON] int 
  7357 ;; Return value:  Size  Location     Type
  7358 ;;                  1    wreg      void 
  7359 ;; Registers used:
  7360 ;;		wreg, fsr0l, fsr0h, status,2, status,0, pclath, cstack
  7361 ;; Tracked objects:
  7362 ;;		On entry : 0/0
  7363 ;;		On exit  : 0/0
  7364 ;;		Unchanged: 0/0
  7365 ;; Data sizes:     COMMON   BANK0   BANK1   BANK3   BANK2
  7366 ;;      Params:         0       0       0       0       0
  7367 ;;      Locals:         3       0       0       0       0
  7368 ;;      Temps:          1       0       0       0       0
  7369 ;;      Totals:         4       0       0       0       0
  7370 ;;Total ram usage:        4 bytes
  7371 ;; Hardware stack levels used: 1
  7372 ;; Hardware stack levels required when called: 1
  7373 ;; This function calls:
  7374 ;;		_UART_Write
  7375 ;; This function is called by:
  7376 ;;		_Quadra_Al
  7377 ;; This function uses a non-reentrant model
  7378 ;;
  7379                           
  7380                           
  7381                           ;psect for function _UART_Write_Text
  7382  15D5                     _UART_Write_Text:
  7383                           
  7384                           ;incstack = 0
  7385                           ; Regs used in _UART_Write_Text: [wreg-fsr0h+status,2+status,0+pclath+cstack]
  7386                           ;UART_Write_Text@text stored from wreg
  7387  15D5  00F4               	movwf	UART_Write_Text@text
  7388  15D6                     l2028:
  7389                           
  7390                           ;./uart.h: 53: void UART_Write_Text(char *text);./uart.h: 54: {;./uart.h: 55:   int i;;.
      +                          /uart.h: 56:   for(i=0;text[i]!='\0';i++)
  7391  15D6  01F2               	clrf	UART_Write_Text@i
  7392  15D7  01F3               	clrf	UART_Write_Text@i+1
  7393  15D8  2DEA               	goto	l2034
  7394  15D9                     l2030:
  7395                           
  7396                           ;./uart.h: 57:    UART_Write(text[i]);
  7397  15D9  0872               	movf	UART_Write_Text@i,w
  7398  15DA  0774               	addwf	UART_Write_Text@text,w
  7399  15DB  00F1               	movwf	??_UART_Write_Text
  7400  15DC  0871               	movf	??_UART_Write_Text,w
  7401  15DD  0084               	movwf	4
  7402  15DE  0800               	movf	0,w
  7403  15DF  160A  118A  2584  160A  118A  	fcall	_UART_Write
  7404  15E4                     l2032:
  7405  15E4  3001               	movlw	1
  7406  15E5  07F2               	addwf	UART_Write_Text@i,f
  7407  15E6  1803               	skipnc
  7408  15E7  0AF3               	incf	UART_Write_Text@i+1,f
  7409  15E8  3000               	movlw	0
  7410  15E9  07F3               	addwf	UART_Write_Text@i+1,f
  7411  15EA                     l2034:
  7412  15EA  0872               	movf	UART_Write_Text@i,w
  7413  15EB  0774               	addwf	UART_Write_Text@text,w
  7414  15EC  00F1               	movwf	??_UART_Write_Text
  7415  15ED  0871               	movf	??_UART_Write_Text,w
  7416  15EE  0084               	movwf	4
  7417  15EF  1383               	bcf	3,7	;select IRP bank0
  7418  15F0  0800               	movf	0,w
  7419  15F1  1D03               	btfss	3,2
  7420  15F2  2DF4               	goto	u2671
  7421  15F3  2DF5               	goto	u2670
  7422  15F4                     u2671:
  7423  15F4  2DD9               	goto	l2030
  7424  15F5                     u2670:
  7425  15F5                     l97:
  7426  15F5  0008               	return
  7427  15F6                     __end_of_UART_Write_Text:
  7428                           
  7429                           	psect	text22
  7430  1584                     __ptext22:	
  7431 ;; *************** function _UART_Write *****************
  7432 ;; Defined at:
  7433 ;;		line 47 in file "./uart.h"
  7434 ;; Parameters:    Size  Location     Type
  7435 ;;  data            1    wreg     unsigned char 
  7436 ;; Auto vars:     Size  Location     Type
  7437 ;;  data            1    0[COMMON] unsigned char 
  7438 ;; Return value:  Size  Location     Type
  7439 ;;                  1    wreg      void 
  7440 ;; Registers used:
  7441 ;;		wreg
  7442 ;; Tracked objects:
  7443 ;;		On entry : 0/0
  7444 ;;		On exit  : 0/0
  7445 ;;		Unchanged: 0/0
  7446 ;; Data sizes:     COMMON   BANK0   BANK1   BANK3   BANK2
  7447 ;;      Params:         0       0       0       0       0
  7448 ;;      Locals:         1       0       0       0       0
  7449 ;;      Temps:          0       0       0       0       0
  7450 ;;      Totals:         1       0       0       0       0
  7451 ;;Total ram usage:        1 bytes
  7452 ;; Hardware stack levels used: 1
  7453 ;; This function calls:
  7454 ;;		Nothing
  7455 ;; This function is called by:
  7456 ;;		_UART_Write_Text
  7457 ;; This function uses a non-reentrant model
  7458 ;;
  7459                           
  7460                           
  7461                           ;psect for function _UART_Write
  7462  1584                     _UART_Write:
  7463                           
  7464                           ;incstack = 0
  7465                           ; Regs used in _UART_Write: [wreg]
  7466                           ;UART_Write@data stored from wreg
  7467  1584  00F0               	movwf	UART_Write@data
  7468  1585                     l1768:
  7469  1585                     l88:	
  7470                           ;./uart.h: 47: void UART_Write(char data);./uart.h: 48: {;./uart.h: 49:   while(!TRMT);
  7471                           
  7472  1585  1683               	bsf	3,5	;RP0=1, select bank1
  7473  1586  1303               	bcf	3,6	;RP1=0, select bank1
  7474  1587  1C98               	btfss	24,1	;volatile
  7475  1588  2D8A               	goto	u2041
  7476  1589  2D8B               	goto	u2040
  7477  158A                     u2041:
  7478  158A  2D85               	goto	l88
  7479  158B                     u2040:
  7480  158B                     l1770:
  7481                           
  7482                           ;./uart.h: 50:   TXREG = data;
  7483  158B  0870               	movf	UART_Write@data,w
  7484  158C  1283               	bcf	3,5	;RP0=0, select bank0
  7485  158D  1303               	bcf	3,6	;RP1=0, select bank0
  7486  158E  0099               	movwf	25	;volatile
  7487  158F                     l91:
  7488  158F  0008               	return
  7489  1590                     __end_of_UART_Write:
  7490                           
  7491                           	psect	text23
  7492  1567                     __ptext23:	
  7493 ;; *************** function _ADC_Init *****************
  7494 ;; Defined at:
  7495 ;;		line 29 in file "newmain.c"
  7496 ;; Parameters:    Size  Location     Type
  7497 ;;		None
  7498 ;; Auto vars:     Size  Location     Type
  7499 ;;		None
  7500 ;; Return value:  Size  Location     Type
  7501 ;;                  1    wreg      void 
  7502 ;; Registers used:
  7503 ;;		wreg
  7504 ;; Tracked objects:
  7505 ;;		On entry : 0/0
  7506 ;;		On exit  : 0/0
  7507 ;;		Unchanged: 0/0
  7508 ;; Data sizes:     COMMON   BANK0   BANK1   BANK3   BANK2
  7509 ;;      Params:         0       0       0       0       0
  7510 ;;      Locals:         0       0       0       0       0
  7511 ;;      Temps:          0       0       0       0       0
  7512 ;;      Totals:         0       0       0       0       0
  7513 ;;Total ram usage:        0 bytes
  7514 ;; Hardware stack levels used: 1
  7515 ;; This function calls:
  7516 ;;		Nothing
  7517 ;; This function is called by:
  7518 ;;		_main
  7519 ;; This function uses a non-reentrant model
  7520 ;;
  7521                           
  7522                           
  7523                           ;psect for function _ADC_Init
  7524  1567                     _ADC_Init:
  7525  1567                     l2526:	
  7526                           ;incstack = 0
  7527                           ; Regs used in _ADC_Init: [wreg]
  7528                           
  7529                           
  7530                           ;newmain.c: 31:    ADCON0 = 0b1000001;
  7531  1567  3041               	movlw	65
  7532  1568  1283               	bcf	3,5	;RP0=0, select bank0
  7533  1569  1303               	bcf	3,6	;RP1=0, select bank0
  7534  156A  009F               	movwf	31	;volatile
  7535                           
  7536                           ;newmain.c: 32:    ADCON1 = 0b11000000;
  7537  156B  30C0               	movlw	192
  7538  156C  1683               	bsf	3,5	;RP0=1, select bank1
  7539  156D  1303               	bcf	3,6	;RP1=0, select bank1
  7540  156E  009F               	movwf	31	;volatile
  7541  156F                     l100:
  7542  156F  0008               	return
  7543  1570                     __end_of_ADC_Init:
  7544  007E                     btemp	set	126	;btemp
  7545  007E                     wtemp0	set	126
  7546                           
  7547                           	psect	config
  7548                           
  7549                           ;Config register CONFIG @ 0x2007
  7550                           ;	Oscillator Selection bits
  7551                           ;	FOSC = XT, XT oscillator
  7552                           ;	Watchdog Timer Enable bit
  7553                           ;	WDTE = OFF, WDT disabled
  7554                           ;	Power-up Timer Enable bit
  7555                           ;	PWRTE = OFF, PWRT disabled
  7556                           ;	Brown-out Reset Enable bit
  7557                           ;	BOREN = OFF, BOR disabled
  7558                           ;	Low-Voltage (Single-Supply) In-Circuit Serial Programming Enable bit
  7559                           ;	LVP = OFF, RB3 is digital I/O, HV on MCLR must be used for programming
  7560                           ;	Data EEPROM Memory Code Protection bit
  7561                           ;	CPD = OFF, Data EEPROM code protection off
  7562                           ;	Flash Program Memory Write Enable bits
  7563                           ;	WRT = OFF, Write protection off; all program memory may be written to by EECON control
  7564                           ;	In-Circuit Debugger Mode bit
  7565                           ;	DEBUG = 0x1, unprogrammed default
  7566                           ;	Flash Program Memory Code Protection bit
  7567                           ;	CP = OFF, Code protection off
  7568  2007                     	org	8199
  7569  2007  3F39               	dw	16185

Data Sizes:
    Strings     32
    Constant    10
    Data        28
    BSS         0
    Persistent  0
    Stack       0

Auto Spaces:
    Space          Size  Autos    Used
    COMMON           14     14      14
    BANK0            80     80      80
    BANK1            80     77      77
    BANK3            96     48      76
    BANK2            96      0       0

Pointer List with Targets:

    sprintf@f	PTR const unsigned char  size(1) Largest target is 23
		 -> STR_3(CODE[9]), STR_2(CODE[23]), STR_1(CODE[5]), 

    sprintf@sp	PTR unsigned char  size(1) Largest target is 50
		 -> Quadra_Al@uart_logs(BANK1[50]), 

    sprintf@ap	PTR void [1] size(1) Largest target is 2
		 -> ?_sprintf(BANK0[2]), 

    UART_Write_Text@text	PTR unsigned char  size(1) Largest target is 50
		 -> Quadra_Al@uart_logs(BANK1[50]), 


Critical Paths under _main in COMMON

    _UART_Init->___aldiv
    _Quadra_Al->___xxtofl
    _sprintf->___lwmod
    ___lwmod->___lwdiv
    ___flsub->___xxtofl
    ___flmul->___xxtofl
    _UART_Write_Text->_UART_Write

Critical Paths under _main in BANK0

    _main->_Quadra_Al
    _UART_Init->___aldiv
    _Quadra_Al->___fldiv
    ___flsub->___flmul
    ___flmul->___fladd
    ___fldiv->___flmul

Critical Paths under _main in BANK1

    _main->_Quadra_Al

Critical Paths under _main in BANK3

    _main->_Quadra_Al

Critical Paths under _main in BANK2

    None.

Call Graph Tables:

 ---------------------------------------------------------------------------------
 (Depth) Function   	        Calls       Base Space   Used Autos Params    Refs
 ---------------------------------------------------------------------------------
 (0) _main                                                 7     7      0   15027
                                             74 BANK1      3     3      0
                                             44 BANK3      4     4      0
                           _ADC_Init
                          _Quadra_Al
                          _UART_Init
                            ___fltol
                       _spiDataReady
                            _spiInit
                            _spiRead
                           _spiWrite
 ---------------------------------------------------------------------------------
 (1) _spiWrite                                             1     1      0      22
                                              0 COMMON     1     1      0
 ---------------------------------------------------------------------------------
 (1) _spiRead                                              0     0      0       0
                     _spiReceiveWait
 ---------------------------------------------------------------------------------
 (2) _spiReceiveWait                                       0     0      0       0
 ---------------------------------------------------------------------------------
 (1) _spiInit                                              4     1      3     360
                                              0 COMMON     4     1      3
 ---------------------------------------------------------------------------------
 (1) _spiDataReady                                         2     0      2       0
                                              0 COMMON     2     0      2
 ---------------------------------------------------------------------------------
 (1) ___fltol                                             11     7      4     305
                                              0 COMMON    11     7      4
 ---------------------------------------------------------------------------------
 (1) _UART_Init                                           18    14      4     836
                                              9 COMMON     2     2      0
                                              6 BANK0     16    12      4
                            ___aldiv
 ---------------------------------------------------------------------------------
 (2) ___aldiv                                             15     7      8     604
                                              0 COMMON     9     1      8
                                              0 BANK0      6     6      0
 ---------------------------------------------------------------------------------
 (1) _Quadra_Al                                          138   134      4   13481
                                             60 BANK0     20    16      4
                                              0 BANK1     74    74      0
                                              0 BANK3     44    44      0
                    _UART_Write_Text
                            ___fladd
                            ___fldiv
                             ___flge
                            ___flmul
                            ___flneg
                            ___flsub
                           ___xxtofl
                            _sprintf
 ---------------------------------------------------------------------------------
 (2) _sprintf                                             47    18     29    1429
                                              0 BANK0     39    10     29
                            ___lwdiv
                            ___lwmod
 ---------------------------------------------------------------------------------
 (3) ___lwmod                                              6     2      4     311
                                              8 COMMON     6     2      4
                            ___lwdiv (ARG)
 ---------------------------------------------------------------------------------
 (3) ___lwdiv                                              8     4      4     314
                                              0 COMMON     8     4      4
 ---------------------------------------------------------------------------------
 (2) ___xxtofl                                            14    10      4     398
                                              0 COMMON    14    10      4
 ---------------------------------------------------------------------------------
 (2) ___flsub                                              8     0      8    3093
                                             34 BANK0      8     0      8
                            ___fladd
                            ___flmul (ARG)
                           ___xxtofl (ARG)
 ---------------------------------------------------------------------------------
 (3) ___fladd                                             20    12      8    2440
                                              0 COMMON    12     4      8
                                              0 BANK0      8     8      0
 ---------------------------------------------------------------------------------
 (2) ___flneg                                              4     0      4     121
                                              0 COMMON     4     0      4
 ---------------------------------------------------------------------------------
 (2) ___flmul                                             26    18      8    3177
                                              8 BANK0     26    18      8
                          __Umul8_16
                            ___fladd (ARG)
                           ___xxtofl (ARG)
 ---------------------------------------------------------------------------------
 (3) __Umul8_16                                            9     7      2     799
                                              0 COMMON     9     7      2
 ---------------------------------------------------------------------------------
 (2) ___flge                                              12     4      8     334
                                              0 COMMON    12     4      8
 ---------------------------------------------------------------------------------
 (2) ___fldiv                                             26    18      8    1273
                                             34 BANK0     26    18      8
                            ___flmul (ARG)
                            ___flneg (ARG)
 ---------------------------------------------------------------------------------
 (2) _UART_Write_Text                                      4     4      0     211
                                              1 COMMON     4     4      0
                         _UART_Write
 ---------------------------------------------------------------------------------
 (3) _UART_Write                                           1     1      0      22
                                              0 COMMON     1     1      0
 ---------------------------------------------------------------------------------
 (1) _ADC_Init                                             0     0      0       0
 ---------------------------------------------------------------------------------
 Estimated maximum stack depth 3
 ---------------------------------------------------------------------------------

 Call Graph Graphs:

 _main (ROOT)
   _ADC_Init
   _Quadra_Al
     _UART_Write_Text
       _UART_Write
     ___fladd
     ___fldiv
       ___flmul (ARG)
         __Umul8_16
         ___fladd (ARG)
         ___xxtofl (ARG)
       ___flneg (ARG)
     ___flge
     ___flmul
     ___flneg
     ___flsub
       ___fladd
       ___flmul (ARG)
       ___xxtofl (ARG)
     ___xxtofl
     _sprintf
       ___lwdiv
       ___lwmod
         ___lwdiv (ARG)
   _UART_Init
     ___aldiv
   ___fltol
   _spiDataReady
   _spiInit
   _spiRead
     _spiReceiveWait
   _spiWrite

 Address spaces:
Name               Size   Autos  Total    Cost      Usage
BANK3               60     30      4C       9       79.2%
BITBANK3            60      0       0       8        0.0%
SFR3                 0      0       0       4        0.0%
BITSFR3              0      0       0       4        0.0%
BANK2               60      0       0      11        0.0%
BITBANK2            60      0       0      10        0.0%
SFR2                 0      0       0       5        0.0%
BITSFR2              0      0       0       5        0.0%
BANK1               50     4D      4D       7       96.2%
BITBANK1            50      0       0       6        0.0%
SFR1                 0      0       0       2        0.0%
BITSFR1              0      0       0       2        0.0%
BANK0               50     50      50       5      100.0%
BITBANK0            50      0       0       4        0.0%
SFR0                 0      0       0       1        0.0%
BITSFR0              0      0       0       1        0.0%
COMMON               E      E       E       1      100.0%
BITCOMMON            E      0       0       0        0.0%
CODE                 0      0       0       0        0.0%
DATA                 0      0      F7      12        0.0%
ABS                  0      0      F7       3        0.0%
NULL                 0      0       0       0        0.0%
STACK                0      0       0       2        0.0%
EEDATA             100      0       0       0        0.0%


Microchip Technology PIC Macro Assembler V2.32 build 20210201212658 
Symbol Table                                                                                   Sat Nov 27 22:17:58 2021

            ___fldiv@aexp 005B              ___fldiv@bexp 005A                         pc 0002  
            ___fldiv@sign 0053               _SSPSTATbits 0094                        l91 158F  
                      l67 0AA2                        l88 1585                        l97 15F5  
                      fsr 0004       __Umul8_16@word_mpld 0076                       l100 156F  
                     l114 07ED                       l140 15B3                       l141 15B8  
                     l150 155F                       l144 1560                       l154 0014  
                     l147 1566                       l158 1578                       l337 1777  
                     l450 090E                       l611 1619                       l347 17FF  
                     l268 0B8A                       l621 0BE7                       l446 0889  
                     l454 1583                       l623 0D67                       l607 0FF1  
                     l711 0976                       l608 0FFF                       l544 086C  
                     l449 08F5                       l705 0931                       l465 16B8  
                     l554 1653                       l458 16CD                       l643 0D4B  
                     l571 0E49                       l707 09C8                       l468 16CD  
                     l645 0D5B                       l637 0CD9                       l661 0375  
                     l565 0DCB                       l590 0F6B                       l718 0992  
                     l719 099E                       l680 0816                       l673 0369  
                     l569 0E74                       l682 0828                       l586 0F45  
                     l578 0FFF                       l667 02E1                       l596 0F8D  
                     l599 0FCD                       _GIE 005F                       _RD0 0040  
                     fsr0 0004                       indf 0000              ___flmul@aexp 003A  
            ___flmul@bexp 003B              ___flmul@sign 0035              ___flmul@temp 0040  
            ___flmul@prod 003C              ___fltol@exp1 007A                      l2000 0FDF  
                    l2010 0FFA                      l2002 0FE4                      l2020 0810  
                    l2012 0FFE                      l2004 0FE5                      l2100 1763  
                    l2030 15D9                      l2022 081F                      l2014 0803  
                    l2006 0FE9                      l2110 178A                      l2102 1766  
                    l2032 15E4                      l2200 0BC9                      l2024 0824  
                    l2016 0805                      l2008 0FEB                      l2040 0AB1  
                    l2120 17AE                      l2112 1792                      l2104 176A  
                    l2034 15EA                      l2210 0BDD                      l2202 0BCA  
                    l2018 080C                      l2050 0ADB                      l2042 0AB8  
                    l2130 17E1                      l2122 17B7                      l2114 179A  
                    l2106 177B                      l2028 15D6                      l2300 0D3E  
                    l2204 0BCF                      l2212 0BDF                      l2140 086D  
                    l2060 0AF4                      l2052 0AE3                      l2044 0ABD  
                    l2036 0AA6                      l2124 17C9                      l2116 179D  
                    l2132 17E7                      l2108 1786                      l2310 0D57  
                    l2302 0D42                      l2230 0C28                      l2214 0BEF  
                    l2222 0C08                      l2206 0BD4                      l2150 08CD  
                    l2142 0881                      l2070 0B12                      l2054 0AE7  
                    l2038 0AAB                      l2134 17EC                      l2126 17D7  
                    l2118 17AA                      l2304 0D4A                      l2240 0C47  
                    l2232 0C30                      l2224 0C0D                      l2216 0BFB  
                    l2208 0BDC                      l2152 08D1                      l2144 089D  
                    l2400 0296                      l2320 0022                      l2160 1579  
                    l2080 0B32                      l2072 0B1C                      l2056 0AEB  
                    l2048 0ABE                      l2136 17F7                      l2128 17D8  
                    l2306 0D51                      l2250 0C79                      l2242 0C59  
                    l2234 0C38                      l2218 0BFF                      l2154 090B  
                    l2146 08A5                      l2410 02BB                      l2402 02A4  
                    l2330 0039                      l2322 0026                      l2162 1581  
                    l2170 15FA                      l2082 0B60                      l2074 0B22  
                    l2066 0AF6                      l2058 0AEF                      l2090 0B86  
                    l2308 0D55                      l2260 0C9A                      l2252 0C7A  
                    l2244 0C5D                      l2236 0C40                      l2228 0C16  
                    l2180 0B9C                      l2156 090D                      l2148 08A9  
                    l2420 02DE                      l2404 02AD                      l2412 02C1  
                    l2340 0052                      l2332 003B                      l2324 0027  
                    l2316 0015                      l2164 1583                      l2084 0B67  
                    l2076 0B29                      l2500 09C9                      l2270 0CB3  
                    l2262 0C9C                      l2254 0C88                      l2246 0C5E  
                    l2238 0C42                      l2190 0BB0                      l2182 0B9D  
                    l2174 0B8B                      l2430 02FD                      l2414 02C5  
                    l2406 02B1                      l2350 0067                      l2342 0053  
                    l2334 0043                      l2326 002C                      l2318 001C  
                    l2086 0B6B                      l2078 0B2D                      l2510 0A90  
                    l2502 0A22                      l2280 0CD6                      l2264 0CA5  
                    l2272 0CB9                      l2248 0C67                      l2256 0C8C  
                    l2184 0BA2                      l2192 0BB2                      l2176 0B92  
                    l2440 0343                      l2432 0316                      l2424 02E6  
                    l2416 02C6                      l2408 02B2                      l2360 0082  
                    l2352 006F                      l2344 0058                      l2336 0048  
                    l2328 0031                      l2168 15F6                      l1800 1620  
                    l2088 0B74                      l2520 0A9C                      l2512 0A94  
                    l2504 0A2B                      l2600 0007                      l2290 0CF5  
                    l2274 0CBD                      l2266 0CA9                      l2258 0C92  
                    l2194 0BBA                      l2186 0BA7                      l2178 0B98  
                    l2450 0362                      l2442 034D                      l2426 02EB  
                    l2434 031C                      l2418 02CA                      l2370 0104  
                    l2362 0092                      l2354 0074                      l2346 005D  
                    l2338 004E                      l1810 163C                      l1802 1623  
                    l2530 038D                      l2522 0A9F                      l2514 0A95  
                    l2506 0A84                      l2602 000D                      l2098 1560  
                    l2292 0D0E                      l2284 0CDE                      l2276 0CBE  
                    l2268 0CAA                      l2196 0BBF                      l2188 0BAF  
                    l2452 036D                      l2444 034F                      l2436 0329  
                    l2428 02F9                      l2380 0172                      l2372 0120  
                    l2364 009F                      l2356 0079                      l2348 0065  
                    l1900 0E16                      l1820 0D68                      l2460 0919  
                    l1812 1642                      l1804 162A                      l2540 03CA  
                    l2532 0397                      l2516 0A98                      l2508 0A87  
                    l2620 1654                      l2612 1570                      l2526 1567  
                    l2286 0CE3                      l2294 0D14                      l2278 0CC2  
                    l2198 0BC5                      l2446 035D                      l2438 0334  
                    l2390 0202                      l2382 0182                      l2374 013C  
                    l2366 00BC                      l1910 0E5E                      l1902 0E2D  
                    l1830 0D7F                      l1822 0D6F                      l2470 0947  
                    l2462 0929                      l1814 1649                      l1806 162E  
                    l2542 03E8                      l2550 0423                      l2518 0A9B  
                    l2630 167E                      l2622 165F                      l2614 1575  
                    l2296 0D21                      l2288 0CF1                      l2448 0361  
                    l2392 0212                      l2384 019F                      l2376 0145  
                    l2368 00D8                      l1920 0E7D                      l1912 0E5F  
                    l1904 0E4D                      l1840 0D97                      l1832 0D84  
                    l1824 0D75                      l2480 097D                      l2472 0954  
                    l2464 0939                      l2456 0910                      l1808 1632  
                    l1816 164F                      l2560 04FA                      l2552 042B  
                    l2544 03EE                      l2528 0376                      l2632 1686  
                    l2608 0012                      l1770 158B                      l2298 0D2F  
                    l2394 023F                      l2386 01B8                      l2378 0155  
                    l1930 0EA5                      l1914 0E6A                      l1906 0E58  
                    l1850 0DAD                      l1842 0D9C                      l1834 0D8C  
                    l1826 0D79                      l2490 09B6                      l2482 0988  
                    l2474 095B                      l2458 0915                      l2714 0AD0  
                    l2570 067D                      l2562 0539                      l2554 0438  
                    l2546 0412                      l2538 039B                      l2650 16AD  
                    l2642 1694                      l2634 1688                      l2626 1668  
                    l2618 155B                      l2396 0265                      l2388 01D5  
                    l1940 0EC2                      l1932 0EB0                      l1924 0E86  
                    l1908 0E5A                      l1916 0E6E                      l1860 0DC1  
                    l1852 0DAE                      l1844 0DA2                      l1836 0D8D  
                    l1828 0D7A                      l2492 09BB                      l2484 098C  
                    l2476 095F                      l2468 0942                      l1780 083B  
                    l1772 0829                      l2580 07A0                      l2572 06D2  
                    l2564 0578                      l2556 0473                      l2548 0418  
                    l2652 16BD                      l2636 168C                      l2644 16A6  
                    l2628 167D                      l2660 16D3                      l2398 028D  
                    l1950 0F28                      l1934 0EB2                      l1926 0E9D  
                    l1918 0E78                      l1942 0EC7                      l1870 0DDD  
                    l1854 0DB3                      l1862 0DC3                      l1846 0DA3  
                    l1838 0D8F                      l2494 09BF                      l2486 0996  
                    l2478 096D                      l1790 085B                      l1782 083F  
                    l1774 082B                      l2582 07C4                      l2574 0716  
                    l2566 05C5                      l2558 0494                      l2654 16C2  
                    l2590 15A4                      l2670 16DE                      l2662 16D6  
                    l1768 1585                      l1960 0F5B                      l1944 0EDD  
                    l1952 0F37                      l1936 0EB6                      l1928 0EA1  
                    l1880 0DF1                      l1872 0DE1                      l1864 0DD1  
                    l1856 0DB8                      l1848 0DA9                      l2496 09C0  
                    l2488 09A0                      l1792 0862                      l1784 0843  
                    l1776 0831                      l2584 07CA                      l2576 078F  
                    l2568 063E                      l2592 15AB                      l2680 1710  
                    l2672 16E3                      l2664 16D7                      l2656 16CE  
                    l1970 0F74                      l1962 0F66                      l1954 0F4D  
                    l1946 0F1D                      l1938 0EB7                      l1890 0E05  
                    l1882 0DF5                      l1874 0DE5                      l1866 0DD5  
                    l1858 0DC0                      l1786 0854                      l1778 0834  
                    l1794 0868                      l2586 07D5                      l2578 0795  
                    l2594 15AD                      l2690 1754                      l2682 1713  
                    l2674 16F2                      l2666 16D8                      l2658 16D2  
                    l1980 0F84                      l1972 0F79                      l1964 0F6A  
                    l1956 0F52                      l1948 0F23                      l1892 0E09  
                    l1884 0DF9                      l1876 0DE9                      l1868 0DD9  
                    l1788 085A                      l2596 15AF                      l2684 1730  
                    l2692 1755                      l2676 16FB                      l2668 16D9  
                    l1990 0FA5                      l1982 0F8A                      l1966 0F6F  
                    l1974 0F7B                      l1894 0E0D                      l1886 0DFD  
                    l1878 0DED                      l1798 161A                      l2598 15B2  
                    l2686 1743                      l2678 1706                      l1992 0FA9  
                    l1968 0F72                      l1976 0F7F                      l1896 0E11  
                    l1888 0E01                      l2688 1751                      l1994 0FC9  
                    l1986 0F92                      l1978 0F80                      l1898 0E15  
                    l1996 0FD2                      l1988 0F97                      l1998 0FD7  
                    STR_1 102B                      STR_2 1010                      STR_3 1027  
                    _BRGH 04C2                      _CREN 00C4                      u2110 0868  
                    u2111 0867                      u2040 158B                      u3000 0BEF  
                    u2200 0D84                      u2120 1620                      u2041 158A  
                    u3001 0BEE                      u2201 0D83                      u2105 085C  
                    u2121 161F                      u3010 0C0D                      u2210 0DA2  
                    u2050 0831                      u3011 0C0C                      u2211 0DA1  
                    u2051 0830                      u3020 0C47                      u2300 0E4D  
                    u2220 0DAD                      u2140 1632                      u3021 0C46  
                    u2301 0E4C                      u2221 0DAC                      u2141 1631  
                    u3110 0CA9                      u2310 0E5E                      u2230 0DB3  
                    u2070 0843                      u2150 163C                      u3111 0CA8  
                    u2311 0E5D                      u2231 0DB2                      u2071 0842  
                    u2151 163B                      u2135 1624                      u3200 0D21  
                    u2240 0DB8                      u4000 16C2                      u3201 0D20  
                    u3105 0C9E                      u2241 0DB7                      u2065 0835  
                    u4001 16C1                      u3210 0D3E                      u3130 0CBD  
                    u3050 0C5D                      u2410 0EDD                      u2330 0E74  
                    u2250 0DD1                      u2090 0854                      u2170 164F  
                    u4010 1706                      u3211 0D3D                      u3131 0CBC  
                    u3051 0C5C                      u3035 0C49                      u2411 0EDC  
                    u2331 0E73                      u2251 0DD0                      u2091 0853  
                    u2171 164E                      u2155 1638                      u4011 1705  
                    u3220 0D55                      u3140 0CC2                      u3300 0079  
                    u2500 0F79                      u2340 0E78                      u2260 0DD5  
                    u2180 0D79                      u4020 1710                      u3221 0D54  
                    u3205 0D1D                      u3141 0CC1                      u3125 0CAC  
                    u3045 0C52                      u3301 0078                      u2501 0F78  
                    u2421 0EF6                      u2413 0ED9                      u2405 0EBB  
                    u2341 0E77                      u2325 0E63                      u2261 0DD4  
                    u2181 0D78                      u2085 0844                      u2165 1643  
                    u4021 170F                      u3150 0CD6                      u3070 0C79  
                    u3230 0026                      u2510 0F7F                      u2430 0F0A  
                    u2422 0EF7                      u2350 0E7D                      u2270 0E2D  
                    u2190 0D7F                      u3215 0D3A                      u3151 0CD5  
                    u3071 0C78                      u3311 00CA                      u3231 0025  
                    u2511 0F7E                      u2431 0F0B                      u2423 0EFC  
                    u2351 0E7C                      u2271 0E2C                      u2191 0D7E  
                    u2095 0850                      u3160 0CDD                      u3080 0C92  
                    u3312 00D1                      u3240 002C                      u2600 0FD7  
                    u2520 0F84                      u2440 0F28                      u2432 0F10  
                    u2424 0EFD                      u2280 0E36                      u3161 0CDC  
                    u3081 0C91                      u3065 0C60                      u3401 01F4  
                    u3321 00E6                      u3313 00D8                      u3241 002B  
                    u2601 0FD6                      u2521 0F83                      u2441 0F27  
                    u2433 0F11                      u2425 0F02                      u2361 0E8F  
                    u2281 0E34                      u3170 0CE3                      u3090 0C9A  
                    u3402 01FB                      u3322 00ED                      u3250 0031  
                    u2610 0FE4                      u2530 0F8A                      u2450 0F4D  
                    u2426 0F03                      u2370 0EA1                      u2362 0E96  
                    u2290 0E37                      u3171 0CE2                      u3091 0C99  
                    u3075 0C75                      u3411 0221                      u3403 0202  
                    u3331 0112                      u3323 00F4                      u3251 0030  
                    u2611 0FE3                      u2531 0F89                      u2451 0F4C  
                    u2371 0EA0                      u2363 0E9D                      u2275 0E29  
                    u3180 0CF5                      u3500 02C5                      u3420 024B  
                    u3412 0228                      u3332 0119                      u3260 0052  
                    u2620 0FE9                      u2540 0F91                      u2460 0F52  
                    u2380 0EA5                      u2700 0B11                      u3181 0CF4  
                    u3501 02C4                      u3413 022F                      u3341 012E  
                    u3333 0120                      u3261 0051                      u2621 0FE8  
                    u2541 0F90                      u2461 0F51                      u2381 0EA4  
                    u2701 0B10                      u4037 174B                      u3190 0D04  
                    u3510 02CA                      u3342 0135                      u3270 0058  
                    u2630 0FFE                      u2550 0F97                      u2390 0EB6  
                    u2710 0B1C                      u3511 02C9                      u3431 0257  
                    u3343 013C                      u3271 0057                      u2631 0FFD  
                    u2551 0F96                      u2391 0EB5                      u2711 0B1B  
                    u4047 175B                      u2640 0810                      u3520 02DE  
                    u3440 0273                      u3432 025E                      u3280 005D  
                    u2560 0FA9                      u2480 0F6A                      u3600 0915  
                    u2720 0B22                      u2800 17AE                      u2641 080F  
                    u3521 02DD                      u3433 0265                      u3425 0246  
                    u3361 0164                      u3281 005C                      u2561 0FA8  
                    u2481 0F69                      u3601 0914                      u2721 0B21  
                    u2705 0B0D                      u4057 041E                      u2801 17AD  
                    u3530 02E5                      u3362 016B                      u3290 0074  
                    u2570 0FBA                      u2490 0F6F                      u3610 0919  
                    u2730 0B74                      u3195 0CFF                      u3531 02E4  
                    u3451 027F                      u3371 0191                      u3363 0172  
                    u3355 013E                      u3291 0073                      u2491 0F6E  
                    u2475 0F5F                      u3611 0918                      u2731 0B73  
                    u4067 079B                      u2900 08D1                      u2660 0824  
                    u3540 02EB                      u3452 0286                      u3372 0198  
                    u2580 0FC9                      u3700 0996                      u3620 0939  
                    u2740 0B86                      u2820 17C9                      u2901 08D0  
                    u2661 0823                      u3541 02EA                      u3453 028D  
                    u3445 026E                      u3373 019F                      u2581 0FC8  
                    u3701 0995                      u3621 0938                      u2741 0B85  
                    u4077 07D0                      u2821 17C8                      u2670 15F5  
                    u3550 02FD                      u2590 0FD2                      u3710 09AB  
                    u2750 1566                      u2671 15F4                      u2911 08E0  
                    u2655 0817                      u3551 02FC                      u3391 01C7  
                    u2591 0FD1                      u2575 0FB5                      u2815 17B0  
                    u2751 1565                      u2920 090B                      u2912 08E1  
                    u3560 030C                      u3480 02B1                      u3392 01CE  
                    u3720 09BB                      u3640 095A                      u2680 0AB1  
                    u2840 17E7                      u2760 176A                      u2921 090A  
                    u2913 08E6                      u3481 02B0                      u3465 028F  
                    u3393 01D5                      u3385 01A1                      u3721 09BA  
                    u3641 0959                      u2681 0AB0                      u2841 17E6  
                    u2825 17C5                      u2761 1769                      u3801 0A66  
                    u2914 08E7                      u3570 0329                      u2930 1581  
                    u3730 09BF                      u2690 0AEB                      u2850 17EC  
                    u2770 177B                      u3810 0A90                      u3802 0A67  
                    u2915 08EC                      u3571 0328                      u3475 02A6  
                    u2931 1580                      u3731 09BE                      u3715 09A6  
                    u3635 094C                      u2691 0AEA                      u2851 17EB  
                    u2835 17D9                      u2771 177A                      u3811 0A8F  
                    u3803 0A6C                      _PEIE 005E                      u2940 0B9C  
                    u2916 08ED                      u2860 0881                      u3580 0343  
                    u3660 097C                      u3820 0380                      u2780 179A  
                    u3804 0A6D                      u3740 09D9                      u3900 000D  
                    u2941 0B9B                      u2925 0907                      u2861 0880  
                    u3581 0342                      u3565 0307                      u3661 097B  
                    u2781 1799                      u3805 0A72                      u3901 000C  
                    u2950 0BA2                      u2870 089D                      u3590 0361  
                    u3806 0A73                      u3750 09F2                      u3910 165F  
                    u2951 0BA1                      u2871 089C                      u3591 0360  
                    u3575 0325                      u3495 02B4                      u3655 096E  
                    u3911 165E                      u2960 0BA7                      u2880 08A9  
                    u3680 098C                      u3840 03CA                      u3920 1676  
                    u2961 0BA6                      u2881 08A8                      u3585 033F  
                    u3681 098B                      u3841 03C9                      u3761 0A04  
                    u3745 09D4                      u2970 0BC9                      u3690 0992  
                    u3770 0A2B                      u3762 0A05                      u3930 168C  
                    u2971 0BC8                      u2891 08B8                      u3691 0991  
                    u3675 0981                      u3835 03AC                      u2795 179F  
                    u3771 0A2A                      u3763 0A0A                      u3755 09ED  
                    u3931 168B                      u2980 0BCF                      u2892 08B9  
                    u3860 0438                      u3780 0A3B                      u3764 0A0B  
                    u3940 1693                      _RCIF 0065                      u2981 0BCE  
                    u2893 08BE                      u3861 0437                      u3765 0A10  
                    u3941 1692                      u3925 1671                      u2990 0BD4  
                    u2894 08BF                      u3790 0A54                      u3766 0A11  
                    u2991 0BD3                      u2895 08C4                      u3855 03D1  
                    u2896 08C5                      u3960 16A5                      u3865 0434  
                    u3785 0A36                      u3961 16A4                      u3970 16AC  
                    u3890 15AB                      u3875 043F                      u3795 0A4F  
                    u3971 16AB                      u3955 1695                      u3891 15AA  
                    u3885 045E                      u3990 16BD                      u3991 16BC  
                    u3985 16AF                      _SPEN 00C7                      _TRMT 04C1  
                    _TXEN 04C5                      _SYNC 04C4                      _main 16CE  
                    btemp 007E          __end_of_ADC_Init 1570                      start 0000  
         ___fldiv@new_exp 0054   __end_of_UART_Write_Text 15F6             ___fltol@sign1 0079  
         __end_of___aldiv 1800           __end_of___fladd 1000                     ?_main 0070  
         __end_of___fldiv 0D68           __end_of___flneg 1584           __end_of___flmul 0376  
         __end_of___flsub 161A           __end_of___fltol 16CE           __end_of___lwdiv 086D  
         __end_of___lwmod 1654                     _RCREG 001A                     _SPBRG 0099  
                   _PORTD 0008                     _TRISA 0085                     _TRISD 0088  
                   _SSPIE 0463                     _SSPIF 0063                     _TXREG 0019  
             ?_UART_Write 0070        __size_of_UART_Init 00DA           __end_of_dpowers 1010  
                   pclath 000A           __end_of_spiInit 15B9           __end_of_spiRead 1579  
                   status 0003                     wtemp0 007E           __end_of_sprintf 0B8B  
         __initialization 07EE              __end_of_main 1763                    ??_main 00EA  
                  _ADCON0 001F                    _ADCON1 009F                    _ADRESH 001E  
                  _ADRESL 009E                    _TRISC3 043B                    _TRISC5 043D  
                  _TRISC6 043E                    _TRISC7 043F                    _SSPCON 0014  
                  _SSPBUF 0013          __end_of___xxtofl 09C9                Quadra_Al@a 01B4  
              Quadra_Al@b 0068                Quadra_Al@d 006C                Quadra_Al@j 00E8  
              Quadra_Al@x 0190         __end_of_UART_Init 0AA3                    ___flge 086D  
     __size_of_UART_Write 000C                 ??___aldiv 0078                 ??___fladd 0020  
               ??___fldiv 004A            Quadra_Al@F1224 01C0                 ??___flneg 0074  
               ??___flmul 0030          ?_UART_Write_Text 0070                 ??___flsub 007E  
               ??___fltol 0074                 ??___lwdiv 0074                 ??___lwmod 007C  
      __size_of_Quadra_Al 0478        __size_of__Umul8_16 0027                 ?_ADC_Init 0070  
        __end_of_spiWrite 1560                 ??_spiInit 0073                 ??_spiRead 0070  
               ??_sprintf 003D                ___flge@ff1 0070                ___flge@ff2 0074  
            ___xxtofl@arg 007A              ___xxtofl@exp 0079              ___xxtofl@val 0070  
 __end_of__initialization 07FC                ___flneg@f1 0070                ___fltol@f1 0070  
          __pcstackCOMMON 0070              __pidataBANK3 15B9                ??_ADC_Init 0070  
       __end_of_Quadra_Al 07EE         __end_of__Umul8_16 0829                __pmaintext 16CE  
                 ?___flge 0070   __size_of_spiReceiveWait 0007             ?_spiDataReady 0070  
               ?___xxtofl 0070              ??_UART_Write 0070                   _SSPSTAT 0094  
              __stringtab 1000                 ?_spiWrite 0070                   ___aldiv 1763  
         __size_of___flge 00A2                   ___fladd 0D68                   ___fldiv 0B8B  
                 ___flneg 1579                   ___flmul 0015                   ___flsub 15F6  
                 ___fltol 1654        __end_of_UART_Write 1590                   ___lwdiv 0829  
                 ___lwmod 161A                   __ptext1 155A                   __ptext2 1570  
                 __ptext3 1560                   __ptext4 15A3                   __ptext5 0007  
                 __ptext6 1654                   __ptext7 09C9                   __ptext8 1763  
                 __ptext9 0376            ??_spiDataReady 0072                   _dpowers 1006  
              ??___xxtofl 0074          ___aldiv@dividend 0074                   _spiInit 15A3  
                 _spiRead 1570                   _sprintf 0AA3      end_of_initialization 07FC  
        ___aldiv@quotient 0022                ??_spiWrite 0070                 _UART_Init 09C9  
          UART_Write@data 0070               ___fladd@grs 007B             ___xxtofl@sign 0078  
             ___fldiv@grs 0056               ___fldiv@rem 004F         __size_of_ADC_Init 0009  
             spiWrite@dat 0070               ___flmul@grs 0036            _spiReceiveWait 1560  
          __end_of___flge 090F                ?_UART_Init 0026  __size_of_UART_Write_Text 0021  
     start_initialization 07EE      __end_of_spiDataReady 0015    __end_of_spiReceiveWait 1567  
                ??___flge 0078                 _Quadra_Al 0376                init_fetch0 1590  
               __Umul8_16 0802               __pdataBANK3 01C0             Quadra_Al@max1 01AC  
           Quadra_Al@max2 0064             Quadra_Al@xmax 00E6                 ___fladd@a 0074  
               ___fladd@b 0070                 ___fldiv@a 0042                 ___fldiv@b 0046  
               ___flmul@a 002C                 ___flmul@b 0028                 ___flsub@a 0042  
               ___flsub@b 0046                 ___latbits 0002             __pcstackBANK0 0020  
           __pcstackBANK1 00A0             __pcstackBANK3 0190         __size_of___xxtofl 00BA  
             sprintf@flag 0041               sprintf@prec 0042             _Quadra_Al$924 00D2  
           _Quadra_Al$925 00D6             _Quadra_Al$926 00DA             _Quadra_Al$927 00DE  
           _Quadra_Al$928 00E2          ___lwdiv@dividend 0072           ?_spiReceiveWait 0070  
              ?_Quadra_Al 005C                  ?___aldiv 0070                  ?___fladd 0070  
                ?___fldiv 0042                  ?___flneg 0070                  ?___flmul 0028  
                ?___flsub 0042                  ?___fltol 0070                ?__Umul8_16 0070  
                ?___lwdiv 0070                  ?___lwmod 0078               ??_UART_Init 002A  
       __size_of_spiWrite 0006                 __pstrings 1000                  _ADC_Init 1567  
                ?_spiInit 0070                  ?_spiRead 0070          ___lwdiv@quotient 0075  
                ?_sprintf 0020                UART_Init@x 0079         ??_UART_Write_Text 0071  
         ___aldiv@divisor 0070      spiInit@sTransmitEdge 0072           ___aldiv@counter 0020  
      Quadra_Al@uart_logs 00A0        spiInit@sDataSample 0070                  _GO_nDONE 00FA  
       UART_Init@baudrate 0026               __stringbase 1005     __size_of_spiDataReady 000E  
             ??_Quadra_Al 0060              Quadra_Al@max 01B8              Quadra_Al@out 01B0  
             ??__Umul8_16 0072          __size_of___aldiv 009D          __size_of___fladd 0298  
        __size_of___fldiv 01DD          __size_of___flneg 000B          __size_of___flmul 0361  
        __size_of___flsub 0024          __size_of___fltol 007A          __size_of___lwdiv 0044  
        __size_of___lwmod 003A        __end_of__stringtab 1006              _spiDataReady 0007  
              sprintf@val 0043                  ___xxtofl 090F           ___lwdiv@divisor 0070  
         ___lwdiv@counter 0077                  __ptext10 0AA3                  __ptext11 161A  
                __ptext20 0B8B                  __ptext12 0829                  __ptext21 15D5  
                __ptext13 090F                  __ptext22 1584                  __ptext14 15F6  
                __ptext23 1567                  __ptext15 0D68                  __ptext16 1579  
                __ptext17 0015                  __ptext18 0802                  __ptext19 086D  
        __size_of_spiInit 0016          __size_of_spiRead 0009          __size_of_sprintf 00E8  
     UART_Write_Text@text 0074             __size_of_main 0095                  _spiWrite 155A  
            spiInit@sType 0073                  main@data 01BC         spiInit@sClockIdle 0071  
                init_ram0 1594                 sprintf@ap 0040                 sprintf@sp 0045  
        ___lwmod@dividend 007A          ??_spiReceiveWait 0070                 stringcode 1000  
  __Umul8_16@multiplicand 0070           _UART_Write_Text 15D5                  sprintf@c 0046  
                sprintf@f 0020           ___lwmod@divisor 0078           ___lwmod@counter 007D  
                stringdir 1000                  stringtab 1000              ___aldiv@sign 0021  
              _UART_Write 1584             ___fladd@signs 0078          UART_Write_Text@i 0072  
            ___fladd@aexp 0079              ___fladd@bexp 007A      __Umul8_16@multiplier 0078  
       __Umul8_16@product 0074  
