Microchip MPLAB XC8 Compiler V2.32

Linker command line:

-W-3 --edf=C:\Program Files\Microchip\xc8\v2.32\pic\dat\en_msgs.txt -cn \
  -h+dist/default/production\SLAVE1.X.production.sym \
  --cmf=dist/default/production\SLAVE1.X.production.cmf -z -Q16F877A \
  -oC:\Users\NGUYEN~1\AppData\Local\Temp\xcAshcg.4 --defsym=__MPLAB_BUILD=1 \
  -Mdist/default/production/SLAVE1.X.production.map -E1 -ver=XC8 Compiler \
  --acfsm=1493 -ASTACK=0110h-016Fh -pstack=STACK -ACODE=00h-07FFhx4 \
  -ASTRCODE=00h-01FFFh -ASTRING=00h-0FFhx32 -ACONST=00h-0FFhx32 \
  -AENTRY=00h-0FFhx32 -ACOMMON=070h-07Fh -ABANK0=020h-06Fh \
  -ABANK1=0A0h-0EFh -ABANK2=0110h-016Fh -ABANK3=0190h-01EFh \
  -ARAM=020h-06Fh,0A0h-0EFh,0110h-016Fh,0190h-01EFh \
  -AABS1=020h-07Fh,0A0h-0EFh,0110h-016Fh,0190h-01EFh -ASFR0=00h-01Fh \
  -ASFR1=080h-09Fh -ASFR2=0100h-010Fh -ASFR3=0180h-018Fh \
  -ACONFIG=02007h-02007h -DCONFIG=2 -AIDLOC=02000h-02003h -DIDLOC=2 \
  -AEEDATA=00h-0FFh/02100h -peeprom_data=EEDATA -DEEDATA=2 -DCODE=2 \
  -DSTRCODE=2 -DSTRING=2 -DCONST=2 -DENTRY=2 \
  -preset_vec=00h,intentry,init,end_init -ppowerup=CODE -pcinit=CODE \
  -pfunctab=ENTRY -k C:\Users\NGUYEN~1\AppData\Local\Temp\xcAshcg.o \
  dist/default/production\SLAVE1.X.production.o 

Object code version is 3.11

Machine type is 16F877A



                Name                               Link     Load   Length Selector   Space Scale
C:\Users\NGUYEN~1\AppData\Local\Temp\xcAshcg.o
                end_init                              0        0        3        0       0
                config                             2007     2007        1        0       4
dist/default/production\SLAVE1.X.production.o
                cinit                               7F3      7F3        D      FE6       0
                config                             2007     2007        1        0       4
                text24                             14CF     14CF        9     299E       0
                text23                             155B     155B       2B     2AB6       0
                text22                                4        4        C        8       0
                text21                              802      802       42     1004       0
                text20                              AC2      AC2      1DD     1584       0
                text19                             175E     175E       A2     2EBC       0
                text18                             1534     1534       27     2A68       0
                text17                              C9F      C9F      361     193E       0
                text16                             14E1     14E1        B     29C2       0
                text15                               54       54      298       A8       0
                text14                             1510     1510       24     2A20       0
                text13                              844      844       BC     1088       0
                text12                               10       10       44       20       0
                text11                             1586     1586       3A     2B0C       0
                text10                              9DA      9DA       E8     13B4       0
                text9                               2EC      2EC      507      5D8       0
                text8                              16C1     16C1       9D     2D82       0
                text7                               900      900       DA     1200       0
                text6                              15C0     15C0       7A     2B80       0
                text5                              14EC     14EC        E     29D8       0
                text4                              14FA     14FA       16     29F4       0
                text3                              14C0     14C0        7     2980       0
                text2                              14D8     14D8        9     29B0       0
                text1                              14BA     14BA        6     2974       0
                maintext                           163A     163A       87     2C74       0
                cstackBANK0                          20       20       4C       20       1
                cstackCOMMON                         70       70        E       70       1
                cstackBANK3                         190      190       5A      190       1
                clrtext                            14C7     14C7        8     298E       0
                bssBANK1                             A0       A0       1C       A0       1
                strings                            1000     1000       33     2000       0

TOTAL           Name                               Link     Load   Length     Space
        CLASS   STACK          

        CLASS   CODE           
                end_init                              0        0        3         0
                cinit                               7F3      7F3        D         0
                text24                             14CF     14CF        9         0
                text23                             155B     155B       2B         0
                text22                                4        4        C         0
                text21                              802      802       42         0
                text20                              AC2      AC2      1DD         0
                text19                             175E     175E       A2         0
                text18                             1534     1534       27         0
                text17                              C9F      C9F      361         0
                text16                             14E1     14E1        B         0
                text15                               54       54      298         0
                text14                             1510     1510       24         0
                text13                              844      844       BC         0
                text12                               10       10       44         0
                text11                             1586     1586       3A         0
                text10                              9DA      9DA       E8         0
                text9                               2EC      2EC      507         0
                text8                              16C1     16C1       9D         0
                text7                               900      900       DA         0
                text6                              15C0     15C0       7A         0
                text5                              14EC     14EC        E         0
                text4                              14FA     14FA       16         0
                text3                              14C0     14C0        7         0
                text2                              14D8     14D8        9         0
                text1                              14BA     14BA        6         0
                maintext                           163A     163A       87         0
                clrtext                            14C7     14C7        8         0

        CLASS   STRCODE        

        CLASS   STRING         
                strings                            1000     1000       33         0

        CLASS   CONST          

        CLASS   ENTRY          

        CLASS   COMMON         
                cstackCOMMON                         70       70        E         1

        CLASS   BANK0          
                cstackBANK0                          20       20       4C         1

        CLASS   BANK1          
                bssBANK1                             A0       A0       1C         1

        CLASS   BANK2          

        CLASS   BANK3          
                cstackBANK3                         190      190       5A         1

        CLASS   RAM            

        CLASS   ABS1           
                abs_s1                               7E       7E        2         1

        CLASS   SFR0           

        CLASS   SFR1           

        CLASS   SFR2           

        CLASS   SFR3           

        CLASS   CONFIG         
                config                             2007     2007        1         4

        CLASS   IDLOC          

        CLASS   EEDATA         



SEGMENTS        Name                           Load    Length   Top    Selector   Space  Class     Delta

                reset_vec                      000000  000003  000003         0       0  CODE        2
                text22                         000004  00000C  000010         8       0  CODE        2
                cstackBANK0                    000020  00004C  00006C        20       1  BANK0       1
                text12                         000010  000044  000054        20       0  CODE        2
                cstackCOMMON                   000070  00000E  00007E        70       1  COMMON      1
                bssBANK1                       0000A0  00001C  0000BC        A0       1  BANK1       1
                text15                         000054  000298  0002EC        A8       0  CODE        2
                cstackBANK3                    000190  00005A  0001EA       190       1  BANK3       1
                text9                          0002EC  000507  0007F3       5D8       0  CODE        2
                cinit                          0007F3  00000D  000800       FE6       0  CODE        2
                text21                         000802  000042  000844      1004       0  CODE        2
                text13                         000844  0000BC  000900      1088       0  CODE        2
                text7                          000900  0000DA  0009DA      1200       0  CODE        2
                text10                         0009DA  0000E8  000AC2      13B4       0  CODE        2
                text20                         000AC2  0001DD  000C9F      1584       0  CODE        2
                text17                         000C9F  000361  001000      193E       0  CODE        2
                strings                        001000  000033  001033      2000       0  STRING      2
                text1                          0014BA  000006  0014C0      2974       0  CODE        2
                text3                          0014C0  000007  0014C7      2980       0  CODE        2
                clrtext                        0014C7  000008  0014CF      298E       0  CODE        2
                text24                         0014CF  000009  0014D8      299E       0  CODE        2
                text2                          0014D8  000009  0014E1      29B0       0  CODE        2
                text16                         0014E1  00000B  0014EC      29C2       0  CODE        2
                text5                          0014EC  00000E  0014FA      29D8       0  CODE        2
                text4                          0014FA  000016  001510      29F4       0  CODE        2
                text14                         001510  000024  001534      2A20       0  CODE        2
                text18                         001534  000027  00155B      2A68       0  CODE        2
                text23                         00155B  00002B  001586      2AB6       0  CODE        2
                text11                         001586  00003A  0015C0      2B0C       0  CODE        2
                text6                          0015C0  00007A  00163A      2B80       0  CODE        2
                maintext                       00163A  000087  0016C1      2C74       0  CODE        2
                text8                          0016C1  00009D  00175E      2D82       0  CODE        2
                text19                         00175E  0000A2  001800      2EBC       0  CODE        2


UNUSED ADDRESS RANGES

        Name                Unused          Largest block    Delta
        BANK0            006C-006F              4           1
        BANK1            00BC-00EF             34           1
        BANK2            0110-016F             60           1
        BANK3            01EA-01EF              6           1
        CODE             0003-0003              1           2
                         0800-0801              2
                         1033-14B9            487
                         1800-1FFF            800
        CONST            0003-0003              1           2
                         0800-0801              2
                         1033-14B9            100
                         1800-1FFF            100
        EEDATA           2100-21FF            100           2
        ENTRY            0003-0003              1           2
                         0800-0801              2
                         1033-14B9            100
                         1800-1FFF            100
        IDLOC            2000-2003              4           2
        RAM              006C-006F              4           1
                         00BC-00EF             34
                         0110-016F             60
                         01EA-01EF              6
        SFR0             0000-001F             20           1
        SFR1             0080-009F             20           1
        SFR2             0100-010F             10           1
        SFR3             0180-018F             10           1
        STACK            0110-016F             60           1
        STRCODE          0003-0003              1           2
                         0800-0801              2
                         1033-14B9            487
                         1800-1FFF            800
        STRING           0003-0003              1           2
                         0800-0801              2
                         1033-14B9            100
                         1800-1FFF            100

                                  Symbol Table

?_ADC_Read                cstackCOMMON 0070
?_Quadra_Al               cstackBANK0  005C
?__Umul8_16               cstackCOMMON 0070
?___aldiv                 cstackCOMMON 0070
?___fladd                 cstackCOMMON 0070
?___fldiv                 cstackBANK0  0042
?___flmul                 cstackBANK0  0028
?___flneg                 cstackCOMMON 0070
?___flsub                 cstackBANK0  0042
?___fltol                 cstackCOMMON 0070
?___lwdiv                 cstackCOMMON 0070
?___lwmod                 cstackCOMMON 0078
?___xxtofl                cstackCOMMON 0075
?_spiDataReady            cstackCOMMON 0070
?_sprintf                 cstackBANK0  0020
ADC_Read@channel          cstackCOMMON 0074
Quadra_Al@a               cstackBANK3  01E2
Quadra_Al@b               cstackBANK3  01B6
Quadra_Al@d               cstackBANK3  01BA
Quadra_Al@data            cstackBANK3  0190
Quadra_Al@j               cstackBANK3  01E8
Quadra_Al@max             cstackBANK3  01DE
Quadra_Al@max1            cstackBANK3  01D6
Quadra_Al@max2            cstackBANK3  01D2
Quadra_Al@out             cstackBANK3  01DA
Quadra_Al@x               cstackBANK3  019A
Quadra_Al@xmax            cstackBANK3  01E6
UART_Init@baudrate        cstackBANK0  0026
UART_Init@x               cstackCOMMON 0079
UART_Write@data           cstackCOMMON 0070
UART_Write_Text@i         cstackCOMMON 0076
UART_Write_Text@text      cstackCOMMON 0071
_ADCON0                   (abs)        001F
_ADCON1                   (abs)        009F
_ADC_Init                 text24       14CF
_ADC_Read                 text23       155B
_ADRESH                   (abs)        001E
_ADRESL                   (abs)        009E
_BRGH                     (abs)        04C2
_CREN                     (abs)        00C4
_GIE                      (abs)        005F
_GO_nDONE                 (abs)        00FA
_PEIE                     (abs)        005E
_PORTD                    (abs)        0008
_Quadra_Al                text9        02EC
_Quadra_Al$929            cstackBANK3  01BE
_Quadra_Al$930            cstackBANK3  01C2
_Quadra_Al$931            cstackBANK3  01C6
_Quadra_Al$932            cstackBANK3  01CA
_Quadra_Al$933            cstackBANK3  01CE
_RCIF                     (abs)        0065
_RCREG                    (abs)        001A
_RD0                      (abs)        0040
_SPBRG                    (abs)        0099
_SPEN                     (abs)        00C7
_SSPBUF                   (abs)        0013
_SSPCON                   (abs)        0014
_SSPIE                    (abs)        0463
_SSPIF                    (abs)        0063
_SSPSTAT                  (abs)        0094
_SSPSTATbits              (abs)        0094
_SYNC                     (abs)        04C4
_TRISA                    (abs)        0085
_TRISC3                   (abs)        043B
_TRISC5                   (abs)        043D
_TRISC6                   (abs)        043E
_TRISC7                   (abs)        043F
_TRISD                    (abs)        0088
_TRMT                     (abs)        04C1
_TXEN                     (abs)        04C5
_TXREG                    (abs)        0019
_UART_Init                text7        0900
_UART_Write               text22       0004
_UART_Write_Text          text21       0802
__Habs1                   abs1         0000
__Hbank0                  bank0        0000
__Hbank1                  bank1        0000
__Hbank2                  bank2        0000
__Hbank3                  bank3        0000
__HbssBANK1               bssBANK1     0000
__Hcinit                  cinit        0800
__Hclrtext                clrtext      0000
__Hcode                   code         0000
__Hcommon                 common       0000
__Hconfig                 config       2008
__HcstackBANK0            cstackBANK0  0000
__HcstackBANK3            cstackBANK3  0000
__HcstackCOMMON           cstackCOMMON 0000
__Heeprom_data            eeprom_data  0000
__Hend_init               end_init     0003
__Hfunctab                functab      0000
__Hinit                   init         0000
__Hintentry               intentry     0000
__Hmaintext               maintext     0000
__Hpowerup                powerup      0000
__Hram                    ram          0000
__Hreset_vec              reset_vec    0000
__Hsfr0                   sfr0         0000
__Hsfr1                   sfr1         0000
__Hsfr2                   sfr2         0000
__Hsfr3                   sfr3         0000
__Hspace_0                (abs)        1800
__Hspace_1                (abs)        01EA
__Hspace_2                (abs)        0000
__Hspace_3                (abs)        0000
__Hspace_4                (abs)        400F
__Hstack                  stack        0000
__Hstrings                strings      0000
__Htext                   text         0000
__Labs1                   abs1         0000
__Lbank0                  bank0        0000
__Lbank1                  bank1        0000
__Lbank2                  bank2        0000
__Lbank3                  bank3        0000
__LbssBANK1               bssBANK1     0000
__Lcinit                  cinit        07F3
__Lclrtext                clrtext      0000
__Lcode                   code         0000
__Lcommon                 common       0000
__Lconfig                 config       0000
__LcstackBANK0            cstackBANK0  0000
__LcstackBANK3            cstackBANK3  0000
__LcstackCOMMON           cstackCOMMON 0000
__Leeprom_data            eeprom_data  0000
__Lend_init               end_init     0000
__Lfunctab                functab      0000
__Linit                   init         0000
__Lintentry               intentry     0000
__Lmaintext               maintext     0000
__Lpowerup                powerup      0000
__Lram                    ram          0000
__Lreset_vec              reset_vec    0000
__Lsfr0                   sfr0         0000
__Lsfr1                   sfr1         0000
__Lsfr2                   sfr2         0000
__Lsfr3                   sfr3         0000
__Lspace_0                (abs)        0000
__Lspace_1                (abs)        0000
__Lspace_2                (abs)        0000
__Lspace_3                (abs)        0000
__Lspace_4                (abs)        0000
__Lstack                  stack        0000
__Lstrings                strings      0000
__Ltext                   text         0000
__S0                      (abs)        1800
__S1                      (abs)        01EA
__S2                      (abs)        0000
__S3                      (abs)        0000
__Umul8_16                text18       1534
__Umul8_16@multiplicand   cstackCOMMON 0070
__Umul8_16@multiplier     cstackCOMMON 0078
__Umul8_16@product        cstackCOMMON 0074
__Umul8_16@word_mpld      cstackCOMMON 0076
___aldiv                  text8        16C1
___aldiv@counter          cstackBANK0  0020
___aldiv@dividend         cstackCOMMON 0074
___aldiv@divisor          cstackCOMMON 0070
___aldiv@quotient         cstackBANK0  0022
___aldiv@sign             cstackBANK0  0021
___fladd                  text15       0054
___fladd@a                cstackCOMMON 0074
___fladd@aexp             cstackCOMMON 0079
___fladd@b                cstackCOMMON 0070
___fladd@bexp             cstackCOMMON 007A
___fladd@grs              cstackCOMMON 007B
___fladd@signs            cstackCOMMON 0078
___fldiv                  text20       0AC2
___fldiv@a                cstackBANK0  0042
___fldiv@aexp             cstackBANK0  005B
___fldiv@b                cstackBANK0  0046
___fldiv@bexp             cstackBANK0  005A
___fldiv@grs              cstackBANK0  0056
___fldiv@new_exp          cstackBANK0  0054
___fldiv@rem              cstackBANK0  004F
___fldiv@sign             cstackBANK0  0053
___flge                   text19       175E
___flge@ff1               cstackCOMMON 0070
___flge@ff2               cstackCOMMON 0074
___flmul                  text17       0C9F
___flmul@a                cstackBANK0  002C
___flmul@aexp             cstackBANK0  003A
___flmul@b                cstackBANK0  0028
___flmul@bexp             cstackBANK0  003B
___flmul@grs              cstackBANK0  0036
___flmul@prod             cstackBANK0  003C
___flmul@sign             cstackBANK0  0035
___flmul@temp             cstackBANK0  0040
___flneg                  text16       14E1
___flneg@f1               cstackCOMMON 0070
___flsub                  text14       1510
___flsub@a                cstackBANK0  0042
___flsub@b                cstackBANK0  0046
___fltol                  text6        15C0
___fltol@exp1             cstackCOMMON 007A
___fltol@f1               cstackCOMMON 0070
___fltol@sign1            cstackCOMMON 0079
___int_sp                 stack        0000
___latbits                (abs)        0002
___lwdiv                  text12       0010
___lwdiv@counter          cstackCOMMON 0077
___lwdiv@dividend         cstackCOMMON 0072
___lwdiv@divisor          cstackCOMMON 0070
___lwdiv@quotient         cstackCOMMON 0075
___lwmod                  text11       1586
___lwmod@counter          cstackCOMMON 007D
___lwmod@dividend         cstackCOMMON 007A
___lwmod@divisor          cstackCOMMON 0078
___sp                     stack        0000
___stackhi                (abs)        0000
___stacklo                (abs)        0000
___xxtofl                 text13       0844
___xxtofl@arg             cstackBANK0  0022
___xxtofl@exp             cstackBANK0  0021
___xxtofl@sign            cstackBANK0  0020
___xxtofl@val             cstackCOMMON 0075
__end_of_ADC_Init         text24       14D8
__end_of_ADC_Read         text23       1586
__end_of_Quadra_Al        text9        07F3
__end_of_UART_Init        text7        09DA
__end_of_UART_Write       text22       0010
__end_of_UART_Write_Text  text21       0844
__end_of__Umul8_16        text18       155B
__end_of___aldiv          text8        175E
__end_of___fladd          text15       02EC
__end_of___fldiv          text20       0C9F
__end_of___flge           text19       1800
__end_of___flmul          text17       1000
__end_of___flneg          text16       14EC
__end_of___flsub          text14       1534
__end_of___fltol          text6        163A
__end_of___lwdiv          text12       0054
__end_of___lwmod          text11       15C0
__end_of___xxtofl         text13       0900
__end_of__initialization  cinit        07FC
__end_of__stringtab       strings      1010
__end_of_dpowers          strings      101A
__end_of_main             maintext     16C1
__end_of_spiDataReady     text5        14FA
__end_of_spiInit          text4        1510
__end_of_spiRead          text2        14E1
__end_of_spiReceiveWait   text3        14C7
__end_of_spiWrite         text1        14C0
__end_of_sprintf          text10       0AC2
__initialization          cinit        07F3
__pbssBANK1               bssBANK1     00A0
__pcstackBANK0            cstackBANK0  0020
__pcstackBANK3            cstackBANK3  0190
__pcstackCOMMON           cstackCOMMON 0070
__pmaintext               maintext     163A
__pstrings                strings      1000
__ptext1                  text1        14BA
__ptext10                 text10       09DA
__ptext11                 text11       1586
__ptext12                 text12       0010
__ptext13                 text13       0844
__ptext14                 text14       1510
__ptext15                 text15       0054
__ptext16                 text16       14E1
__ptext17                 text17       0C9F
__ptext18                 text18       1534
__ptext19                 text19       175E
__ptext2                  text2        14D8
__ptext20                 text20       0AC2
__ptext21                 text21       0802
__ptext22                 text22       0004
__ptext23                 text23       155B
__ptext24                 text24       14CF
__ptext3                  text3        14C0
__ptext4                  text4        14FA
__ptext5                  text5        14EC
__ptext6                  text6        15C0
__ptext7                  text7        0900
__ptext8                  text8        16C1
__ptext9                  text9        02EC
__size_of_ADC_Init        (abs)        0000
__size_of_ADC_Read        (abs)        0000
__size_of_Quadra_Al       (abs)        0000
__size_of_UART_Init       (abs)        0000
__size_of_UART_Write      (abs)        0000
__size_of_UART_Write_Text (abs)        0000
__size_of__Umul8_16       (abs)        0000
__size_of___aldiv         (abs)        0000
__size_of___fladd         (abs)        0000
__size_of___fldiv         (abs)        0000
__size_of___flge          (abs)        0000
__size_of___flmul         (abs)        0000
__size_of___flneg         (abs)        0000
__size_of___flsub         (abs)        0000
__size_of___fltol         (abs)        0000
__size_of___lwdiv         (abs)        0000
__size_of___lwmod         (abs)        0000
__size_of___xxtofl        (abs)        0000
__size_of_main            (abs)        0000
__size_of_spiDataReady    (abs)        0000
__size_of_spiInit         (abs)        0000
__size_of_spiRead         (abs)        0000
__size_of_spiReceiveWait  (abs)        0000
__size_of_spiWrite        (abs)        0000
__size_of_sprintf         (abs)        0000
__stringbase              strings      100F
__stringtab               strings      1000
_dpowers                  strings      1010
_main                     maintext     163A
_spiDataReady             text5        14EC
_spiInit                  text4        14FA
_spiRead                  text2        14D8
_spiReceiveWait           text3        14C0
_spiWrite                 text1        14BA
_sprintf                  text10       09DA
btemp                     (abs)        007E
clear_ram0                clrtext      14C7
end_of_initialization     cinit        07FC
intlevel0                 functab      0000
intlevel1                 functab      0000
intlevel2                 functab      0000
intlevel3                 functab      0000
intlevel4                 functab      0000
intlevel5                 functab      0000
main@data                 cstackBANK0  0068
reset_vec                 reset_vec    0000
spiInit@sClockIdle        cstackCOMMON 0071
spiInit@sDataSample       cstackCOMMON 0070
spiInit@sTransmitEdge     cstackCOMMON 0072
spiInit@sType             cstackCOMMON 0073
spiWrite@dat              cstackCOMMON 0070
sprintf@ap                cstackBANK0  0028
sprintf@c                 cstackBANK0  002E
sprintf@f                 cstackBANK0  0020
sprintf@flag              cstackBANK0  0029
sprintf@prec              cstackBANK0  002A
sprintf@sp                cstackBANK0  002D
sprintf@val               cstackBANK0  002B
start                     init         0000
start_initialization      cinit        07F3
wtemp0                    (abs)        007E


MODULE INFORMATION

Module		Function		Class		Link	Load	Size
C:\Program Files\Microchip\xc8\v2.32\pic\sources\c90\common\sprcadd.c
		___flsub       		CODE           	1510	0000	36
		___fladd       		CODE           	0054	0000	664

C:\Program Files\Microchip\xc8\v2.32\pic\sources\c90\common\sprcadd.c estimated size: 700

C:\Program Files\Microchip\xc8\v2.32\pic\sources\c90\common\flge.c
		___flge        		CODE           	175E	0000	162

C:\Program Files\Microchip\xc8\v2.32\pic\sources\c90\common\flge.c estimated size: 162

C:\Program Files\Microchip\xc8\v2.32\pic\sources\c90\common\flneg.c
		___flneg       		CODE           	14E1	0000	11

C:\Program Files\Microchip\xc8\v2.32\pic\sources\c90\common\flneg.c estimated size: 11

C:\Program Files\Microchip\xc8\v2.32\pic\sources\c90\common\xxtofl.c
		___xxtofl      		CODE           	0844	0000	188

C:\Program Files\Microchip\xc8\v2.32\pic\sources\c90\common\xxtofl.c estimated size: 188

C:\Program Files\Microchip\xc8\v2.32\pic\sources\c90\common\Umul8_16.c
		__Umul8_16     		CODE           	1534	0000	39

C:\Program Files\Microchip\xc8\v2.32\pic\sources\c90\common\Umul8_16.c estimated size: 39

newmain.c
		_main          		CODE           	163A	0000	135
		_Quadra_Al     		CODE           	02EC	0000	1287
		_ADC_Read      		CODE           	155B	0000	43
		_ADC_Init      		CODE           	14CF	0000	9

newmain.c estimated size: 1474

./uart.h
		_UART_Init     		CODE           	0900	0000	218
		_UART_Write_Text		CODE           	0802	0000	66
		_UART_Write    		CODE           	0004	0000	12

./uart.h estimated size: 296

C:\Program Files\Microchip\xc8\v2.32\pic\sources\c90\common\lwmod.c
		___lwmod       		CODE           	1586	0000	58

C:\Program Files\Microchip\xc8\v2.32\pic\sources\c90\common\lwmod.c estimated size: 58

spi.c
		_spiWrite      		CODE           	14BA	0000	6
		_spiInit       		CODE           	14FA	0000	22
		_spiDataReady  		CODE           	14EC	0000	14
		_spiReceiveWait		CODE           	14C0	0000	7
		_spiRead       		CODE           	14D8	0000	9

spi.c estimated size: 58

shared
		__stringtab    		STRING         	1000	0000	16
		_dpowers       		STRING         	1010	0000	10
		__initialization		CODE           	07F3	0000	9

shared estimated size: 35

C:\Program Files\Microchip\xc8\v2.32\pic\sources\c90\common\sprcmul.c
		___flmul       		CODE           	0C9F	0000	865

C:\Program Files\Microchip\xc8\v2.32\pic\sources\c90\common\sprcmul.c estimated size: 865

C:\Program Files\Microchip\xc8\v2.32\pic\sources\c90\common\sprcdiv.c
		___fldiv       		CODE           	0AC2	0000	477

C:\Program Files\Microchip\xc8\v2.32\pic\sources\c90\common\sprcdiv.c estimated size: 477

C:\Program Files\Microchip\xc8\v2.32\pic\sources\c90\common\doprnt.c
		_sprintf       		CODE           	09DA	0000	232

C:\Program Files\Microchip\xc8\v2.32\pic\sources\c90\common\doprnt.c estimated size: 232

C:\Program Files\Microchip\xc8\v2.32\pic\sources\c90\common\lwdiv.c
		___lwdiv       		CODE           	0010	0000	68

C:\Program Files\Microchip\xc8\v2.32\pic\sources\c90\common\lwdiv.c estimated size: 68

C:\Program Files\Microchip\xc8\v2.32\pic\sources\c90\common\fltol.c
		___fltol       		CODE           	15C0	0000	122

C:\Program Files\Microchip\xc8\v2.32\pic\sources\c90\common\fltol.c estimated size: 122

C:\Program Files\Microchip\xc8\v2.32\pic\sources\c90\common\aldiv.c
		___aldiv       		CODE           	16C1	0000	157

C:\Program Files\Microchip\xc8\v2.32\pic\sources\c90\common\aldiv.c estimated size: 157

