

Microchip MPLAB XC8 Assembler V2.32 build 20210201212658 
                                                                                               Mon Nov 29 11:44:57 2021

Microchip MPLAB XC8 C Compiler v2.32 (Free license) build 20210201212658 Og1 
     1                           	processor	16F877A
     2                           	pagewidth 120
     3                           	opt	flic
     4                           	psect	idataBANK1,global,class=CODE,delta=2,noexec
     5                           	psect	idataBANK3,global,class=CODE,delta=2,noexec
     6                           	psect	strings,global,class=STRING,delta=2,noexec
     7                           	psect	cinit,global,class=CODE,merge=1,delta=2
     8                           	psect	bssBANK1,global,class=BANK1,space=1,delta=1,noexec
     9                           	psect	dataBANK1,global,class=BANK1,space=1,delta=1,noexec
    10                           	psect	bssBANK3,global,class=BANK3,space=1,delta=1,noexec
    11                           	psect	dataBANK3,global,class=BANK3,space=1,delta=1,noexec
    12                           	psect	inittext,global,class=CODE,delta=2
    13                           	psect	cstackBANK3,global,class=BANK3,space=1,delta=1,noexec
    14                           	psect	cstackBANK1,global,class=BANK1,space=1,delta=1,noexec
    15                           	psect	cstackCOMMON,global,class=COMMON,space=1,delta=1,noexec
    16                           	psect	cstackBANK0,global,class=BANK0,space=1,delta=1,noexec
    17                           	psect	maintext,global,class=CODE,split=1,delta=2
    18                           	psect	text1,local,class=CODE,merge=1,delta=2,group=1
    19                           	psect	text2,local,class=CODE,merge=1,delta=2,group=2
    20                           	psect	text3,local,class=CODE,merge=1,delta=2,group=2
    21                           	psect	text4,local,class=CODE,merge=1,delta=2
    22                           	psect	text5,local,class=CODE,merge=1,delta=2
    23                           	psect	text6,local,class=CODE,merge=1,delta=2
    24                           	psect	text7,local,class=CODE,merge=1,delta=2
    25                           	psect	text8,local,class=CODE,merge=1,delta=2
    26                           	psect	text9,local,class=CODE,merge=1,delta=2,group=3
    27                           	psect	text10,local,class=CODE,merge=1,delta=2,group=3
    28                           	psect	text11,local,class=CODE,merge=1,delta=2,group=3
    29                           	psect	text12,local,class=CODE,merge=1,delta=2,group=3
    30                           	psect	text13,local,class=CODE,merge=1,delta=2,group=2
    31                           	psect	text14,local,class=CODE,merge=1,delta=2,group=2
    32                           	psect	text15,local,class=CODE,merge=1,delta=2,group=2
    33                           	psect	text16,local,class=CODE,merge=1,delta=2,group=2
    34                           	psect	text17,local,class=CODE,merge=1,delta=2,group=3
    35                           	psect	text18,local,class=CODE,merge=1,delta=2,group=2
    36                           	psect	text19,local,class=CODE,merge=1,delta=2,group=2
    37                           	psect	text20,local,class=CODE,merge=1,delta=2,group=2
    38                           	psect	text21,local,class=CODE,merge=1,delta=2,group=2
    39                           	psect	text22,local,class=CODE,merge=1,delta=2,group=2
    40                           	psect	text23,local,class=CODE,merge=1,delta=2,group=2
    41                           	psect	text24,local,class=CODE,merge=1,delta=2,group=2
    42                           	psect	text25,local,class=CODE,merge=1,delta=2
    43                           	psect	text26,local,class=CODE,merge=1,delta=2
    44                           	psect	text27,local,class=CODE,merge=1,delta=2
    45                           	psect	text28,local,class=CODE,merge=1,delta=2,group=2
    46                           	psect	config,global,abs,ovrld,class=CONFIG,space=4,delta=2,noexec
    47                           	dabs	1,0x7E,2
    48  0000                     
    49                           ; Version 2.20
    50                           ; Generated 12/02/2020 GMT
    51                           ; 
    52                           ; Copyright © 2020, Microchip Technology Inc. and its subsidiaries ("Microchip")
    53                           ; All rights reserved.
    54                           ; 
    55                           ; This software is developed by Microchip Technology Inc. and its subsidiaries ("Microch
      +                          ip").
    56                           ; 
    57                           ; Redistribution and use in source and binary forms, with or without modification, are
    58                           ; permitted provided that the following conditions are met:
    59                           ; 
    60                           ;     1. Redistributions of source code must retain the above copyright notice, this lis
      +                          t of
    61                           ;        conditions and the following disclaimer.
    62                           ; 
    63                           ;     2. Redistributions in binary form must reproduce the above copyright notice, this 
      +                          list
    64                           ;        of conditions and the following disclaimer in the documentation and/or other
    65                           ;        materials provided with the distribution.
    66                           ; 
    67                           ;     3. Microchip's name may not be used to endorse or promote products derived from th
      +                          is
    68                           ;        software without specific prior written permission.
    69                           ; 
    70                           ; THIS SOFTWARE IS PROVIDED BY MICROCHIP "AS IS" AND ANY EXPRESS OR IMPLIED WARRANTIES,
    71                           ; INCLUDING, BUT NOT LIMITED TO, THE IMPLIED WARRANTIES OF MERCHANTABILITY AND FITNESS F
      +                          OR
    72                           ; PURPOSE ARE DISCLAIMED.  IN NO EVENT SHALL MICROCHIP BE LIABLE FOR ANY DIRECT, INDIREC
      +                          T,
    73                           ; INCIDENTAL, SPECIAL, EXEMPLARY, OR CONSEQUENTIAL DAMAGES (INCLUDING BUT NOT LIMITED TO
    74                           ; PROCUREMENT OF SUBSTITUTE GOODS OR SERVICES; LOSS OF USE, DATA OR PROFITS; OR BUSINESS
    75                           ; INTERRUPTION) HOWSOEVER CAUSED AND ON ANY THEORY OF LIABILITY, WHETHER IN CONTRACT, ST
      +                          RICT
    76                           ; LIABILITY, OR TORT (INCLUDING NEGLIGENCE OR OTHERWISE) ARISING IN ANY WAY OUT OF THE U
      +                          SE OF
    77                           ; THIS SOFTWARE, EVEN IF ADVISED OF THE POSSIBILITY OF SUCH DAMAGE.
    78                           ; 
    79                           ; 
    80                           ; Code-generator required, PIC16F877A Definitions
    81                           ; 
    82                           ; SFR Addresses
    83  0000                     	;# 
    84  0001                     	;# 
    85  0002                     	;# 
    86  0003                     	;# 
    87  0004                     	;# 
    88  0005                     	;# 
    89  0006                     	;# 
    90  0007                     	;# 
    91  0008                     	;# 
    92  0009                     	;# 
    93  000A                     	;# 
    94  000B                     	;# 
    95  000C                     	;# 
    96  000D                     	;# 
    97  000E                     	;# 
    98  000E                     	;# 
    99  000F                     	;# 
   100  0010                     	;# 
   101  0011                     	;# 
   102  0012                     	;# 
   103  0013                     	;# 
   104  0014                     	;# 
   105  0015                     	;# 
   106  0015                     	;# 
   107  0016                     	;# 
   108  0017                     	;# 
   109  0018                     	;# 
   110  0019                     	;# 
   111  001A                     	;# 
   112  001B                     	;# 
   113  001B                     	;# 
   114  001C                     	;# 
   115  001D                     	;# 
   116  001E                     	;# 
   117  001F                     	;# 
   118  0081                     	;# 
   119  0085                     	;# 
   120  0086                     	;# 
   121  0087                     	;# 
   122  0088                     	;# 
   123  0089                     	;# 
   124  008C                     	;# 
   125  008D                     	;# 
   126  008E                     	;# 
   127  0091                     	;# 
   128  0092                     	;# 
   129  0093                     	;# 
   130  0094                     	;# 
   131  0098                     	;# 
   132  0099                     	;# 
   133  009C                     	;# 
   134  009D                     	;# 
   135  009E                     	;# 
   136  009F                     	;# 
   137  010C                     	;# 
   138  010D                     	;# 
   139  010E                     	;# 
   140  010F                     	;# 
   141  018C                     	;# 
   142  018D                     	;# 
   143  0000                     	;# 
   144  0001                     	;# 
   145  0002                     	;# 
   146  0003                     	;# 
   147  0004                     	;# 
   148  0005                     	;# 
   149  0006                     	;# 
   150  0007                     	;# 
   151  0008                     	;# 
   152  0009                     	;# 
   153  000A                     	;# 
   154  000B                     	;# 
   155  000C                     	;# 
   156  000D                     	;# 
   157  000E                     	;# 
   158  000E                     	;# 
   159  000F                     	;# 
   160  0010                     	;# 
   161  0011                     	;# 
   162  0012                     	;# 
   163  0013                     	;# 
   164  0014                     	;# 
   165  0015                     	;# 
   166  0015                     	;# 
   167  0016                     	;# 
   168  0017                     	;# 
   169  0018                     	;# 
   170  0019                     	;# 
   171  001A                     	;# 
   172  001B                     	;# 
   173  001B                     	;# 
   174  001C                     	;# 
   175  001D                     	;# 
   176  001E                     	;# 
   177  001F                     	;# 
   178  0081                     	;# 
   179  0085                     	;# 
   180  0086                     	;# 
   181  0087                     	;# 
   182  0088                     	;# 
   183  0089                     	;# 
   184  008C                     	;# 
   185  008D                     	;# 
   186  008E                     	;# 
   187  0091                     	;# 
   188  0092                     	;# 
   189  0093                     	;# 
   190  0094                     	;# 
   191  0098                     	;# 
   192  0099                     	;# 
   193  009C                     	;# 
   194  009D                     	;# 
   195  009E                     	;# 
   196  009F                     	;# 
   197  010C                     	;# 
   198  010D                     	;# 
   199  010E                     	;# 
   200  010F                     	;# 
   201  018C                     	;# 
   202  018D                     	;# 
   203  0000                     	;# 
   204  0001                     	;# 
   205  0002                     	;# 
   206  0003                     	;# 
   207  0004                     	;# 
   208  0005                     	;# 
   209  0006                     	;# 
   210  0007                     	;# 
   211  0008                     	;# 
   212  0009                     	;# 
   213  000A                     	;# 
   214  000B                     	;# 
   215  000C                     	;# 
   216  000D                     	;# 
   217  000E                     	;# 
   218  000E                     	;# 
   219  000F                     	;# 
   220  0010                     	;# 
   221  0011                     	;# 
   222  0012                     	;# 
   223  0013                     	;# 
   224  0014                     	;# 
   225  0015                     	;# 
   226  0015                     	;# 
   227  0016                     	;# 
   228  0017                     	;# 
   229  0018                     	;# 
   230  0019                     	;# 
   231  001A                     	;# 
   232  001B                     	;# 
   233  001B                     	;# 
   234  001C                     	;# 
   235  001D                     	;# 
   236  001E                     	;# 
   237  001F                     	;# 
   238  0081                     	;# 
   239  0085                     	;# 
   240  0086                     	;# 
   241  0087                     	;# 
   242  0088                     	;# 
   243  0089                     	;# 
   244  008C                     	;# 
   245  008D                     	;# 
   246  008E                     	;# 
   247  0091                     	;# 
   248  0092                     	;# 
   249  0093                     	;# 
   250  0094                     	;# 
   251  0098                     	;# 
   252  0099                     	;# 
   253  009C                     	;# 
   254  009D                     	;# 
   255  009E                     	;# 
   256  009F                     	;# 
   257  010C                     	;# 
   258  010D                     	;# 
   259  010E                     	;# 
   260  010F                     	;# 
   261  018C                     	;# 
   262  018D                     	;# 
   263                           
   264                           	psect	idataBANK1
   265  10AA                     __pidataBANK1:
   266                           
   267                           ;initializer for _k3
   268  10AA  340A               	retlw	10
   269  10AB  34D7               	retlw	215
   270  10AC  3423               	retlw	35
   271  10AD  343C               	retlw	60
   272                           
   273                           ;initializer for _k2
   274  10AE  346F               	retlw	111
   275  10AF  3412               	retlw	18
   276  10B0  3403               	retlw	3
   277  10B1  343A               	retlw	58
   278                           
   279                           ;initializer for _k1
   280  10B2  340A               	retlw	10
   281  10B3  34D7               	retlw	215
   282  10B4  3423               	retlw	35
   283  10B5  343C               	retlw	60
   284                           
   285                           ;initializer for _wheel_distance
   286  10B6  34AA               	retlw	170
   287  10B7  3400               	retlw	0
   288                           
   289                           	psect	idataBANK3
   290  108D                     __pidataBANK3:
   291                           
   292                           ;initializer for _omega_ref
   293  108D  3466               	retlw	102
   294  108E  3466               	retlw	102
   295  108F  3466               	retlw	102
   296  1090  3440               	retlw	64
   297                           
   298                           ;initializer for _v_ref
   299  1091  3400               	retlw	0
   300  1092  3400               	retlw	0
   301  1093  34E1               	retlw	225
   302  1094  3444               	retlw	68
   303                           
   304                           	psect	strings
   305  1000                     __pstrings:
   306  1000                     stringtab:
   307  1000                     __stringtab:
   308  1000                     stringcode:	
   309                           ;	String table - string pointers are 1 byte each
   310                           
   311  1000                     stringdir:
   312  1000  3010               	movlw	high stringdir
   313  1001  008A               	movwf	10
   314  1002  0804               	movf	4,w
   315  1003  0A84               	incf	4,f
   316  1004  0782               	addwf	2,f
   317  1005                     __stringbase:
   318  1005  3400               	retlw	0
   319  1006                     __end_of__stringtab:
   320  1006                     _dpowers:
   321  1006  3401               	retlw	1
   322  1007  3400               	retlw	0
   323  1008  340A               	retlw	10
   324  1009  3400               	retlw	0
   325  100A  3464               	retlw	100
   326  100B  3400               	retlw	0
   327  100C  34E8               	retlw	232
   328  100D  3403               	retlw	3
   329  100E  3410               	retlw	16
   330  100F  3427               	retlw	39
   331  1010                     __end_of_dpowers:
   332  1010                     sin@coeff_a:
   333  1010  34EC               	retlw	236
   334  1011  34F3               	retlw	243
   335  1012  344A               	retlw	74
   336  1013  3448               	retlw	72
   337  1014  3435               	retlw	53
   338  1015  3495               	retlw	149
   339  1016  3495               	retlw	149
   340  1017  34C7               	retlw	199
   341  1018  3417               	retlw	23
   342  1019  34C1               	retlw	193
   343  101A  34DC               	retlw	220
   344  101B  3445               	retlw	69
   345  101C  34FD               	retlw	253
   346  101D  34DB               	retlw	219
   347  101E  346D               	retlw	109
   348  101F  34C3               	retlw	195
   349  1020  3472               	retlw	114
   350  1021  34B3               	retlw	179
   351  1022  3433               	retlw	51
   352  1023  3440               	retlw	64
   353  1024                     __end_ofsin@coeff_a:
   354  1024                     sin@coeff_b:
   355  1024  342B               	retlw	43
   356  1025  3434               	retlw	52
   357  1026  3401               	retlw	1
   358  1027  3448               	retlw	72
   359  1028  347F               	retlw	127
   360  1029  349D               	retlw	157
   361  102A  34B0               	retlw	176
   362  102B  3445               	retlw	69
   363  102C  34E7               	retlw	231
   364  102D  34FF               	retlw	255
   365  102E  34D9               	retlw	217
   366  102F  3442               	retlw	66
   367  1030  3400               	retlw	0
   368  1031  3400               	retlw	0
   369  1032  3480               	retlw	128
   370  1033  343F               	retlw	63
   371  1034                     __end_ofsin@coeff_b:
   372  0013                     _SSPBUF	set	19
   373  0014                     _SSPCON	set	20
   374  0008                     _PORTD	set	8
   375  0019                     _TXREG	set	25
   376  001A                     _RCREG	set	26
   377  0041                     _RD1	set	65
   378  0040                     _RD0	set	64
   379  002A                     _RA2	set	42
   380  0029                     _RA1	set	41
   381  0065                     _RCIF	set	101
   382  00C4                     _CREN	set	196
   383  00C7                     _SPEN	set	199
   384  0094                     _SSPSTATbits	set	148
   385  0094                     _SSPSTAT	set	148
   386  0088                     _TRISD	set	136
   387  0085                     _TRISA	set	133
   388  0099                     _SPBRG	set	153
   389  043B                     _TRISC3	set	1083
   390  043D                     _TRISC5	set	1085
   391  040F                     _nRBPU	set	1039
   392  04C1                     _TRMT	set	1217
   393  04C5                     _TXEN	set	1221
   394  043E                     _TRISC6	set	1086
   395  043F                     _TRISC7	set	1087
   396  04C4                     _SYNC	set	1220
   397  04C2                     _BRGH	set	1218
   398  1034                     STR_1:
   399  1034  3465               	retlw	101	;'e'
   400  1035  3432               	retlw	50	;'2'
   401  1036  3420               	retlw	32	;' '
   402  1037  343D               	retlw	61	;'='
   403  1038  3420               	retlw	32	;' '
   404  1039  3425               	retlw	37	;'%'
   405  103A  3464               	retlw	100	;'d'
   406  103B  340A               	retlw	10
   407  103C  340D               	retlw	13
   408  103D  3400               	retlw	0
   409  103E                     STR_2:
   410  103E  3465               	retlw	101	;'e'
   411  103F  3433               	retlw	51	;'3'
   412  1040  3420               	retlw	32	;' '
   413  1041  343D               	retlw	61	;'='
   414  1042  3420               	retlw	32	;' '
   415  1043  3425               	retlw	37	;'%'
   416  1044  3464               	retlw	100	;'d'
   417  1045  340A               	retlw	10
   418  1046  340D               	retlw	13
   419  1047  3400               	retlw	0
   420                           
   421                           	psect	cinit
   422  07D6                     start_initialization:	
   423                           ; #config settings
   424                           
   425  07D6                     __initialization:
   426                           
   427                           ; Initialize objects allocated to BANK3
   428  07D6  1783               	bsf	3,7	;select IRP bank2
   429  07D7  30AE               	movlw	low (__pdataBANK3+8)
   430  07D8  00FD               	movwf	btemp+-1
   431  07D9  3010               	movlw	high __pidataBANK3
   432  07DA  00FE               	movwf	btemp
   433  07DB  308D               	movlw	low __pidataBANK3
   434  07DC  00FF               	movwf	btemp+1
   435  07DD  30A6               	movlw	low __pdataBANK3
   436  07DE  0084               	movwf	4
   437  07DF  160A  118A  20BC  120A  118A  	fcall	init_ram0
   438                           
   439                           ; Initialize objects allocated to BANK1
   440  07E4  1383               	bcf	3,7	;select IRP bank0
   441  07E5  30EB               	movlw	low (__pdataBANK1+14)
   442  07E6  00FD               	movwf	btemp+-1
   443  07E7  3010               	movlw	high __pidataBANK1
   444  07E8  00FE               	movwf	btemp
   445  07E9  30AA               	movlw	low __pidataBANK1
   446  07EA  00FF               	movwf	btemp+1
   447  07EB  30DD               	movlw	low __pdataBANK1
   448  07EC  0084               	movwf	4
   449  07ED  160A  118A  20BC  120A  118A  	fcall	init_ram0
   450                           
   451                           ; Clear objects allocated to BANK3
   452  07F2  1683               	bsf	3,5	;RP0=1, select bank3
   453  07F3  1703               	bsf	3,6	;RP1=1, select bank3
   454  07F4  01AE               	clrf	__pbssBANK3& (0+127)
   455  07F5  01AF               	clrf	(__pbssBANK3+1)& (0+127)
   456                           
   457                           ; Clear objects allocated to BANK1
   458  07F6  1683               	bsf	3,5	;RP0=1, select bank1
   459  07F7  1303               	bcf	3,6	;RP1=0, select bank1
   460  07F8  01EB               	clrf	__pbssBANK1& (0+127)
   461  07F9  01EC               	clrf	(__pbssBANK1+1)& (0+127)
   462  07FA  01ED               	clrf	(__pbssBANK1+2)& (0+127)
   463  07FB  01EE               	clrf	(__pbssBANK1+3)& (0+127)
   464  07FC                     end_of_initialization:	
   465                           ;End of C runtime variable initialization code
   466                           
   467  07FC                     __end_of__initialization:
   468  07FC  0183               	clrf	3
   469  07FD  120A  118A  2835   	ljmp	_main	;jump to C main() function
   470                           
   471                           	psect	bssBANK1
   472  00EB                     __pbssBANK1:
   473  00EB                     _errno:
   474  00EB                     	ds	2
   475  00ED                     _v_r:
   476  00ED                     	ds	2
   477                           
   478                           	psect	dataBANK1
   479  00DD                     __pdataBANK1:
   480  00DD                     _k3:
   481  00DD                     	ds	4
   482  00E1                     _k2:
   483  00E1                     	ds	4
   484  00E5                     _k1:
   485  00E5                     	ds	4
   486  00E9                     _wheel_distance:
   487  00E9                     	ds	2
   488                           
   489                           	psect	bssBANK3
   490  01AE                     __pbssBANK3:
   491  01AE                     _v_l:
   492  01AE                     	ds	2
   493                           
   494                           	psect	dataBANK3
   495  01A6                     __pdataBANK3:
   496  01A6                     _omega_ref:
   497  01A6                     	ds	4
   498  01AA                     _v_ref:
   499  01AA                     	ds	4
   500                           
   501                           	psect	inittext
   502  10B8                     init_fetch0:	
   503                           ;	Called with low address in FSR and high address in W
   504                           
   505  10B8  087E               	movf	btemp,w
   506  10B9  008A               	movwf	10
   507  10BA  087F               	movf	btemp+1,w
   508  10BB  0082               	movwf	2
   509  10BC                     init_ram0:	
   510                           ;Called with:
   511                           ;	high address of idata address in btemp 
   512                           ;	low address of idata address in btemp+1 
   513                           ;	low address of data in FSR
   514                           ;	high address + 1 of data in btemp-1
   515                           
   516  10BC  160A  118A  20B8  160A  118A  	fcall	init_fetch0
   517  10C1  0080               	movwf	0
   518  10C2  0A84               	incf	4,f
   519  10C3  0804               	movf	4,w
   520  10C4  067D               	xorwf	btemp+-1,w
   521  10C5  1903               	btfsc	3,2
   522  10C6  3400               	retlw	0
   523  10C7  0AFF               	incf	btemp+1,f
   524  10C8  1903               	btfsc	3,2
   525  10C9  0AFE               	incf	btemp,f
   526  10CA  28BC               	goto	init_ram0
   527                           
   528                           	psect	cstackBANK3
   529  0190                     __pcstackBANK3:
   530  0190                     main@out:
   531                           
   532                           ; 10 bytes @ 0x0
   533  0190                     	ds	10
   534  019A                     _main$991:
   535                           
   536                           ; 4 bytes @ 0xA
   537  019A                     	ds	4
   538  019E                     _main$992:
   539                           
   540                           ; 4 bytes @ 0xE
   541  019E                     	ds	4
   542  01A2                     main@e2:
   543                           
   544                           ; 2 bytes @ 0x12
   545  01A2                     	ds	2
   546  01A4                     main@e3:
   547                           
   548                           ; 2 bytes @ 0x14
   549  01A4                     	ds	2
   550                           
   551                           	psect	cstackBANK1
   552  00A0                     __pcstackBANK1:
   553  00A0                     ___fldiv@rem:
   554                           
   555                           ; 4 bytes @ 0x0
   556  00A0                     	ds	4
   557  00A4                     ___fldiv@sign:
   558                           
   559                           ; 1 bytes @ 0x4
   560  00A4                     	ds	1
   561  00A5                     ___fldiv@new_exp:
   562                           
   563                           ; 2 bytes @ 0x5
   564  00A5                     	ds	2
   565  00A7                     ___fldiv@grs:
   566                           
   567                           ; 4 bytes @ 0x7
   568  00A7                     	ds	4
   569  00AB                     ___fldiv@bexp:
   570                           
   571                           ; 1 bytes @ 0xB
   572  00AB                     	ds	1
   573  00AC                     ___fldiv@aexp:
   574                           
   575                           ; 1 bytes @ 0xC
   576  00AC                     	ds	1
   577  00AD                     sin@y:
   578                           
   579                           ; 4 bytes @ 0xD
   580  00AD                     	ds	4
   581  00B1                     _sin$994:
   582                           
   583                           ; 4 bytes @ 0x11
   584  00B1                     	ds	4
   585  00B5                     sin@x2:
   586                           
   587                           ; 4 bytes @ 0x15
   588  00B5                     	ds	4
   589  00B9                     sin@sgn:
   590                           
   591                           ; 1 bytes @ 0x19
   592  00B9                     	ds	1
   593  00BA                     ?_cos:
   594  00BA                     cos@f:	
   595                           ; 4 bytes @ 0x1A
   596                           
   597                           
   598                           ; 4 bytes @ 0x1A
   599  00BA                     	ds	4
   600  00BE                     ?_computeLyapunov:
   601  00BE                     computeLyapunov@e2:	
   602                           ; 1 bytes @ 0x1E
   603                           
   604                           
   605                           ; 4 bytes @ 0x1E
   606  00BE                     	ds	4
   607  00C2                     computeLyapunov@e3:
   608                           
   609                           ; 4 bytes @ 0x22
   610  00C2                     	ds	4
   611  00C6                     _computeLyapunov$996:
   612                           
   613                           ; 4 bytes @ 0x26
   614  00C6                     	ds	4
   615  00CA                     computeLyapunov@omega:
   616                           
   617                           ; 4 bytes @ 0x2A
   618  00CA                     	ds	4
   619  00CE                     _computeLyapunov$987:
   620                           
   621                           ; 4 bytes @ 0x2E
   622  00CE                     	ds	4
   623  00D2                     _computeLyapunov$988:
   624                           
   625                           ; 4 bytes @ 0x32
   626  00D2                     	ds	4
   627  00D6                     computeLyapunov@v:
   628                           
   629                           ; 4 bytes @ 0x36
   630  00D6                     	ds	4
   631  00DA                     ??_main:
   632                           
   633                           ; 1 bytes @ 0x3A
   634  00DA                     	ds	3
   635                           
   636                           	psect	cstackCOMMON
   637  0070                     __pcstackCOMMON:
   638  0070                     ?___fleq:
   639  0070                     ?___flge:	
   640                           ; 1 bit 
   641                           
   642  0070                     ?_spiInit:	
   643                           ; 1 bit 
   644                           
   645  0070                     ?_spiWrite:	
   646                           ; 1 bytes @ 0x0
   647                           
   648  0070                     ??_spiWrite:	
   649                           ; 1 bytes @ 0x0
   650                           
   651  0070                     ?_spiRead:	
   652                           ; 1 bytes @ 0x0
   653                           
   654  0070                     ??_spiRead:	
   655                           ; 1 bytes @ 0x0
   656                           
   657  0070                     ?_UART_Write:	
   658                           ; 1 bytes @ 0x0
   659                           
   660  0070                     ??_UART_Write:	
   661                           ; 1 bytes @ 0x0
   662                           
   663  0070                     ?_UART_Write_Text:	
   664                           ; 1 bytes @ 0x0
   665                           
   666  0070                     ?_main:	
   667                           ; 1 bytes @ 0x0
   668                           
   669  0070                     ?_spiReceiveWait:	
   670                           ; 1 bytes @ 0x0
   671                           
   672  0070                     ??_spiReceiveWait:	
   673                           ; 1 bytes @ 0x0
   674                           
   675  0070                     ?__Umul8_16:	
   676                           ; 1 bytes @ 0x0
   677                           
   678  0070                     ?___lwdiv:	
   679                           ; 2 bytes @ 0x0
   680                           
   681  0070                     ?___aldiv:	
   682                           ; 2 bytes @ 0x0
   683                           
   684  0070                     ?___flneg:	
   685                           ; 4 bytes @ 0x0
   686                           
   687  0070                     ?___xxtofl:	
   688                           ; 4 bytes @ 0x0
   689                           
   690  0070                     UART_Write@data:	
   691                           ; 4 bytes @ 0x0
   692                           
   693  0070                     spiInit@sDataSample:	
   694                           ; 1 bytes @ 0x0
   695                           
   696  0070                     spiWrite@dat:	
   697                           ; 1 bytes @ 0x0
   698                           
   699  0070                     __Umul8_16@multiplicand:	
   700                           ; 1 bytes @ 0x0
   701                           
   702  0070                     ___lwdiv@divisor:	
   703                           ; 1 bytes @ 0x0
   704                           
   705  0070                     ___aldiv@divisor:	
   706                           ; 2 bytes @ 0x0
   707                           
   708  0070                     ___fleq@ff1:	
   709                           ; 4 bytes @ 0x0
   710                           
   711  0070                     ___flge@ff1:	
   712                           ; 4 bytes @ 0x0
   713                           
   714  0070                     ___flneg@f1:	
   715                           ; 4 bytes @ 0x0
   716                           
   717  0070                     ___xxtofl@val:	
   718                           ; 4 bytes @ 0x0
   719                           
   720                           
   721                           ; 4 bytes @ 0x0
   722  0070                     	ds	1
   723  0071                     ??_UART_Write_Text:
   724  0071                     spiInit@sClockIdle:	
   725                           ; 1 bytes @ 0x1
   726                           
   727                           
   728                           ; 1 bytes @ 0x1
   729  0071                     	ds	1
   730  0072                     ??__Umul8_16:
   731  0072                     spiInit@sTransmitEdge:	
   732                           ; 1 bytes @ 0x2
   733                           
   734  0072                     UART_Write_Text@i:	
   735                           ; 1 bytes @ 0x2
   736                           
   737  0072                     ___lwdiv@dividend:	
   738                           ; 2 bytes @ 0x2
   739                           
   740                           
   741                           ; 2 bytes @ 0x2
   742  0072                     	ds	1
   743  0073                     ??_spiInit:
   744  0073                     spiInit@sType:	
   745                           ; 1 bytes @ 0x3
   746                           
   747                           
   748                           ; 1 bytes @ 0x3
   749  0073                     	ds	1
   750  0074                     ??___flneg:
   751  0074                     ??___lwdiv:	
   752                           ; 1 bytes @ 0x4
   753                           
   754  0074                     ??___xxtofl:	
   755                           ; 1 bytes @ 0x4
   756                           
   757  0074                     UART_Write_Text@text:	
   758                           ; 1 bytes @ 0x4
   759                           
   760  0074                     __Umul8_16@product:	
   761                           ; 1 bytes @ 0x4
   762                           
   763  0074                     ___aldiv@dividend:	
   764                           ; 2 bytes @ 0x4
   765                           
   766  0074                     ___fleq@ff2:	
   767                           ; 4 bytes @ 0x4
   768                           
   769  0074                     ___flge@ff2:	
   770                           ; 4 bytes @ 0x4
   771                           
   772                           
   773                           ; 4 bytes @ 0x4
   774  0074                     	ds	1
   775  0075                     ___lwdiv@quotient:
   776                           
   777                           ; 2 bytes @ 0x5
   778  0075                     	ds	1
   779  0076                     __Umul8_16@word_mpld:
   780                           
   781                           ; 2 bytes @ 0x6
   782  0076                     	ds	1
   783  0077                     ___lwdiv@counter:
   784                           
   785                           ; 1 bytes @ 0x7
   786  0077                     	ds	1
   787  0078                     ??___aldiv:
   788  0078                     ??___fleq:	
   789                           ; 1 bytes @ 0x8
   790                           
   791  0078                     ??___flge:	
   792                           ; 1 bytes @ 0x8
   793                           
   794  0078                     ?___lwmod:	
   795                           ; 1 bytes @ 0x8
   796                           
   797  0078                     __Umul8_16@multiplier:	
   798                           ; 2 bytes @ 0x8
   799                           
   800  0078                     ___xxtofl@sign:	
   801                           ; 1 bytes @ 0x8
   802                           
   803  0078                     ___lwmod@divisor:	
   804                           ; 1 bytes @ 0x8
   805                           
   806                           
   807                           ; 2 bytes @ 0x8
   808  0078                     	ds	1
   809  0079                     ??___flmul:
   810  0079                     ___xxtofl@exp:	
   811                           ; 1 bytes @ 0x9
   812                           
   813  0079                     UART_Init@x:	
   814                           ; 1 bytes @ 0x9
   815                           
   816                           
   817                           ; 2 bytes @ 0x9
   818  0079                     	ds	1
   819  007A                     ___lwmod@dividend:
   820  007A                     ___xxtofl@arg:	
   821                           ; 2 bytes @ 0xA
   822                           
   823                           
   824                           ; 4 bytes @ 0xA
   825  007A                     	ds	2
   826  007C                     ??_frexp:
   827  007C                     ??___lwmod:	
   828                           ; 1 bytes @ 0xC
   829                           
   830                           
   831                           ; 1 bytes @ 0xC
   832  007C                     	ds	1
   833  007D                     ___lwmod@counter:
   834                           
   835                           ; 1 bytes @ 0xD
   836  007D                     	ds	1
   837  007E                     ??_cos:
   838  007E                     ??_computeLyapunov:	
   839                           ; 1 bytes @ 0xE
   840                           
   841  007E                     ??___flsub:	
   842                           ; 1 bytes @ 0xE
   843                           
   844                           
   845                           	psect	cstackBANK0
   846  0020                     __pcstackBANK0:	
   847                           ; 1 bytes @ 0xE
   848                           
   849  0020                     ?_sprintf:
   850  0020                     ?_frexp:	
   851                           ; 2 bytes @ 0x0
   852                           
   853  0020                     ?___flmul:	
   854                           ; 4 bytes @ 0x0
   855                           
   856  0020                     sprintf@f:	
   857                           ; 4 bytes @ 0x0
   858                           
   859  0020                     ___aldiv@counter:	
   860                           ; 1 bytes @ 0x0
   861                           
   862  0020                     ___flmul@b:	
   863                           ; 1 bytes @ 0x0
   864                           
   865  0020                     frexp@value:	
   866                           ; 4 bytes @ 0x0
   867                           
   868                           
   869                           ; 4 bytes @ 0x0
   870  0020                     	ds	1
   871  0021                     ___aldiv@sign:
   872                           
   873                           ; 1 bytes @ 0x1
   874  0021                     	ds	1
   875  0022                     ___aldiv@quotient:
   876                           
   877                           ; 4 bytes @ 0x2
   878  0022                     	ds	1
   879  0023                     ??_sprintf:
   880                           
   881                           ; 1 bytes @ 0x3
   882  0023                     	ds	1
   883  0024                     frexp@eptr:
   884  0024                     ___flmul@a:	
   885                           ; 1 bytes @ 0x4
   886                           
   887                           
   888                           ; 4 bytes @ 0x4
   889  0024                     	ds	2
   890  0026                     ?_UART_Init:
   891  0026                     sprintf@ap:	
   892                           ; 1 bytes @ 0x6
   893                           
   894  0026                     UART_Init@baudrate:	
   895                           ; 1 bytes @ 0x6
   896                           
   897                           
   898                           ; 4 bytes @ 0x6
   899  0026                     	ds	1
   900  0027                     sprintf@flag:
   901                           
   902                           ; 1 bytes @ 0x7
   903  0027                     	ds	1
   904  0028                     sprintf@prec:
   905  0028                     ___flmul@sign:	
   906                           ; 1 bytes @ 0x8
   907                           
   908                           
   909                           ; 1 bytes @ 0x8
   910  0028                     	ds	1
   911  0029                     sprintf@val:
   912  0029                     ___flmul@grs:	
   913                           ; 2 bytes @ 0x9
   914                           
   915                           
   916                           ; 4 bytes @ 0x9
   917  0029                     	ds	1
   918  002A                     ??_UART_Init:
   919                           
   920                           ; 1 bytes @ 0xA
   921  002A                     	ds	1
   922  002B                     sprintf@sp:
   923                           
   924                           ; 1 bytes @ 0xB
   925  002B                     	ds	1
   926  002C                     sprintf@c:
   927                           
   928                           ; 1 bytes @ 0xC
   929  002C                     	ds	1
   930  002D                     ___flmul@aexp:
   931                           
   932                           ; 1 bytes @ 0xD
   933  002D                     	ds	1
   934  002E                     ___flmul@bexp:
   935                           
   936                           ; 1 bytes @ 0xE
   937  002E                     	ds	1
   938  002F                     ___flmul@prod:
   939                           
   940                           ; 4 bytes @ 0xF
   941  002F                     	ds	4
   942  0033                     ___flmul@temp:
   943                           
   944                           ; 2 bytes @ 0x13
   945  0033                     	ds	2
   946  0035                     ?___fladd:
   947  0035                     ___fladd@b:	
   948                           ; 4 bytes @ 0x15
   949                           
   950                           
   951                           ; 4 bytes @ 0x15
   952  0035                     	ds	4
   953  0039                     ___fladd@a:
   954                           
   955                           ; 4 bytes @ 0x19
   956  0039                     	ds	4
   957  003D                     ??___fladd:
   958                           
   959                           ; 1 bytes @ 0x1D
   960  003D                     	ds	8
   961  0045                     ___fladd@signs:
   962                           
   963                           ; 1 bytes @ 0x25
   964  0045                     	ds	1
   965  0046                     ___fladd@aexp:
   966                           
   967                           ; 1 bytes @ 0x26
   968  0046                     	ds	1
   969  0047                     ___fladd@bexp:
   970                           
   971                           ; 1 bytes @ 0x27
   972  0047                     	ds	1
   973  0048                     ___fladd@grs:
   974                           
   975                           ; 1 bytes @ 0x28
   976  0048                     	ds	1
   977  0049                     ?_eval_poly:
   978  0049                     ?___flsub:	
   979                           ; 4 bytes @ 0x29
   980                           
   981  0049                     ___flsub@a:	
   982                           ; 4 bytes @ 0x29
   983                           
   984  0049                     eval_poly@x:	
   985                           ; 4 bytes @ 0x29
   986                           
   987                           
   988                           ; 4 bytes @ 0x29
   989  0049                     	ds	4
   990  004D                     eval_poly@d:
   991  004D                     ___flsub@b:	
   992                           ; 1 bytes @ 0x2D
   993                           
   994                           
   995                           ; 4 bytes @ 0x2D
   996  004D                     	ds	1
   997  004E                     eval_poly@n:
   998                           
   999                           ; 2 bytes @ 0x2E
  1000  004E                     	ds	2
  1001  0050                     ??_eval_poly:
  1002                           
  1003                           ; 1 bytes @ 0x30
  1004  0050                     	ds	1
  1005  0051                     ?___fltol:
  1006  0051                     ___fltol@f1:	
  1007                           ; 4 bytes @ 0x31
  1008                           
  1009                           
  1010                           ; 4 bytes @ 0x31
  1011  0051                     	ds	4
  1012  0055                     ??___fltol:
  1013  0055                     eval_poly@res:	
  1014                           ; 1 bytes @ 0x35
  1015                           
  1016                           
  1017                           ; 4 bytes @ 0x35
  1018  0055                     	ds	4
  1019  0059                     ?___fldiv:
  1020  0059                     ___fldiv@a:	
  1021                           ; 4 bytes @ 0x39
  1022                           
  1023                           
  1024                           ; 4 bytes @ 0x39
  1025  0059                     	ds	1
  1026  005A                     ___fltol@sign1:
  1027                           
  1028                           ; 1 bytes @ 0x3A
  1029  005A                     	ds	1
  1030  005B                     ___fltol@exp1:
  1031                           
  1032                           ; 1 bytes @ 0x3B
  1033  005B                     	ds	1
  1034  005C                     ?___awdiv:
  1035  005C                     ?_floor:	
  1036                           ; 2 bytes @ 0x3C
  1037                           
  1038  005C                     ___awdiv@divisor:	
  1039                           ; 4 bytes @ 0x3C
  1040                           
  1041  005C                     floor@x:	
  1042                           ; 2 bytes @ 0x3C
  1043                           
  1044                           
  1045                           ; 4 bytes @ 0x3C
  1046  005C                     	ds	1
  1047  005D                     ___fldiv@b:
  1048                           
  1049                           ; 4 bytes @ 0x3D
  1050  005D                     	ds	1
  1051  005E                     ___awdiv@dividend:
  1052                           
  1053                           ; 2 bytes @ 0x3E
  1054  005E                     	ds	2
  1055  0060                     ??_floor:
  1056  0060                     ??___awdiv:	
  1057                           ; 1 bytes @ 0x40
  1058                           
  1059                           
  1060                           ; 1 bytes @ 0x40
  1061  0060                     	ds	1
  1062  0061                     ??___fldiv:
  1063  0061                     ___awdiv@counter:	
  1064                           ; 1 bytes @ 0x41
  1065                           
  1066  0061                     floor@i:	
  1067                           ; 1 bytes @ 0x41
  1068                           
  1069                           
  1070                           ; 4 bytes @ 0x41
  1071  0061                     	ds	1
  1072  0062                     ___awdiv@sign:
  1073                           
  1074                           ; 1 bytes @ 0x42
  1075  0062                     	ds	1
  1076  0063                     ___awdiv@quotient:
  1077                           
  1078                           ; 2 bytes @ 0x43
  1079  0063                     	ds	2
  1080  0065                     floor@expon:
  1081                           
  1082                           ; 2 bytes @ 0x45
  1083  0065                     	ds	2
  1084  0067                     ?_sin:
  1085  0067                     sin@f:	
  1086                           ; 4 bytes @ 0x47
  1087                           
  1088                           
  1089                           ; 4 bytes @ 0x47
  1090  0067                     	ds	4
  1091  006B                     ??_sin:
  1092                           
  1093                           ; 1 bytes @ 0x4B
  1094  006B                     	ds	1
  1095  006C                     _cos$993:
  1096                           
  1097                           ; 4 bytes @ 0x4C
  1098  006C                     	ds	4
  1099                           
  1100                           	psect	maintext
  1101  0035                     __pmaintext:	
  1102 ;;
  1103 ;;Main: autosize = 0, tempsize = 3, incstack = 0, save=0
  1104 ;;
  1105 ;; *************** function _main *****************
  1106 ;; Defined at:
  1107 ;;		line 42 in file "newmain.c"
  1108 ;; Parameters:    Size  Location     Type
  1109 ;;		None
  1110 ;; Auto vars:     Size  Location     Type
  1111 ;;  out            10    0[BANK3 ] unsigned char [10]
  1112 ;;  e3              2   20[BANK3 ] int 
  1113 ;;  e2              2   18[BANK3 ] int 
  1114 ;; Return value:  Size  Location     Type
  1115 ;;                  1    wreg      void 
  1116 ;; Registers used:
  1117 ;;		wreg, fsr0l, fsr0h, status,2, status,0, btemp+1, pclath, cstack
  1118 ;; Tracked objects:
  1119 ;;		On entry : B00/0
  1120 ;;		On exit  : 0/0
  1121 ;;		Unchanged: 0/0
  1122 ;; Data sizes:     COMMON   BANK0   BANK1   BANK3   BANK2
  1123 ;;      Params:         0       0       0       0       0
  1124 ;;      Locals:         0       0       0      22       0
  1125 ;;      Temps:          0       0       3       0       0
  1126 ;;      Totals:         0       0       3      22       0
  1127 ;;Total ram usage:       25 bytes
  1128 ;; Hardware stack levels required when called: 6
  1129 ;; This function calls:
  1130 ;;		_UART_Init
  1131 ;;		_UART_Write_Text
  1132 ;;		___xxtofl
  1133 ;;		_computeLyapunov
  1134 ;;		_spiInit
  1135 ;;		_spiRead
  1136 ;;		_spiWrite
  1137 ;;		_sprintf
  1138 ;; This function is called by:
  1139 ;;		Startup code after reset
  1140 ;; This function uses a non-reentrant model
  1141 ;;
  1142                           
  1143                           
  1144                           ;psect for function _main
  1145  0035                     _main:
  1146  0035                     l2928:	
  1147                           ;incstack = 0
  1148                           ; Regs used in _main: [wreg-fsr0h+status,2+status,0+btemp+1+pclath+cstack]
  1149                           
  1150                           
  1151                           ;newmain.c: 43:     nRBPU = 0;
  1152  0035  1683               	bsf	3,5	;RP0=1, select bank1
  1153  0036  1303               	bcf	3,6	;RP1=0, select bank1
  1154  0037  1381               	bcf	1,7	;volatile
  1155  0038                     l2930:
  1156                           
  1157                           ;newmain.c: 44:     TRISA = 0;
  1158  0038  0185               	clrf	5	;volatile
  1159                           
  1160                           ;newmain.c: 46:     TRISD = 0;
  1161  0039  0188               	clrf	8	;volatile
  1162                           
  1163                           ;newmain.c: 47:     PORTD = 0;
  1164  003A  1283               	bcf	3,5	;RP0=0, select bank0
  1165  003B  1303               	bcf	3,6	;RP1=0, select bank0
  1166  003C  0188               	clrf	8	;volatile
  1167  003D                     l2932:
  1168                           
  1169                           ;newmain.c: 48:     RA1 = 1;
  1170  003D  1485               	bsf	5,1	;volatile
  1171  003E                     l2934:
  1172                           
  1173                           ;newmain.c: 49:     RA2 = 1;
  1174  003E  1505               	bsf	5,2	;volatile
  1175  003F                     l2936:
  1176                           
  1177                           ;newmain.c: 50:     UART_Init(9600);
  1178  003F  3000               	movlw	0
  1179  0040  00A9               	movwf	UART_Init@baudrate+3
  1180  0041  3000               	movlw	0
  1181  0042  00A8               	movwf	UART_Init@baudrate+2
  1182  0043  3025               	movlw	37
  1183  0044  00A7               	movwf	UART_Init@baudrate+1
  1184  0045  3080               	movlw	128
  1185  0046  00A6               	movwf	UART_Init@baudrate
  1186  0047  160A  118A  2726  120A  118A  	fcall	_UART_Init
  1187  004C                     l2938:
  1188                           
  1189                           ;newmain.c: 52:     spiInit(SPI_MASTER_OSC_DIV4, SPI_DATA_SAMPLE_MIDDLE, SPI_CLOCK_IDLE_
      +                          LOW, SPI_IDLE_2_ACTIVE);
  1190  004C  01F0               	clrf	spiInit@sDataSample
  1191  004D  01F1               	clrf	spiInit@sClockIdle
  1192  004E  01F2               	clrf	spiInit@sTransmitEdge
  1193  004F  3020               	movlw	32
  1194  0050  160A  118A  20CB  120A  118A  	fcall	_spiInit
  1195  0055                     l113:	
  1196                           ;newmain.c: 54:     while (1) {
  1197                           
  1198                           
  1199                           ;newmain.c: 56:         int e3 = 0;
  1200  0055  1683               	bsf	3,5	;RP0=1, select bank3
  1201  0056  1703               	bsf	3,6	;RP1=1, select bank3
  1202  0057  01A4               	clrf	main@e3^(0+384)
  1203  0058  01A5               	clrf	(main@e3+1)^(0+384)
  1204  0059                     l2940:
  1205                           
  1206                           ;newmain.c: 57:         char out [10];;newmain.c: 58:         _delay((unsigned long)((30
      +                          0)*(8000000/4000.0)));
  1207  0059  3004               	movlw	4
  1208  005A  1683               	bsf	3,5	;RP0=1, select bank1
  1209  005B  1303               	bcf	3,6	;RP1=0, select bank1
  1210  005C  00DC               	movwf	(??_main^(0+128)+2)
  1211  005D  300C               	movlw	12
  1212  005E  00DB               	movwf	(??_main^(0+128)+1)
  1213  005F  3033               	movlw	51
  1214  0060  00DA               	movwf	??_main^(0+128)
  1215  0061                     u4387:
  1216  0061  0BDA               	decfsz	??_main^(0+128),f
  1217  0062  2861               	goto	u4387
  1218  0063  0BDB               	decfsz	(??_main^(0+128)+1),f
  1219  0064  2861               	goto	u4387
  1220  0065  0BDC               	decfsz	(??_main^(0+128)+2),f
  1221  0066  2861               	goto	u4387
  1222  0067                     l2942:
  1223                           
  1224                           ;newmain.c: 61:         RA1 = 0;
  1225  0067  1283               	bcf	3,5	;RP0=0, select bank0
  1226  0068  1303               	bcf	3,6	;RP1=0, select bank0
  1227  0069  1085               	bcf	5,1	;volatile
  1228  006A                     l2944:
  1229                           
  1230                           ;newmain.c: 62:         _delay((unsigned long)((1)*(8000000/4000.0)));
  1231  006A  3003               	movlw	3
  1232  006B  1683               	bsf	3,5	;RP0=1, select bank1
  1233  006C  1303               	bcf	3,6	;RP1=0, select bank1
  1234  006D  00DB               	movwf	(??_main^(0+128)+1)
  1235  006E  3097               	movlw	151
  1236  006F  00DA               	movwf	??_main^(0+128)
  1237  0070                     u4397:
  1238  0070  0BDA               	decfsz	??_main^(0+128),f
  1239  0071  2870               	goto	u4397
  1240  0072  0BDB               	decfsz	(??_main^(0+128)+1),f
  1241  0073  2870               	goto	u4397
  1242  0074                     l2946:
  1243                           
  1244                           ;newmain.c: 64:         spiWrite(1);
  1245  0074  3001               	movlw	1
  1246  0075  160A  118A  2080  120A  118A  	fcall	_spiWrite
  1247  007A                     l2948:
  1248                           
  1249                           ;newmain.c: 65:         _delay((unsigned long)((300)*(8000000/4000.0)));
  1250  007A  3004               	movlw	4
  1251  007B  1683               	bsf	3,5	;RP0=1, select bank1
  1252  007C  1303               	bcf	3,6	;RP1=0, select bank1
  1253  007D  00DC               	movwf	(??_main^(0+128)+2)
  1254  007E  300C               	movlw	12
  1255  007F  00DB               	movwf	(??_main^(0+128)+1)
  1256  0080  3033               	movlw	51
  1257  0081  00DA               	movwf	??_main^(0+128)
  1258  0082                     u4407:
  1259  0082  0BDA               	decfsz	??_main^(0+128),f
  1260  0083  2882               	goto	u4407
  1261  0084  0BDB               	decfsz	(??_main^(0+128)+1),f
  1262  0085  2882               	goto	u4407
  1263  0086  0BDC               	decfsz	(??_main^(0+128)+2),f
  1264  0087  2882               	goto	u4407
  1265  0088                     l2950:
  1266                           
  1267                           ;newmain.c: 66:         e2 = spiRead();
  1268  0088  160A  118A  2095  120A  118A  	fcall	_spiRead
  1269  008D  1683               	bsf	3,5	;RP0=1, select bank1
  1270  008E  1303               	bcf	3,6	;RP1=0, select bank1
  1271  008F  00DA               	movwf	??_main^(0+128)
  1272  0090  01DB               	clrf	(??_main^(0+128)+1)
  1273  0091  085A               	movf	??_main^(0+128),w
  1274  0092  1683               	bsf	3,5	;RP0=1, select bank3
  1275  0093  1703               	bsf	3,6	;RP1=1, select bank3
  1276  0094  00A2               	movwf	main@e2^(0+384)
  1277  0095  1683               	bsf	3,5	;RP0=1, select bank1
  1278  0096  1303               	bcf	3,6	;RP1=0, select bank1
  1279  0097  085B               	movf	(??_main+1)^(0+128),w
  1280  0098  1683               	bsf	3,5	;RP0=1, select bank3
  1281  0099  1703               	bsf	3,6	;RP1=1, select bank3
  1282  009A  00A3               	movwf	(main@e2+1)^(0+384)
  1283  009B                     l2952:
  1284                           
  1285                           ;newmain.c: 68:         sprintf(out, "e2 = %d\n\r", e2);
  1286  009B  302F               	movlw	(low ((STR_1-__stringbase)| (0+32768)))& (0+255)
  1287  009C  1683               	bsf	3,5	;RP0=1, select bank1
  1288  009D  1303               	bcf	3,6	;RP1=0, select bank1
  1289  009E  00DA               	movwf	??_main^(0+128)
  1290  009F  085A               	movf	??_main^(0+128),w
  1291  00A0  1283               	bcf	3,5	;RP0=0, select bank0
  1292  00A1  1303               	bcf	3,6	;RP1=0, select bank0
  1293  00A2  00A0               	movwf	sprintf@f
  1294  00A3  1683               	bsf	3,5	;RP0=1, select bank3
  1295  00A4  1703               	bsf	3,6	;RP1=1, select bank3
  1296  00A5  0823               	movf	(main@e2+1)^(0+384),w
  1297  00A6  1283               	bcf	3,5	;RP0=0, select bank0
  1298  00A7  1303               	bcf	3,6	;RP1=0, select bank0
  1299  00A8  00A2               	movwf	?_sprintf+2
  1300  00A9  1683               	bsf	3,5	;RP0=1, select bank3
  1301  00AA  1703               	bsf	3,6	;RP1=1, select bank3
  1302  00AB  0822               	movf	main@e2^(0+384),w
  1303  00AC  1283               	bcf	3,5	;RP0=0, select bank0
  1304  00AD  1303               	bcf	3,6	;RP1=0, select bank0
  1305  00AE  00A1               	movwf	?_sprintf+1
  1306  00AF  3090               	movlw	(low (main@out| (0+256)))& (0+255)
  1307  00B0  120A  158A  2003  120A  118A  	fcall	_sprintf
  1308  00B5                     l2954:
  1309                           
  1310                           ;newmain.c: 69:         _delay((unsigned long)((1)*(8000000/4000.0)));
  1311  00B5  3003               	movlw	3
  1312  00B6  1683               	bsf	3,5	;RP0=1, select bank1
  1313  00B7  1303               	bcf	3,6	;RP1=0, select bank1
  1314  00B8  00DB               	movwf	(??_main^(0+128)+1)
  1315  00B9  3097               	movlw	151
  1316  00BA  00DA               	movwf	??_main^(0+128)
  1317  00BB                     u4417:
  1318  00BB  0BDA               	decfsz	??_main^(0+128),f
  1319  00BC  28BB               	goto	u4417
  1320  00BD  0BDB               	decfsz	(??_main^(0+128)+1),f
  1321  00BE  28BB               	goto	u4417
  1322  00BF                     l2956:
  1323                           
  1324                           ;newmain.c: 70:         UART_Write_Text(out);
  1325  00BF  3090               	movlw	(low (main@out| (0+256)))& (0+255)
  1326  00C0  160A  118A  20E1  120A  118A  	fcall	_UART_Write_Text
  1327  00C5                     l2958:
  1328                           
  1329                           ;newmain.c: 72:         _delay((unsigned long)((1)*(8000000/4000.0)));
  1330  00C5  3003               	movlw	3
  1331  00C6  1683               	bsf	3,5	;RP0=1, select bank1
  1332  00C7  1303               	bcf	3,6	;RP1=0, select bank1
  1333  00C8  00DB               	movwf	(??_main^(0+128)+1)
  1334  00C9  3097               	movlw	151
  1335  00CA  00DA               	movwf	??_main^(0+128)
  1336  00CB                     u4427:
  1337  00CB  0BDA               	decfsz	??_main^(0+128),f
  1338  00CC  28CB               	goto	u4427
  1339  00CD  0BDB               	decfsz	(??_main^(0+128)+1),f
  1340  00CE  28CB               	goto	u4427
  1341  00CF                     l2960:
  1342                           
  1343                           ;newmain.c: 73:         RA1 = 1;
  1344  00CF  1283               	bcf	3,5	;RP0=0, select bank0
  1345  00D0  1303               	bcf	3,6	;RP1=0, select bank0
  1346  00D1  1485               	bsf	5,1	;volatile
  1347  00D2                     l2962:
  1348                           
  1349                           ;newmain.c: 76:         RD0 = 1;
  1350  00D2  1408               	bsf	8,0	;volatile
  1351  00D3                     l2964:
  1352                           
  1353                           ;newmain.c: 77:         RA2 = 0;
  1354  00D3  1105               	bcf	5,2	;volatile
  1355  00D4                     l2966:
  1356                           
  1357                           ;newmain.c: 78:         _delay((unsigned long)((1)*(8000000/4000.0)));
  1358  00D4  3003               	movlw	3
  1359  00D5  1683               	bsf	3,5	;RP0=1, select bank1
  1360  00D6  1303               	bcf	3,6	;RP1=0, select bank1
  1361  00D7  00DB               	movwf	(??_main^(0+128)+1)
  1362  00D8  3097               	movlw	151
  1363  00D9  00DA               	movwf	??_main^(0+128)
  1364  00DA                     u4437:
  1365  00DA  0BDA               	decfsz	??_main^(0+128),f
  1366  00DB  28DA               	goto	u4437
  1367  00DC  0BDB               	decfsz	(??_main^(0+128)+1),f
  1368  00DD  28DA               	goto	u4437
  1369  00DE                     l2968:
  1370                           
  1371                           ;newmain.c: 80:         spiWrite(1);
  1372  00DE  3001               	movlw	1
  1373  00DF  160A  118A  2080  120A  118A  	fcall	_spiWrite
  1374  00E4                     l2970:
  1375                           
  1376                           ;newmain.c: 81:         _delay((unsigned long)((300)*(8000000/4000.0)));
  1377  00E4  3004               	movlw	4
  1378  00E5  1683               	bsf	3,5	;RP0=1, select bank1
  1379  00E6  1303               	bcf	3,6	;RP1=0, select bank1
  1380  00E7  00DC               	movwf	(??_main^(0+128)+2)
  1381  00E8  300C               	movlw	12
  1382  00E9  00DB               	movwf	(??_main^(0+128)+1)
  1383  00EA  3033               	movlw	51
  1384  00EB  00DA               	movwf	??_main^(0+128)
  1385  00EC                     u4447:
  1386  00EC  0BDA               	decfsz	??_main^(0+128),f
  1387  00ED  28EC               	goto	u4447
  1388  00EE  0BDB               	decfsz	(??_main^(0+128)+1),f
  1389  00EF  28EC               	goto	u4447
  1390  00F0  0BDC               	decfsz	(??_main^(0+128)+2),f
  1391  00F1  28EC               	goto	u4447
  1392  00F2                     l2972:
  1393                           
  1394                           ;newmain.c: 82:         e3 = spiRead();
  1395  00F2  160A  118A  2095  120A  118A  	fcall	_spiRead
  1396  00F7  1683               	bsf	3,5	;RP0=1, select bank1
  1397  00F8  1303               	bcf	3,6	;RP1=0, select bank1
  1398  00F9  00DA               	movwf	??_main^(0+128)
  1399  00FA  01DB               	clrf	(??_main^(0+128)+1)
  1400  00FB  085A               	movf	??_main^(0+128),w
  1401  00FC  1683               	bsf	3,5	;RP0=1, select bank3
  1402  00FD  1703               	bsf	3,6	;RP1=1, select bank3
  1403  00FE  00A4               	movwf	main@e3^(0+384)
  1404  00FF  1683               	bsf	3,5	;RP0=1, select bank1
  1405  0100  1303               	bcf	3,6	;RP1=0, select bank1
  1406  0101  085B               	movf	(??_main+1)^(0+128),w
  1407  0102  1683               	bsf	3,5	;RP0=1, select bank3
  1408  0103  1703               	bsf	3,6	;RP1=1, select bank3
  1409  0104  00A5               	movwf	(main@e3+1)^(0+384)
  1410  0105                     l2974:
  1411                           
  1412                           ;newmain.c: 83:         sprintf(out, "e3 = %d\n\r", e3);
  1413  0105  3039               	movlw	(low ((STR_2-__stringbase)| (0+32768)))& (0+255)
  1414  0106  1683               	bsf	3,5	;RP0=1, select bank1
  1415  0107  1303               	bcf	3,6	;RP1=0, select bank1
  1416  0108  00DA               	movwf	??_main^(0+128)
  1417  0109  085A               	movf	??_main^(0+128),w
  1418  010A  1283               	bcf	3,5	;RP0=0, select bank0
  1419  010B  1303               	bcf	3,6	;RP1=0, select bank0
  1420  010C  00A0               	movwf	sprintf@f
  1421  010D  1683               	bsf	3,5	;RP0=1, select bank3
  1422  010E  1703               	bsf	3,6	;RP1=1, select bank3
  1423  010F  0825               	movf	(main@e3+1)^(0+384),w
  1424  0110  1283               	bcf	3,5	;RP0=0, select bank0
  1425  0111  1303               	bcf	3,6	;RP1=0, select bank0
  1426  0112  00A2               	movwf	?_sprintf+2
  1427  0113  1683               	bsf	3,5	;RP0=1, select bank3
  1428  0114  1703               	bsf	3,6	;RP1=1, select bank3
  1429  0115  0824               	movf	main@e3^(0+384),w
  1430  0116  1283               	bcf	3,5	;RP0=0, select bank0
  1431  0117  1303               	bcf	3,6	;RP1=0, select bank0
  1432  0118  00A1               	movwf	?_sprintf+1
  1433  0119  3090               	movlw	(low (main@out| (0+256)))& (0+255)
  1434  011A  120A  158A  2003  120A  118A  	fcall	_sprintf
  1435  011F                     l2976:
  1436                           
  1437                           ;newmain.c: 84:         _delay((unsigned long)((1)*(8000000/4000.0)));
  1438  011F  3003               	movlw	3
  1439  0120  1683               	bsf	3,5	;RP0=1, select bank1
  1440  0121  1303               	bcf	3,6	;RP1=0, select bank1
  1441  0122  00DB               	movwf	(??_main^(0+128)+1)
  1442  0123  3097               	movlw	151
  1443  0124  00DA               	movwf	??_main^(0+128)
  1444  0125                     u4457:
  1445  0125  0BDA               	decfsz	??_main^(0+128),f
  1446  0126  2925               	goto	u4457
  1447  0127  0BDB               	decfsz	(??_main^(0+128)+1),f
  1448  0128  2925               	goto	u4457
  1449  0129                     l2978:
  1450                           
  1451                           ;newmain.c: 85:         UART_Write_Text(out);
  1452  0129  3090               	movlw	(low (main@out| (0+256)))& (0+255)
  1453  012A  160A  118A  20E1  120A  118A  	fcall	_UART_Write_Text
  1454  012F                     l2980:
  1455                           
  1456                           ;newmain.c: 88:         computeLyapunov(e2, e3);
  1457  012F  1683               	bsf	3,5	;RP0=1, select bank3
  1458  0130  1703               	bsf	3,6	;RP1=1, select bank3
  1459  0131  0822               	movf	main@e2^(0+384),w
  1460  0132  00F0               	movwf	___xxtofl@val
  1461  0133  0823               	movf	(main@e2+1)^(0+384),w
  1462  0134  00F1               	movwf	___xxtofl@val+1
  1463  0135  3000               	movlw	0
  1464  0136  1BF1               	btfsc	___xxtofl@val+1,7
  1465  0137  30FF               	movlw	255
  1466  0138  00F2               	movwf	___xxtofl@val+2
  1467  0139  00F3               	movwf	___xxtofl@val+3
  1468  013A  3001               	movlw	1
  1469  013B  160A  118A  25AD  120A  118A  	fcall	___xxtofl
  1470  0140  0873               	movf	?___xxtofl+3,w
  1471  0141  1683               	bsf	3,5	;RP0=1, select bank3
  1472  0142  1703               	bsf	3,6	;RP1=1, select bank3
  1473  0143  009D               	movwf	(_main$991+3)^(0+384)
  1474  0144  0872               	movf	?___xxtofl+2,w
  1475  0145  009C               	movwf	(_main$991+2)^(0+384)
  1476  0146  0871               	movf	?___xxtofl+1,w
  1477  0147  009B               	movwf	(_main$991+1)^(0+384)
  1478  0148  0870               	movf	?___xxtofl,w
  1479  0149  009A               	movwf	_main$991^(0+384)
  1480  014A                     l2982:
  1481                           
  1482                           ;newmain.c: 88:         computeLyapunov(e2, e3);
  1483  014A  0824               	movf	main@e3^(0+384),w
  1484  014B  00F0               	movwf	___xxtofl@val
  1485  014C  0825               	movf	(main@e3+1)^(0+384),w
  1486  014D  00F1               	movwf	___xxtofl@val+1
  1487  014E  3000               	movlw	0
  1488  014F  1BF1               	btfsc	___xxtofl@val+1,7
  1489  0150  30FF               	movlw	255
  1490  0151  00F2               	movwf	___xxtofl@val+2
  1491  0152  00F3               	movwf	___xxtofl@val+3
  1492  0153  3001               	movlw	1
  1493  0154  160A  118A  25AD  120A  118A  	fcall	___xxtofl
  1494  0159  0873               	movf	?___xxtofl+3,w
  1495  015A  1683               	bsf	3,5	;RP0=1, select bank3
  1496  015B  1703               	bsf	3,6	;RP1=1, select bank3
  1497  015C  00A1               	movwf	(_main$992+3)^(0+384)
  1498  015D  0872               	movf	?___xxtofl+2,w
  1499  015E  00A0               	movwf	(_main$992+2)^(0+384)
  1500  015F  0871               	movf	?___xxtofl+1,w
  1501  0160  009F               	movwf	(_main$992+1)^(0+384)
  1502  0161  0870               	movf	?___xxtofl,w
  1503  0162  009E               	movwf	_main$992^(0+384)
  1504  0163                     l2984:
  1505                           
  1506                           ;newmain.c: 88:         computeLyapunov(e2, e3);
  1507  0163  081D               	movf	(_main$991+3)^(0+384),w
  1508  0164  1683               	bsf	3,5	;RP0=1, select bank1
  1509  0165  1303               	bcf	3,6	;RP1=0, select bank1
  1510  0166  00C1               	movwf	(computeLyapunov@e2+3)^(0+128)
  1511  0167  1683               	bsf	3,5	;RP0=1, select bank3
  1512  0168  1703               	bsf	3,6	;RP1=1, select bank3
  1513  0169  081C               	movf	(_main$991+2)^(0+384),w
  1514  016A  1683               	bsf	3,5	;RP0=1, select bank1
  1515  016B  1303               	bcf	3,6	;RP1=0, select bank1
  1516  016C  00C0               	movwf	(computeLyapunov@e2+2)^(0+128)
  1517  016D  1683               	bsf	3,5	;RP0=1, select bank3
  1518  016E  1703               	bsf	3,6	;RP1=1, select bank3
  1519  016F  081B               	movf	(_main$991+1)^(0+384),w
  1520  0170  1683               	bsf	3,5	;RP0=1, select bank1
  1521  0171  1303               	bcf	3,6	;RP1=0, select bank1
  1522  0172  00BF               	movwf	(computeLyapunov@e2+1)^(0+128)
  1523  0173  1683               	bsf	3,5	;RP0=1, select bank3
  1524  0174  1703               	bsf	3,6	;RP1=1, select bank3
  1525  0175  081A               	movf	_main$991^(0+384),w
  1526  0176  1683               	bsf	3,5	;RP0=1, select bank1
  1527  0177  1303               	bcf	3,6	;RP1=0, select bank1
  1528  0178  00BE               	movwf	computeLyapunov@e2^(0+128)
  1529  0179  1683               	bsf	3,5	;RP0=1, select bank3
  1530  017A  1703               	bsf	3,6	;RP1=1, select bank3
  1531  017B  0821               	movf	(_main$992+3)^(0+384),w
  1532  017C  1683               	bsf	3,5	;RP0=1, select bank1
  1533  017D  1303               	bcf	3,6	;RP1=0, select bank1
  1534  017E  00C5               	movwf	(computeLyapunov@e3+3)^(0+128)
  1535  017F  1683               	bsf	3,5	;RP0=1, select bank3
  1536  0180  1703               	bsf	3,6	;RP1=1, select bank3
  1537  0181  0820               	movf	(_main$992+2)^(0+384),w
  1538  0182  1683               	bsf	3,5	;RP0=1, select bank1
  1539  0183  1303               	bcf	3,6	;RP1=0, select bank1
  1540  0184  00C4               	movwf	(computeLyapunov@e3+2)^(0+128)
  1541  0185  1683               	bsf	3,5	;RP0=1, select bank3
  1542  0186  1703               	bsf	3,6	;RP1=1, select bank3
  1543  0187  081F               	movf	(_main$992+1)^(0+384),w
  1544  0188  1683               	bsf	3,5	;RP0=1, select bank1
  1545  0189  1303               	bcf	3,6	;RP1=0, select bank1
  1546  018A  00C3               	movwf	(computeLyapunov@e3+1)^(0+128)
  1547  018B  1683               	bsf	3,5	;RP0=1, select bank3
  1548  018C  1703               	bsf	3,6	;RP1=1, select bank3
  1549  018D  081E               	movf	_main$992^(0+384),w
  1550  018E  1683               	bsf	3,5	;RP0=1, select bank1
  1551  018F  1303               	bcf	3,6	;RP1=0, select bank1
  1552  0190  00C2               	movwf	computeLyapunov@e3^(0+128)
  1553  0191  120A  158A  20EB  120A  118A  	fcall	_computeLyapunov
  1554  0196                     l2986:
  1555                           
  1556                           ;newmain.c: 89:         spiWrite(v_l);
  1557  0196  1683               	bsf	3,5	;RP0=1, select bank3
  1558  0197  1703               	bsf	3,6	;RP1=1, select bank3
  1559  0198  082E               	movf	_v_l^(0+384),w
  1560  0199  160A  118A  2080  120A  118A  	fcall	_spiWrite
  1561  019E                     l2988:
  1562                           
  1563                           ;newmain.c: 90:         _delay((unsigned long)((10)*(8000000/4000.0)));
  1564  019E  301A               	movlw	26
  1565  019F  1683               	bsf	3,5	;RP0=1, select bank1
  1566  01A0  1303               	bcf	3,6	;RP1=0, select bank1
  1567  01A1  00DB               	movwf	(??_main^(0+128)+1)
  1568  01A2  30F7               	movlw	247
  1569  01A3  00DA               	movwf	??_main^(0+128)
  1570  01A4                     u4467:
  1571  01A4  0BDA               	decfsz	??_main^(0+128),f
  1572  01A5  29A4               	goto	u4467
  1573  01A6  0BDB               	decfsz	(??_main^(0+128)+1),f
  1574  01A7  29A4               	goto	u4467
  1575  01A8  29A9               	nop2
  1576  01A9                     l2990:
  1577                           
  1578                           ;newmain.c: 91:         spiWrite(v_r);
  1579  01A9  1683               	bsf	3,5	;RP0=1, select bank1
  1580  01AA  1303               	bcf	3,6	;RP1=0, select bank1
  1581  01AB  086D               	movf	_v_r^(0+128),w
  1582  01AC  160A  118A  2080  120A  118A  	fcall	_spiWrite
  1583  01B1                     l2992:
  1584                           
  1585                           ;newmain.c: 93:         _delay((unsigned long)((1)*(8000000/4000.0)));
  1586  01B1  3003               	movlw	3
  1587  01B2  1683               	bsf	3,5	;RP0=1, select bank1
  1588  01B3  1303               	bcf	3,6	;RP1=0, select bank1
  1589  01B4  00DB               	movwf	(??_main^(0+128)+1)
  1590  01B5  3097               	movlw	151
  1591  01B6  00DA               	movwf	??_main^(0+128)
  1592  01B7                     u4477:
  1593  01B7  0BDA               	decfsz	??_main^(0+128),f
  1594  01B8  29B7               	goto	u4477
  1595  01B9  0BDB               	decfsz	(??_main^(0+128)+1),f
  1596  01BA  29B7               	goto	u4477
  1597  01BB                     l2994:
  1598                           
  1599                           ;newmain.c: 94:         RA2 = 1;
  1600  01BB  1283               	bcf	3,5	;RP0=0, select bank0
  1601  01BC  1303               	bcf	3,6	;RP1=0, select bank0
  1602  01BD  1505               	bsf	5,2	;volatile
  1603  01BE                     l2996:
  1604                           
  1605                           ;newmain.c: 96:         RD0 = 0;
  1606  01BE  1008               	bcf	8,0	;volatile
  1607  01BF                     l2998:
  1608                           
  1609                           ;newmain.c: 97:         RD1 = 1;
  1610  01BF  1488               	bsf	8,1	;volatile
  1611  01C0                     l3000:
  1612                           
  1613                           ;newmain.c: 98:         _delay((unsigned long)((500)*(8000000/4000.0)));
  1614  01C0  3006               	movlw	6
  1615  01C1  1683               	bsf	3,5	;RP0=1, select bank1
  1616  01C2  1303               	bcf	3,6	;RP1=0, select bank1
  1617  01C3  00DC               	movwf	(??_main^(0+128)+2)
  1618  01C4  3013               	movlw	19
  1619  01C5  00DB               	movwf	(??_main^(0+128)+1)
  1620  01C6  30AD               	movlw	173
  1621  01C7  00DA               	movwf	??_main^(0+128)
  1622  01C8                     u4487:
  1623  01C8  0BDA               	decfsz	??_main^(0+128),f
  1624  01C9  29C8               	goto	u4487
  1625  01CA  0BDB               	decfsz	(??_main^(0+128)+1),f
  1626  01CB  29C8               	goto	u4487
  1627  01CC  0BDC               	decfsz	(??_main^(0+128)+2),f
  1628  01CD  29C8               	goto	u4487
  1629  01CE                     l3002:
  1630                           
  1631                           ;newmain.c: 99:         RD1 = 0;
  1632  01CE  1283               	bcf	3,5	;RP0=0, select bank0
  1633  01CF  1303               	bcf	3,6	;RP1=0, select bank0
  1634  01D0  1088               	bcf	8,1	;volatile
  1635  01D1  2855               	goto	l113
  1636  01D2  120A  118A  2800   	ljmp	start
  1637  01D5                     __end_of_main:
  1638                           
  1639                           	psect	text1
  1640  0803                     __ptext1:	
  1641 ;; *************** function _sprintf *****************
  1642 ;; Defined at:
  1643 ;;		line 505 in file "C:\Program Files\Microchip\xc8\v2.32\pic\sources\c90\common\doprnt.c"
  1644 ;; Parameters:    Size  Location     Type
  1645 ;;  sp              1    wreg     PTR unsigned char 
  1646 ;;		 -> main@out(10), 
  1647 ;;  f               1    0[BANK0 ] PTR const unsigned char 
  1648 ;;		 -> STR_2(10), STR_1(10), 
  1649 ;; Auto vars:     Size  Location     Type
  1650 ;;  sp              1   11[BANK0 ] PTR unsigned char 
  1651 ;;		 -> main@out(10), 
  1652 ;;  tmpval          4    0        struct .
  1653 ;;  val             2    9[BANK0 ] unsigned int 
  1654 ;;  cp              2    0        PTR const unsigned char 
  1655 ;;  len             2    0        unsigned int 
  1656 ;;  c               1   12[BANK0 ] unsigned char 
  1657 ;;  prec            1    8[BANK0 ] char 
  1658 ;;  flag            1    7[BANK0 ] unsigned char 
  1659 ;;  ap              1    6[BANK0 ] PTR void [1]
  1660 ;;		 -> ?_sprintf(2), 
  1661 ;; Return value:  Size  Location     Type
  1662 ;;                  2    0[BANK0 ] int 
  1663 ;; Registers used:
  1664 ;;		wreg, fsr0l, fsr0h, status,2, status,0, btemp+1, pclath, cstack
  1665 ;; Tracked objects:
  1666 ;;		On entry : 0/0
  1667 ;;		On exit  : 0/0
  1668 ;;		Unchanged: 0/0
  1669 ;; Data sizes:     COMMON   BANK0   BANK1   BANK3   BANK2
  1670 ;;      Params:         0       3       0       0       0
  1671 ;;      Locals:         0       7       0       0       0
  1672 ;;      Temps:          0       3       0       0       0
  1673 ;;      Totals:         0      13       0       0       0
  1674 ;;Total ram usage:       13 bytes
  1675 ;; Hardware stack levels used: 1
  1676 ;; Hardware stack levels required when called: 1
  1677 ;; This function calls:
  1678 ;;		___lwdiv
  1679 ;;		___lwmod
  1680 ;; This function is called by:
  1681 ;;		_main
  1682 ;; This function uses a non-reentrant model
  1683 ;;
  1684                           
  1685                           
  1686                           ;psect for function _sprintf
  1687  0803                     _sprintf:
  1688                           
  1689                           ;incstack = 0
  1690                           ; Regs used in _sprintf: [wreg-fsr0h+status,2+status,0+btemp+1+pclath+cstack]
  1691                           ;sprintf@sp stored from wreg
  1692  0803  1283               	bcf	3,5	;RP0=0, select bank0
  1693  0804  1303               	bcf	3,6	;RP1=0, select bank0
  1694  0805  00AB               	movwf	sprintf@sp
  1695  0806                     l2866:
  1696                           
  1697                           ;C:\Program Files\Microchip\xc8\v2.32\pic\sources\c90\common\doprnt.c: 505: sprintf(char
      +                           * sp, const char * f, ...);C:\Program Files\Microchip\xc8\v2.32\pic\sources\c90\common\
      +                          doprnt.c: 506: {;C:\Program Files\Microchip\xc8\v2.32\pic\sources\c90\common\doprnt.c: 5
      +                          07:  va_list ap;;C:\Program Files\Microchip\xc8\v2.32\pic\sources\c90\common\doprnt.c: 5
      +                          12:  char c;;C:\Program Files\Microchip\xc8\v2.32\pic\sources\c90\common\doprnt.c: 521: 
      +                           signed char prec;;C:\Program Files\Microchip\xc8\v2.32\pic\sources\c90\common\doprnt.c:
      +                           525:  unsigned char flag;
  1698  0806  3021               	movlw	(low ((?_sprintf| 0+1)))& (0+255)
  1699  0807  00A3               	movwf	??_sprintf
  1700  0808  0823               	movf	??_sprintf,w
  1701  0809  00A6               	movwf	sprintf@ap
  1702                           
  1703                           ;C:\Program Files\Microchip\xc8\v2.32\pic\sources\c90\common\doprnt.c: 553:  while((c = 
      +                          *f++)) {
  1704  080A  28D4               	goto	l2918
  1705  080B                     l2868:
  1706                           
  1707                           ;C:\Program Files\Microchip\xc8\v2.32\pic\sources\c90\common\doprnt.c: 555:   if(c != '%
      +                          ')
  1708  080B  3025               	movlw	37
  1709  080C  062C               	xorwf	sprintf@c,w
  1710  080D  1903               	btfsc	3,2
  1711  080E  2810               	goto	u4311
  1712  080F  2811               	goto	u4310
  1713  0810                     u4311:
  1714  0810  281D               	goto	l2874
  1715  0811                     u4310:
  1716  0811                     l2870:
  1717                           
  1718                           ;C:\Program Files\Microchip\xc8\v2.32\pic\sources\c90\common\doprnt.c: 557:   {;C:\Progr
      +                          am Files\Microchip\xc8\v2.32\pic\sources\c90\common\doprnt.c: 558:    ((*sp++ = (c)));
  1719  0811  082C               	movf	sprintf@c,w
  1720  0812  00A3               	movwf	??_sprintf
  1721  0813  082B               	movf	sprintf@sp,w
  1722  0814  0084               	movwf	4
  1723  0815  0823               	movf	??_sprintf,w
  1724  0816  1783               	bsf	3,7	;select IRP bank2
  1725  0817  0080               	movwf	0
  1726  0818                     l2872:
  1727  0818  3001               	movlw	1
  1728  0819  00A3               	movwf	??_sprintf
  1729  081A  0823               	movf	??_sprintf,w
  1730  081B  07AB               	addwf	sprintf@sp,f
  1731                           
  1732                           ;C:\Program Files\Microchip\xc8\v2.32\pic\sources\c90\common\doprnt.c: 559:    continue;
  1733  081C  28D4               	goto	l2918
  1734  081D                     l2874:
  1735                           
  1736                           ;C:\Program Files\Microchip\xc8\v2.32\pic\sources\c90\common\doprnt.c: 565:   flag = 0;
  1737  081D  01A7               	clrf	sprintf@flag
  1738  081E                     l2878:	
  1739                           ;C:\Program Files\Microchip\xc8\v2.32\pic\sources\c90\common\doprnt.c: 661:   switch(c =
      +                           *f++) {
  1740                           
  1741  081E  3001               	movlw	1
  1742  081F  07A0               	addwf	sprintf@f,f
  1743  0820  30FF               	movlw	-1
  1744  0821  0720               	addwf	sprintf@f,w
  1745  0822  0084               	movwf	4
  1746  0823  160A  118A  2000  120A  158A  	fcall	stringdir
  1747  0828  00AC               	movwf	sprintf@c
  1748  0829  00A3               	movwf	??_sprintf
  1749  082A  01A4               	clrf	??_sprintf+1
  1750                           
  1751                           ; Switch on 2 bytes has been partitioned into a top level switch of size 1, and 1 sub-sw
      +                          itches
  1752                           ; Switch size 1, requested type "simple"
  1753                           ; Number of cases is 1, Range of values is 0 to 0
  1754                           ; switch strategies available:
  1755                           ; Name         Instructions Cycles
  1756                           ; simple_byte            4     3 (average)
  1757                           ; direct_byte           11     8 (fixed)
  1758                           ; jumptable            260     6 (fixed)
  1759                           ;	Chosen strategy is simple_byte
  1760  082B  0824               	movf	??_sprintf+1,w
  1761  082C  3A00               	xorlw	0	; case 0
  1762  082D  1903               	skipnz
  1763  082E  2830               	goto	l3024
  1764  082F  28D4               	goto	l2918
  1765  0830                     l3024:
  1766                           
  1767                           ; Switch size 1, requested type "simple"
  1768                           ; Number of cases is 3, Range of values is 0 to 105
  1769                           ; switch strategies available:
  1770                           ; Name         Instructions Cycles
  1771                           ; simple_byte           10     6 (average)
  1772                           ; jumptable            260     6 (fixed)
  1773                           ;	Chosen strategy is simple_byte
  1774  0830  0823               	movf	??_sprintf,w
  1775  0831  3A00               	xorlw	0	; case 0
  1776  0832  1903               	skipnz
  1777  0833  28E6               	goto	l2920
  1778  0834  3A64               	xorlw	100	; case 100
  1779  0835  1903               	skipnz
  1780  0836  283B               	goto	l2880
  1781  0837  3A0D               	xorlw	13	; case 105
  1782  0838  1903               	skipnz
  1783  0839  283B               	goto	l2880
  1784  083A  28D4               	goto	l2918
  1785  083B                     l2880:
  1786                           
  1787                           ;C:\Program Files\Microchip\xc8\v2.32\pic\sources\c90\common\doprnt.c: 1279:   {;C:\Prog
      +                          ram Files\Microchip\xc8\v2.32\pic\sources\c90\common\doprnt.c: 1285:     val = (unsigned
      +                           int)(*(int *)__va_arg((*(int **)ap), (int)0));
  1788  083B  0826               	movf	sprintf@ap,w
  1789  083C  0084               	movwf	4
  1790  083D  1383               	bcf	3,7	;select IRP bank0
  1791  083E  0800               	movf	0,w
  1792  083F  00A9               	movwf	sprintf@val
  1793  0840  0A84               	incf	4,f
  1794  0841  0800               	movf	0,w
  1795  0842  00AA               	movwf	sprintf@val+1
  1796  0843                     l2882:
  1797  0843  3002               	movlw	2
  1798  0844  00A3               	movwf	??_sprintf
  1799  0845  0823               	movf	??_sprintf,w
  1800  0846  07A6               	addwf	sprintf@ap,f
  1801  0847                     l2884:
  1802                           
  1803                           ;C:\Program Files\Microchip\xc8\v2.32\pic\sources\c90\common\doprnt.c: 1287:    if((int)
      +                          val < 0) {
  1804  0847  1FAA               	btfss	sprintf@val+1,7
  1805  0848  284A               	goto	u4321
  1806  0849  284B               	goto	u4320
  1807  084A                     u4321:
  1808  084A  2854               	goto	l2890
  1809  084B                     u4320:
  1810  084B                     l2886:
  1811                           
  1812                           ;C:\Program Files\Microchip\xc8\v2.32\pic\sources\c90\common\doprnt.c: 1288:     flag |=
      +                           0x03;
  1813  084B  3003               	movlw	3
  1814  084C  00A3               	movwf	??_sprintf
  1815  084D  0823               	movf	??_sprintf,w
  1816  084E  04A7               	iorwf	sprintf@flag,f
  1817  084F                     l2888:
  1818                           
  1819                           ;C:\Program Files\Microchip\xc8\v2.32\pic\sources\c90\common\doprnt.c: 1289:     val = -
      +                          val;
  1820  084F  09A9               	comf	sprintf@val,f
  1821  0850  09AA               	comf	sprintf@val+1,f
  1822  0851  0AA9               	incf	sprintf@val,f
  1823  0852  1903               	skipnz
  1824  0853  0AAA               	incf	sprintf@val+1,f
  1825  0854                     l2890:
  1826                           
  1827                           ;C:\Program Files\Microchip\xc8\v2.32\pic\sources\c90\common\doprnt.c: 1292:   };C:\Prog
      +                          ram Files\Microchip\xc8\v2.32\pic\sources\c90\common\doprnt.c: 1331:    for(c = 1 ; c !=
      +                           sizeof dpowers/sizeof dpowers[0] ; c++)
  1828  0854  01AC               	clrf	sprintf@c
  1829  0855  0AAC               	incf	sprintf@c,f
  1830  0856                     l2896:
  1831                           
  1832                           ;C:\Program Files\Microchip\xc8\v2.32\pic\sources\c90\common\doprnt.c: 1332:     if(val 
      +                          < dpowers[c])
  1833  0856  082C               	movf	sprintf@c,w
  1834  0857  00A3               	movwf	??_sprintf
  1835  0858  0723               	addwf	??_sprintf,w
  1836  0859  3E01               	addlw	low ((_dpowers-__stringbase)| (0+32768))
  1837  085A  0084               	movwf	4
  1838  085B  160A  118A  2000  120A  158A  	fcall	stringdir
  1839  0860  00A4               	movwf	??_sprintf+1
  1840  0861  160A  118A  2000  120A  158A  	fcall	stringdir
  1841  0866  00A5               	movwf	??_sprintf+2
  1842  0867  0825               	movf	??_sprintf+2,w
  1843  0868  022A               	subwf	sprintf@val+1,w
  1844  0869  1D03               	skipz
  1845  086A  286D               	goto	u4335
  1846  086B  0824               	movf	??_sprintf+1,w
  1847  086C  0229               	subwf	sprintf@val,w
  1848  086D                     u4335:
  1849  086D  1803               	skipnc
  1850  086E  2870               	goto	u4331
  1851  086F  2871               	goto	u4330
  1852  0870                     u4331:
  1853  0870  2872               	goto	l2900
  1854  0871                     u4330:
  1855  0871  287C               	goto	l2902
  1856  0872                     l2900:
  1857  0872  3001               	movlw	1
  1858  0873  00A3               	movwf	??_sprintf
  1859  0874  0823               	movf	??_sprintf,w
  1860  0875  07AC               	addwf	sprintf@c,f
  1861  0876  3005               	movlw	5
  1862  0877  062C               	xorwf	sprintf@c,w
  1863  0878  1D03               	btfss	3,2
  1864  0879  287B               	goto	u4341
  1865  087A  287C               	goto	u4340
  1866  087B                     u4341:
  1867  087B  2856               	goto	l2896
  1868  087C                     u4340:
  1869  087C                     l2902:
  1870                           
  1871                           ;C:\Program Files\Microchip\xc8\v2.32\pic\sources\c90\common\doprnt.c: 1448:   {;C:\Prog
      +                          ram Files\Microchip\xc8\v2.32\pic\sources\c90\common\doprnt.c: 1464:    if(flag & 0x03)
  1872  087C  0827               	movf	sprintf@flag,w
  1873  087D  3903               	andlw	3
  1874  087E  1903               	btfsc	3,2
  1875  087F  2881               	goto	u4351
  1876  0880  2882               	goto	u4350
  1877  0881                     u4351:
  1878  0881  288D               	goto	l2908
  1879  0882                     u4350:
  1880  0882                     l2904:
  1881                           
  1882                           ;C:\Program Files\Microchip\xc8\v2.32\pic\sources\c90\common\doprnt.c: 1465:     ((*sp++
      +                           = ('-')));
  1883  0882  302D               	movlw	45
  1884  0883  00A3               	movwf	??_sprintf
  1885  0884  082B               	movf	sprintf@sp,w
  1886  0885  0084               	movwf	4
  1887  0886  0823               	movf	??_sprintf,w
  1888  0887  1783               	bsf	3,7	;select IRP bank2
  1889  0888  0080               	movwf	0
  1890  0889                     l2906:
  1891  0889  3001               	movlw	1
  1892  088A  00A3               	movwf	??_sprintf
  1893  088B  0823               	movf	??_sprintf,w
  1894  088C  07AB               	addwf	sprintf@sp,f
  1895  088D                     l2908:
  1896                           
  1897                           ;C:\Program Files\Microchip\xc8\v2.32\pic\sources\c90\common\doprnt.c: 1495:   };C:\Prog
      +                          ram Files\Microchip\xc8\v2.32\pic\sources\c90\common\doprnt.c: 1498:   prec = c;
  1898  088D  082C               	movf	sprintf@c,w
  1899  088E  00A3               	movwf	??_sprintf
  1900  088F  0823               	movf	??_sprintf,w
  1901  0890  00A8               	movwf	sprintf@prec
  1902                           
  1903                           ;C:\Program Files\Microchip\xc8\v2.32\pic\sources\c90\common\doprnt.c: 1500:   while(pre
      +                          c--) {
  1904  0891  28CB               	goto	l2916
  1905  0892                     l2910:
  1906                           
  1907                           ;C:\Program Files\Microchip\xc8\v2.32\pic\sources\c90\common\doprnt.c: 1504:    {;C:\Pro
      +                          gram Files\Microchip\xc8\v2.32\pic\sources\c90\common\doprnt.c: 1515:     c = (val / dpo
      +                          wers[(unsigned char)prec]) % 10 + '0';
  1908  0892  300A               	movlw	10
  1909  0893  00F8               	movwf	___lwmod@divisor
  1910  0894  3000               	movlw	0
  1911  0895  00F9               	movwf	___lwmod@divisor+1
  1912  0896  0828               	movf	sprintf@prec,w
  1913  0897  00A3               	movwf	??_sprintf
  1914  0898  0723               	addwf	??_sprintf,w
  1915  0899  3E01               	addlw	low ((_dpowers-__stringbase)| (0+32768))
  1916  089A  0084               	movwf	4
  1917  089B  160A  118A  2000  120A  158A  	fcall	stringdir
  1918  08A0  00F0               	movwf	___lwdiv@divisor
  1919  08A1  160A  118A  2000  120A  158A  	fcall	stringdir
  1920  08A6  00F1               	movwf	___lwdiv@divisor+1
  1921  08A7  082A               	movf	sprintf@val+1,w
  1922  08A8  00F3               	movwf	___lwdiv@dividend+1
  1923  08A9  0829               	movf	sprintf@val,w
  1924  08AA  00F2               	movwf	___lwdiv@dividend
  1925  08AB  160A  118A  2160  120A  158A  	fcall	___lwdiv
  1926  08B0  0871               	movf	?___lwdiv+1,w
  1927  08B1  00FB               	movwf	___lwmod@dividend+1
  1928  08B2  0870               	movf	?___lwdiv,w
  1929  08B3  00FA               	movwf	___lwmod@dividend
  1930  08B4  160A  118A  2126  120A  158A  	fcall	___lwmod
  1931  08B9  0878               	movf	?___lwmod,w
  1932  08BA  3E30               	addlw	48
  1933  08BB  1283               	bcf	3,5	;RP0=0, select bank0
  1934  08BC  1303               	bcf	3,6	;RP1=0, select bank0
  1935  08BD  00A4               	movwf	??_sprintf+1
  1936  08BE  0824               	movf	??_sprintf+1,w
  1937  08BF  00AC               	movwf	sprintf@c
  1938  08C0                     l2912:
  1939                           
  1940                           ;C:\Program Files\Microchip\xc8\v2.32\pic\sources\c90\common\doprnt.c: 1549:    };C:\Pro
      +                          gram Files\Microchip\xc8\v2.32\pic\sources\c90\common\doprnt.c: 1550:    ((*sp++ = (c)))
      +                          ;
  1941  08C0  082C               	movf	sprintf@c,w
  1942  08C1  00A3               	movwf	??_sprintf
  1943  08C2  082B               	movf	sprintf@sp,w
  1944  08C3  0084               	movwf	4
  1945  08C4  0823               	movf	??_sprintf,w
  1946  08C5  1783               	bsf	3,7	;select IRP bank2
  1947  08C6  0080               	movwf	0
  1948  08C7                     l2914:
  1949  08C7  3001               	movlw	1
  1950  08C8  00A3               	movwf	??_sprintf
  1951  08C9  0823               	movf	??_sprintf,w
  1952  08CA  07AB               	addwf	sprintf@sp,f
  1953  08CB                     l2916:
  1954                           
  1955                           ;C:\Program Files\Microchip\xc8\v2.32\pic\sources\c90\common\doprnt.c: 1500:   while(pre
      +                          c--) {
  1956  08CB  30FF               	movlw	255
  1957  08CC  00A3               	movwf	??_sprintf
  1958  08CD  0823               	movf	??_sprintf,w
  1959  08CE  07A8               	addwf	sprintf@prec,f
  1960  08CF  0A28               	incf	sprintf@prec,w
  1961  08D0  1D03               	btfss	3,2
  1962  08D1  28D3               	goto	u4361
  1963  08D2  28D4               	goto	u4360
  1964  08D3                     u4361:
  1965  08D3  2892               	goto	l2910
  1966  08D4                     u4360:
  1967  08D4                     l2918:
  1968                           
  1969                           ;C:\Program Files\Microchip\xc8\v2.32\pic\sources\c90\common\doprnt.c: 553:  while((c = 
      +                          *f++)) {
  1970  08D4  3001               	movlw	1
  1971  08D5  07A0               	addwf	sprintf@f,f
  1972  08D6  30FF               	movlw	-1
  1973  08D7  0720               	addwf	sprintf@f,w
  1974  08D8  0084               	movwf	4
  1975  08D9  160A  118A  2000  120A  158A  	fcall	stringdir
  1976  08DE  00A3               	movwf	??_sprintf
  1977  08DF  0823               	movf	??_sprintf,w
  1978  08E0  00AC               	movwf	sprintf@c
  1979  08E1  082C               	movf	sprintf@c,w
  1980  08E2  1D03               	btfss	3,2
  1981  08E3  28E5               	goto	u4371
  1982  08E4  28E6               	goto	u4370
  1983  08E5                     u4371:
  1984  08E5  280B               	goto	l2868
  1985  08E6                     u4370:
  1986  08E6                     l2920:
  1987                           
  1988                           ;C:\Program Files\Microchip\xc8\v2.32\pic\sources\c90\common\doprnt.c: 1564:  *sp = 0;
  1989  08E6  082B               	movf	sprintf@sp,w
  1990  08E7  0084               	movwf	4
  1991  08E8  1783               	bsf	3,7	;select IRP bank2
  1992  08E9  0180               	clrf	0
  1993  08EA                     l260:
  1994  08EA  0008               	return
  1995  08EB                     __end_of_sprintf:
  1996                           
  1997                           	psect	text2
  1998  1126                     __ptext2:	
  1999 ;; *************** function ___lwmod *****************
  2000 ;; Defined at:
  2001 ;;		line 5 in file "C:\Program Files\Microchip\xc8\v2.32\pic\sources\c90\common\lwmod.c"
  2002 ;; Parameters:    Size  Location     Type
  2003 ;;  divisor         2    8[COMMON] unsigned int 
  2004 ;;  dividend        2   10[COMMON] unsigned int 
  2005 ;; Auto vars:     Size  Location     Type
  2006 ;;  counter         1   13[COMMON] unsigned char 
  2007 ;; Return value:  Size  Location     Type
  2008 ;;                  2    8[COMMON] unsigned int 
  2009 ;; Registers used:
  2010 ;;		wreg, status,2, status,0
  2011 ;; Tracked objects:
  2012 ;;		On entry : 0/0
  2013 ;;		On exit  : 0/0
  2014 ;;		Unchanged: 0/0
  2015 ;; Data sizes:     COMMON   BANK0   BANK1   BANK3   BANK2
  2016 ;;      Params:         4       0       0       0       0
  2017 ;;      Locals:         1       0       0       0       0
  2018 ;;      Temps:          1       0       0       0       0
  2019 ;;      Totals:         6       0       0       0       0
  2020 ;;Total ram usage:        6 bytes
  2021 ;; Hardware stack levels used: 1
  2022 ;; This function calls:
  2023 ;;		Nothing
  2024 ;; This function is called by:
  2025 ;;		_sprintf
  2026 ;; This function uses a non-reentrant model
  2027 ;;
  2028                           
  2029                           
  2030                           ;psect for function ___lwmod
  2031  1126                     ___lwmod:
  2032  1126                     l2786:	
  2033                           ;incstack = 0
  2034                           ; Regs used in ___lwmod: [wreg+status,2+status,0]
  2035                           
  2036  1126  0878               	movf	___lwmod@divisor,w
  2037  1127  0479               	iorwf	___lwmod@divisor+1,w
  2038  1128  1903               	btfsc	3,2
  2039  1129  292B               	goto	u4151
  2040  112A  292C               	goto	u4150
  2041  112B                     u4151:
  2042  112B  295B               	goto	l2804
  2043  112C                     u4150:
  2044  112C                     l2788:
  2045  112C  01FD               	clrf	___lwmod@counter
  2046  112D  0AFD               	incf	___lwmod@counter,f
  2047  112E  293A               	goto	l2794
  2048  112F                     l2790:
  2049  112F  3001               	movlw	1
  2050  1130                     u4165:
  2051  1130  1003               	clrc
  2052  1131  0DF8               	rlf	___lwmod@divisor,f
  2053  1132  0DF9               	rlf	___lwmod@divisor+1,f
  2054  1133  3EFF               	addlw	-1
  2055  1134  1D03               	skipz
  2056  1135  2930               	goto	u4165
  2057  1136                     l2792:
  2058  1136  3001               	movlw	1
  2059  1137  00FC               	movwf	??___lwmod
  2060  1138  087C               	movf	??___lwmod,w
  2061  1139  07FD               	addwf	___lwmod@counter,f
  2062  113A                     l2794:
  2063  113A  1FF9               	btfss	___lwmod@divisor+1,7
  2064  113B  293D               	goto	u4171
  2065  113C  293E               	goto	u4170
  2066  113D                     u4171:
  2067  113D  292F               	goto	l2790
  2068  113E                     u4170:
  2069  113E                     l2796:
  2070  113E  0879               	movf	___lwmod@divisor+1,w
  2071  113F  027B               	subwf	___lwmod@dividend+1,w
  2072  1140  1D03               	skipz
  2073  1141  2944               	goto	u4185
  2074  1142  0878               	movf	___lwmod@divisor,w
  2075  1143  027A               	subwf	___lwmod@dividend,w
  2076  1144                     u4185:
  2077  1144  1C03               	skipc
  2078  1145  2947               	goto	u4181
  2079  1146  2948               	goto	u4180
  2080  1147                     u4181:
  2081  1147  294E               	goto	l2800
  2082  1148                     u4180:
  2083  1148                     l2798:
  2084  1148  0878               	movf	___lwmod@divisor,w
  2085  1149  02FA               	subwf	___lwmod@dividend,f
  2086  114A  0879               	movf	___lwmod@divisor+1,w
  2087  114B  1C03               	skipc
  2088  114C  03FB               	decf	___lwmod@dividend+1,f
  2089  114D  02FB               	subwf	___lwmod@dividend+1,f
  2090  114E                     l2800:
  2091  114E  3001               	movlw	1
  2092  114F                     u4195:
  2093  114F  1003               	clrc
  2094  1150  0CF9               	rrf	___lwmod@divisor+1,f
  2095  1151  0CF8               	rrf	___lwmod@divisor,f
  2096  1152  3EFF               	addlw	-1
  2097  1153  1D03               	skipz
  2098  1154  294F               	goto	u4195
  2099  1155                     l2802:
  2100  1155  3001               	movlw	1
  2101  1156  02FD               	subwf	___lwmod@counter,f
  2102  1157  1D03               	btfss	3,2
  2103  1158  295A               	goto	u4201
  2104  1159  295B               	goto	u4200
  2105  115A                     u4201:
  2106  115A  293E               	goto	l2796
  2107  115B                     u4200:
  2108  115B                     l2804:
  2109  115B  087B               	movf	___lwmod@dividend+1,w
  2110  115C  00F9               	movwf	?___lwmod+1
  2111  115D  087A               	movf	___lwmod@dividend,w
  2112  115E  00F8               	movwf	?___lwmod
  2113  115F                     l546:
  2114  115F  0008               	return
  2115  1160                     __end_of___lwmod:
  2116                           
  2117                           	psect	text3
  2118  1160                     __ptext3:	
  2119 ;; *************** function ___lwdiv *****************
  2120 ;; Defined at:
  2121 ;;		line 5 in file "C:\Program Files\Microchip\xc8\v2.32\pic\sources\c90\common\lwdiv.c"
  2122 ;; Parameters:    Size  Location     Type
  2123 ;;  divisor         2    0[COMMON] unsigned int 
  2124 ;;  dividend        2    2[COMMON] unsigned int 
  2125 ;; Auto vars:     Size  Location     Type
  2126 ;;  quotient        2    5[COMMON] unsigned int 
  2127 ;;  counter         1    7[COMMON] unsigned char 
  2128 ;; Return value:  Size  Location     Type
  2129 ;;                  2    0[COMMON] unsigned int 
  2130 ;; Registers used:
  2131 ;;		wreg, status,2, status,0
  2132 ;; Tracked objects:
  2133 ;;		On entry : 0/0
  2134 ;;		On exit  : 0/0
  2135 ;;		Unchanged: 0/0
  2136 ;; Data sizes:     COMMON   BANK0   BANK1   BANK3   BANK2
  2137 ;;      Params:         4       0       0       0       0
  2138 ;;      Locals:         3       0       0       0       0
  2139 ;;      Temps:          1       0       0       0       0
  2140 ;;      Totals:         8       0       0       0       0
  2141 ;;Total ram usage:        8 bytes
  2142 ;; Hardware stack levels used: 1
  2143 ;; This function calls:
  2144 ;;		Nothing
  2145 ;; This function is called by:
  2146 ;;		_sprintf
  2147 ;; This function uses a non-reentrant model
  2148 ;;
  2149                           
  2150                           
  2151                           ;psect for function ___lwdiv
  2152  1160                     ___lwdiv:
  2153  1160                     l2760:	
  2154                           ;incstack = 0
  2155                           ; Regs used in ___lwdiv: [wreg+status,2+status,0]
  2156                           
  2157  1160  01F5               	clrf	___lwdiv@quotient
  2158  1161  01F6               	clrf	___lwdiv@quotient+1
  2159  1162                     l2762:
  2160  1162  0870               	movf	___lwdiv@divisor,w
  2161  1163  0471               	iorwf	___lwdiv@divisor+1,w
  2162  1164  1903               	btfsc	3,2
  2163  1165  2967               	goto	u4081
  2164  1166  2968               	goto	u4080
  2165  1167                     u4081:
  2166  1167  299F               	goto	l2782
  2167  1168                     u4080:
  2168  1168                     l2764:
  2169  1168  01F7               	clrf	___lwdiv@counter
  2170  1169  0AF7               	incf	___lwdiv@counter,f
  2171  116A  2976               	goto	l2770
  2172  116B                     l2766:
  2173  116B  3001               	movlw	1
  2174  116C                     u4095:
  2175  116C  1003               	clrc
  2176  116D  0DF0               	rlf	___lwdiv@divisor,f
  2177  116E  0DF1               	rlf	___lwdiv@divisor+1,f
  2178  116F  3EFF               	addlw	-1
  2179  1170  1D03               	skipz
  2180  1171  296C               	goto	u4095
  2181  1172                     l2768:
  2182  1172  3001               	movlw	1
  2183  1173  00F4               	movwf	??___lwdiv
  2184  1174  0874               	movf	??___lwdiv,w
  2185  1175  07F7               	addwf	___lwdiv@counter,f
  2186  1176                     l2770:
  2187  1176  1FF1               	btfss	___lwdiv@divisor+1,7
  2188  1177  2979               	goto	u4101
  2189  1178  297A               	goto	u4100
  2190  1179                     u4101:
  2191  1179  296B               	goto	l2766
  2192  117A                     u4100:
  2193  117A                     l2772:
  2194  117A  3001               	movlw	1
  2195  117B                     u4115:
  2196  117B  1003               	clrc
  2197  117C  0DF5               	rlf	___lwdiv@quotient,f
  2198  117D  0DF6               	rlf	___lwdiv@quotient+1,f
  2199  117E  3EFF               	addlw	-1
  2200  117F  1D03               	skipz
  2201  1180  297B               	goto	u4115
  2202  1181  0871               	movf	___lwdiv@divisor+1,w
  2203  1182  0273               	subwf	___lwdiv@dividend+1,w
  2204  1183  1D03               	skipz
  2205  1184  2987               	goto	u4125
  2206  1185  0870               	movf	___lwdiv@divisor,w
  2207  1186  0272               	subwf	___lwdiv@dividend,w
  2208  1187                     u4125:
  2209  1187  1C03               	skipc
  2210  1188  298A               	goto	u4121
  2211  1189  298B               	goto	u4120
  2212  118A                     u4121:
  2213  118A  2992               	goto	l2778
  2214  118B                     u4120:
  2215  118B                     l2774:
  2216  118B  0870               	movf	___lwdiv@divisor,w
  2217  118C  02F2               	subwf	___lwdiv@dividend,f
  2218  118D  0871               	movf	___lwdiv@divisor+1,w
  2219  118E  1C03               	skipc
  2220  118F  03F3               	decf	___lwdiv@dividend+1,f
  2221  1190  02F3               	subwf	___lwdiv@dividend+1,f
  2222  1191                     l2776:
  2223  1191  1475               	bsf	___lwdiv@quotient,0
  2224  1192                     l2778:
  2225  1192  3001               	movlw	1
  2226  1193                     u4135:
  2227  1193  1003               	clrc
  2228  1194  0CF1               	rrf	___lwdiv@divisor+1,f
  2229  1195  0CF0               	rrf	___lwdiv@divisor,f
  2230  1196  3EFF               	addlw	-1
  2231  1197  1D03               	skipz
  2232  1198  2993               	goto	u4135
  2233  1199                     l2780:
  2234  1199  3001               	movlw	1
  2235  119A  02F7               	subwf	___lwdiv@counter,f
  2236  119B  1D03               	btfss	3,2
  2237  119C  299E               	goto	u4141
  2238  119D  299F               	goto	u4140
  2239  119E                     u4141:
  2240  119E  297A               	goto	l2772
  2241  119F                     u4140:
  2242  119F                     l2782:
  2243  119F  0876               	movf	___lwdiv@quotient+1,w
  2244  11A0  00F1               	movwf	?___lwdiv+1
  2245  11A1  0875               	movf	___lwdiv@quotient,w
  2246  11A2  00F0               	movwf	?___lwdiv
  2247  11A3                     l536:
  2248  11A3  0008               	return
  2249  11A4                     __end_of___lwdiv:
  2250                           
  2251                           	psect	text4
  2252  1080                     __ptext4:	
  2253 ;; *************** function _spiWrite *****************
  2254 ;; Defined at:
  2255 ;;		line 34 in file "spi.c"
  2256 ;; Parameters:    Size  Location     Type
  2257 ;;  dat             1    wreg     unsigned char 
  2258 ;; Auto vars:     Size  Location     Type
  2259 ;;  dat             1    0[COMMON] unsigned char 
  2260 ;; Return value:  Size  Location     Type
  2261 ;;                  1    wreg      void 
  2262 ;; Registers used:
  2263 ;;		wreg
  2264 ;; Tracked objects:
  2265 ;;		On entry : 0/0
  2266 ;;		On exit  : 0/0
  2267 ;;		Unchanged: 0/0
  2268 ;; Data sizes:     COMMON   BANK0   BANK1   BANK3   BANK2
  2269 ;;      Params:         0       0       0       0       0
  2270 ;;      Locals:         1       0       0       0       0
  2271 ;;      Temps:          0       0       0       0       0
  2272 ;;      Totals:         1       0       0       0       0
  2273 ;;Total ram usage:        1 bytes
  2274 ;; Hardware stack levels used: 1
  2275 ;; This function calls:
  2276 ;;		Nothing
  2277 ;; This function is called by:
  2278 ;;		_main
  2279 ;; This function uses a non-reentrant model
  2280 ;;
  2281                           
  2282                           
  2283                           ;psect for function _spiWrite
  2284  1080                     _spiWrite:
  2285                           
  2286                           ;incstack = 0
  2287                           ; Regs used in _spiWrite: [wreg]
  2288                           ;spiWrite@dat stored from wreg
  2289  1080  00F0               	movwf	spiWrite@dat
  2290  1081                     l2858:
  2291                           
  2292                           ;spi.c: 34: void spiWrite(char dat);spi.c: 35: {;spi.c: 36:     SSPBUF = dat;
  2293  1081  0870               	movf	spiWrite@dat,w
  2294  1082  1283               	bcf	3,5	;RP0=0, select bank0
  2295  1083  1303               	bcf	3,6	;RP1=0, select bank0
  2296  1084  0093               	movwf	19	;volatile
  2297  1085                     l142:
  2298  1085  0008               	return
  2299  1086                     __end_of_spiWrite:
  2300                           
  2301                           	psect	text5
  2302  1095                     __ptext5:	
  2303 ;; *************** function _spiRead *****************
  2304 ;; Defined at:
  2305 ;;		line 47 in file "spi.c"
  2306 ;; Parameters:    Size  Location     Type
  2307 ;;		None
  2308 ;; Auto vars:     Size  Location     Type
  2309 ;;		None
  2310 ;; Return value:  Size  Location     Type
  2311 ;;                  1    wreg      unsigned char 
  2312 ;; Registers used:
  2313 ;;		wreg, status,2, status,0, pclath, cstack
  2314 ;; Tracked objects:
  2315 ;;		On entry : 0/0
  2316 ;;		On exit  : 0/0
  2317 ;;		Unchanged: 0/0
  2318 ;; Data sizes:     COMMON   BANK0   BANK1   BANK3   BANK2
  2319 ;;      Params:         0       0       0       0       0
  2320 ;;      Locals:         0       0       0       0       0
  2321 ;;      Temps:          0       0       0       0       0
  2322 ;;      Totals:         0       0       0       0       0
  2323 ;;Total ram usage:        0 bytes
  2324 ;; Hardware stack levels used: 1
  2325 ;; Hardware stack levels required when called: 1
  2326 ;; This function calls:
  2327 ;;		_spiReceiveWait
  2328 ;; This function is called by:
  2329 ;;		_main
  2330 ;; This function uses a non-reentrant model
  2331 ;;
  2332                           
  2333                           
  2334                           ;psect for function _spiRead
  2335  1095                     _spiRead:
  2336  1095                     l2860:	
  2337                           ;incstack = 0
  2338                           ; Regs used in _spiRead: [wreg+status,2+status,0+pclath+cstack]
  2339                           
  2340                           
  2341                           ;spi.c: 49:     spiReceiveWait();
  2342  1095  160A  118A  2086  160A  118A  	fcall	_spiReceiveWait
  2343  109A                     l2862:
  2344                           
  2345                           ;spi.c: 50:     return(SSPBUF);
  2346  109A  1283               	bcf	3,5	;RP0=0, select bank0
  2347  109B  1303               	bcf	3,6	;RP1=0, select bank0
  2348  109C  0813               	movf	19,w	;volatile
  2349  109D                     l150:
  2350  109D  0008               	return
  2351  109E                     __end_of_spiRead:
  2352                           
  2353                           	psect	text6
  2354  1086                     __ptext6:	
  2355 ;; *************** function _spiReceiveWait *****************
  2356 ;; Defined at:
  2357 ;;		line 29 in file "spi.c"
  2358 ;; Parameters:    Size  Location     Type
  2359 ;;		None
  2360 ;; Auto vars:     Size  Location     Type
  2361 ;;		None
  2362 ;; Return value:  Size  Location     Type
  2363 ;;                  1    wreg      void 
  2364 ;; Registers used:
  2365 ;;		None
  2366 ;; Tracked objects:
  2367 ;;		On entry : 0/0
  2368 ;;		On exit  : 0/0
  2369 ;;		Unchanged: 0/0
  2370 ;; Data sizes:     COMMON   BANK0   BANK1   BANK3   BANK2
  2371 ;;      Params:         0       0       0       0       0
  2372 ;;      Locals:         0       0       0       0       0
  2373 ;;      Temps:          0       0       0       0       0
  2374 ;;      Totals:         0       0       0       0       0
  2375 ;;Total ram usage:        0 bytes
  2376 ;; Hardware stack levels used: 1
  2377 ;; This function calls:
  2378 ;;		Nothing
  2379 ;; This function is called by:
  2380 ;;		_spiRead
  2381 ;; This function uses a non-reentrant model
  2382 ;;
  2383                           
  2384                           
  2385                           ;psect for function _spiReceiveWait
  2386  1086                     _spiReceiveWait:
  2387  1086                     l2674:	
  2388                           ;incstack = 0
  2389                           ; Regs used in _spiReceiveWait: []
  2390                           
  2391  1086                     l136:	
  2392                           ;spi.c: 31:     while ( !SSPSTATbits.BF );
  2393                           
  2394  1086  1683               	bsf	3,5	;RP0=1, select bank1
  2395  1087  1303               	bcf	3,6	;RP1=0, select bank1
  2396  1088  1C14               	btfss	20,0	;volatile
  2397  1089  288B               	goto	u3871
  2398  108A  288C               	goto	u3870
  2399  108B                     u3871:
  2400  108B  2886               	goto	l136
  2401  108C                     u3870:
  2402  108C                     l139:
  2403  108C  0008               	return
  2404  108D                     __end_of_spiReceiveWait:
  2405                           
  2406                           	psect	text7
  2407  10CB                     __ptext7:	
  2408 ;; *************** function _spiInit *****************
  2409 ;; Defined at:
  2410 ;;		line 12 in file "spi.c"
  2411 ;; Parameters:    Size  Location     Type
  2412 ;;  sType           1    wreg     enum E850
  2413 ;;  sDataSample     1    0[COMMON] enum E858
  2414 ;;  sClockIdle      1    1[COMMON] enum E862
  2415 ;;  sTransmitEdg    1    2[COMMON] enum E866
  2416 ;; Auto vars:     Size  Location     Type
  2417 ;;  sType           1    3[COMMON] enum E850
  2418 ;; Return value:  Size  Location     Type
  2419 ;;                  1    wreg      void 
  2420 ;; Registers used:
  2421 ;;		wreg, status,2, status,0
  2422 ;; Tracked objects:
  2423 ;;		On entry : 0/0
  2424 ;;		On exit  : 0/0
  2425 ;;		Unchanged: 0/0
  2426 ;; Data sizes:     COMMON   BANK0   BANK1   BANK3   BANK2
  2427 ;;      Params:         3       0       0       0       0
  2428 ;;      Locals:         1       0       0       0       0
  2429 ;;      Temps:          0       0       0       0       0
  2430 ;;      Totals:         4       0       0       0       0
  2431 ;;Total ram usage:        4 bytes
  2432 ;; Hardware stack levels used: 1
  2433 ;; This function calls:
  2434 ;;		Nothing
  2435 ;; This function is called by:
  2436 ;;		_main
  2437 ;; This function uses a non-reentrant model
  2438 ;;
  2439                           
  2440                           
  2441                           ;psect for function _spiInit
  2442  10CB                     _spiInit:
  2443                           
  2444                           ;incstack = 0
  2445                           ; Regs used in _spiInit: [wreg+status,2+status,0]
  2446                           ;spiInit@sType stored from wreg
  2447  10CB  00F3               	movwf	spiInit@sType
  2448  10CC                     l2848:
  2449                           
  2450                           ;spi.c: 12: void spiInit(Spi_Type sType, Spi_Data_Sample sDataSample, Spi_Clock_Idle sCl
      +                          ockIdle, Spi_Transmit_Edge sTransmitEdge);spi.c: 13: {;spi.c: 14:     TRISC5 = 0;
  2451  10CC  1683               	bsf	3,5	;RP0=1, select bank1
  2452  10CD  1303               	bcf	3,6	;RP1=0, select bank1
  2453  10CE  1287               	bcf	7,5	;volatile
  2454                           
  2455                           ;spi.c: 15:     if(sType & 0b00000100)
  2456  10CF  1D73               	btfss	spiInit@sType,2
  2457  10D0  28D2               	goto	u4301
  2458  10D1  28D3               	goto	u4300
  2459  10D2                     u4301:
  2460  10D2  28D7               	goto	l2854
  2461  10D3                     u4300:
  2462  10D3                     l2850:
  2463                           
  2464                           ;spi.c: 16:     {;spi.c: 17:         SSPSTAT = sTransmitEdge;
  2465  10D3  0872               	movf	spiInit@sTransmitEdge,w
  2466  10D4  0094               	movwf	20	;volatile
  2467  10D5                     l2852:
  2468                           
  2469                           ;spi.c: 18:         TRISC3 = 1;
  2470  10D5  1587               	bsf	7,3	;volatile
  2471                           
  2472                           ;spi.c: 19:     }
  2473  10D6  28DB               	goto	l132
  2474  10D7                     l2854:
  2475                           
  2476                           ;spi.c: 21:     {;spi.c: 22:         SSPSTAT = sDataSample | sTransmitEdge;
  2477  10D7  0870               	movf	spiInit@sDataSample,w
  2478  10D8  0472               	iorwf	spiInit@sTransmitEdge,w
  2479  10D9  0094               	movwf	20	;volatile
  2480  10DA                     l2856:
  2481                           
  2482                           ;spi.c: 23:         TRISC3 = 0;
  2483  10DA  1187               	bcf	7,3	;volatile
  2484  10DB                     l132:	
  2485                           ;spi.c: 24:     }
  2486                           
  2487                           
  2488                           ;spi.c: 26:     SSPCON = sType | sClockIdle;
  2489  10DB  0873               	movf	spiInit@sType,w
  2490  10DC  0471               	iorwf	spiInit@sClockIdle,w
  2491  10DD  1283               	bcf	3,5	;RP0=0, select bank0
  2492  10DE  1303               	bcf	3,6	;RP1=0, select bank0
  2493  10DF  0094               	movwf	20	;volatile
  2494  10E0                     l133:
  2495  10E0  0008               	return
  2496  10E1                     __end_of_spiInit:
  2497                           
  2498                           	psect	text8
  2499  08EB                     __ptext8:	
  2500 ;; *************** function _computeLyapunov *****************
  2501 ;; Defined at:
  2502 ;;		line 33 in file "newmain.c"
  2503 ;; Parameters:    Size  Location     Type
  2504 ;;  e2              4   30[BANK1 ] float 
  2505 ;;  e3              4   34[BANK1 ] float 
  2506 ;; Auto vars:     Size  Location     Type
  2507 ;;  v               4   54[BANK1 ] float 
  2508 ;;  omega           4   42[BANK1 ] float 
  2509 ;; Return value:  Size  Location     Type
  2510 ;;                  1    wreg      void 
  2511 ;; Registers used:
  2512 ;;		wreg, fsr0l, fsr0h, status,2, status,0, btemp+1, pclath, cstack
  2513 ;; Tracked objects:
  2514 ;;		On entry : 0/0
  2515 ;;		On exit  : 0/0
  2516 ;;		Unchanged: 0/0
  2517 ;; Data sizes:     COMMON   BANK0   BANK1   BANK3   BANK2
  2518 ;;      Params:         0       0       8       0       0
  2519 ;;      Locals:         0       0      20       0       0
  2520 ;;      Temps:          0       0       0       0       0
  2521 ;;      Totals:         0       0      28       0       0
  2522 ;;Total ram usage:       28 bytes
  2523 ;; Hardware stack levels used: 1
  2524 ;; Hardware stack levels required when called: 5
  2525 ;; This function calls:
  2526 ;;		___awdiv
  2527 ;;		___fladd
  2528 ;;		___flmul
  2529 ;;		___flsub
  2530 ;;		___fltol
  2531 ;;		___xxtofl
  2532 ;;		_cos
  2533 ;;		_sin
  2534 ;; This function is called by:
  2535 ;;		_main
  2536 ;; This function uses a non-reentrant model
  2537 ;;
  2538                           
  2539                           
  2540                           ;psect for function _computeLyapunov
  2541  08EB                     _computeLyapunov:
  2542  08EB                     l2842:	
  2543                           ;incstack = 0
  2544                           ; Regs used in _computeLyapunov: [wreg-fsr0h+status,2+status,0+btemp+1+pclath+cstack]
  2545                           
  2546                           
  2547                           ;newmain.c: 34:     float v, omega;;newmain.c: 35:     v = v_ref * cos(e3);
  2548  08EB  1683               	bsf	3,5	;RP0=1, select bank1
  2549  08EC  1303               	bcf	3,6	;RP1=0, select bank1
  2550  08ED  0845               	movf	(computeLyapunov@e3+3)^(0+128),w
  2551  08EE  00BD               	movwf	(cos@f+3)^(0+128)
  2552  08EF  0844               	movf	(computeLyapunov@e3+2)^(0+128),w
  2553  08F0  00BC               	movwf	(cos@f+2)^(0+128)
  2554  08F1  0843               	movf	(computeLyapunov@e3+1)^(0+128),w
  2555  08F2  00BB               	movwf	(cos@f+1)^(0+128)
  2556  08F3  0842               	movf	computeLyapunov@e3^(0+128),w
  2557  08F4  00BA               	movwf	cos@f^(0+128)
  2558  08F5  160A  118A  2508  120A  158A  	fcall	_cos
  2559  08FA  1683               	bsf	3,5	;RP0=1, select bank1
  2560  08FB  1303               	bcf	3,6	;RP1=0, select bank1
  2561  08FC  083D               	movf	(?_cos+3)^(0+128),w
  2562  08FD  00D1               	movwf	(_computeLyapunov$987+3)^(0+128)
  2563  08FE  083C               	movf	(?_cos+2)^(0+128),w
  2564  08FF  00D0               	movwf	(_computeLyapunov$987+2)^(0+128)
  2565  0900  083B               	movf	(?_cos+1)^(0+128),w
  2566  0901  00CF               	movwf	(_computeLyapunov$987+1)^(0+128)
  2567  0902  083A               	movf	?_cos^(0+128),w
  2568  0903  00CE               	movwf	_computeLyapunov$987^(0+128)
  2569  0904                     l2844:
  2570                           
  2571                           ;newmain.c: 34:     float v, omega;;newmain.c: 35:     v = v_ref * cos(e3);
  2572  0904  3044               	movlw	68
  2573  0905  1283               	bcf	3,5	;RP0=0, select bank0
  2574  0906  1303               	bcf	3,6	;RP1=0, select bank0
  2575  0907  00A3               	movwf	___flmul@b+3
  2576  0908  30E1               	movlw	225
  2577  0909  00A2               	movwf	___flmul@b+2
  2578  090A  3000               	movlw	0
  2579  090B  00A1               	movwf	___flmul@b+1
  2580  090C  3000               	movlw	0
  2581  090D  00A0               	movwf	___flmul@b
  2582  090E  1683               	bsf	3,5	;RP0=1, select bank1
  2583  090F  1303               	bcf	3,6	;RP1=0, select bank1
  2584  0910  0851               	movf	(_computeLyapunov$987+3)^(0+128),w
  2585  0911  1283               	bcf	3,5	;RP0=0, select bank0
  2586  0912  1303               	bcf	3,6	;RP1=0, select bank0
  2587  0913  00A7               	movwf	___flmul@a+3
  2588  0914  1683               	bsf	3,5	;RP0=1, select bank1
  2589  0915  1303               	bcf	3,6	;RP1=0, select bank1
  2590  0916  0850               	movf	(_computeLyapunov$987+2)^(0+128),w
  2591  0917  1283               	bcf	3,5	;RP0=0, select bank0
  2592  0918  1303               	bcf	3,6	;RP1=0, select bank0
  2593  0919  00A6               	movwf	___flmul@a+2
  2594  091A  1683               	bsf	3,5	;RP0=1, select bank1
  2595  091B  1303               	bcf	3,6	;RP1=0, select bank1
  2596  091C  084F               	movf	(_computeLyapunov$987+1)^(0+128),w
  2597  091D  1283               	bcf	3,5	;RP0=0, select bank0
  2598  091E  1303               	bcf	3,6	;RP1=0, select bank0
  2599  091F  00A5               	movwf	___flmul@a+1
  2600  0920  1683               	bsf	3,5	;RP0=1, select bank1
  2601  0921  1303               	bcf	3,6	;RP1=0, select bank1
  2602  0922  084E               	movf	_computeLyapunov$987^(0+128),w
  2603  0923  1283               	bcf	3,5	;RP0=0, select bank0
  2604  0924  1303               	bcf	3,6	;RP1=0, select bank0
  2605  0925  00A4               	movwf	___flmul@a
  2606  0926  120A  118A  2475  120A  158A  	fcall	___flmul
  2607  092B  1283               	bcf	3,5	;RP0=0, select bank0
  2608  092C  1303               	bcf	3,6	;RP1=0, select bank0
  2609  092D  0823               	movf	?___flmul+3,w
  2610  092E  1683               	bsf	3,5	;RP0=1, select bank1
  2611  092F  1303               	bcf	3,6	;RP1=0, select bank1
  2612  0930  00D9               	movwf	(computeLyapunov@v+3)^(0+128)
  2613  0931  1283               	bcf	3,5	;RP0=0, select bank0
  2614  0932  1303               	bcf	3,6	;RP1=0, select bank0
  2615  0933  0822               	movf	?___flmul+2,w
  2616  0934  1683               	bsf	3,5	;RP0=1, select bank1
  2617  0935  1303               	bcf	3,6	;RP1=0, select bank1
  2618  0936  00D8               	movwf	(computeLyapunov@v+2)^(0+128)
  2619  0937  1283               	bcf	3,5	;RP0=0, select bank0
  2620  0938  1303               	bcf	3,6	;RP1=0, select bank0
  2621  0939  0821               	movf	?___flmul+1,w
  2622  093A  1683               	bsf	3,5	;RP0=1, select bank1
  2623  093B  1303               	bcf	3,6	;RP1=0, select bank1
  2624  093C  00D7               	movwf	(computeLyapunov@v+1)^(0+128)
  2625  093D  1283               	bcf	3,5	;RP0=0, select bank0
  2626  093E  1303               	bcf	3,6	;RP1=0, select bank0
  2627  093F  0820               	movf	?___flmul,w
  2628  0940  1683               	bsf	3,5	;RP0=1, select bank1
  2629  0941  1303               	bcf	3,6	;RP1=0, select bank1
  2630  0942  00D6               	movwf	computeLyapunov@v^(0+128)
  2631  0943                     l2846:
  2632                           
  2633                           ;newmain.c: 36:     omega = k2 * v_ref * e2 + omega_ref + k3 * sin(e3);
  2634  0943  0845               	movf	(computeLyapunov@e3+3)^(0+128),w
  2635  0944  1283               	bcf	3,5	;RP0=0, select bank0
  2636  0945  1303               	bcf	3,6	;RP1=0, select bank0
  2637  0946  00EA               	movwf	sin@f+3
  2638  0947  1683               	bsf	3,5	;RP0=1, select bank1
  2639  0948  1303               	bcf	3,6	;RP1=0, select bank1
  2640  0949  0844               	movf	(computeLyapunov@e3+2)^(0+128),w
  2641  094A  1283               	bcf	3,5	;RP0=0, select bank0
  2642  094B  1303               	bcf	3,6	;RP1=0, select bank0
  2643  094C  00E9               	movwf	sin@f+2
  2644  094D  1683               	bsf	3,5	;RP0=1, select bank1
  2645  094E  1303               	bcf	3,6	;RP1=0, select bank1
  2646  094F  0843               	movf	(computeLyapunov@e3+1)^(0+128),w
  2647  0950  1283               	bcf	3,5	;RP0=0, select bank0
  2648  0951  1303               	bcf	3,6	;RP1=0, select bank0
  2649  0952  00E8               	movwf	sin@f+1
  2650  0953  1683               	bsf	3,5	;RP0=1, select bank1
  2651  0954  1303               	bcf	3,6	;RP1=0, select bank1
  2652  0955  0842               	movf	computeLyapunov@e3^(0+128),w
  2653  0956  1283               	bcf	3,5	;RP0=0, select bank0
  2654  0957  1303               	bcf	3,6	;RP1=0, select bank0
  2655  0958  00E7               	movwf	sin@f
  2656  0959  120A  158A  232A  120A  158A  	fcall	_sin
  2657  095E  1283               	bcf	3,5	;RP0=0, select bank0
  2658  095F  1303               	bcf	3,6	;RP1=0, select bank0
  2659  0960  086A               	movf	?_sin+3,w
  2660  0961  1683               	bsf	3,5	;RP0=1, select bank1
  2661  0962  1303               	bcf	3,6	;RP1=0, select bank1
  2662  0963  00D5               	movwf	(_computeLyapunov$988+3)^(0+128)
  2663  0964  1283               	bcf	3,5	;RP0=0, select bank0
  2664  0965  1303               	bcf	3,6	;RP1=0, select bank0
  2665  0966  0869               	movf	?_sin+2,w
  2666  0967  1683               	bsf	3,5	;RP0=1, select bank1
  2667  0968  1303               	bcf	3,6	;RP1=0, select bank1
  2668  0969  00D4               	movwf	(_computeLyapunov$988+2)^(0+128)
  2669  096A  1283               	bcf	3,5	;RP0=0, select bank0
  2670  096B  1303               	bcf	3,6	;RP1=0, select bank0
  2671  096C  0868               	movf	?_sin+1,w
  2672  096D  1683               	bsf	3,5	;RP0=1, select bank1
  2673  096E  1303               	bcf	3,6	;RP1=0, select bank1
  2674  096F  00D3               	movwf	(_computeLyapunov$988+1)^(0+128)
  2675  0970  1283               	bcf	3,5	;RP0=0, select bank0
  2676  0971  1303               	bcf	3,6	;RP1=0, select bank0
  2677  0972  0867               	movf	?_sin,w
  2678  0973  1683               	bsf	3,5	;RP0=1, select bank1
  2679  0974  1303               	bcf	3,6	;RP1=0, select bank1
  2680  0975  00D2               	movwf	_computeLyapunov$988^(0+128)
  2681                           
  2682                           ;newmain.c: 36:     omega = k2 * v_ref * e2 + omega_ref + k3 * sin(e3);
  2683  0976  3040               	movlw	64
  2684  0977  1283               	bcf	3,5	;RP0=0, select bank0
  2685  0978  1303               	bcf	3,6	;RP1=0, select bank0
  2686  0979  00B8               	movwf	___fladd@b+3
  2687  097A  3066               	movlw	102
  2688  097B  00B7               	movwf	___fladd@b+2
  2689  097C  3066               	movlw	102
  2690  097D  00B6               	movwf	___fladd@b+1
  2691  097E  3066               	movlw	102
  2692  097F  00B5               	movwf	___fladd@b
  2693  0980  303F               	movlw	63
  2694  0981  00A3               	movwf	___flmul@b+3
  2695  0982  3066               	movlw	102
  2696  0983  00A2               	movwf	___flmul@b+2
  2697  0984  3066               	movlw	102
  2698  0985  00A1               	movwf	___flmul@b+1
  2699  0986  3066               	movlw	102
  2700  0987  00A0               	movwf	___flmul@b
  2701  0988  1683               	bsf	3,5	;RP0=1, select bank1
  2702  0989  1303               	bcf	3,6	;RP1=0, select bank1
  2703  098A  0841               	movf	(computeLyapunov@e2+3)^(0+128),w
  2704  098B  1283               	bcf	3,5	;RP0=0, select bank0
  2705  098C  1303               	bcf	3,6	;RP1=0, select bank0
  2706  098D  00A7               	movwf	___flmul@a+3
  2707  098E  1683               	bsf	3,5	;RP0=1, select bank1
  2708  098F  1303               	bcf	3,6	;RP1=0, select bank1
  2709  0990  0840               	movf	(computeLyapunov@e2+2)^(0+128),w
  2710  0991  1283               	bcf	3,5	;RP0=0, select bank0
  2711  0992  1303               	bcf	3,6	;RP1=0, select bank0
  2712  0993  00A6               	movwf	___flmul@a+2
  2713  0994  1683               	bsf	3,5	;RP0=1, select bank1
  2714  0995  1303               	bcf	3,6	;RP1=0, select bank1
  2715  0996  083F               	movf	(computeLyapunov@e2+1)^(0+128),w
  2716  0997  1283               	bcf	3,5	;RP0=0, select bank0
  2717  0998  1303               	bcf	3,6	;RP1=0, select bank0
  2718  0999  00A5               	movwf	___flmul@a+1
  2719  099A  1683               	bsf	3,5	;RP0=1, select bank1
  2720  099B  1303               	bcf	3,6	;RP1=0, select bank1
  2721  099C  083E               	movf	computeLyapunov@e2^(0+128),w
  2722  099D  1283               	bcf	3,5	;RP0=0, select bank0
  2723  099E  1303               	bcf	3,6	;RP1=0, select bank0
  2724  099F  00A4               	movwf	___flmul@a
  2725  09A0  120A  118A  2475  120A  158A  	fcall	___flmul
  2726  09A5  1283               	bcf	3,5	;RP0=0, select bank0
  2727  09A6  1303               	bcf	3,6	;RP1=0, select bank0
  2728  09A7  0823               	movf	?___flmul+3,w
  2729  09A8  00BC               	movwf	___fladd@a+3
  2730  09A9  0822               	movf	?___flmul+2,w
  2731  09AA  00BB               	movwf	___fladd@a+2
  2732  09AB  0821               	movf	?___flmul+1,w
  2733  09AC  00BA               	movwf	___fladd@a+1
  2734  09AD  0820               	movf	?___flmul,w
  2735  09AE  00B9               	movwf	___fladd@a
  2736  09AF  120A  158A  2578  120A  158A  	fcall	___fladd
  2737  09B4  1283               	bcf	3,5	;RP0=0, select bank0
  2738  09B5  1303               	bcf	3,6	;RP1=0, select bank0
  2739  09B6  0838               	movf	?___fladd+3,w
  2740  09B7  1683               	bsf	3,5	;RP0=1, select bank1
  2741  09B8  1303               	bcf	3,6	;RP1=0, select bank1
  2742  09B9  00C9               	movwf	(_computeLyapunov$996+3)^(0+128)
  2743  09BA  1283               	bcf	3,5	;RP0=0, select bank0
  2744  09BB  1303               	bcf	3,6	;RP1=0, select bank0
  2745  09BC  0837               	movf	?___fladd+2,w
  2746  09BD  1683               	bsf	3,5	;RP0=1, select bank1
  2747  09BE  1303               	bcf	3,6	;RP1=0, select bank1
  2748  09BF  00C8               	movwf	(_computeLyapunov$996+2)^(0+128)
  2749  09C0  1283               	bcf	3,5	;RP0=0, select bank0
  2750  09C1  1303               	bcf	3,6	;RP1=0, select bank0
  2751  09C2  0836               	movf	?___fladd+1,w
  2752  09C3  1683               	bsf	3,5	;RP0=1, select bank1
  2753  09C4  1303               	bcf	3,6	;RP1=0, select bank1
  2754  09C5  00C7               	movwf	(_computeLyapunov$996+1)^(0+128)
  2755  09C6  1283               	bcf	3,5	;RP0=0, select bank0
  2756  09C7  1303               	bcf	3,6	;RP1=0, select bank0
  2757  09C8  0835               	movf	?___fladd,w
  2758  09C9  1683               	bsf	3,5	;RP0=1, select bank1
  2759  09CA  1303               	bcf	3,6	;RP1=0, select bank1
  2760  09CB  00C6               	movwf	_computeLyapunov$996^(0+128)
  2761                           
  2762                           ;newmain.c: 36:     omega = k2 * v_ref * e2 + omega_ref + k3 * sin(e3);
  2763  09CC  303C               	movlw	60
  2764  09CD  1283               	bcf	3,5	;RP0=0, select bank0
  2765  09CE  1303               	bcf	3,6	;RP1=0, select bank0
  2766  09CF  00A3               	movwf	___flmul@b+3
  2767  09D0  3023               	movlw	35
  2768  09D1  00A2               	movwf	___flmul@b+2
  2769  09D2  30D7               	movlw	215
  2770  09D3  00A1               	movwf	___flmul@b+1
  2771  09D4  300A               	movlw	10
  2772  09D5  00A0               	movwf	___flmul@b
  2773  09D6  1683               	bsf	3,5	;RP0=1, select bank1
  2774  09D7  1303               	bcf	3,6	;RP1=0, select bank1
  2775  09D8  0855               	movf	(_computeLyapunov$988+3)^(0+128),w
  2776  09D9  1283               	bcf	3,5	;RP0=0, select bank0
  2777  09DA  1303               	bcf	3,6	;RP1=0, select bank0
  2778  09DB  00A7               	movwf	___flmul@a+3
  2779  09DC  1683               	bsf	3,5	;RP0=1, select bank1
  2780  09DD  1303               	bcf	3,6	;RP1=0, select bank1
  2781  09DE  0854               	movf	(_computeLyapunov$988+2)^(0+128),w
  2782  09DF  1283               	bcf	3,5	;RP0=0, select bank0
  2783  09E0  1303               	bcf	3,6	;RP1=0, select bank0
  2784  09E1  00A6               	movwf	___flmul@a+2
  2785  09E2  1683               	bsf	3,5	;RP0=1, select bank1
  2786  09E3  1303               	bcf	3,6	;RP1=0, select bank1
  2787  09E4  0853               	movf	(_computeLyapunov$988+1)^(0+128),w
  2788  09E5  1283               	bcf	3,5	;RP0=0, select bank0
  2789  09E6  1303               	bcf	3,6	;RP1=0, select bank0
  2790  09E7  00A5               	movwf	___flmul@a+1
  2791  09E8  1683               	bsf	3,5	;RP0=1, select bank1
  2792  09E9  1303               	bcf	3,6	;RP1=0, select bank1
  2793  09EA  0852               	movf	_computeLyapunov$988^(0+128),w
  2794  09EB  1283               	bcf	3,5	;RP0=0, select bank0
  2795  09EC  1303               	bcf	3,6	;RP1=0, select bank0
  2796  09ED  00A4               	movwf	___flmul@a
  2797  09EE  120A  118A  2475  120A  158A  	fcall	___flmul
  2798  09F3  1283               	bcf	3,5	;RP0=0, select bank0
  2799  09F4  1303               	bcf	3,6	;RP1=0, select bank0
  2800  09F5  0823               	movf	?___flmul+3,w
  2801  09F6  00B8               	movwf	___fladd@b+3
  2802  09F7  0822               	movf	?___flmul+2,w
  2803  09F8  00B7               	movwf	___fladd@b+2
  2804  09F9  0821               	movf	?___flmul+1,w
  2805  09FA  00B6               	movwf	___fladd@b+1
  2806  09FB  0820               	movf	?___flmul,w
  2807  09FC  00B5               	movwf	___fladd@b
  2808  09FD  1683               	bsf	3,5	;RP0=1, select bank1
  2809  09FE  1303               	bcf	3,6	;RP1=0, select bank1
  2810  09FF  0849               	movf	(_computeLyapunov$996+3)^(0+128),w
  2811  0A00  1283               	bcf	3,5	;RP0=0, select bank0
  2812  0A01  1303               	bcf	3,6	;RP1=0, select bank0
  2813  0A02  00BC               	movwf	___fladd@a+3
  2814  0A03  1683               	bsf	3,5	;RP0=1, select bank1
  2815  0A04  1303               	bcf	3,6	;RP1=0, select bank1
  2816  0A05  0848               	movf	(_computeLyapunov$996+2)^(0+128),w
  2817  0A06  1283               	bcf	3,5	;RP0=0, select bank0
  2818  0A07  1303               	bcf	3,6	;RP1=0, select bank0
  2819  0A08  00BB               	movwf	___fladd@a+2
  2820  0A09  1683               	bsf	3,5	;RP0=1, select bank1
  2821  0A0A  1303               	bcf	3,6	;RP1=0, select bank1
  2822  0A0B  0847               	movf	(_computeLyapunov$996+1)^(0+128),w
  2823  0A0C  1283               	bcf	3,5	;RP0=0, select bank0
  2824  0A0D  1303               	bcf	3,6	;RP1=0, select bank0
  2825  0A0E  00BA               	movwf	___fladd@a+1
  2826  0A0F  1683               	bsf	3,5	;RP0=1, select bank1
  2827  0A10  1303               	bcf	3,6	;RP1=0, select bank1
  2828  0A11  0846               	movf	_computeLyapunov$996^(0+128),w
  2829  0A12  1283               	bcf	3,5	;RP0=0, select bank0
  2830  0A13  1303               	bcf	3,6	;RP1=0, select bank0
  2831  0A14  00B9               	movwf	___fladd@a
  2832  0A15  120A  158A  2578  120A  158A  	fcall	___fladd
  2833  0A1A  1283               	bcf	3,5	;RP0=0, select bank0
  2834  0A1B  1303               	bcf	3,6	;RP1=0, select bank0
  2835  0A1C  0838               	movf	?___fladd+3,w
  2836  0A1D  1683               	bsf	3,5	;RP0=1, select bank1
  2837  0A1E  1303               	bcf	3,6	;RP1=0, select bank1
  2838  0A1F  00CD               	movwf	(computeLyapunov@omega+3)^(0+128)
  2839  0A20  1283               	bcf	3,5	;RP0=0, select bank0
  2840  0A21  1303               	bcf	3,6	;RP1=0, select bank0
  2841  0A22  0837               	movf	?___fladd+2,w
  2842  0A23  1683               	bsf	3,5	;RP0=1, select bank1
  2843  0A24  1303               	bcf	3,6	;RP1=0, select bank1
  2844  0A25  00CC               	movwf	(computeLyapunov@omega+2)^(0+128)
  2845  0A26  1283               	bcf	3,5	;RP0=0, select bank0
  2846  0A27  1303               	bcf	3,6	;RP1=0, select bank0
  2847  0A28  0836               	movf	?___fladd+1,w
  2848  0A29  1683               	bsf	3,5	;RP0=1, select bank1
  2849  0A2A  1303               	bcf	3,6	;RP1=0, select bank1
  2850  0A2B  00CB               	movwf	(computeLyapunov@omega+1)^(0+128)
  2851  0A2C  1283               	bcf	3,5	;RP0=0, select bank0
  2852  0A2D  1303               	bcf	3,6	;RP1=0, select bank0
  2853  0A2E  0835               	movf	?___fladd,w
  2854  0A2F  1683               	bsf	3,5	;RP0=1, select bank1
  2855  0A30  1303               	bcf	3,6	;RP1=0, select bank1
  2856  0A31  00CA               	movwf	computeLyapunov@omega^(0+128)
  2857                           
  2858                           ;newmain.c: 38:     v_r = (int) (2 * v + omega * wheel_distance) / 2;
  2859  0A32  3002               	movlw	2
  2860  0A33  1283               	bcf	3,5	;RP0=0, select bank0
  2861  0A34  1303               	bcf	3,6	;RP1=0, select bank0
  2862  0A35  00DC               	movwf	___awdiv@divisor
  2863  0A36  3000               	movlw	0
  2864  0A37  00DD               	movwf	___awdiv@divisor+1
  2865  0A38  1683               	bsf	3,5	;RP0=1, select bank1
  2866  0A39  1303               	bcf	3,6	;RP1=0, select bank1
  2867  0A3A  0859               	movf	(computeLyapunov@v+3)^(0+128),w
  2868  0A3B  1283               	bcf	3,5	;RP0=0, select bank0
  2869  0A3C  1303               	bcf	3,6	;RP1=0, select bank0
  2870  0A3D  00A7               	movwf	___flmul@a+3
  2871  0A3E  1683               	bsf	3,5	;RP0=1, select bank1
  2872  0A3F  1303               	bcf	3,6	;RP1=0, select bank1
  2873  0A40  0858               	movf	(computeLyapunov@v+2)^(0+128),w
  2874  0A41  1283               	bcf	3,5	;RP0=0, select bank0
  2875  0A42  1303               	bcf	3,6	;RP1=0, select bank0
  2876  0A43  00A6               	movwf	___flmul@a+2
  2877  0A44  1683               	bsf	3,5	;RP0=1, select bank1
  2878  0A45  1303               	bcf	3,6	;RP1=0, select bank1
  2879  0A46  0857               	movf	(computeLyapunov@v+1)^(0+128),w
  2880  0A47  1283               	bcf	3,5	;RP0=0, select bank0
  2881  0A48  1303               	bcf	3,6	;RP1=0, select bank0
  2882  0A49  00A5               	movwf	___flmul@a+1
  2883  0A4A  1683               	bsf	3,5	;RP0=1, select bank1
  2884  0A4B  1303               	bcf	3,6	;RP1=0, select bank1
  2885  0A4C  0856               	movf	computeLyapunov@v^(0+128),w
  2886  0A4D  1283               	bcf	3,5	;RP0=0, select bank0
  2887  0A4E  1303               	bcf	3,6	;RP1=0, select bank0
  2888  0A4F  00A4               	movwf	___flmul@a
  2889  0A50  3040               	movlw	64
  2890  0A51  00A3               	movwf	___flmul@b+3
  2891  0A52  3000               	movlw	0
  2892  0A53  00A2               	movwf	___flmul@b+2
  2893  0A54  3000               	movlw	0
  2894  0A55  00A1               	movwf	___flmul@b+1
  2895  0A56  3000               	movlw	0
  2896  0A57  00A0               	movwf	___flmul@b
  2897  0A58  120A  118A  2475  120A  158A  	fcall	___flmul
  2898  0A5D  1283               	bcf	3,5	;RP0=0, select bank0
  2899  0A5E  1303               	bcf	3,6	;RP1=0, select bank0
  2900  0A5F  0823               	movf	?___flmul+3,w
  2901  0A60  00BC               	movwf	___fladd@a+3
  2902  0A61  0822               	movf	?___flmul+2,w
  2903  0A62  00BB               	movwf	___fladd@a+2
  2904  0A63  0821               	movf	?___flmul+1,w
  2905  0A64  00BA               	movwf	___fladd@a+1
  2906  0A65  0820               	movf	?___flmul,w
  2907  0A66  00B9               	movwf	___fladd@a
  2908  0A67  1683               	bsf	3,5	;RP0=1, select bank1
  2909  0A68  1303               	bcf	3,6	;RP1=0, select bank1
  2910  0A69  084D               	movf	(computeLyapunov@omega+3)^(0+128),w
  2911  0A6A  1283               	bcf	3,5	;RP0=0, select bank0
  2912  0A6B  1303               	bcf	3,6	;RP1=0, select bank0
  2913  0A6C  00A7               	movwf	___flmul@a+3
  2914  0A6D  1683               	bsf	3,5	;RP0=1, select bank1
  2915  0A6E  1303               	bcf	3,6	;RP1=0, select bank1
  2916  0A6F  084C               	movf	(computeLyapunov@omega+2)^(0+128),w
  2917  0A70  1283               	bcf	3,5	;RP0=0, select bank0
  2918  0A71  1303               	bcf	3,6	;RP1=0, select bank0
  2919  0A72  00A6               	movwf	___flmul@a+2
  2920  0A73  1683               	bsf	3,5	;RP0=1, select bank1
  2921  0A74  1303               	bcf	3,6	;RP1=0, select bank1
  2922  0A75  084B               	movf	(computeLyapunov@omega+1)^(0+128),w
  2923  0A76  1283               	bcf	3,5	;RP0=0, select bank0
  2924  0A77  1303               	bcf	3,6	;RP1=0, select bank0
  2925  0A78  00A5               	movwf	___flmul@a+1
  2926  0A79  1683               	bsf	3,5	;RP0=1, select bank1
  2927  0A7A  1303               	bcf	3,6	;RP1=0, select bank1
  2928  0A7B  084A               	movf	computeLyapunov@omega^(0+128),w
  2929  0A7C  1283               	bcf	3,5	;RP0=0, select bank0
  2930  0A7D  1303               	bcf	3,6	;RP1=0, select bank0
  2931  0A7E  00A4               	movwf	___flmul@a
  2932  0A7F  3043               	movlw	67
  2933  0A80  00A3               	movwf	___flmul@b+3
  2934  0A81  302A               	movlw	42
  2935  0A82  00A2               	movwf	___flmul@b+2
  2936  0A83  3000               	movlw	0
  2937  0A84  00A1               	movwf	___flmul@b+1
  2938  0A85  3000               	movlw	0
  2939  0A86  00A0               	movwf	___flmul@b
  2940  0A87  120A  118A  2475  120A  158A  	fcall	___flmul
  2941  0A8C  1283               	bcf	3,5	;RP0=0, select bank0
  2942  0A8D  1303               	bcf	3,6	;RP1=0, select bank0
  2943  0A8E  0823               	movf	?___flmul+3,w
  2944  0A8F  00B8               	movwf	___fladd@b+3
  2945  0A90  0822               	movf	?___flmul+2,w
  2946  0A91  00B7               	movwf	___fladd@b+2
  2947  0A92  0821               	movf	?___flmul+1,w
  2948  0A93  00B6               	movwf	___fladd@b+1
  2949  0A94  0820               	movf	?___flmul,w
  2950  0A95  00B5               	movwf	___fladd@b
  2951  0A96  120A  158A  2578  120A  158A  	fcall	___fladd
  2952  0A9B  1283               	bcf	3,5	;RP0=0, select bank0
  2953  0A9C  1303               	bcf	3,6	;RP1=0, select bank0
  2954  0A9D  0838               	movf	?___fladd+3,w
  2955  0A9E  00D4               	movwf	___fltol@f1+3
  2956  0A9F  0837               	movf	?___fladd+2,w
  2957  0AA0  00D3               	movwf	___fltol@f1+2
  2958  0AA1  0836               	movf	?___fladd+1,w
  2959  0AA2  00D2               	movwf	___fltol@f1+1
  2960  0AA3  0835               	movf	?___fladd,w
  2961  0AA4  00D1               	movwf	___fltol@f1
  2962  0AA5  160A  118A  22AF  120A  158A  	fcall	___fltol
  2963  0AAA  1283               	bcf	3,5	;RP0=0, select bank0
  2964  0AAB  1303               	bcf	3,6	;RP1=0, select bank0
  2965  0AAC  0852               	movf	?___fltol+1,w
  2966  0AAD  00DF               	movwf	___awdiv@dividend+1
  2967  0AAE  0851               	movf	?___fltol,w
  2968  0AAF  00DE               	movwf	___awdiv@dividend
  2969  0AB0  160A  118A  2246  120A  158A  	fcall	___awdiv
  2970  0AB5  1283               	bcf	3,5	;RP0=0, select bank0
  2971  0AB6  1303               	bcf	3,6	;RP1=0, select bank0
  2972  0AB7  085D               	movf	?___awdiv+1,w
  2973  0AB8  1683               	bsf	3,5	;RP0=1, select bank1
  2974  0AB9  1303               	bcf	3,6	;RP1=0, select bank1
  2975  0ABA  00EE               	movwf	(_v_r+1)^(0+128)
  2976  0ABB  1283               	bcf	3,5	;RP0=0, select bank0
  2977  0ABC  1303               	bcf	3,6	;RP1=0, select bank0
  2978  0ABD  085C               	movf	?___awdiv,w
  2979  0ABE  1683               	bsf	3,5	;RP0=1, select bank1
  2980  0ABF  1303               	bcf	3,6	;RP1=0, select bank1
  2981  0AC0  00ED               	movwf	_v_r^(0+128)
  2982                           
  2983                           ;newmain.c: 39:     v_l = (int) 2 * v - v_r;
  2984  0AC1  0859               	movf	(computeLyapunov@v+3)^(0+128),w
  2985  0AC2  1283               	bcf	3,5	;RP0=0, select bank0
  2986  0AC3  1303               	bcf	3,6	;RP1=0, select bank0
  2987  0AC4  00A7               	movwf	___flmul@a+3
  2988  0AC5  1683               	bsf	3,5	;RP0=1, select bank1
  2989  0AC6  1303               	bcf	3,6	;RP1=0, select bank1
  2990  0AC7  0858               	movf	(computeLyapunov@v+2)^(0+128),w
  2991  0AC8  1283               	bcf	3,5	;RP0=0, select bank0
  2992  0AC9  1303               	bcf	3,6	;RP1=0, select bank0
  2993  0ACA  00A6               	movwf	___flmul@a+2
  2994  0ACB  1683               	bsf	3,5	;RP0=1, select bank1
  2995  0ACC  1303               	bcf	3,6	;RP1=0, select bank1
  2996  0ACD  0857               	movf	(computeLyapunov@v+1)^(0+128),w
  2997  0ACE  1283               	bcf	3,5	;RP0=0, select bank0
  2998  0ACF  1303               	bcf	3,6	;RP1=0, select bank0
  2999  0AD0  00A5               	movwf	___flmul@a+1
  3000  0AD1  1683               	bsf	3,5	;RP0=1, select bank1
  3001  0AD2  1303               	bcf	3,6	;RP1=0, select bank1
  3002  0AD3  0856               	movf	computeLyapunov@v^(0+128),w
  3003  0AD4  1283               	bcf	3,5	;RP0=0, select bank0
  3004  0AD5  1303               	bcf	3,6	;RP1=0, select bank0
  3005  0AD6  00A4               	movwf	___flmul@a
  3006  0AD7  3040               	movlw	64
  3007  0AD8  00A3               	movwf	___flmul@b+3
  3008  0AD9  3000               	movlw	0
  3009  0ADA  00A2               	movwf	___flmul@b+2
  3010  0ADB  3000               	movlw	0
  3011  0ADC  00A1               	movwf	___flmul@b+1
  3012  0ADD  3000               	movlw	0
  3013  0ADE  00A0               	movwf	___flmul@b
  3014  0ADF  120A  118A  2475  120A  158A  	fcall	___flmul
  3015  0AE4  1283               	bcf	3,5	;RP0=0, select bank0
  3016  0AE5  1303               	bcf	3,6	;RP1=0, select bank0
  3017  0AE6  0823               	movf	?___flmul+3,w
  3018  0AE7  00D0               	movwf	___flsub@b+3
  3019  0AE8  0822               	movf	?___flmul+2,w
  3020  0AE9  00CF               	movwf	___flsub@b+2
  3021  0AEA  0821               	movf	?___flmul+1,w
  3022  0AEB  00CE               	movwf	___flsub@b+1
  3023  0AEC  0820               	movf	?___flmul,w
  3024  0AED  00CD               	movwf	___flsub@b
  3025  0AEE  1683               	bsf	3,5	;RP0=1, select bank1
  3026  0AEF  1303               	bcf	3,6	;RP1=0, select bank1
  3027  0AF0  086D               	movf	_v_r^(0+128),w
  3028  0AF1  00F0               	movwf	___xxtofl@val
  3029  0AF2  086E               	movf	(_v_r+1)^(0+128),w
  3030  0AF3  00F1               	movwf	___xxtofl@val+1
  3031  0AF4  3000               	movlw	0
  3032  0AF5  1BF1               	btfsc	___xxtofl@val+1,7
  3033  0AF6  30FF               	movlw	255
  3034  0AF7  00F2               	movwf	___xxtofl@val+2
  3035  0AF8  00F3               	movwf	___xxtofl@val+3
  3036  0AF9  3001               	movlw	1
  3037  0AFA  160A  118A  25AD  120A  158A  	fcall	___xxtofl
  3038  0AFF  0873               	movf	?___xxtofl+3,w
  3039  0B00  1283               	bcf	3,5	;RP0=0, select bank0
  3040  0B01  1303               	bcf	3,6	;RP1=0, select bank0
  3041  0B02  00CC               	movwf	___flsub@a+3
  3042  0B03  0872               	movf	?___xxtofl+2,w
  3043  0B04  00CB               	movwf	___flsub@a+2
  3044  0B05  0871               	movf	?___xxtofl+1,w
  3045  0B06  00CA               	movwf	___flsub@a+1
  3046  0B07  0870               	movf	?___xxtofl,w
  3047  0B08  00C9               	movwf	___flsub@a
  3048  0B09  160A  118A  2102  120A  158A  	fcall	___flsub
  3049  0B0E  1283               	bcf	3,5	;RP0=0, select bank0
  3050  0B0F  1303               	bcf	3,6	;RP1=0, select bank0
  3051  0B10  084C               	movf	?___flsub+3,w
  3052  0B11  00D4               	movwf	___fltol@f1+3
  3053  0B12  084B               	movf	?___flsub+2,w
  3054  0B13  00D3               	movwf	___fltol@f1+2
  3055  0B14  084A               	movf	?___flsub+1,w
  3056  0B15  00D2               	movwf	___fltol@f1+1
  3057  0B16  0849               	movf	?___flsub,w
  3058  0B17  00D1               	movwf	___fltol@f1
  3059  0B18  160A  118A  22AF  120A  158A  	fcall	___fltol
  3060  0B1D  1283               	bcf	3,5	;RP0=0, select bank0
  3061  0B1E  1303               	bcf	3,6	;RP1=0, select bank0
  3062  0B1F  0852               	movf	?___fltol+1,w
  3063  0B20  1683               	bsf	3,5	;RP0=1, select bank3
  3064  0B21  1703               	bsf	3,6	;RP1=1, select bank3
  3065  0B22  00AF               	movwf	(_v_l+1)^(0+384)
  3066  0B23  1283               	bcf	3,5	;RP0=0, select bank0
  3067  0B24  1303               	bcf	3,6	;RP1=0, select bank0
  3068  0B25  0851               	movf	?___fltol,w
  3069  0B26  1683               	bsf	3,5	;RP0=1, select bank3
  3070  0B27  1703               	bsf	3,6	;RP1=1, select bank3
  3071  0B28  00AE               	movwf	_v_l^(0+384)
  3072  0B29                     l108:
  3073  0B29  0008               	return
  3074  0B2A                     __end_of_computeLyapunov:
  3075                           
  3076                           	psect	text9
  3077  1508                     __ptext9:	
  3078 ;; *************** function _cos *****************
  3079 ;; Defined at:
  3080 ;;		line 13 in file "C:\Program Files\Microchip\xc8\v2.32\pic\sources\c90\common\cos.c"
  3081 ;; Parameters:    Size  Location     Type
  3082 ;;  f               4   26[BANK1 ] void 
  3083 ;; Auto vars:     Size  Location     Type
  3084 ;;		None
  3085 ;; Return value:  Size  Location     Type
  3086 ;;                  4   26[BANK1 ] void 
  3087 ;; Registers used:
  3088 ;;		wreg, fsr0l, fsr0h, status,2, status,0, btemp+1, pclath, cstack
  3089 ;; Tracked objects:
  3090 ;;		On entry : 0/0
  3091 ;;		On exit  : 0/0
  3092 ;;		Unchanged: 0/0
  3093 ;; Data sizes:     COMMON   BANK0   BANK1   BANK3   BANK2
  3094 ;;      Params:         0       0       4       0       0
  3095 ;;      Locals:         0       4       0       0       0
  3096 ;;      Temps:          0       0       0       0       0
  3097 ;;      Totals:         0       4       4       0       0
  3098 ;;Total ram usage:        8 bytes
  3099 ;; Hardware stack levels used: 1
  3100 ;; Hardware stack levels required when called: 4
  3101 ;; This function calls:
  3102 ;;		___fladd
  3103 ;;		___flge
  3104 ;;		_sin
  3105 ;; This function is called by:
  3106 ;;		_computeLyapunov
  3107 ;; This function uses a non-reentrant model
  3108 ;;
  3109                           
  3110                           
  3111                           ;psect for function _cos
  3112  1508                     _cos:
  3113  1508                     l2660:	
  3114                           ;incstack = 0
  3115                           ; Regs used in _cos: [wreg-fsr0h+status,2+status,0+btemp+1+pclath+cstack]
  3116                           
  3117  1508  3040               	movlw	64
  3118  1509  00F3               	movwf	___flge@ff1+3
  3119  150A  3049               	movlw	73
  3120  150B  00F2               	movwf	___flge@ff1+2
  3121  150C  300F               	movlw	15
  3122  150D  00F1               	movwf	___flge@ff1+1
  3123  150E  30DB               	movlw	219
  3124  150F  00F0               	movwf	___flge@ff1
  3125  1510  1683               	bsf	3,5	;RP0=1, select bank1
  3126  1511  1303               	bcf	3,6	;RP1=0, select bank1
  3127  1512  083D               	movf	(cos@f+3)^(0+128),w
  3128  1513  00F7               	movwf	___flge@ff2+3
  3129  1514  083C               	movf	(cos@f+2)^(0+128),w
  3130  1515  00F6               	movwf	___flge@ff2+2
  3131  1516  083B               	movf	(cos@f+1)^(0+128),w
  3132  1517  00F5               	movwf	___flge@ff2+1
  3133  1518  083A               	movf	cos@f^(0+128),w
  3134  1519  00F4               	movwf	___flge@ff2
  3135  151A  160A  118A  2466  160A  118A  	fcall	___flge
  3136  151F  1803               	btfsc	3,0
  3137  1520  2D22               	goto	u3861
  3138  1521  2D23               	goto	u3860
  3139  1522                     u3861:
  3140  1522  2D7A               	goto	l2668
  3141  1523                     u3860:
  3142  1523                     l2662:
  3143  1523  30C0               	movlw	192
  3144  1524  1283               	bcf	3,5	;RP0=0, select bank0
  3145  1525  1303               	bcf	3,6	;RP1=0, select bank0
  3146  1526  00B8               	movwf	___fladd@b+3
  3147  1527  3096               	movlw	150
  3148  1528  00B7               	movwf	___fladd@b+2
  3149  1529  30CB               	movlw	203
  3150  152A  00B6               	movwf	___fladd@b+1
  3151  152B  30E4               	movlw	228
  3152  152C  00B5               	movwf	___fladd@b
  3153  152D  1683               	bsf	3,5	;RP0=1, select bank1
  3154  152E  1303               	bcf	3,6	;RP1=0, select bank1
  3155  152F  083D               	movf	(cos@f+3)^(0+128),w
  3156  1530  1283               	bcf	3,5	;RP0=0, select bank0
  3157  1531  1303               	bcf	3,6	;RP1=0, select bank0
  3158  1532  00BC               	movwf	___fladd@a+3
  3159  1533  1683               	bsf	3,5	;RP0=1, select bank1
  3160  1534  1303               	bcf	3,6	;RP1=0, select bank1
  3161  1535  083C               	movf	(cos@f+2)^(0+128),w
  3162  1536  1283               	bcf	3,5	;RP0=0, select bank0
  3163  1537  1303               	bcf	3,6	;RP1=0, select bank0
  3164  1538  00BB               	movwf	___fladd@a+2
  3165  1539  1683               	bsf	3,5	;RP0=1, select bank1
  3166  153A  1303               	bcf	3,6	;RP1=0, select bank1
  3167  153B  083B               	movf	(cos@f+1)^(0+128),w
  3168  153C  1283               	bcf	3,5	;RP0=0, select bank0
  3169  153D  1303               	bcf	3,6	;RP1=0, select bank0
  3170  153E  00BA               	movwf	___fladd@a+1
  3171  153F  1683               	bsf	3,5	;RP0=1, select bank1
  3172  1540  1303               	bcf	3,6	;RP1=0, select bank1
  3173  1541  083A               	movf	cos@f^(0+128),w
  3174  1542  1283               	bcf	3,5	;RP0=0, select bank0
  3175  1543  1303               	bcf	3,6	;RP1=0, select bank0
  3176  1544  00B9               	movwf	___fladd@a
  3177  1545  120A  158A  2578  160A  118A  	fcall	___fladd
  3178  154A  1283               	bcf	3,5	;RP0=0, select bank0
  3179  154B  1303               	bcf	3,6	;RP1=0, select bank0
  3180  154C  0838               	movf	?___fladd+3,w
  3181  154D  00EF               	movwf	_cos$993+3
  3182  154E  0837               	movf	?___fladd+2,w
  3183  154F  00EE               	movwf	_cos$993+2
  3184  1550  0836               	movf	?___fladd+1,w
  3185  1551  00ED               	movwf	_cos$993+1
  3186  1552  0835               	movf	?___fladd,w
  3187  1553  00EC               	movwf	_cos$993
  3188  1554                     l2664:
  3189  1554  086F               	movf	_cos$993+3,w
  3190  1555  00EA               	movwf	sin@f+3
  3191  1556  086E               	movf	_cos$993+2,w
  3192  1557  00E9               	movwf	sin@f+2
  3193  1558  086D               	movf	_cos$993+1,w
  3194  1559  00E8               	movwf	sin@f+1
  3195  155A  086C               	movf	_cos$993,w
  3196  155B  00E7               	movwf	sin@f
  3197  155C  120A  158A  232A  160A  118A  	fcall	_sin
  3198  1561  1283               	bcf	3,5	;RP0=0, select bank0
  3199  1562  1303               	bcf	3,6	;RP1=0, select bank0
  3200  1563  086A               	movf	?_sin+3,w
  3201  1564  1683               	bsf	3,5	;RP0=1, select bank1
  3202  1565  1303               	bcf	3,6	;RP1=0, select bank1
  3203  1566  00BD               	movwf	(?_cos+3)^(0+128)
  3204  1567  1283               	bcf	3,5	;RP0=0, select bank0
  3205  1568  1303               	bcf	3,6	;RP1=0, select bank0
  3206  1569  0869               	movf	?_sin+2,w
  3207  156A  1683               	bsf	3,5	;RP0=1, select bank1
  3208  156B  1303               	bcf	3,6	;RP1=0, select bank1
  3209  156C  00BC               	movwf	(?_cos+2)^(0+128)
  3210  156D  1283               	bcf	3,5	;RP0=0, select bank0
  3211  156E  1303               	bcf	3,6	;RP1=0, select bank0
  3212  156F  0868               	movf	?_sin+1,w
  3213  1570  1683               	bsf	3,5	;RP0=1, select bank1
  3214  1571  1303               	bcf	3,6	;RP1=0, select bank1
  3215  1572  00BB               	movwf	(?_cos+1)^(0+128)
  3216  1573  1283               	bcf	3,5	;RP0=0, select bank0
  3217  1574  1303               	bcf	3,6	;RP1=0, select bank0
  3218  1575  0867               	movf	?_sin,w
  3219  1576  1683               	bsf	3,5	;RP0=1, select bank1
  3220  1577  1303               	bcf	3,6	;RP1=0, select bank1
  3221  1578  00BA               	movwf	?_cos^(0+128)
  3222  1579  2DAC               	goto	l718
  3223  157A                     l2668:
  3224  157A  303F               	movlw	63
  3225  157B  1283               	bcf	3,5	;RP0=0, select bank0
  3226  157C  1303               	bcf	3,6	;RP1=0, select bank0
  3227  157D  00B8               	movwf	___fladd@b+3
  3228  157E  30C9               	movlw	201
  3229  157F  00B7               	movwf	___fladd@b+2
  3230  1580  300F               	movlw	15
  3231  1581  00B6               	movwf	___fladd@b+1
  3232  1582  30DB               	movlw	219
  3233  1583  00B5               	movwf	___fladd@b
  3234  1584  1683               	bsf	3,5	;RP0=1, select bank1
  3235  1585  1303               	bcf	3,6	;RP1=0, select bank1
  3236  1586  083D               	movf	(cos@f+3)^(0+128),w
  3237  1587  1283               	bcf	3,5	;RP0=0, select bank0
  3238  1588  1303               	bcf	3,6	;RP1=0, select bank0
  3239  1589  00BC               	movwf	___fladd@a+3
  3240  158A  1683               	bsf	3,5	;RP0=1, select bank1
  3241  158B  1303               	bcf	3,6	;RP1=0, select bank1
  3242  158C  083C               	movf	(cos@f+2)^(0+128),w
  3243  158D  1283               	bcf	3,5	;RP0=0, select bank0
  3244  158E  1303               	bcf	3,6	;RP1=0, select bank0
  3245  158F  00BB               	movwf	___fladd@a+2
  3246  1590  1683               	bsf	3,5	;RP0=1, select bank1
  3247  1591  1303               	bcf	3,6	;RP1=0, select bank1
  3248  1592  083B               	movf	(cos@f+1)^(0+128),w
  3249  1593  1283               	bcf	3,5	;RP0=0, select bank0
  3250  1594  1303               	bcf	3,6	;RP1=0, select bank0
  3251  1595  00BA               	movwf	___fladd@a+1
  3252  1596  1683               	bsf	3,5	;RP0=1, select bank1
  3253  1597  1303               	bcf	3,6	;RP1=0, select bank1
  3254  1598  083A               	movf	cos@f^(0+128),w
  3255  1599  1283               	bcf	3,5	;RP0=0, select bank0
  3256  159A  1303               	bcf	3,6	;RP1=0, select bank0
  3257  159B  00B9               	movwf	___fladd@a
  3258  159C  120A  158A  2578  160A  118A  	fcall	___fladd
  3259  15A1  1283               	bcf	3,5	;RP0=0, select bank0
  3260  15A2  1303               	bcf	3,6	;RP1=0, select bank0
  3261  15A3  0838               	movf	?___fladd+3,w
  3262  15A4  00EF               	movwf	_cos$993+3
  3263  15A5  0837               	movf	?___fladd+2,w
  3264  15A6  00EE               	movwf	_cos$993+2
  3265  15A7  0836               	movf	?___fladd+1,w
  3266  15A8  00ED               	movwf	_cos$993+1
  3267  15A9  0835               	movf	?___fladd,w
  3268  15AA  00EC               	movwf	_cos$993
  3269  15AB  2D54               	goto	l2664
  3270  15AC                     l718:
  3271  15AC  0008               	return
  3272  15AD                     __end_of_cos:
  3273                           
  3274                           	psect	text10
  3275  0B2A                     __ptext10:	
  3276 ;; *************** function _sin *****************
  3277 ;; Defined at:
  3278 ;;		line 13 in file "C:\Program Files\Microchip\xc8\v2.32\pic\sources\c90\common\sin.c"
  3279 ;; Parameters:    Size  Location     Type
  3280 ;;  f               4   71[BANK0 ] void 
  3281 ;; Auto vars:     Size  Location     Type
  3282 ;;  x2              4   21[BANK1 ] void 
  3283 ;;  y               4   13[BANK1 ] void 
  3284 ;;  sgn             1   25[BANK1 ] unsigned char 
  3285 ;; Return value:  Size  Location     Type
  3286 ;;                  4   71[BANK0 ] unsigned char 
  3287 ;; Registers used:
  3288 ;;		wreg, fsr0l, fsr0h, status,2, status,0, btemp+1, pclath, cstack
  3289 ;; Tracked objects:
  3290 ;;		On entry : 0/0
  3291 ;;		On exit  : 0/0
  3292 ;;		Unchanged: 0/0
  3293 ;; Data sizes:     COMMON   BANK0   BANK1   BANK3   BANK2
  3294 ;;      Params:         0       4       0       0       0
  3295 ;;      Locals:         0       0      13       0       0
  3296 ;;      Temps:          0       1       0       0       0
  3297 ;;      Totals:         0       5      13       0       0
  3298 ;;Total ram usage:       18 bytes
  3299 ;; Hardware stack levels used: 1
  3300 ;; Hardware stack levels required when called: 3
  3301 ;; This function calls:
  3302 ;;		___fldiv
  3303 ;;		___flge
  3304 ;;		___flmul
  3305 ;;		___flneg
  3306 ;;		___flsub
  3307 ;;		_eval_poly
  3308 ;;		_floor
  3309 ;; This function is called by:
  3310 ;;		_computeLyapunov
  3311 ;;		_cos
  3312 ;; This function uses a non-reentrant model
  3313 ;;
  3314                           
  3315                           
  3316                           ;psect for function _sin
  3317  0B2A                     _sin:
  3318  0B2A                     l2622:	
  3319                           ;incstack = 0
  3320                           ; Regs used in _sin: [wreg-fsr0h+status,2+status,0+btemp+1+pclath+cstack]
  3321                           
  3322  0B2A  1683               	bsf	3,5	;RP0=1, select bank1
  3323  0B2B  1303               	bcf	3,6	;RP1=0, select bank1
  3324  0B2C  01B9               	clrf	sin@sgn^(0+128)
  3325  0B2D                     l2624:
  3326  0B2D  1283               	bcf	3,5	;RP0=0, select bank0
  3327  0B2E  1303               	bcf	3,6	;RP1=0, select bank0
  3328  0B2F  086A               	movf	sin@f+3,w
  3329  0B30  00F3               	movwf	___flge@ff1+3
  3330  0B31  0869               	movf	sin@f+2,w
  3331  0B32  00F2               	movwf	___flge@ff1+2
  3332  0B33  0868               	movf	sin@f+1,w
  3333  0B34  00F1               	movwf	___flge@ff1+1
  3334  0B35  0867               	movf	sin@f,w
  3335  0B36  00F0               	movwf	___flge@ff1
  3336  0B37  3000               	movlw	0
  3337  0B38  00F7               	movwf	___flge@ff2+3
  3338  0B39  3000               	movlw	0
  3339  0B3A  00F6               	movwf	___flge@ff2+2
  3340  0B3B  3000               	movlw	0
  3341  0B3C  00F5               	movwf	___flge@ff2+1
  3342  0B3D  3000               	movlw	0
  3343  0B3E  00F4               	movwf	___flge@ff2
  3344  0B3F  160A  118A  2466  120A  158A  	fcall	___flge
  3345  0B44  1803               	btfsc	3,0
  3346  0B45  2B47               	goto	u3791
  3347  0B46  2B48               	goto	u3790
  3348  0B47                     u3791:
  3349  0B47  2B65               	goto	l2630
  3350  0B48                     u3790:
  3351  0B48                     l2626:
  3352  0B48  1283               	bcf	3,5	;RP0=0, select bank0
  3353  0B49  1303               	bcf	3,6	;RP1=0, select bank0
  3354  0B4A  086A               	movf	sin@f+3,w
  3355  0B4B  00F3               	movwf	___flneg@f1+3
  3356  0B4C  0869               	movf	sin@f+2,w
  3357  0B4D  00F2               	movwf	___flneg@f1+2
  3358  0B4E  0868               	movf	sin@f+1,w
  3359  0B4F  00F1               	movwf	___flneg@f1+1
  3360  0B50  0867               	movf	sin@f,w
  3361  0B51  00F0               	movwf	___flneg@f1
  3362  0B52  120A  118A  2003  120A  158A  	fcall	___flneg
  3363  0B57  0873               	movf	?___flneg+3,w
  3364  0B58  1283               	bcf	3,5	;RP0=0, select bank0
  3365  0B59  1303               	bcf	3,6	;RP1=0, select bank0
  3366  0B5A  00EA               	movwf	sin@f+3
  3367  0B5B  0872               	movf	?___flneg+2,w
  3368  0B5C  00E9               	movwf	sin@f+2
  3369  0B5D  0871               	movf	?___flneg+1,w
  3370  0B5E  00E8               	movwf	sin@f+1
  3371  0B5F  0870               	movf	?___flneg,w
  3372  0B60  00E7               	movwf	sin@f
  3373  0B61                     l2628:
  3374  0B61  1683               	bsf	3,5	;RP0=1, select bank1
  3375  0B62  1303               	bcf	3,6	;RP1=0, select bank1
  3376  0B63  01B9               	clrf	sin@sgn^(0+128)
  3377  0B64  0AB9               	incf	sin@sgn^(0+128),f
  3378  0B65                     l2630:
  3379  0B65  303E               	movlw	62
  3380  0B66  1283               	bcf	3,5	;RP0=0, select bank0
  3381  0B67  1303               	bcf	3,6	;RP1=0, select bank0
  3382  0B68  00A3               	movwf	___flmul@b+3
  3383  0B69  3022               	movlw	34
  3384  0B6A  00A2               	movwf	___flmul@b+2
  3385  0B6B  30F9               	movlw	249
  3386  0B6C  00A1               	movwf	___flmul@b+1
  3387  0B6D  3083               	movlw	131
  3388  0B6E  00A0               	movwf	___flmul@b
  3389  0B6F  086A               	movf	sin@f+3,w
  3390  0B70  00A7               	movwf	___flmul@a+3
  3391  0B71  0869               	movf	sin@f+2,w
  3392  0B72  00A6               	movwf	___flmul@a+2
  3393  0B73  0868               	movf	sin@f+1,w
  3394  0B74  00A5               	movwf	___flmul@a+1
  3395  0B75  0867               	movf	sin@f,w
  3396  0B76  00A4               	movwf	___flmul@a
  3397  0B77  120A  118A  2475  120A  158A  	fcall	___flmul
  3398  0B7C  1283               	bcf	3,5	;RP0=0, select bank0
  3399  0B7D  1303               	bcf	3,6	;RP1=0, select bank0
  3400  0B7E  0823               	movf	?___flmul+3,w
  3401  0B7F  00EA               	movwf	sin@f+3
  3402  0B80  0822               	movf	?___flmul+2,w
  3403  0B81  00E9               	movwf	sin@f+2
  3404  0B82  0821               	movf	?___flmul+1,w
  3405  0B83  00E8               	movwf	sin@f+1
  3406  0B84  0820               	movf	?___flmul,w
  3407  0B85  00E7               	movwf	sin@f
  3408  0B86                     l2632:
  3409  0B86  086A               	movf	sin@f+3,w
  3410  0B87  00DF               	movwf	floor@x+3
  3411  0B88  0869               	movf	sin@f+2,w
  3412  0B89  00DE               	movwf	floor@x+2
  3413  0B8A  0868               	movf	sin@f+1,w
  3414  0B8B  00DD               	movwf	floor@x+1
  3415  0B8C  0867               	movf	sin@f,w
  3416  0B8D  00DC               	movwf	floor@x
  3417  0B8E  160A  118A  2667  120A  158A  	fcall	_floor
  3418  0B93  1283               	bcf	3,5	;RP0=0, select bank0
  3419  0B94  1303               	bcf	3,6	;RP1=0, select bank0
  3420  0B95  085F               	movf	?_floor+3,w
  3421  0B96  00CC               	movwf	___flsub@a+3
  3422  0B97  085E               	movf	?_floor+2,w
  3423  0B98  00CB               	movwf	___flsub@a+2
  3424  0B99  085D               	movf	?_floor+1,w
  3425  0B9A  00CA               	movwf	___flsub@a+1
  3426  0B9B  085C               	movf	?_floor,w
  3427  0B9C  00C9               	movwf	___flsub@a
  3428  0B9D  086A               	movf	sin@f+3,w
  3429  0B9E  00D0               	movwf	___flsub@b+3
  3430  0B9F  0869               	movf	sin@f+2,w
  3431  0BA0  00CF               	movwf	___flsub@b+2
  3432  0BA1  0868               	movf	sin@f+1,w
  3433  0BA2  00CE               	movwf	___flsub@b+1
  3434  0BA3  0867               	movf	sin@f,w
  3435  0BA4  00CD               	movwf	___flsub@b
  3436  0BA5  160A  118A  2102  120A  158A  	fcall	___flsub
  3437  0BAA  1283               	bcf	3,5	;RP0=0, select bank0
  3438  0BAB  1303               	bcf	3,6	;RP1=0, select bank0
  3439  0BAC  084C               	movf	?___flsub+3,w
  3440  0BAD  00EA               	movwf	sin@f+3
  3441  0BAE  084B               	movf	?___flsub+2,w
  3442  0BAF  00E9               	movwf	sin@f+2
  3443  0BB0  084A               	movf	?___flsub+1,w
  3444  0BB1  00E8               	movwf	sin@f+1
  3445  0BB2  0849               	movf	?___flsub,w
  3446  0BB3  00E7               	movwf	sin@f
  3447  0BB4                     l2634:
  3448  0BB4  3040               	movlw	64
  3449  0BB5  00A3               	movwf	___flmul@b+3
  3450  0BB6  3080               	movlw	128
  3451  0BB7  00A2               	movwf	___flmul@b+2
  3452  0BB8  3000               	movlw	0
  3453  0BB9  00A1               	movwf	___flmul@b+1
  3454  0BBA  3000               	movlw	0
  3455  0BBB  00A0               	movwf	___flmul@b
  3456  0BBC  086A               	movf	sin@f+3,w
  3457  0BBD  00A7               	movwf	___flmul@a+3
  3458  0BBE  0869               	movf	sin@f+2,w
  3459  0BBF  00A6               	movwf	___flmul@a+2
  3460  0BC0  0868               	movf	sin@f+1,w
  3461  0BC1  00A5               	movwf	___flmul@a+1
  3462  0BC2  0867               	movf	sin@f,w
  3463  0BC3  00A4               	movwf	___flmul@a
  3464  0BC4  120A  118A  2475  120A  158A  	fcall	___flmul
  3465  0BC9  1283               	bcf	3,5	;RP0=0, select bank0
  3466  0BCA  1303               	bcf	3,6	;RP1=0, select bank0
  3467  0BCB  0823               	movf	?___flmul+3,w
  3468  0BCC  00EA               	movwf	sin@f+3
  3469  0BCD  0822               	movf	?___flmul+2,w
  3470  0BCE  00E9               	movwf	sin@f+2
  3471  0BCF  0821               	movf	?___flmul+1,w
  3472  0BD0  00E8               	movwf	sin@f+1
  3473  0BD1  0820               	movf	?___flmul,w
  3474  0BD2  00E7               	movwf	sin@f
  3475  0BD3                     l2636:
  3476  0BD3  3040               	movlw	64
  3477  0BD4  00F3               	movwf	___flge@ff1+3
  3478  0BD5  3000               	movlw	0
  3479  0BD6  00F2               	movwf	___flge@ff1+2
  3480  0BD7  3000               	movlw	0
  3481  0BD8  00F1               	movwf	___flge@ff1+1
  3482  0BD9  3000               	movlw	0
  3483  0BDA  00F0               	movwf	___flge@ff1
  3484  0BDB  086A               	movf	sin@f+3,w
  3485  0BDC  00F7               	movwf	___flge@ff2+3
  3486  0BDD  0869               	movf	sin@f+2,w
  3487  0BDE  00F6               	movwf	___flge@ff2+2
  3488  0BDF  0868               	movf	sin@f+1,w
  3489  0BE0  00F5               	movwf	___flge@ff2+1
  3490  0BE1  0867               	movf	sin@f,w
  3491  0BE2  00F4               	movwf	___flge@ff2
  3492  0BE3  160A  118A  2466  120A  158A  	fcall	___flge
  3493  0BE8  1803               	btfsc	3,0
  3494  0BE9  2BEB               	goto	u3801
  3495  0BEA  2BEC               	goto	u3800
  3496  0BEB                     u3801:
  3497  0BEB  2C1D               	goto	l2642
  3498  0BEC                     u3800:
  3499  0BEC                     l2638:
  3500  0BEC  3040               	movlw	64
  3501  0BED  1283               	bcf	3,5	;RP0=0, select bank0
  3502  0BEE  1303               	bcf	3,6	;RP1=0, select bank0
  3503  0BEF  00CC               	movwf	___flsub@a+3
  3504  0BF0  3000               	movlw	0
  3505  0BF1  00CB               	movwf	___flsub@a+2
  3506  0BF2  3000               	movlw	0
  3507  0BF3  00CA               	movwf	___flsub@a+1
  3508  0BF4  3000               	movlw	0
  3509  0BF5  00C9               	movwf	___flsub@a
  3510  0BF6  086A               	movf	sin@f+3,w
  3511  0BF7  00D0               	movwf	___flsub@b+3
  3512  0BF8  0869               	movf	sin@f+2,w
  3513  0BF9  00CF               	movwf	___flsub@b+2
  3514  0BFA  0868               	movf	sin@f+1,w
  3515  0BFB  00CE               	movwf	___flsub@b+1
  3516  0BFC  0867               	movf	sin@f,w
  3517  0BFD  00CD               	movwf	___flsub@b
  3518  0BFE  160A  118A  2102  120A  158A  	fcall	___flsub
  3519  0C03  1283               	bcf	3,5	;RP0=0, select bank0
  3520  0C04  1303               	bcf	3,6	;RP1=0, select bank0
  3521  0C05  084C               	movf	?___flsub+3,w
  3522  0C06  00EA               	movwf	sin@f+3
  3523  0C07  084B               	movf	?___flsub+2,w
  3524  0C08  00E9               	movwf	sin@f+2
  3525  0C09  084A               	movf	?___flsub+1,w
  3526  0C0A  00E8               	movwf	sin@f+1
  3527  0C0B  0849               	movf	?___flsub,w
  3528  0C0C  00E7               	movwf	sin@f
  3529  0C0D                     l2640:
  3530  0C0D  1683               	bsf	3,5	;RP0=1, select bank1
  3531  0C0E  1303               	bcf	3,6	;RP1=0, select bank1
  3532  0C0F  0839               	movf	sin@sgn^(0+128),w
  3533  0C10  1903               	btfsc	3,2
  3534  0C11  2C13               	goto	u3811
  3535  0C12  2C15               	goto	u3810
  3536  0C13                     u3811:
  3537  0C13  3001               	movlw	1
  3538  0C14  2C16               	goto	u3820
  3539  0C15                     u3810:
  3540  0C15  3000               	movlw	0
  3541  0C16                     u3820:
  3542  0C16  1283               	bcf	3,5	;RP0=0, select bank0
  3543  0C17  1303               	bcf	3,6	;RP1=0, select bank0
  3544  0C18  00EB               	movwf	??_sin
  3545  0C19  086B               	movf	??_sin,w
  3546  0C1A  1683               	bsf	3,5	;RP0=1, select bank1
  3547  0C1B  1303               	bcf	3,6	;RP1=0, select bank1
  3548  0C1C  00B9               	movwf	sin@sgn^(0+128)
  3549  0C1D                     l2642:
  3550  0C1D  303F               	movlw	63
  3551  0C1E  00F3               	movwf	___flge@ff1+3
  3552  0C1F  3080               	movlw	128
  3553  0C20  00F2               	movwf	___flge@ff1+2
  3554  0C21  3000               	movlw	0
  3555  0C22  00F1               	movwf	___flge@ff1+1
  3556  0C23  3000               	movlw	0
  3557  0C24  00F0               	movwf	___flge@ff1
  3558  0C25  1283               	bcf	3,5	;RP0=0, select bank0
  3559  0C26  1303               	bcf	3,6	;RP1=0, select bank0
  3560  0C27  086A               	movf	sin@f+3,w
  3561  0C28  00F7               	movwf	___flge@ff2+3
  3562  0C29  0869               	movf	sin@f+2,w
  3563  0C2A  00F6               	movwf	___flge@ff2+2
  3564  0C2B  0868               	movf	sin@f+1,w
  3565  0C2C  00F5               	movwf	___flge@ff2+1
  3566  0C2D  0867               	movf	sin@f,w
  3567  0C2E  00F4               	movwf	___flge@ff2
  3568  0C2F  160A  118A  2466  120A  158A  	fcall	___flge
  3569  0C34  1803               	btfsc	3,0
  3570  0C35  2C37               	goto	u3831
  3571  0C36  2C38               	goto	u3830
  3572  0C37                     u3831:
  3573  0C37  2C59               	goto	l731
  3574  0C38                     u3830:
  3575  0C38                     l2644:
  3576  0C38  1283               	bcf	3,5	;RP0=0, select bank0
  3577  0C39  1303               	bcf	3,6	;RP1=0, select bank0
  3578  0C3A  086A               	movf	sin@f+3,w
  3579  0C3B  00CC               	movwf	___flsub@a+3
  3580  0C3C  0869               	movf	sin@f+2,w
  3581  0C3D  00CB               	movwf	___flsub@a+2
  3582  0C3E  0868               	movf	sin@f+1,w
  3583  0C3F  00CA               	movwf	___flsub@a+1
  3584  0C40  0867               	movf	sin@f,w
  3585  0C41  00C9               	movwf	___flsub@a
  3586  0C42  3040               	movlw	64
  3587  0C43  00D0               	movwf	___flsub@b+3
  3588  0C44  3000               	movlw	0
  3589  0C45  00CF               	movwf	___flsub@b+2
  3590  0C46  3000               	movlw	0
  3591  0C47  00CE               	movwf	___flsub@b+1
  3592  0C48  3000               	movlw	0
  3593  0C49  00CD               	movwf	___flsub@b
  3594  0C4A  160A  118A  2102  120A  158A  	fcall	___flsub
  3595  0C4F  1283               	bcf	3,5	;RP0=0, select bank0
  3596  0C50  1303               	bcf	3,6	;RP1=0, select bank0
  3597  0C51  084C               	movf	?___flsub+3,w
  3598  0C52  00EA               	movwf	sin@f+3
  3599  0C53  084B               	movf	?___flsub+2,w
  3600  0C54  00E9               	movwf	sin@f+2
  3601  0C55  084A               	movf	?___flsub+1,w
  3602  0C56  00E8               	movwf	sin@f+1
  3603  0C57  0849               	movf	?___flsub,w
  3604  0C58  00E7               	movwf	sin@f
  3605  0C59                     l731:
  3606  0C59  1283               	bcf	3,5	;RP0=0, select bank0
  3607  0C5A  1303               	bcf	3,6	;RP1=0, select bank0
  3608  0C5B  086A               	movf	sin@f+3,w
  3609  0C5C  00A3               	movwf	___flmul@b+3
  3610  0C5D  0869               	movf	sin@f+2,w
  3611  0C5E  00A2               	movwf	___flmul@b+2
  3612  0C5F  0868               	movf	sin@f+1,w
  3613  0C60  00A1               	movwf	___flmul@b+1
  3614  0C61  0867               	movf	sin@f,w
  3615  0C62  00A0               	movwf	___flmul@b
  3616  0C63  086A               	movf	sin@f+3,w
  3617  0C64  00A7               	movwf	___flmul@a+3
  3618  0C65  0869               	movf	sin@f+2,w
  3619  0C66  00A6               	movwf	___flmul@a+2
  3620  0C67  0868               	movf	sin@f+1,w
  3621  0C68  00A5               	movwf	___flmul@a+1
  3622  0C69  0867               	movf	sin@f,w
  3623  0C6A  00A4               	movwf	___flmul@a
  3624  0C6B  120A  118A  2475  120A  158A  	fcall	___flmul
  3625  0C70  1283               	bcf	3,5	;RP0=0, select bank0
  3626  0C71  1303               	bcf	3,6	;RP1=0, select bank0
  3627  0C72  0823               	movf	?___flmul+3,w
  3628  0C73  1683               	bsf	3,5	;RP0=1, select bank1
  3629  0C74  1303               	bcf	3,6	;RP1=0, select bank1
  3630  0C75  00B8               	movwf	(sin@x2+3)^(0+128)
  3631  0C76  1283               	bcf	3,5	;RP0=0, select bank0
  3632  0C77  1303               	bcf	3,6	;RP1=0, select bank0
  3633  0C78  0822               	movf	?___flmul+2,w
  3634  0C79  1683               	bsf	3,5	;RP0=1, select bank1
  3635  0C7A  1303               	bcf	3,6	;RP1=0, select bank1
  3636  0C7B  00B7               	movwf	(sin@x2+2)^(0+128)
  3637  0C7C  1283               	bcf	3,5	;RP0=0, select bank0
  3638  0C7D  1303               	bcf	3,6	;RP1=0, select bank0
  3639  0C7E  0821               	movf	?___flmul+1,w
  3640  0C7F  1683               	bsf	3,5	;RP0=1, select bank1
  3641  0C80  1303               	bcf	3,6	;RP1=0, select bank1
  3642  0C81  00B6               	movwf	(sin@x2+1)^(0+128)
  3643  0C82  1283               	bcf	3,5	;RP0=0, select bank0
  3644  0C83  1303               	bcf	3,6	;RP1=0, select bank0
  3645  0C84  0820               	movf	?___flmul,w
  3646  0C85  1683               	bsf	3,5	;RP0=1, select bank1
  3647  0C86  1303               	bcf	3,6	;RP1=0, select bank1
  3648  0C87  00B5               	movwf	sin@x2^(0+128)
  3649  0C88                     l2646:
  3650  0C88  0838               	movf	(sin@x2+3)^(0+128),w
  3651  0C89  1283               	bcf	3,5	;RP0=0, select bank0
  3652  0C8A  1303               	bcf	3,6	;RP1=0, select bank0
  3653  0C8B  00CC               	movwf	eval_poly@x+3
  3654  0C8C  1683               	bsf	3,5	;RP0=1, select bank1
  3655  0C8D  1303               	bcf	3,6	;RP1=0, select bank1
  3656  0C8E  0837               	movf	(sin@x2+2)^(0+128),w
  3657  0C8F  1283               	bcf	3,5	;RP0=0, select bank0
  3658  0C90  1303               	bcf	3,6	;RP1=0, select bank0
  3659  0C91  00CB               	movwf	eval_poly@x+2
  3660  0C92  1683               	bsf	3,5	;RP0=1, select bank1
  3661  0C93  1303               	bcf	3,6	;RP1=0, select bank1
  3662  0C94  0836               	movf	(sin@x2+1)^(0+128),w
  3663  0C95  1283               	bcf	3,5	;RP0=0, select bank0
  3664  0C96  1303               	bcf	3,6	;RP1=0, select bank0
  3665  0C97  00CA               	movwf	eval_poly@x+1
  3666  0C98  1683               	bsf	3,5	;RP0=1, select bank1
  3667  0C99  1303               	bcf	3,6	;RP1=0, select bank1
  3668  0C9A  0835               	movf	sin@x2^(0+128),w
  3669  0C9B  1283               	bcf	3,5	;RP0=0, select bank0
  3670  0C9C  1303               	bcf	3,6	;RP1=0, select bank0
  3671  0C9D  00C9               	movwf	eval_poly@x
  3672  0C9E  301F               	movlw	(low ((sin@coeff_b-__stringbase)| (0+32768)))& (0+255)
  3673  0C9F  00EB               	movwf	??_sin
  3674  0CA0  086B               	movf	??_sin,w
  3675  0CA1  00CD               	movwf	eval_poly@d
  3676  0CA2  3003               	movlw	3
  3677  0CA3  00CE               	movwf	eval_poly@n
  3678  0CA4  3000               	movlw	0
  3679  0CA5  00CF               	movwf	eval_poly@n+1
  3680  0CA6  160A  118A  23C8  120A  158A  	fcall	_eval_poly
  3681  0CAB  1283               	bcf	3,5	;RP0=0, select bank0
  3682  0CAC  1303               	bcf	3,6	;RP1=0, select bank0
  3683  0CAD  084C               	movf	?_eval_poly+3,w
  3684  0CAE  1683               	bsf	3,5	;RP0=1, select bank1
  3685  0CAF  1303               	bcf	3,6	;RP1=0, select bank1
  3686  0CB0  00B0               	movwf	(sin@y+3)^(0+128)
  3687  0CB1  1283               	bcf	3,5	;RP0=0, select bank0
  3688  0CB2  1303               	bcf	3,6	;RP1=0, select bank0
  3689  0CB3  084B               	movf	?_eval_poly+2,w
  3690  0CB4  1683               	bsf	3,5	;RP0=1, select bank1
  3691  0CB5  1303               	bcf	3,6	;RP1=0, select bank1
  3692  0CB6  00AF               	movwf	(sin@y+2)^(0+128)
  3693  0CB7  1283               	bcf	3,5	;RP0=0, select bank0
  3694  0CB8  1303               	bcf	3,6	;RP1=0, select bank0
  3695  0CB9  084A               	movf	?_eval_poly+1,w
  3696  0CBA  1683               	bsf	3,5	;RP0=1, select bank1
  3697  0CBB  1303               	bcf	3,6	;RP1=0, select bank1
  3698  0CBC  00AE               	movwf	(sin@y+1)^(0+128)
  3699  0CBD  1283               	bcf	3,5	;RP0=0, select bank0
  3700  0CBE  1303               	bcf	3,6	;RP1=0, select bank0
  3701  0CBF  0849               	movf	?_eval_poly,w
  3702  0CC0  1683               	bsf	3,5	;RP0=1, select bank1
  3703  0CC1  1303               	bcf	3,6	;RP1=0, select bank1
  3704  0CC2  00AD               	movwf	sin@y^(0+128)
  3705  0CC3                     l2648:
  3706  0CC3  3004               	movlw	4
  3707  0CC4  1283               	bcf	3,5	;RP0=0, select bank0
  3708  0CC5  1303               	bcf	3,6	;RP1=0, select bank0
  3709  0CC6  00CE               	movwf	eval_poly@n
  3710  0CC7  3000               	movlw	0
  3711  0CC8  00CF               	movwf	eval_poly@n+1
  3712  0CC9  300B               	movlw	(low ((sin@coeff_a-__stringbase)| (0+32768)))& (0+255)
  3713  0CCA  00EB               	movwf	??_sin
  3714  0CCB  086B               	movf	??_sin,w
  3715  0CCC  00CD               	movwf	eval_poly@d
  3716  0CCD  1683               	bsf	3,5	;RP0=1, select bank1
  3717  0CCE  1303               	bcf	3,6	;RP1=0, select bank1
  3718  0CCF  0838               	movf	(sin@x2+3)^(0+128),w
  3719  0CD0  1283               	bcf	3,5	;RP0=0, select bank0
  3720  0CD1  1303               	bcf	3,6	;RP1=0, select bank0
  3721  0CD2  00CC               	movwf	eval_poly@x+3
  3722  0CD3  1683               	bsf	3,5	;RP0=1, select bank1
  3723  0CD4  1303               	bcf	3,6	;RP1=0, select bank1
  3724  0CD5  0837               	movf	(sin@x2+2)^(0+128),w
  3725  0CD6  1283               	bcf	3,5	;RP0=0, select bank0
  3726  0CD7  1303               	bcf	3,6	;RP1=0, select bank0
  3727  0CD8  00CB               	movwf	eval_poly@x+2
  3728  0CD9  1683               	bsf	3,5	;RP0=1, select bank1
  3729  0CDA  1303               	bcf	3,6	;RP1=0, select bank1
  3730  0CDB  0836               	movf	(sin@x2+1)^(0+128),w
  3731  0CDC  1283               	bcf	3,5	;RP0=0, select bank0
  3732  0CDD  1303               	bcf	3,6	;RP1=0, select bank0
  3733  0CDE  00CA               	movwf	eval_poly@x+1
  3734  0CDF  1683               	bsf	3,5	;RP0=1, select bank1
  3735  0CE0  1303               	bcf	3,6	;RP1=0, select bank1
  3736  0CE1  0835               	movf	sin@x2^(0+128),w
  3737  0CE2  1283               	bcf	3,5	;RP0=0, select bank0
  3738  0CE3  1303               	bcf	3,6	;RP1=0, select bank0
  3739  0CE4  00C9               	movwf	eval_poly@x
  3740  0CE5  160A  118A  23C8  120A  158A  	fcall	_eval_poly
  3741  0CEA  1283               	bcf	3,5	;RP0=0, select bank0
  3742  0CEB  1303               	bcf	3,6	;RP1=0, select bank0
  3743  0CEC  084C               	movf	?_eval_poly+3,w
  3744  0CED  00E0               	movwf	___fldiv@b+3
  3745  0CEE  084B               	movf	?_eval_poly+2,w
  3746  0CEF  00DF               	movwf	___fldiv@b+2
  3747  0CF0  084A               	movf	?_eval_poly+1,w
  3748  0CF1  00DE               	movwf	___fldiv@b+1
  3749  0CF2  0849               	movf	?_eval_poly,w
  3750  0CF3  00DD               	movwf	___fldiv@b
  3751  0CF4  1683               	bsf	3,5	;RP0=1, select bank1
  3752  0CF5  1303               	bcf	3,6	;RP1=0, select bank1
  3753  0CF6  0830               	movf	(sin@y+3)^(0+128),w
  3754  0CF7  1283               	bcf	3,5	;RP0=0, select bank0
  3755  0CF8  1303               	bcf	3,6	;RP1=0, select bank0
  3756  0CF9  00DC               	movwf	___fldiv@a+3
  3757  0CFA  1683               	bsf	3,5	;RP0=1, select bank1
  3758  0CFB  1303               	bcf	3,6	;RP1=0, select bank1
  3759  0CFC  082F               	movf	(sin@y+2)^(0+128),w
  3760  0CFD  1283               	bcf	3,5	;RP0=0, select bank0
  3761  0CFE  1303               	bcf	3,6	;RP1=0, select bank0
  3762  0CFF  00DB               	movwf	___fldiv@a+2
  3763  0D00  1683               	bsf	3,5	;RP0=1, select bank1
  3764  0D01  1303               	bcf	3,6	;RP1=0, select bank1
  3765  0D02  082E               	movf	(sin@y+1)^(0+128),w
  3766  0D03  1283               	bcf	3,5	;RP0=0, select bank0
  3767  0D04  1303               	bcf	3,6	;RP1=0, select bank0
  3768  0D05  00DA               	movwf	___fldiv@a+1
  3769  0D06  1683               	bsf	3,5	;RP0=1, select bank1
  3770  0D07  1303               	bcf	3,6	;RP1=0, select bank1
  3771  0D08  082D               	movf	sin@y^(0+128),w
  3772  0D09  1283               	bcf	3,5	;RP0=0, select bank0
  3773  0D0A  1303               	bcf	3,6	;RP1=0, select bank0
  3774  0D0B  00D9               	movwf	___fldiv@a
  3775  0D0C  120A  118A  21D5  120A  158A  	fcall	___fldiv
  3776  0D11  1283               	bcf	3,5	;RP0=0, select bank0
  3777  0D12  1303               	bcf	3,6	;RP1=0, select bank0
  3778  0D13  085C               	movf	?___fldiv+3,w
  3779  0D14  1683               	bsf	3,5	;RP0=1, select bank1
  3780  0D15  1303               	bcf	3,6	;RP1=0, select bank1
  3781  0D16  00B4               	movwf	(_sin$994+3)^(0+128)
  3782  0D17  1283               	bcf	3,5	;RP0=0, select bank0
  3783  0D18  1303               	bcf	3,6	;RP1=0, select bank0
  3784  0D19  085B               	movf	?___fldiv+2,w
  3785  0D1A  1683               	bsf	3,5	;RP0=1, select bank1
  3786  0D1B  1303               	bcf	3,6	;RP1=0, select bank1
  3787  0D1C  00B3               	movwf	(_sin$994+2)^(0+128)
  3788  0D1D  1283               	bcf	3,5	;RP0=0, select bank0
  3789  0D1E  1303               	bcf	3,6	;RP1=0, select bank0
  3790  0D1F  085A               	movf	?___fldiv+1,w
  3791  0D20  1683               	bsf	3,5	;RP0=1, select bank1
  3792  0D21  1303               	bcf	3,6	;RP1=0, select bank1
  3793  0D22  00B2               	movwf	(_sin$994+1)^(0+128)
  3794  0D23  1283               	bcf	3,5	;RP0=0, select bank0
  3795  0D24  1303               	bcf	3,6	;RP1=0, select bank0
  3796  0D25  0859               	movf	?___fldiv,w
  3797  0D26  1683               	bsf	3,5	;RP0=1, select bank1
  3798  0D27  1303               	bcf	3,6	;RP1=0, select bank1
  3799  0D28  00B1               	movwf	_sin$994^(0+128)
  3800  0D29  0834               	movf	(_sin$994+3)^(0+128),w
  3801  0D2A  1283               	bcf	3,5	;RP0=0, select bank0
  3802  0D2B  1303               	bcf	3,6	;RP1=0, select bank0
  3803  0D2C  00A3               	movwf	___flmul@b+3
  3804  0D2D  1683               	bsf	3,5	;RP0=1, select bank1
  3805  0D2E  1303               	bcf	3,6	;RP1=0, select bank1
  3806  0D2F  0833               	movf	(_sin$994+2)^(0+128),w
  3807  0D30  1283               	bcf	3,5	;RP0=0, select bank0
  3808  0D31  1303               	bcf	3,6	;RP1=0, select bank0
  3809  0D32  00A2               	movwf	___flmul@b+2
  3810  0D33  1683               	bsf	3,5	;RP0=1, select bank1
  3811  0D34  1303               	bcf	3,6	;RP1=0, select bank1
  3812  0D35  0832               	movf	(_sin$994+1)^(0+128),w
  3813  0D36  1283               	bcf	3,5	;RP0=0, select bank0
  3814  0D37  1303               	bcf	3,6	;RP1=0, select bank0
  3815  0D38  00A1               	movwf	___flmul@b+1
  3816  0D39  1683               	bsf	3,5	;RP0=1, select bank1
  3817  0D3A  1303               	bcf	3,6	;RP1=0, select bank1
  3818  0D3B  0831               	movf	_sin$994^(0+128),w
  3819  0D3C  1283               	bcf	3,5	;RP0=0, select bank0
  3820  0D3D  1303               	bcf	3,6	;RP1=0, select bank0
  3821  0D3E  00A0               	movwf	___flmul@b
  3822  0D3F  086A               	movf	sin@f+3,w
  3823  0D40  00A7               	movwf	___flmul@a+3
  3824  0D41  0869               	movf	sin@f+2,w
  3825  0D42  00A6               	movwf	___flmul@a+2
  3826  0D43  0868               	movf	sin@f+1,w
  3827  0D44  00A5               	movwf	___flmul@a+1
  3828  0D45  0867               	movf	sin@f,w
  3829  0D46  00A4               	movwf	___flmul@a
  3830  0D47  120A  118A  2475  120A  158A  	fcall	___flmul
  3831  0D4C  1283               	bcf	3,5	;RP0=0, select bank0
  3832  0D4D  1303               	bcf	3,6	;RP1=0, select bank0
  3833  0D4E  0823               	movf	?___flmul+3,w
  3834  0D4F  00EA               	movwf	sin@f+3
  3835  0D50  0822               	movf	?___flmul+2,w
  3836  0D51  00E9               	movwf	sin@f+2
  3837  0D52  0821               	movf	?___flmul+1,w
  3838  0D53  00E8               	movwf	sin@f+1
  3839  0D54  0820               	movf	?___flmul,w
  3840  0D55  00E7               	movwf	sin@f
  3841  0D56                     l2650:
  3842  0D56  1683               	bsf	3,5	;RP0=1, select bank1
  3843  0D57  1303               	bcf	3,6	;RP1=0, select bank1
  3844  0D58  0839               	movf	sin@sgn^(0+128),w
  3845  0D59  1903               	btfsc	3,2
  3846  0D5A  2D5C               	goto	u3841
  3847  0D5B  2D5D               	goto	u3840
  3848  0D5C                     u3841:
  3849  0D5C  2D77               	goto	l732
  3850  0D5D                     u3840:
  3851  0D5D                     l2652:
  3852  0D5D  1283               	bcf	3,5	;RP0=0, select bank0
  3853  0D5E  1303               	bcf	3,6	;RP1=0, select bank0
  3854  0D5F  086A               	movf	sin@f+3,w
  3855  0D60  00F3               	movwf	___flneg@f1+3
  3856  0D61  0869               	movf	sin@f+2,w
  3857  0D62  00F2               	movwf	___flneg@f1+2
  3858  0D63  0868               	movf	sin@f+1,w
  3859  0D64  00F1               	movwf	___flneg@f1+1
  3860  0D65  0867               	movf	sin@f,w
  3861  0D66  00F0               	movwf	___flneg@f1
  3862  0D67  120A  118A  2003  120A  158A  	fcall	___flneg
  3863  0D6C  0873               	movf	?___flneg+3,w
  3864  0D6D  1283               	bcf	3,5	;RP0=0, select bank0
  3865  0D6E  1303               	bcf	3,6	;RP1=0, select bank0
  3866  0D6F  00EA               	movwf	?_sin+3
  3867  0D70  0872               	movf	?___flneg+2,w
  3868  0D71  00E9               	movwf	?_sin+2
  3869  0D72  0871               	movf	?___flneg+1,w
  3870  0D73  00E8               	movwf	?_sin+1
  3871  0D74  0870               	movf	?___flneg,w
  3872  0D75  00E7               	movwf	?_sin
  3873  0D76  2D77               	goto	l733
  3874  0D77                     l732:
  3875  0D77                     l733:
  3876  0D77  0008               	return
  3877  0D78                     __end_of_sin:
  3878                           
  3879                           	psect	text11
  3880  1667                     __ptext11:	
  3881 ;; *************** function _floor *****************
  3882 ;; Defined at:
  3883 ;;		line 13 in file "C:\Program Files\Microchip\xc8\v2.32\pic\sources\c90\common\floor.c"
  3884 ;; Parameters:    Size  Location     Type
  3885 ;;  x               4   60[BANK0 ] unsigned char 
  3886 ;; Auto vars:     Size  Location     Type
  3887 ;;  i               4   65[BANK0 ] unsigned char 
  3888 ;;  expon           2   69[BANK0 ] int 
  3889 ;; Return value:  Size  Location     Type
  3890 ;;                  4   60[BANK0 ] int 
  3891 ;; Registers used:
  3892 ;;		wreg, fsr0l, fsr0h, status,2, status,0, btemp+1, pclath, cstack
  3893 ;; Tracked objects:
  3894 ;;		On entry : 0/0
  3895 ;;		On exit  : 0/0
  3896 ;;		Unchanged: 0/0
  3897 ;; Data sizes:     COMMON   BANK0   BANK1   BANK3   BANK2
  3898 ;;      Params:         0       4       0       0       0
  3899 ;;      Locals:         0       6       0       0       0
  3900 ;;      Temps:          0       1       0       0       0
  3901 ;;      Totals:         0      11       0       0       0
  3902 ;;Total ram usage:       11 bytes
  3903 ;; Hardware stack levels used: 1
  3904 ;; Hardware stack levels required when called: 2
  3905 ;; This function calls:
  3906 ;;		___fladd
  3907 ;;		___flge
  3908 ;;		___fltol
  3909 ;;		___xxtofl
  3910 ;;		_frexp
  3911 ;; This function is called by:
  3912 ;;		_sin
  3913 ;; This function uses a non-reentrant model
  3914 ;;
  3915                           
  3916                           
  3917                           ;psect for function _floor
  3918  1667                     _floor:
  3919  1667                     l2584:	
  3920                           ;incstack = 0
  3921                           ; Regs used in _floor: [wreg-fsr0h+status,2+status,0+btemp+1+pclath+cstack]
  3922                           
  3923  1667  1283               	bcf	3,5	;RP0=0, select bank0
  3924  1668  1303               	bcf	3,6	;RP1=0, select bank0
  3925  1669  085F               	movf	floor@x+3,w
  3926  166A  00A3               	movwf	frexp@value+3
  3927  166B  085E               	movf	floor@x+2,w
  3928  166C  00A2               	movwf	frexp@value+2
  3929  166D  085D               	movf	floor@x+1,w
  3930  166E  00A1               	movwf	frexp@value+1
  3931  166F  085C               	movf	floor@x,w
  3932  1670  00A0               	movwf	frexp@value
  3933  1671  3065               	movlw	(low (floor@expon| 0))& (0+255)
  3934  1672  00E0               	movwf	??_floor
  3935  1673  0860               	movf	??_floor,w
  3936  1674  00A4               	movwf	frexp@eptr
  3937  1675  160A  118A  21F2  160A  118A  	fcall	_frexp
  3938  167A                     l2586:
  3939  167A  1283               	bcf	3,5	;RP0=0, select bank0
  3940  167B  1303               	bcf	3,6	;RP1=0, select bank0
  3941  167C  1FE6               	btfss	floor@expon+1,7
  3942  167D  2E7F               	goto	u3721
  3943  167E  2E80               	goto	u3720
  3944  167F                     u3721:
  3945  167F  2EAF               	goto	l2598
  3946  1680                     u3720:
  3947  1680                     l2588:
  3948  1680  085F               	movf	floor@x+3,w
  3949  1681  00F3               	movwf	___flge@ff1+3
  3950  1682  085E               	movf	floor@x+2,w
  3951  1683  00F2               	movwf	___flge@ff1+2
  3952  1684  085D               	movf	floor@x+1,w
  3953  1685  00F1               	movwf	___flge@ff1+1
  3954  1686  085C               	movf	floor@x,w
  3955  1687  00F0               	movwf	___flge@ff1
  3956  1688  3000               	movlw	0
  3957  1689  00F7               	movwf	___flge@ff2+3
  3958  168A  3000               	movlw	0
  3959  168B  00F6               	movwf	___flge@ff2+2
  3960  168C  3000               	movlw	0
  3961  168D  00F5               	movwf	___flge@ff2+1
  3962  168E  3000               	movlw	0
  3963  168F  00F4               	movwf	___flge@ff2
  3964  1690  160A  118A  2466  160A  118A  	fcall	___flge
  3965  1695  1803               	btfsc	3,0
  3966  1696  2E98               	goto	u3731
  3967  1697  2E99               	goto	u3730
  3968  1698                     u3731:
  3969  1698  2EA4               	goto	l2594
  3970  1699                     u3730:
  3971  1699                     l2590:
  3972  1699  30BF               	movlw	191
  3973  169A  1283               	bcf	3,5	;RP0=0, select bank0
  3974  169B  1303               	bcf	3,6	;RP1=0, select bank0
  3975  169C  00DF               	movwf	?_floor+3
  3976  169D  3080               	movlw	128
  3977  169E  00DE               	movwf	?_floor+2
  3978  169F  3000               	movlw	0
  3979  16A0  00DD               	movwf	?_floor+1
  3980  16A1  3000               	movlw	0
  3981  16A2  00DC               	movwf	?_floor
  3982  16A3  2F25               	goto	l746
  3983  16A4                     l2594:
  3984  16A4  3000               	movlw	0
  3985  16A5  1283               	bcf	3,5	;RP0=0, select bank0
  3986  16A6  1303               	bcf	3,6	;RP1=0, select bank0
  3987  16A7  00DF               	movwf	?_floor+3
  3988  16A8  3000               	movlw	0
  3989  16A9  00DE               	movwf	?_floor+2
  3990  16AA  3000               	movlw	0
  3991  16AB  00DD               	movwf	?_floor+1
  3992  16AC  3000               	movlw	0
  3993  16AD  00DC               	movwf	?_floor
  3994  16AE  2F25               	goto	l746
  3995  16AF                     l2598:
  3996  16AF  3000               	movlw	0
  3997  16B0  0266               	subwf	floor@expon+1,w
  3998  16B1  301D               	movlw	29
  3999  16B2  1903               	skipnz
  4000  16B3  0265               	subwf	floor@expon,w
  4001  16B4  1C03               	skipc
  4002  16B5  2EB7               	goto	u3741
  4003  16B6  2EB8               	goto	u3740
  4004  16B7                     u3741:
  4005  16B7  2EB9               	goto	l2602
  4006  16B8                     u3740:
  4007  16B8                     l2600:
  4008  16B8  2F25               	goto	l746
  4009  16B9                     l2602:
  4010  16B9  085F               	movf	floor@x+3,w
  4011  16BA  00D4               	movwf	___fltol@f1+3
  4012  16BB  085E               	movf	floor@x+2,w
  4013  16BC  00D3               	movwf	___fltol@f1+2
  4014  16BD  085D               	movf	floor@x+1,w
  4015  16BE  00D2               	movwf	___fltol@f1+1
  4016  16BF  085C               	movf	floor@x,w
  4017  16C0  00D1               	movwf	___fltol@f1
  4018  16C1  160A  118A  22AF  160A  118A  	fcall	___fltol
  4019  16C6  1283               	bcf	3,5	;RP0=0, select bank0
  4020  16C7  1303               	bcf	3,6	;RP1=0, select bank0
  4021  16C8  0854               	movf	?___fltol+3,w
  4022  16C9  00F3               	movwf	___xxtofl@val+3
  4023  16CA  0853               	movf	?___fltol+2,w
  4024  16CB  00F2               	movwf	___xxtofl@val+2
  4025  16CC  0852               	movf	?___fltol+1,w
  4026  16CD  00F1               	movwf	___xxtofl@val+1
  4027  16CE  0851               	movf	?___fltol,w
  4028  16CF  00F0               	movwf	___xxtofl@val
  4029  16D0  3001               	movlw	1
  4030  16D1  160A  118A  25AD  160A  118A  	fcall	___xxtofl
  4031  16D6  0873               	movf	?___xxtofl+3,w
  4032  16D7  1283               	bcf	3,5	;RP0=0, select bank0
  4033  16D8  1303               	bcf	3,6	;RP1=0, select bank0
  4034  16D9  00E4               	movwf	floor@i+3
  4035  16DA  0872               	movf	?___xxtofl+2,w
  4036  16DB  00E3               	movwf	floor@i+2
  4037  16DC  0871               	movf	?___xxtofl+1,w
  4038  16DD  00E2               	movwf	floor@i+1
  4039  16DE  0870               	movf	?___xxtofl,w
  4040  16DF  00E1               	movwf	floor@i
  4041  16E0  085F               	movf	floor@x+3,w
  4042  16E1  00F3               	movwf	___flge@ff1+3
  4043  16E2  085E               	movf	floor@x+2,w
  4044  16E3  00F2               	movwf	___flge@ff1+2
  4045  16E4  085D               	movf	floor@x+1,w
  4046  16E5  00F1               	movwf	___flge@ff1+1
  4047  16E6  085C               	movf	floor@x,w
  4048  16E7  00F0               	movwf	___flge@ff1
  4049  16E8  0864               	movf	floor@i+3,w
  4050  16E9  00F7               	movwf	___flge@ff2+3
  4051  16EA  0863               	movf	floor@i+2,w
  4052  16EB  00F6               	movwf	___flge@ff2+2
  4053  16EC  0862               	movf	floor@i+1,w
  4054  16ED  00F5               	movwf	___flge@ff2+1
  4055  16EE  0861               	movf	floor@i,w
  4056  16EF  00F4               	movwf	___flge@ff2
  4057  16F0  160A  118A  2466  160A  118A  	fcall	___flge
  4058  16F5  1803               	btfsc	3,0
  4059  16F6  2EF8               	goto	u3751
  4060  16F7  2EF9               	goto	u3750
  4061  16F8                     u3751:
  4062  16F8  2F1B               	goto	l2608
  4063  16F9                     u3750:
  4064  16F9                     l2604:
  4065  16F9  30BF               	movlw	191
  4066  16FA  1283               	bcf	3,5	;RP0=0, select bank0
  4067  16FB  1303               	bcf	3,6	;RP1=0, select bank0
  4068  16FC  00B8               	movwf	___fladd@b+3
  4069  16FD  3080               	movlw	128
  4070  16FE  00B7               	movwf	___fladd@b+2
  4071  16FF  3000               	movlw	0
  4072  1700  00B6               	movwf	___fladd@b+1
  4073  1701  3000               	movlw	0
  4074  1702  00B5               	movwf	___fladd@b
  4075  1703  0864               	movf	floor@i+3,w
  4076  1704  00BC               	movwf	___fladd@a+3
  4077  1705  0863               	movf	floor@i+2,w
  4078  1706  00BB               	movwf	___fladd@a+2
  4079  1707  0862               	movf	floor@i+1,w
  4080  1708  00BA               	movwf	___fladd@a+1
  4081  1709  0861               	movf	floor@i,w
  4082  170A  00B9               	movwf	___fladd@a
  4083  170B  120A  158A  2578  160A  118A  	fcall	___fladd
  4084  1710  1283               	bcf	3,5	;RP0=0, select bank0
  4085  1711  1303               	bcf	3,6	;RP1=0, select bank0
  4086  1712  0838               	movf	?___fladd+3,w
  4087  1713  00DF               	movwf	?_floor+3
  4088  1714  0837               	movf	?___fladd+2,w
  4089  1715  00DE               	movwf	?_floor+2
  4090  1716  0836               	movf	?___fladd+1,w
  4091  1717  00DD               	movwf	?_floor+1
  4092  1718  0835               	movf	?___fladd,w
  4093  1719  00DC               	movwf	?_floor
  4094  171A  2F25               	goto	l746
  4095  171B                     l2608:
  4096  171B  1283               	bcf	3,5	;RP0=0, select bank0
  4097  171C  1303               	bcf	3,6	;RP1=0, select bank0
  4098  171D  0864               	movf	floor@i+3,w
  4099  171E  00DF               	movwf	?_floor+3
  4100  171F  0863               	movf	floor@i+2,w
  4101  1720  00DE               	movwf	?_floor+2
  4102  1721  0862               	movf	floor@i+1,w
  4103  1722  00DD               	movwf	?_floor+1
  4104  1723  0861               	movf	floor@i,w
  4105  1724  00DC               	movwf	?_floor
  4106  1725                     l746:
  4107  1725  0008               	return
  4108  1726                     __end_of_floor:
  4109                           
  4110                           	psect	text12
  4111  11F2                     __ptext12:	
  4112 ;; *************** function _frexp *****************
  4113 ;; Defined at:
  4114 ;;		line 254 in file "C:\Program Files\Microchip\xc8\v2.32\pic\sources\c90\common\frexp.c"
  4115 ;; Parameters:    Size  Location     Type
  4116 ;;  value           4    0[BANK0 ] int 
  4117 ;;  eptr            1    4[BANK0 ] PTR int 
  4118 ;;		 -> floor@expon(2), 
  4119 ;; Auto vars:     Size  Location     Type
  4120 ;;		None
  4121 ;; Return value:  Size  Location     Type
  4122 ;;                  4    0[BANK0 ] PTR int 
  4123 ;; Registers used:
  4124 ;;		wreg, fsr0l, fsr0h, status,2, status,0, btemp+1, pclath, cstack
  4125 ;; Tracked objects:
  4126 ;;		On entry : 0/0
  4127 ;;		On exit  : 0/0
  4128 ;;		Unchanged: 0/0
  4129 ;; Data sizes:     COMMON   BANK0   BANK1   BANK3   BANK2
  4130 ;;      Params:         0       5       0       0       0
  4131 ;;      Locals:         0       0       0       0       0
  4132 ;;      Temps:          2       0       0       0       0
  4133 ;;      Totals:         2       5       0       0       0
  4134 ;;Total ram usage:        7 bytes
  4135 ;; Hardware stack levels used: 1
  4136 ;; Hardware stack levels required when called: 1
  4137 ;; This function calls:
  4138 ;;		___fleq
  4139 ;; This function is called by:
  4140 ;;		_floor
  4141 ;; This function uses a non-reentrant model
  4142 ;;
  4143                           
  4144                           
  4145                           ;psect for function _frexp
  4146  11F2                     _frexp:
  4147  11F2                     l2412:	
  4148                           ;incstack = 0
  4149                           ; Regs used in _frexp: [wreg-fsr0h+status,2+status,0+btemp+1+pclath+cstack]
  4150                           
  4151  11F2  1283               	bcf	3,5	;RP0=0, select bank0
  4152  11F3  1303               	bcf	3,6	;RP1=0, select bank0
  4153  11F4  0823               	movf	frexp@value+3,w
  4154  11F5  00F3               	movwf	___fleq@ff1+3
  4155  11F6  0822               	movf	frexp@value+2,w
  4156  11F7  00F2               	movwf	___fleq@ff1+2
  4157  11F8  0821               	movf	frexp@value+1,w
  4158  11F9  00F1               	movwf	___fleq@ff1+1
  4159  11FA  0820               	movf	frexp@value,w
  4160  11FB  00F0               	movwf	___fleq@ff1
  4161  11FC  3000               	movlw	0
  4162  11FD  00F7               	movwf	___fleq@ff2+3
  4163  11FE  3000               	movlw	0
  4164  11FF  00F6               	movwf	___fleq@ff2+2
  4165  1200  3000               	movlw	0
  4166  1201  00F5               	movwf	___fleq@ff2+1
  4167  1202  3000               	movlw	0
  4168  1203  00F4               	movwf	___fleq@ff2
  4169  1204  160A  118A  21A4  160A  118A  	fcall	___fleq
  4170  1209  1C03               	btfss	3,0
  4171  120A  2A0C               	goto	u3401
  4172  120B  2A0D               	goto	u3400
  4173  120C                     u3401:
  4174  120C  2A16               	goto	l2418
  4175  120D                     u3400:
  4176  120D                     l2414:
  4177  120D  1283               	bcf	3,5	;RP0=0, select bank0
  4178  120E  1303               	bcf	3,6	;RP1=0, select bank0
  4179  120F  0824               	movf	frexp@eptr,w
  4180  1210  0084               	movwf	4
  4181  1211  1383               	bcf	3,7	;select IRP bank0
  4182  1212  0180               	clrf	0
  4183  1213  0A84               	incf	4,f
  4184  1214  0180               	clrf	0
  4185  1215  2A45               	goto	l754
  4186  1216                     l2418:
  4187  1216  1283               	bcf	3,5	;RP0=0, select bank0
  4188  1217  1303               	bcf	3,6	;RP1=0, select bank0
  4189  1218  0823               	movf	frexp@value+3,w
  4190  1219  397F               	andlw	127
  4191  121A  00FC               	movwf	??_frexp
  4192  121B  01FD               	clrf	??_frexp+1
  4193  121C  1003               	clrc
  4194  121D  0DFC               	rlf	??_frexp,f
  4195  121E  0DFD               	rlf	??_frexp+1,f
  4196  121F  0824               	movf	frexp@eptr,w
  4197  1220  0084               	movwf	4
  4198  1221  087C               	movf	??_frexp,w
  4199  1222  1383               	bcf	3,7	;select IRP bank0
  4200  1223  0080               	movwf	0
  4201  1224  0A84               	incf	4,f
  4202  1225  087D               	movf	??_frexp+1,w
  4203  1226  0080               	movwf	0
  4204  1227  0D22               	rlf	frexp@value+2,w
  4205  1228  0D22               	rlf	frexp@value+2,w
  4206  1229  3901               	andlw	1
  4207  122A  00FC               	movwf	??_frexp
  4208  122B  01FD               	clrf	??_frexp+1
  4209  122C  0824               	movf	frexp@eptr,w
  4210  122D  0084               	movwf	4
  4211  122E  087C               	movf	??_frexp,w
  4212  122F  0480               	iorwf	0,f
  4213  1230  0A84               	incf	4,f
  4214  1231  087D               	movf	??_frexp+1,w
  4215  1232  0480               	iorwf	0,f
  4216  1233                     l2420:
  4217  1233  0824               	movf	frexp@eptr,w
  4218  1234  0084               	movwf	4
  4219  1235  3082               	movlw	130
  4220  1236  0780               	addwf	0,f
  4221  1237  0F84               	incfsz	4,f
  4222  1238  0800               	movf	0,w
  4223  1239  1803               	skipnc
  4224  123A  0A00               	incf	0,w
  4225  123B  00FF               	movwf	btemp+1
  4226  123C  30FF               	movlw	255
  4227  123D  077F               	addwf	btemp+1,w
  4228  123E  0080               	movwf	0
  4229  123F  0384               	decf	4,f
  4230  1240                     l2422:
  4231  1240  0823               	movf	frexp@value+3,w
  4232  1241  3980               	andlw	-128
  4233  1242  383F               	iorlw	63
  4234  1243  00A3               	movwf	frexp@value+3
  4235  1244                     l2424:
  4236  1244  13A2               	bcf	frexp@value+2,7
  4237  1245                     l754:
  4238  1245  0008               	return
  4239  1246                     __end_of_frexp:
  4240                           
  4241                           	psect	text13
  4242  11A4                     __ptext13:	
  4243 ;; *************** function ___fleq *****************
  4244 ;; Defined at:
  4245 ;;		line 4 in file "C:\Program Files\Microchip\xc8\v2.32\pic\sources\c90\common\fleq.c"
  4246 ;; Parameters:    Size  Location     Type
  4247 ;;  ff1             4    0[COMMON] PTR int 
  4248 ;;  ff2             4    4[COMMON] PTR int 
  4249 ;; Auto vars:     Size  Location     Type
  4250 ;;		None
  4251 ;; Return value:  Size  Location     Type
  4252 ;;		None               void
  4253 ;; Registers used:
  4254 ;;		wreg, status,2, status,0
  4255 ;; Tracked objects:
  4256 ;;		On entry : 0/0
  4257 ;;		On exit  : 0/0
  4258 ;;		Unchanged: 0/0
  4259 ;; Data sizes:     COMMON   BANK0   BANK1   BANK3   BANK2
  4260 ;;      Params:         8       0       0       0       0
  4261 ;;      Locals:         0       0       0       0       0
  4262 ;;      Temps:          4       0       0       0       0
  4263 ;;      Totals:        12       0       0       0       0
  4264 ;;Total ram usage:       12 bytes
  4265 ;; Hardware stack levels used: 1
  4266 ;; This function calls:
  4267 ;;		Nothing
  4268 ;; This function is called by:
  4269 ;;		_frexp
  4270 ;; This function uses a non-reentrant model
  4271 ;;
  4272                           
  4273                           
  4274                           ;psect for function ___fleq
  4275  11A4                     ___fleq:
  4276  11A4                     l1952:	
  4277                           ;incstack = 0
  4278                           ; Regs used in ___fleq: [wreg+status,2+status,0]
  4279                           
  4280  11A4  3000               	movlw	0
  4281  11A5  0570               	andwf	___fleq@ff1,w
  4282  11A6  00F8               	movwf	??___fleq
  4283  11A7  3000               	movlw	0
  4284  11A8  0571               	andwf	___fleq@ff1+1,w
  4285  11A9  00F9               	movwf	??___fleq+1
  4286  11AA  3080               	movlw	128
  4287  11AB  0572               	andwf	___fleq@ff1+2,w
  4288  11AC  00FA               	movwf	??___fleq+2
  4289  11AD  307F               	movlw	127
  4290  11AE  0573               	andwf	___fleq@ff1+3,w
  4291  11AF  00FB               	movwf	??___fleq+3
  4292  11B0  087B               	movf	??___fleq+3,w
  4293  11B1  047A               	iorwf	??___fleq+2,w
  4294  11B2  0479               	iorwf	??___fleq+1,w
  4295  11B3  0478               	iorwf	??___fleq,w
  4296  11B4  1D03               	skipz
  4297  11B5  29B7               	goto	u2201
  4298  11B6  29B8               	goto	u2200
  4299  11B7                     u2201:
  4300  11B7  29C0               	goto	l433
  4301  11B8                     u2200:
  4302  11B8                     l1954:
  4303  11B8  3000               	movlw	0
  4304  11B9  00F3               	movwf	___fleq@ff1+3
  4305  11BA  3000               	movlw	0
  4306  11BB  00F2               	movwf	___fleq@ff1+2
  4307  11BC  3000               	movlw	0
  4308  11BD  00F1               	movwf	___fleq@ff1+1
  4309  11BE  3000               	movlw	0
  4310  11BF  00F0               	movwf	___fleq@ff1
  4311  11C0                     l433:
  4312  11C0  3000               	movlw	0
  4313  11C1  0574               	andwf	___fleq@ff2,w
  4314  11C2  00F8               	movwf	??___fleq
  4315  11C3  3000               	movlw	0
  4316  11C4  0575               	andwf	___fleq@ff2+1,w
  4317  11C5  00F9               	movwf	??___fleq+1
  4318  11C6  3080               	movlw	128
  4319  11C7  0576               	andwf	___fleq@ff2+2,w
  4320  11C8  00FA               	movwf	??___fleq+2
  4321  11C9  307F               	movlw	127
  4322  11CA  0577               	andwf	___fleq@ff2+3,w
  4323  11CB  00FB               	movwf	??___fleq+3
  4324  11CC  087B               	movf	??___fleq+3,w
  4325  11CD  047A               	iorwf	??___fleq+2,w
  4326  11CE  0479               	iorwf	??___fleq+1,w
  4327  11CF  0478               	iorwf	??___fleq,w
  4328  11D0  1D03               	skipz
  4329  11D1  29D3               	goto	u2211
  4330  11D2  29D4               	goto	u2210
  4331  11D3                     u2211:
  4332  11D3  29DC               	goto	l434
  4333  11D4                     u2210:
  4334  11D4                     l1956:
  4335  11D4  3000               	movlw	0
  4336  11D5  00F7               	movwf	___fleq@ff2+3
  4337  11D6  3000               	movlw	0
  4338  11D7  00F6               	movwf	___fleq@ff2+2
  4339  11D8  3000               	movlw	0
  4340  11D9  00F5               	movwf	___fleq@ff2+1
  4341  11DA  3000               	movlw	0
  4342  11DB  00F4               	movwf	___fleq@ff2
  4343  11DC                     l434:
  4344  11DC  0877               	movf	___fleq@ff2+3,w
  4345  11DD  0673               	xorwf	___fleq@ff1+3,w
  4346  11DE  1D03               	skipz
  4347  11DF  29EA               	goto	u2225
  4348  11E0  0876               	movf	___fleq@ff2+2,w
  4349  11E1  0672               	xorwf	___fleq@ff1+2,w
  4350  11E2  1D03               	skipz
  4351  11E3  29EA               	goto	u2225
  4352  11E4  0875               	movf	___fleq@ff2+1,w
  4353  11E5  0671               	xorwf	___fleq@ff1+1,w
  4354  11E6  1D03               	skipz
  4355  11E7  29EA               	goto	u2225
  4356  11E8  0874               	movf	___fleq@ff2,w
  4357  11E9  0670               	xorwf	___fleq@ff1,w
  4358  11EA                     u2225:
  4359  11EA  1903               	skipnz
  4360  11EB  29ED               	goto	u2221
  4361  11EC  29EE               	goto	u2220
  4362  11ED                     u2221:
  4363  11ED  29F0               	goto	l1960
  4364  11EE                     u2220:
  4365  11EE                     l1958:
  4366  11EE  1003               	clrc
  4367  11EF  29F1               	goto	l435
  4368  11F0                     l1960:
  4369  11F0  1403               	setc
  4370  11F1                     l435:
  4371  11F1  0008               	return
  4372  11F2                     __end_of___fleq:
  4373                           
  4374                           	psect	text14
  4375  15AD                     __ptext14:	
  4376 ;; *************** function ___xxtofl *****************
  4377 ;; Defined at:
  4378 ;;		line 10 in file "C:\Program Files\Microchip\xc8\v2.32\pic\sources\c90\common\xxtofl.c"
  4379 ;; Parameters:    Size  Location     Type
  4380 ;;  sign            1    wreg     unsigned char 
  4381 ;;  val             4    0[COMMON] long 
  4382 ;; Auto vars:     Size  Location     Type
  4383 ;;  sign            1    8[COMMON] unsigned char 
  4384 ;;  arg             4   10[COMMON] unsigned long 
  4385 ;;  exp             1    9[COMMON] unsigned char 
  4386 ;; Return value:  Size  Location     Type
  4387 ;;                  4    0[COMMON] unsigned char 
  4388 ;; Registers used:
  4389 ;;		wreg, status,2, status,0
  4390 ;; Tracked objects:
  4391 ;;		On entry : 0/0
  4392 ;;		On exit  : 0/0
  4393 ;;		Unchanged: 0/0
  4394 ;; Data sizes:     COMMON   BANK0   BANK1   BANK3   BANK2
  4395 ;;      Params:         4       0       0       0       0
  4396 ;;      Locals:         6       0       0       0       0
  4397 ;;      Temps:          4       0       0       0       0
  4398 ;;      Totals:        14       0       0       0       0
  4399 ;;Total ram usage:       14 bytes
  4400 ;; Hardware stack levels used: 1
  4401 ;; This function calls:
  4402 ;;		Nothing
  4403 ;; This function is called by:
  4404 ;;		_computeLyapunov
  4405 ;;		_main
  4406 ;;		_floor
  4407 ;; This function uses a non-reentrant model
  4408 ;;
  4409                           
  4410                           
  4411                           ;psect for function ___xxtofl
  4412  15AD                     ___xxtofl:
  4413                           
  4414                           ;incstack = 0
  4415                           ; Regs used in ___xxtofl: [wreg+status,2+status,0]
  4416                           ;___xxtofl@sign stored from wreg
  4417  15AD  00F8               	movwf	___xxtofl@sign
  4418  15AE                     l2368:
  4419  15AE  0878               	movf	___xxtofl@sign,w
  4420  15AF  1903               	btfsc	3,2
  4421  15B0  2DB2               	goto	u3261
  4422  15B1  2DB3               	goto	u3260
  4423  15B2                     u3261:
  4424  15B2  2DC7               	goto	l2374
  4425  15B3                     u3260:
  4426  15B3                     l2370:
  4427  15B3  1FF3               	btfss	___xxtofl@val+3,7
  4428  15B4  2DB6               	goto	u3271
  4429  15B5  2DB7               	goto	u3270
  4430  15B6                     u3271:
  4431  15B6  2DC7               	goto	l2374
  4432  15B7                     u3270:
  4433  15B7                     l2372:
  4434  15B7  0970               	comf	___xxtofl@val,w
  4435  15B8  00FA               	movwf	___xxtofl@arg
  4436  15B9  0971               	comf	___xxtofl@val+1,w
  4437  15BA  00FB               	movwf	___xxtofl@arg+1
  4438  15BB  0972               	comf	___xxtofl@val+2,w
  4439  15BC  00FC               	movwf	___xxtofl@arg+2
  4440  15BD  0973               	comf	___xxtofl@val+3,w
  4441  15BE  00FD               	movwf	___xxtofl@arg+3
  4442  15BF  0AFA               	incf	___xxtofl@arg,f
  4443  15C0  1903               	skipnz
  4444  15C1  0AFB               	incf	___xxtofl@arg+1,f
  4445  15C2  1903               	skipnz
  4446  15C3  0AFC               	incf	___xxtofl@arg+2,f
  4447  15C4  1903               	skipnz
  4448  15C5  0AFD               	incf	___xxtofl@arg+3,f
  4449  15C6  2DCF               	goto	l697
  4450  15C7                     l2374:
  4451  15C7  0873               	movf	___xxtofl@val+3,w
  4452  15C8  00FD               	movwf	___xxtofl@arg+3
  4453  15C9  0872               	movf	___xxtofl@val+2,w
  4454  15CA  00FC               	movwf	___xxtofl@arg+2
  4455  15CB  0871               	movf	___xxtofl@val+1,w
  4456  15CC  00FB               	movwf	___xxtofl@arg+1
  4457  15CD  0870               	movf	___xxtofl@val,w
  4458  15CE  00FA               	movwf	___xxtofl@arg
  4459  15CF                     l697:
  4460  15CF  0873               	movf	___xxtofl@val+3,w
  4461  15D0  0472               	iorwf	___xxtofl@val+2,w
  4462  15D1  0471               	iorwf	___xxtofl@val+1,w
  4463  15D2  0470               	iorwf	___xxtofl@val,w
  4464  15D3  1D03               	skipz
  4465  15D4  2DD6               	goto	u3281
  4466  15D5  2DD7               	goto	u3280
  4467  15D6                     u3281:
  4468  15D6  2DE0               	goto	l2380
  4469  15D7                     u3280:
  4470  15D7                     l2376:
  4471  15D7  3000               	movlw	0
  4472  15D8  00F3               	movwf	?___xxtofl+3
  4473  15D9  3000               	movlw	0
  4474  15DA  00F2               	movwf	?___xxtofl+2
  4475  15DB  3000               	movlw	0
  4476  15DC  00F1               	movwf	?___xxtofl+1
  4477  15DD  3000               	movlw	0
  4478  15DE  00F0               	movwf	?___xxtofl
  4479  15DF  2E66               	goto	l699
  4480  15E0                     l2380:
  4481  15E0  3096               	movlw	150
  4482  15E1  00F4               	movwf	??___xxtofl
  4483  15E2  0874               	movf	??___xxtofl,w
  4484  15E3  00F9               	movwf	___xxtofl@exp
  4485  15E4  2DF2               	goto	l2384
  4486  15E5                     l2382:
  4487  15E5  3001               	movlw	1
  4488  15E6  00F4               	movwf	??___xxtofl
  4489  15E7  0874               	movf	??___xxtofl,w
  4490  15E8  07F9               	addwf	___xxtofl@exp,f
  4491  15E9  3001               	movlw	1
  4492  15EA                     u3295:
  4493  15EA  1003               	clrc
  4494  15EB  0CFD               	rrf	___xxtofl@arg+3,f
  4495  15EC  0CFC               	rrf	___xxtofl@arg+2,f
  4496  15ED  0CFB               	rrf	___xxtofl@arg+1,f
  4497  15EE  0CFA               	rrf	___xxtofl@arg,f
  4498  15EF  3EFF               	addlw	-1
  4499  15F0  1D03               	skipz
  4500  15F1  2DEA               	goto	u3295
  4501  15F2                     l2384:
  4502  15F2  30FE               	movlw	254
  4503  15F3  057D               	andwf	___xxtofl@arg+3,w
  4504  15F4  1D03               	btfss	3,2
  4505  15F5  2DF7               	goto	u3301
  4506  15F6  2DF8               	goto	u3300
  4507  15F7                     u3301:
  4508  15F7  2DE5               	goto	l2382
  4509  15F8                     u3300:
  4510  15F8  2E14               	goto	l703
  4511  15F9                     l2386:
  4512  15F9  3001               	movlw	1
  4513  15FA  00F4               	movwf	??___xxtofl
  4514  15FB  0874               	movf	??___xxtofl,w
  4515  15FC  07F9               	addwf	___xxtofl@exp,f
  4516  15FD                     l2388:
  4517  15FD  3001               	movlw	1
  4518  15FE  07FA               	addwf	___xxtofl@arg,f
  4519  15FF  3000               	movlw	0
  4520  1600  1803               	skipnc
  4521  1601  3001               	movlw	1
  4522  1602  07FB               	addwf	___xxtofl@arg+1,f
  4523  1603  3000               	movlw	0
  4524  1604  1803               	skipnc
  4525  1605  3001               	movlw	1
  4526  1606  07FC               	addwf	___xxtofl@arg+2,f
  4527  1607  3000               	movlw	0
  4528  1608  1803               	skipnc
  4529  1609  3001               	movlw	1
  4530  160A  07FD               	addwf	___xxtofl@arg+3,f
  4531  160B                     l2390:
  4532  160B  3001               	movlw	1
  4533  160C                     u3315:
  4534  160C  1003               	clrc
  4535  160D  0CFD               	rrf	___xxtofl@arg+3,f
  4536  160E  0CFC               	rrf	___xxtofl@arg+2,f
  4537  160F  0CFB               	rrf	___xxtofl@arg+1,f
  4538  1610  0CFA               	rrf	___xxtofl@arg,f
  4539  1611  3EFF               	addlw	-1
  4540  1612  1D03               	skipz
  4541  1613  2E0C               	goto	u3315
  4542  1614                     l703:
  4543  1614  30FF               	movlw	255
  4544  1615  057D               	andwf	___xxtofl@arg+3,w
  4545  1616  1D03               	btfss	3,2
  4546  1617  2E19               	goto	u3321
  4547  1618  2E1A               	goto	u3320
  4548  1619                     u3321:
  4549  1619  2DF9               	goto	l2386
  4550  161A                     u3320:
  4551  161A  2E26               	goto	l2394
  4552  161B                     l2392:
  4553  161B  3001               	movlw	1
  4554  161C  02F9               	subwf	___xxtofl@exp,f
  4555  161D  3001               	movlw	1
  4556  161E  00F4               	movwf	??___xxtofl
  4557  161F                     u3335:
  4558  161F  1003               	clrc
  4559  1620  0DFA               	rlf	___xxtofl@arg,f
  4560  1621  0DFB               	rlf	___xxtofl@arg+1,f
  4561  1622  0DFC               	rlf	___xxtofl@arg+2,f
  4562  1623  0DFD               	rlf	___xxtofl@arg+3,f
  4563  1624  0BF4               	decfsz	??___xxtofl,f
  4564  1625  2E1F               	goto	u3335
  4565  1626                     l2394:
  4566  1626  1BFC               	btfsc	___xxtofl@arg+2,7
  4567  1627  2E29               	goto	u3341
  4568  1628  2E2A               	goto	u3340
  4569  1629                     u3341:
  4570  1629  2E30               	goto	l710
  4571  162A                     u3340:
  4572  162A                     l2396:
  4573  162A  3002               	movlw	2
  4574  162B  0279               	subwf	___xxtofl@exp,w
  4575  162C  1803               	skipnc
  4576  162D  2E2F               	goto	u3351
  4577  162E  2E30               	goto	u3350
  4578  162F                     u3351:
  4579  162F  2E1B               	goto	l2392
  4580  1630                     u3350:
  4581  1630                     l710:
  4582  1630  1879               	btfsc	___xxtofl@exp,0
  4583  1631  2E33               	goto	u3361
  4584  1632  2E34               	goto	u3360
  4585  1633                     u3361:
  4586  1633  2E3C               	goto	l711
  4587  1634                     u3360:
  4588  1634                     l2398:
  4589  1634  30FF               	movlw	255
  4590  1635  05FA               	andwf	___xxtofl@arg,f
  4591  1636  30FF               	movlw	255
  4592  1637  05FB               	andwf	___xxtofl@arg+1,f
  4593  1638  307F               	movlw	127
  4594  1639  05FC               	andwf	___xxtofl@arg+2,f
  4595  163A  30FF               	movlw	255
  4596  163B  05FD               	andwf	___xxtofl@arg+3,f
  4597  163C                     l711:
  4598  163C  1003               	clrc
  4599  163D  0CF9               	rrf	___xxtofl@exp,f
  4600  163E                     l2400:
  4601  163E  0879               	movf	___xxtofl@exp,w
  4602  163F  00F4               	movwf	??___xxtofl
  4603  1640  01F5               	clrf	??___xxtofl+1
  4604  1641  01F6               	clrf	??___xxtofl+2
  4605  1642  01F7               	clrf	??___xxtofl+3
  4606  1643  3018               	movlw	24
  4607  1644                     u3375:
  4608  1644  1003               	clrc
  4609  1645  0DF4               	rlf	??___xxtofl,f
  4610  1646  0DF5               	rlf	??___xxtofl+1,f
  4611  1647  0DF6               	rlf	??___xxtofl+2,f
  4612  1648  0DF7               	rlf	??___xxtofl+3,f
  4613  1649                     u3370:
  4614  1649  3EFF               	addlw	-1
  4615  164A  1D03               	skipz
  4616  164B  2E44               	goto	u3375
  4617  164C  0874               	movf	??___xxtofl,w
  4618  164D  04FA               	iorwf	___xxtofl@arg,f
  4619  164E  0875               	movf	??___xxtofl+1,w
  4620  164F  04FB               	iorwf	___xxtofl@arg+1,f
  4621  1650  0876               	movf	??___xxtofl+2,w
  4622  1651  04FC               	iorwf	___xxtofl@arg+2,f
  4623  1652  0877               	movf	??___xxtofl+3,w
  4624  1653  04FD               	iorwf	___xxtofl@arg+3,f
  4625  1654                     l2402:
  4626  1654  0878               	movf	___xxtofl@sign,w
  4627  1655  1903               	btfsc	3,2
  4628  1656  2E58               	goto	u3381
  4629  1657  2E59               	goto	u3380
  4630  1658                     u3381:
  4631  1658  2E5E               	goto	l2408
  4632  1659                     u3380:
  4633  1659                     l2404:
  4634  1659  1FF3               	btfss	___xxtofl@val+3,7
  4635  165A  2E5C               	goto	u3391
  4636  165B  2E5D               	goto	u3390
  4637  165C                     u3391:
  4638  165C  2E5E               	goto	l2408
  4639  165D                     u3390:
  4640  165D                     l2406:
  4641  165D  17FD               	bsf	___xxtofl@arg+3,7
  4642  165E                     l2408:
  4643  165E  087D               	movf	___xxtofl@arg+3,w
  4644  165F  00F3               	movwf	?___xxtofl+3
  4645  1660  087C               	movf	___xxtofl@arg+2,w
  4646  1661  00F2               	movwf	?___xxtofl+2
  4647  1662  087B               	movf	___xxtofl@arg+1,w
  4648  1663  00F1               	movwf	?___xxtofl+1
  4649  1664  087A               	movf	___xxtofl@arg,w
  4650  1665  00F0               	movwf	?___xxtofl
  4651  1666                     l699:
  4652  1666  0008               	return
  4653  1667                     __end_of___xxtofl:
  4654                           
  4655                           	psect	text15
  4656  12AF                     __ptext15:	
  4657 ;; *************** function ___fltol *****************
  4658 ;; Defined at:
  4659 ;;		line 43 in file "C:\Program Files\Microchip\xc8\v2.32\pic\sources\c90\common\fltol.c"
  4660 ;; Parameters:    Size  Location     Type
  4661 ;;  f1              4   49[BANK0 ] unsigned char 
  4662 ;; Auto vars:     Size  Location     Type
  4663 ;;  exp1            1   59[BANK0 ] unsigned char 
  4664 ;;  sign1           1   58[BANK0 ] unsigned char 
  4665 ;; Return value:  Size  Location     Type
  4666 ;;                  4   49[BANK0 ] long 
  4667 ;; Registers used:
  4668 ;;		wreg, status,2, status,0
  4669 ;; Tracked objects:
  4670 ;;		On entry : 0/0
  4671 ;;		On exit  : 0/0
  4672 ;;		Unchanged: 0/0
  4673 ;; Data sizes:     COMMON   BANK0   BANK1   BANK3   BANK2
  4674 ;;      Params:         0       4       0       0       0
  4675 ;;      Locals:         0       2       0       0       0
  4676 ;;      Temps:          0       5       0       0       0
  4677 ;;      Totals:         0      11       0       0       0
  4678 ;;Total ram usage:       11 bytes
  4679 ;; Hardware stack levels used: 1
  4680 ;; This function calls:
  4681 ;;		Nothing
  4682 ;; This function is called by:
  4683 ;;		_computeLyapunov
  4684 ;;		_floor
  4685 ;; This function uses a non-reentrant model
  4686 ;;
  4687                           
  4688                           
  4689                           ;psect for function ___fltol
  4690  12AF                     ___fltol:
  4691  12AF                     l1998:	
  4692                           ;incstack = 0
  4693                           ; Regs used in ___fltol: [wreg+status,2+status,0]
  4694                           
  4695  12AF  1003               	clrc
  4696  12B0  1283               	bcf	3,5	;RP0=0, select bank0
  4697  12B1  1303               	bcf	3,6	;RP1=0, select bank0
  4698  12B2  0D53               	rlf	___fltol@f1+2,w
  4699  12B3  0D54               	rlf	___fltol@f1+3,w
  4700  12B4  00D5               	movwf	??___fltol
  4701  12B5  0855               	movf	??___fltol,w
  4702  12B6  00DB               	movwf	___fltol@exp1
  4703  12B7  085B               	movf	___fltol@exp1,w
  4704  12B8  1D03               	btfss	3,2
  4705  12B9  2ABB               	goto	u2331
  4706  12BA  2ABC               	goto	u2330
  4707  12BB                     u2331:
  4708  12BB  2AC5               	goto	l2004
  4709  12BC                     u2330:
  4710  12BC                     l2000:
  4711  12BC  3000               	movlw	0
  4712  12BD  00D4               	movwf	?___fltol+3
  4713  12BE  3000               	movlw	0
  4714  12BF  00D3               	movwf	?___fltol+2
  4715  12C0  3000               	movlw	0
  4716  12C1  00D2               	movwf	?___fltol+1
  4717  12C2  3000               	movlw	0
  4718  12C3  00D1               	movwf	?___fltol
  4719  12C4  2B2A               	goto	l450
  4720  12C5                     l2004:
  4721  12C5  0851               	movf	___fltol@f1,w
  4722  12C6  00D5               	movwf	??___fltol
  4723  12C7  0852               	movf	___fltol@f1+1,w
  4724  12C8  00D6               	movwf	??___fltol+1
  4725  12C9  0853               	movf	___fltol@f1+2,w
  4726  12CA  00D7               	movwf	??___fltol+2
  4727  12CB  0854               	movf	___fltol@f1+3,w
  4728  12CC  00D8               	movwf	??___fltol+3
  4729  12CD  301F               	movlw	31
  4730  12CE                     u2345:
  4731  12CE  1003               	clrc
  4732  12CF  0CD8               	rrf	??___fltol+3,f
  4733  12D0  0CD7               	rrf	??___fltol+2,f
  4734  12D1  0CD6               	rrf	??___fltol+1,f
  4735  12D2  0CD5               	rrf	??___fltol,f
  4736  12D3                     u2340:
  4737  12D3  3EFF               	addlw	-1
  4738  12D4  1D03               	skipz
  4739  12D5  2ACE               	goto	u2345
  4740  12D6  0855               	movf	??___fltol,w
  4741  12D7  00D9               	movwf	??___fltol+4
  4742  12D8  0859               	movf	??___fltol+4,w
  4743  12D9  00DA               	movwf	___fltol@sign1
  4744  12DA                     l2006:
  4745  12DA  17D3               	bsf	___fltol@f1+2,7
  4746  12DB                     l2008:
  4747  12DB  30FF               	movlw	255
  4748  12DC  05D1               	andwf	___fltol@f1,f
  4749  12DD  30FF               	movlw	255
  4750  12DE  05D2               	andwf	___fltol@f1+1,f
  4751  12DF  30FF               	movlw	255
  4752  12E0  05D3               	andwf	___fltol@f1+2,f
  4753  12E1  3000               	movlw	0
  4754  12E2  05D4               	andwf	___fltol@f1+3,f
  4755  12E3                     l2010:
  4756  12E3  3096               	movlw	150
  4757  12E4  02DB               	subwf	___fltol@exp1,f
  4758  12E5                     l2012:
  4759  12E5  1FDB               	btfss	___fltol@exp1,7
  4760  12E6  2AE8               	goto	u2351
  4761  12E7  2AE9               	goto	u2350
  4762  12E8                     u2351:
  4763  12E8  2B03               	goto	l2022
  4764  12E9                     u2350:
  4765  12E9                     l2014:
  4766  12E9  085B               	movf	___fltol@exp1,w
  4767  12EA  3A80               	xorlw	128
  4768  12EB  3E97               	addlw	151
  4769  12EC  1803               	skipnc
  4770  12ED  2AEF               	goto	u2361
  4771  12EE  2AF0               	goto	u2360
  4772  12EF                     u2361:
  4773  12EF  2AF1               	goto	l2020
  4774  12F0                     u2360:
  4775  12F0  2ABC               	goto	l2000
  4776  12F1                     l2020:
  4777  12F1  3001               	movlw	1
  4778  12F2                     u2375:
  4779  12F2  1003               	clrc
  4780  12F3  0CD4               	rrf	___fltol@f1+3,f
  4781  12F4  0CD3               	rrf	___fltol@f1+2,f
  4782  12F5  0CD2               	rrf	___fltol@f1+1,f
  4783  12F6  0CD1               	rrf	___fltol@f1,f
  4784  12F7  3EFF               	addlw	-1
  4785  12F8  1D03               	skipz
  4786  12F9  2AF2               	goto	u2375
  4787  12FA  3001               	movlw	1
  4788  12FB  00D5               	movwf	??___fltol
  4789  12FC  0855               	movf	??___fltol,w
  4790  12FD  07DB               	addwf	___fltol@exp1,f
  4791  12FE  1D03               	btfss	3,2
  4792  12FF  2B01               	goto	u2381
  4793  1300  2B02               	goto	u2380
  4794  1301                     u2381:
  4795  1301  2AF1               	goto	l2020
  4796  1302                     u2380:
  4797  1302  2B1A               	goto	l2030
  4798  1303                     l2022:
  4799  1303  3020               	movlw	32
  4800  1304  025B               	subwf	___fltol@exp1,w
  4801  1305  1C03               	skipc
  4802  1306  2B08               	goto	u2391
  4803  1307  2B09               	goto	u2390
  4804  1308                     u2391:
  4805  1308  2B15               	goto	l457
  4806  1309                     u2390:
  4807  1309  2ABC               	goto	l2000
  4808  130A                     l2028:
  4809  130A  3001               	movlw	1
  4810  130B  00D5               	movwf	??___fltol
  4811  130C                     u2405:
  4812  130C  1003               	clrc
  4813  130D  0DD1               	rlf	___fltol@f1,f
  4814  130E  0DD2               	rlf	___fltol@f1+1,f
  4815  130F  0DD3               	rlf	___fltol@f1+2,f
  4816  1310  0DD4               	rlf	___fltol@f1+3,f
  4817  1311  0BD5               	decfsz	??___fltol,f
  4818  1312  2B0C               	goto	u2405
  4819  1313  3001               	movlw	1
  4820  1314  02DB               	subwf	___fltol@exp1,f
  4821  1315                     l457:
  4822  1315  085B               	movf	___fltol@exp1,w
  4823  1316  1D03               	btfss	3,2
  4824  1317  2B19               	goto	u2411
  4825  1318  2B1A               	goto	u2410
  4826  1319                     u2411:
  4827  1319  2B0A               	goto	l2028
  4828  131A                     u2410:
  4829  131A                     l2030:
  4830  131A  085A               	movf	___fltol@sign1,w
  4831  131B  1903               	btfsc	3,2
  4832  131C  2B1E               	goto	u2421
  4833  131D  2B1F               	goto	u2420
  4834  131E                     u2421:
  4835  131E  2B2A               	goto	l460
  4836  131F                     u2420:
  4837  131F                     l2032:
  4838  131F  09D1               	comf	___fltol@f1,f
  4839  1320  09D2               	comf	___fltol@f1+1,f
  4840  1321  09D3               	comf	___fltol@f1+2,f
  4841  1322  09D4               	comf	___fltol@f1+3,f
  4842  1323  0AD1               	incf	___fltol@f1,f
  4843  1324  1903               	skipnz
  4844  1325  0AD2               	incf	___fltol@f1+1,f
  4845  1326  1903               	skipnz
  4846  1327  0AD3               	incf	___fltol@f1+2,f
  4847  1328  1903               	skipnz
  4848  1329  0AD4               	incf	___fltol@f1+3,f
  4849  132A                     l460:
  4850  132A                     l450:
  4851  132A  0008               	return
  4852  132B                     __end_of___fltol:
  4853                           
  4854                           	psect	text16
  4855  1466                     __ptext16:	
  4856 ;; *************** function ___flge *****************
  4857 ;; Defined at:
  4858 ;;		line 4 in file "C:\Program Files\Microchip\xc8\v2.32\pic\sources\c90\common\flge.c"
  4859 ;; Parameters:    Size  Location     Type
  4860 ;;  ff1             4    0[COMMON] long 
  4861 ;;  ff2             4    4[COMMON] long 
  4862 ;; Auto vars:     Size  Location     Type
  4863 ;;		None
  4864 ;; Return value:  Size  Location     Type
  4865 ;;		None               void
  4866 ;; Registers used:
  4867 ;;		wreg, status,2, status,0
  4868 ;; Tracked objects:
  4869 ;;		On entry : 0/0
  4870 ;;		On exit  : 0/0
  4871 ;;		Unchanged: 0/0
  4872 ;; Data sizes:     COMMON   BANK0   BANK1   BANK3   BANK2
  4873 ;;      Params:         8       0       0       0       0
  4874 ;;      Locals:         0       0       0       0       0
  4875 ;;      Temps:          4       0       0       0       0
  4876 ;;      Totals:        12       0       0       0       0
  4877 ;;Total ram usage:       12 bytes
  4878 ;; Hardware stack levels used: 1
  4879 ;; This function calls:
  4880 ;;		Nothing
  4881 ;; This function is called by:
  4882 ;;		_cos
  4883 ;;		_sin
  4884 ;;		_floor
  4885 ;; This function uses a non-reentrant model
  4886 ;;
  4887                           
  4888                           
  4889                           ;psect for function ___flge
  4890  1466                     ___flge:
  4891  1466                     l1978:	
  4892                           ;incstack = 0
  4893                           ; Regs used in ___flge: [wreg+status,2+status,0]
  4894                           
  4895  1466  3000               	movlw	0
  4896  1467  0570               	andwf	___flge@ff1,w
  4897  1468  00F8               	movwf	??___flge
  4898  1469  3000               	movlw	0
  4899  146A  0571               	andwf	___flge@ff1+1,w
  4900  146B  00F9               	movwf	??___flge+1
  4901  146C  3080               	movlw	128
  4902  146D  0572               	andwf	___flge@ff1+2,w
  4903  146E  00FA               	movwf	??___flge+2
  4904  146F  307F               	movlw	127
  4905  1470  0573               	andwf	___flge@ff1+3,w
  4906  1471  00FB               	movwf	??___flge+3
  4907  1472  087B               	movf	??___flge+3,w
  4908  1473  047A               	iorwf	??___flge+2,w
  4909  1474  0479               	iorwf	??___flge+1,w
  4910  1475  0478               	iorwf	??___flge,w
  4911  1476  1D03               	skipz
  4912  1477  2C79               	goto	u2261
  4913  1478  2C7A               	goto	u2260
  4914  1479                     u2261:
  4915  1479  2C82               	goto	l438
  4916  147A                     u2260:
  4917  147A                     l1980:
  4918  147A  3000               	movlw	0
  4919  147B  00F3               	movwf	___flge@ff1+3
  4920  147C  3000               	movlw	0
  4921  147D  00F2               	movwf	___flge@ff1+2
  4922  147E  3000               	movlw	0
  4923  147F  00F1               	movwf	___flge@ff1+1
  4924  1480  3000               	movlw	0
  4925  1481  00F0               	movwf	___flge@ff1
  4926  1482                     l438:
  4927  1482  3000               	movlw	0
  4928  1483  0574               	andwf	___flge@ff2,w
  4929  1484  00F8               	movwf	??___flge
  4930  1485  3000               	movlw	0
  4931  1486  0575               	andwf	___flge@ff2+1,w
  4932  1487  00F9               	movwf	??___flge+1
  4933  1488  3080               	movlw	128
  4934  1489  0576               	andwf	___flge@ff2+2,w
  4935  148A  00FA               	movwf	??___flge+2
  4936  148B  307F               	movlw	127
  4937  148C  0577               	andwf	___flge@ff2+3,w
  4938  148D  00FB               	movwf	??___flge+3
  4939  148E  087B               	movf	??___flge+3,w
  4940  148F  047A               	iorwf	??___flge+2,w
  4941  1490  0479               	iorwf	??___flge+1,w
  4942  1491  0478               	iorwf	??___flge,w
  4943  1492  1D03               	skipz
  4944  1493  2C95               	goto	u2271
  4945  1494  2C96               	goto	u2270
  4946  1495                     u2271:
  4947  1495  2C9E               	goto	l1984
  4948  1496                     u2270:
  4949  1496                     l1982:
  4950  1496  3000               	movlw	0
  4951  1497  00F7               	movwf	___flge@ff2+3
  4952  1498  3000               	movlw	0
  4953  1499  00F6               	movwf	___flge@ff2+2
  4954  149A  3000               	movlw	0
  4955  149B  00F5               	movwf	___flge@ff2+1
  4956  149C  3000               	movlw	0
  4957  149D  00F4               	movwf	___flge@ff2
  4958  149E                     l1984:
  4959  149E  1FF3               	btfss	___flge@ff1+3,7
  4960  149F  2CA1               	goto	u2281
  4961  14A0  2CA2               	goto	u2280
  4962  14A1                     u2281:
  4963  14A1  2CC6               	goto	l1988
  4964  14A2                     u2280:
  4965  14A2                     l1986:
  4966  14A2  3000               	movlw	0
  4967  14A3  00F8               	movwf	??___flge
  4968  14A4  3000               	movlw	0
  4969  14A5  00F9               	movwf	??___flge+1
  4970  14A6  3000               	movlw	0
  4971  14A7  00FA               	movwf	??___flge+2
  4972  14A8  3080               	movlw	128
  4973  14A9  00FB               	movwf	??___flge+3
  4974  14AA  0870               	movf	___flge@ff1,w
  4975  14AB  02F8               	subwf	??___flge,f
  4976  14AC  0871               	movf	___flge@ff1+1,w
  4977  14AD  1C03               	skipc
  4978  14AE  0F71               	incfsz	___flge@ff1+1,w
  4979  14AF  2CB1               	goto	u2291
  4980  14B0  2CB2               	goto	u2292
  4981  14B1                     u2291:
  4982  14B1  02F9               	subwf	??___flge+1,f
  4983  14B2                     u2292:
  4984  14B2  0872               	movf	___flge@ff1+2,w
  4985  14B3  1C03               	skipc
  4986  14B4  0F72               	incfsz	___flge@ff1+2,w
  4987  14B5  2CB7               	goto	u2293
  4988  14B6  2CB8               	goto	u2294
  4989  14B7                     u2293:
  4990  14B7  02FA               	subwf	??___flge+2,f
  4991  14B8                     u2294:
  4992  14B8  0873               	movf	___flge@ff1+3,w
  4993  14B9  1C03               	skipc
  4994  14BA  0F73               	incfsz	___flge@ff1+3,w
  4995  14BB  2CBD               	goto	u2295
  4996  14BC  2CBE               	goto	u2296
  4997  14BD                     u2295:
  4998  14BD  02FB               	subwf	??___flge+3,f
  4999  14BE                     u2296:
  5000  14BE  087B               	movf	??___flge+3,w
  5001  14BF  00F3               	movwf	___flge@ff1+3
  5002  14C0  087A               	movf	??___flge+2,w
  5003  14C1  00F2               	movwf	___flge@ff1+2
  5004  14C2  0879               	movf	??___flge+1,w
  5005  14C3  00F1               	movwf	___flge@ff1+1
  5006  14C4  0878               	movf	??___flge,w
  5007  14C5  00F0               	movwf	___flge@ff1
  5008  14C6                     l1988:
  5009  14C6  1FF7               	btfss	___flge@ff2+3,7
  5010  14C7  2CC9               	goto	u2301
  5011  14C8  2CCA               	goto	u2300
  5012  14C9                     u2301:
  5013  14C9  2CEE               	goto	l441
  5014  14CA                     u2300:
  5015  14CA                     l1990:
  5016  14CA  3000               	movlw	0
  5017  14CB  00F8               	movwf	??___flge
  5018  14CC  3000               	movlw	0
  5019  14CD  00F9               	movwf	??___flge+1
  5020  14CE  3000               	movlw	0
  5021  14CF  00FA               	movwf	??___flge+2
  5022  14D0  3080               	movlw	128
  5023  14D1  00FB               	movwf	??___flge+3
  5024  14D2  0874               	movf	___flge@ff2,w
  5025  14D3  02F8               	subwf	??___flge,f
  5026  14D4  0875               	movf	___flge@ff2+1,w
  5027  14D5  1C03               	skipc
  5028  14D6  0F75               	incfsz	___flge@ff2+1,w
  5029  14D7  2CD9               	goto	u2311
  5030  14D8  2CDA               	goto	u2312
  5031  14D9                     u2311:
  5032  14D9  02F9               	subwf	??___flge+1,f
  5033  14DA                     u2312:
  5034  14DA  0876               	movf	___flge@ff2+2,w
  5035  14DB  1C03               	skipc
  5036  14DC  0F76               	incfsz	___flge@ff2+2,w
  5037  14DD  2CDF               	goto	u2313
  5038  14DE  2CE0               	goto	u2314
  5039  14DF                     u2313:
  5040  14DF  02FA               	subwf	??___flge+2,f
  5041  14E0                     u2314:
  5042  14E0  0877               	movf	___flge@ff2+3,w
  5043  14E1  1C03               	skipc
  5044  14E2  0F77               	incfsz	___flge@ff2+3,w
  5045  14E3  2CE5               	goto	u2315
  5046  14E4  2CE6               	goto	u2316
  5047  14E5                     u2315:
  5048  14E5  02FB               	subwf	??___flge+3,f
  5049  14E6                     u2316:
  5050  14E6  087B               	movf	??___flge+3,w
  5051  14E7  00F7               	movwf	___flge@ff2+3
  5052  14E8  087A               	movf	??___flge+2,w
  5053  14E9  00F6               	movwf	___flge@ff2+2
  5054  14EA  0879               	movf	??___flge+1,w
  5055  14EB  00F5               	movwf	___flge@ff2+1
  5056  14EC  0878               	movf	??___flge,w
  5057  14ED  00F4               	movwf	___flge@ff2
  5058  14EE                     l441:
  5059  14EE  3080               	movlw	128
  5060  14EF  06F3               	xorwf	___flge@ff1+3,f
  5061  14F0  3080               	movlw	128
  5062  14F1  06F7               	xorwf	___flge@ff2+3,f
  5063  14F2  0877               	movf	___flge@ff2+3,w
  5064  14F3  0273               	subwf	___flge@ff1+3,w
  5065  14F4  1D03               	skipz
  5066  14F5  2D00               	goto	u2325
  5067  14F6  0876               	movf	___flge@ff2+2,w
  5068  14F7  0272               	subwf	___flge@ff1+2,w
  5069  14F8  1D03               	skipz
  5070  14F9  2D00               	goto	u2325
  5071  14FA  0875               	movf	___flge@ff2+1,w
  5072  14FB  0271               	subwf	___flge@ff1+1,w
  5073  14FC  1D03               	skipz
  5074  14FD  2D00               	goto	u2325
  5075  14FE  0874               	movf	___flge@ff2,w
  5076  14FF  0270               	subwf	___flge@ff1,w
  5077  1500                     u2325:
  5078  1500  1803               	skipnc
  5079  1501  2D03               	goto	u2321
  5080  1502  2D04               	goto	u2320
  5081  1503                     u2321:
  5082  1503  2D06               	goto	l1994
  5083  1504                     u2320:
  5084  1504                     l1992:
  5085  1504  1003               	clrc
  5086  1505  2D07               	goto	l442
  5087  1506                     l1994:
  5088  1506  1403               	setc
  5089  1507                     l442:
  5090  1507  0008               	return
  5091  1508                     __end_of___flge:
  5092                           
  5093                           	psect	text17
  5094  13C8                     __ptext17:	
  5095 ;; *************** function _eval_poly *****************
  5096 ;; Defined at:
  5097 ;;		line 4 in file "C:\Program Files\Microchip\xc8\v2.32\pic\sources\c90\common\evalpoly.c"
  5098 ;; Parameters:    Size  Location     Type
  5099 ;;  x               4   41[BANK0 ] long 
  5100 ;;  d               1   45[BANK0 ] PTR const 
  5101 ;;		 -> sin@coeff_a(20), sin@coeff_b(16), 
  5102 ;;  n               2   46[BANK0 ] int 
  5103 ;; Auto vars:     Size  Location     Type
  5104 ;;  res             4   53[BANK0 ] int 
  5105 ;; Return value:  Size  Location     Type
  5106 ;;                  4   41[BANK0 ] int 
  5107 ;; Registers used:
  5108 ;;		wreg, fsr0l, fsr0h, status,2, status,0, btemp+1, pclath, cstack
  5109 ;; Tracked objects:
  5110 ;;		On entry : 0/0
  5111 ;;		On exit  : 0/0
  5112 ;;		Unchanged: 0/0
  5113 ;; Data sizes:     COMMON   BANK0   BANK1   BANK3   BANK2
  5114 ;;      Params:         0       7       0       0       0
  5115 ;;      Locals:         0       4       0       0       0
  5116 ;;      Temps:          0       5       0       0       0
  5117 ;;      Totals:         0      16       0       0       0
  5118 ;;Total ram usage:       16 bytes
  5119 ;; Hardware stack levels used: 1
  5120 ;; Hardware stack levels required when called: 2
  5121 ;; This function calls:
  5122 ;;		___fladd
  5123 ;;		___flmul
  5124 ;; This function is called by:
  5125 ;;		_sin
  5126 ;; This function uses a non-reentrant model
  5127 ;;
  5128                           
  5129                           
  5130                           ;psect for function _eval_poly
  5131  13C8                     _eval_poly:
  5132  13C8                     l2612:	
  5133                           ;incstack = 0
  5134                           ; Regs used in _eval_poly: [wreg-fsr0h+status,2+status,0+btemp+1+pclath+cstack]
  5135                           
  5136  13C8  1283               	bcf	3,5	;RP0=0, select bank0
  5137  13C9  1303               	bcf	3,6	;RP1=0, select bank0
  5138  13CA  084E               	movf	eval_poly@n,w
  5139  13CB  00D0               	movwf	??_eval_poly
  5140  13CC  3001               	movlw	1
  5141  13CD                     u3765:
  5142  13CD  1003               	clrc
  5143  13CE  0DD0               	rlf	??_eval_poly,f
  5144  13CF  3EFF               	addlw	-1
  5145  13D0  1D03               	skipz
  5146  13D1  2BCD               	goto	u3765
  5147  13D2  1003               	clrc
  5148  13D3  0D50               	rlf	??_eval_poly,w
  5149  13D4  074D               	addwf	eval_poly@d,w
  5150  13D5  0084               	movwf	4
  5151  13D6  160A  118A  2000  160A  118A  	fcall	stringdir
  5152  13DB  00D1               	movwf	??_eval_poly+1
  5153  13DC  160A  118A  2000  160A  118A  	fcall	stringdir
  5154  13E1  00D2               	movwf	??_eval_poly+2
  5155  13E2  160A  118A  2000  160A  118A  	fcall	stringdir
  5156  13E7  00D3               	movwf	??_eval_poly+3
  5157  13E8  160A  118A  2000  160A  118A  	fcall	stringdir
  5158  13ED  00D4               	movwf	??_eval_poly+4
  5159  13EE  0854               	movf	??_eval_poly+4,w
  5160  13EF  00D8               	movwf	eval_poly@res+3
  5161  13F0  0853               	movf	??_eval_poly+3,w
  5162  13F1  00D7               	movwf	eval_poly@res+2
  5163  13F2  0852               	movf	??_eval_poly+2,w
  5164  13F3  00D6               	movwf	eval_poly@res+1
  5165  13F4  0851               	movf	??_eval_poly+1,w
  5166  13F5  00D5               	movwf	eval_poly@res
  5167  13F6  2C57               	goto	l2616
  5168  13F7                     l2614:
  5169  13F7  30FF               	movlw	255
  5170  13F8  07CE               	addwf	eval_poly@n,f
  5171  13F9  1803               	skipnc
  5172  13FA  0ACF               	incf	eval_poly@n+1,f
  5173  13FB  30FF               	movlw	255
  5174  13FC  07CF               	addwf	eval_poly@n+1,f
  5175  13FD  084E               	movf	eval_poly@n,w
  5176  13FE  00D0               	movwf	??_eval_poly
  5177  13FF  3001               	movlw	1
  5178  1400                     u3775:
  5179  1400  1003               	clrc
  5180  1401  0DD0               	rlf	??_eval_poly,f
  5181  1402  3EFF               	addlw	-1
  5182  1403  1D03               	skipz
  5183  1404  2C00               	goto	u3775
  5184  1405  1003               	clrc
  5185  1406  0D50               	rlf	??_eval_poly,w
  5186  1407  074D               	addwf	eval_poly@d,w
  5187  1408  0084               	movwf	4
  5188  1409  160A  118A  2000  160A  118A  	fcall	stringdir
  5189  140E  00D1               	movwf	??_eval_poly+1
  5190  140F  160A  118A  2000  160A  118A  	fcall	stringdir
  5191  1414  00D2               	movwf	??_eval_poly+2
  5192  1415  160A  118A  2000  160A  118A  	fcall	stringdir
  5193  141A  00D3               	movwf	??_eval_poly+3
  5194  141B  160A  118A  2000  160A  118A  	fcall	stringdir
  5195  1420  00D4               	movwf	??_eval_poly+4
  5196  1421  0854               	movf	??_eval_poly+4,w
  5197  1422  00B8               	movwf	___fladd@b+3
  5198  1423  0853               	movf	??_eval_poly+3,w
  5199  1424  00B7               	movwf	___fladd@b+2
  5200  1425  0852               	movf	??_eval_poly+2,w
  5201  1426  00B6               	movwf	___fladd@b+1
  5202  1427  0851               	movf	??_eval_poly+1,w
  5203  1428  00B5               	movwf	___fladd@b
  5204  1429  0858               	movf	eval_poly@res+3,w
  5205  142A  00A3               	movwf	___flmul@b+3
  5206  142B  0857               	movf	eval_poly@res+2,w
  5207  142C  00A2               	movwf	___flmul@b+2
  5208  142D  0856               	movf	eval_poly@res+1,w
  5209  142E  00A1               	movwf	___flmul@b+1
  5210  142F  0855               	movf	eval_poly@res,w
  5211  1430  00A0               	movwf	___flmul@b
  5212  1431  084C               	movf	eval_poly@x+3,w
  5213  1432  00A7               	movwf	___flmul@a+3
  5214  1433  084B               	movf	eval_poly@x+2,w
  5215  1434  00A6               	movwf	___flmul@a+2
  5216  1435  084A               	movf	eval_poly@x+1,w
  5217  1436  00A5               	movwf	___flmul@a+1
  5218  1437  0849               	movf	eval_poly@x,w
  5219  1438  00A4               	movwf	___flmul@a
  5220  1439  120A  118A  2475  160A  118A  	fcall	___flmul
  5221  143E  1283               	bcf	3,5	;RP0=0, select bank0
  5222  143F  1303               	bcf	3,6	;RP1=0, select bank0
  5223  1440  0823               	movf	?___flmul+3,w
  5224  1441  00BC               	movwf	___fladd@a+3
  5225  1442  0822               	movf	?___flmul+2,w
  5226  1443  00BB               	movwf	___fladd@a+2
  5227  1444  0821               	movf	?___flmul+1,w
  5228  1445  00BA               	movwf	___fladd@a+1
  5229  1446  0820               	movf	?___flmul,w
  5230  1447  00B9               	movwf	___fladd@a
  5231  1448  120A  158A  2578  160A  118A  	fcall	___fladd
  5232  144D  1283               	bcf	3,5	;RP0=0, select bank0
  5233  144E  1303               	bcf	3,6	;RP1=0, select bank0
  5234  144F  0838               	movf	?___fladd+3,w
  5235  1450  00D8               	movwf	eval_poly@res+3
  5236  1451  0837               	movf	?___fladd+2,w
  5237  1452  00D7               	movwf	eval_poly@res+2
  5238  1453  0836               	movf	?___fladd+1,w
  5239  1454  00D6               	movwf	eval_poly@res+1
  5240  1455  0835               	movf	?___fladd,w
  5241  1456  00D5               	movwf	eval_poly@res
  5242  1457                     l2616:
  5243  1457  084E               	movf	eval_poly@n,w
  5244  1458  044F               	iorwf	eval_poly@n+1,w
  5245  1459  1D03               	btfss	3,2
  5246  145A  2C5C               	goto	u3781
  5247  145B  2C5D               	goto	u3780
  5248  145C                     u3781:
  5249  145C  2BF7               	goto	l2614
  5250  145D                     u3780:
  5251  145D                     l2618:
  5252  145D  0858               	movf	eval_poly@res+3,w
  5253  145E  00CC               	movwf	?_eval_poly+3
  5254  145F  0857               	movf	eval_poly@res+2,w
  5255  1460  00CB               	movwf	?_eval_poly+2
  5256  1461  0856               	movf	eval_poly@res+1,w
  5257  1462  00CA               	movwf	?_eval_poly+1
  5258  1463  0855               	movf	eval_poly@res,w
  5259  1464  00C9               	movwf	?_eval_poly
  5260  1465                     l739:
  5261  1465  0008               	return
  5262  1466                     __end_of_eval_poly:
  5263                           
  5264                           	psect	text18
  5265  0475                     __ptext18:	
  5266 ;; *************** function ___flmul *****************
  5267 ;; Defined at:
  5268 ;;		line 8 in file "C:\Program Files\Microchip\xc8\v2.32\pic\sources\c90\common\sprcmul.c"
  5269 ;; Parameters:    Size  Location     Type
  5270 ;;  b               4    0[BANK0 ] int 
  5271 ;;  a               4    4[BANK0 ] int 
  5272 ;; Auto vars:     Size  Location     Type
  5273 ;;  prod            4   15[BANK0 ] struct .
  5274 ;;  grs             4    9[BANK0 ] unsigned long 
  5275 ;;  temp            2   19[BANK0 ] struct .
  5276 ;;  bexp            1   14[BANK0 ] unsigned char 
  5277 ;;  aexp            1   13[BANK0 ] unsigned char 
  5278 ;;  sign            1    8[BANK0 ] unsigned char 
  5279 ;; Return value:  Size  Location     Type
  5280 ;;                  4    0[BANK0 ] unsigned char 
  5281 ;; Registers used:
  5282 ;;		wreg, status,2, status,0, btemp+1, pclath, cstack
  5283 ;; Tracked objects:
  5284 ;;		On entry : 0/0
  5285 ;;		On exit  : 0/0
  5286 ;;		Unchanged: 0/0
  5287 ;; Data sizes:     COMMON   BANK0   BANK1   BANK3   BANK2
  5288 ;;      Params:         0       8       0       0       0
  5289 ;;      Locals:         0      13       0       0       0
  5290 ;;      Temps:          5       0       0       0       0
  5291 ;;      Totals:         5      21       0       0       0
  5292 ;;Total ram usage:       26 bytes
  5293 ;; Hardware stack levels used: 1
  5294 ;; Hardware stack levels required when called: 1
  5295 ;; This function calls:
  5296 ;;		__Umul8_16
  5297 ;; This function is called by:
  5298 ;;		_computeLyapunov
  5299 ;;		_sin
  5300 ;;		_eval_poly
  5301 ;; This function uses a non-reentrant model
  5302 ;;
  5303                           
  5304                           
  5305                           ;psect for function ___flmul
  5306  0475                     ___flmul:
  5307  0475                     l2228:	
  5308                           ;incstack = 0
  5309                           ; Regs used in ___flmul: [wreg+status,2+status,0+btemp+1+pclath+cstack]
  5310                           
  5311  0475  1283               	bcf	3,5	;RP0=0, select bank0
  5312  0476  1303               	bcf	3,6	;RP1=0, select bank0
  5313  0477  0823               	movf	___flmul@b+3,w
  5314  0478  3980               	andlw	128
  5315  0479  00F9               	movwf	??___flmul
  5316  047A  0879               	movf	??___flmul,w
  5317  047B  00A8               	movwf	___flmul@sign
  5318  047C                     l2230:
  5319  047C  0823               	movf	___flmul@b+3,w
  5320  047D  00F9               	movwf	??___flmul
  5321  047E  0779               	addwf	??___flmul,w
  5322  047F  00FA               	movwf	??___flmul+1
  5323  0480  087A               	movf	??___flmul+1,w
  5324  0481  00AE               	movwf	___flmul@bexp
  5325  0482                     l2232:
  5326  0482  1FA2               	btfss	___flmul@b+2,7
  5327  0483  2C85               	goto	u2891
  5328  0484  2C86               	goto	u2890
  5329  0485                     u2891:
  5330  0485  2C87               	goto	l2236
  5331  0486                     u2890:
  5332  0486                     l2234:
  5333  0486  142E               	bsf	___flmul@bexp,0
  5334  0487                     l2236:
  5335  0487  082E               	movf	___flmul@bexp,w
  5336  0488  1903               	btfsc	3,2
  5337  0489  2C8B               	goto	u2901
  5338  048A  2C8C               	goto	u2900
  5339  048B                     u2901:
  5340  048B  2C9B               	goto	l2244
  5341  048C                     u2900:
  5342  048C                     l2238:
  5343  048C  0A2E               	incf	___flmul@bexp,w
  5344  048D  1D03               	btfss	3,2
  5345  048E  2C90               	goto	u2911
  5346  048F  2C91               	goto	u2910
  5347  0490                     u2911:
  5348  0490  2C99               	goto	l2242
  5349  0491                     u2910:
  5350  0491                     l2240:
  5351  0491  3000               	movlw	0
  5352  0492  00A3               	movwf	___flmul@b+3
  5353  0493  3000               	movlw	0
  5354  0494  00A2               	movwf	___flmul@b+2
  5355  0495  3000               	movlw	0
  5356  0496  00A1               	movwf	___flmul@b+1
  5357  0497  3000               	movlw	0
  5358  0498  00A0               	movwf	___flmul@b
  5359  0499                     l2242:
  5360  0499  17A2               	bsf	___flmul@b+2,7
  5361  049A  2CA3               	goto	l2246
  5362  049B                     l2244:
  5363  049B  3000               	movlw	0
  5364  049C  00A3               	movwf	___flmul@b+3
  5365  049D  3000               	movlw	0
  5366  049E  00A2               	movwf	___flmul@b+2
  5367  049F  3000               	movlw	0
  5368  04A0  00A1               	movwf	___flmul@b+1
  5369  04A1  3000               	movlw	0
  5370  04A2  00A0               	movwf	___flmul@b
  5371  04A3                     l2246:
  5372  04A3  0827               	movf	___flmul@a+3,w
  5373  04A4  3980               	andlw	128
  5374  04A5  00F9               	movwf	??___flmul
  5375  04A6  0879               	movf	??___flmul,w
  5376  04A7  06A8               	xorwf	___flmul@sign,f
  5377  04A8                     l2248:
  5378  04A8  0827               	movf	___flmul@a+3,w
  5379  04A9  00F9               	movwf	??___flmul
  5380  04AA  0779               	addwf	??___flmul,w
  5381  04AB  00FA               	movwf	??___flmul+1
  5382  04AC  087A               	movf	??___flmul+1,w
  5383  04AD  00AD               	movwf	___flmul@aexp
  5384  04AE                     l2250:
  5385  04AE  1FA6               	btfss	___flmul@a+2,7
  5386  04AF  2CB1               	goto	u2921
  5387  04B0  2CB2               	goto	u2920
  5388  04B1                     u2921:
  5389  04B1  2CB3               	goto	l2254
  5390  04B2                     u2920:
  5391  04B2                     l2252:
  5392  04B2  142D               	bsf	___flmul@aexp,0
  5393  04B3                     l2254:
  5394  04B3  082D               	movf	___flmul@aexp,w
  5395  04B4  1903               	btfsc	3,2
  5396  04B5  2CB7               	goto	u2931
  5397  04B6  2CB8               	goto	u2930
  5398  04B7                     u2931:
  5399  04B7  2CC7               	goto	l2262
  5400  04B8                     u2930:
  5401  04B8                     l2256:
  5402  04B8  0A2D               	incf	___flmul@aexp,w
  5403  04B9  1D03               	btfss	3,2
  5404  04BA  2CBC               	goto	u2941
  5405  04BB  2CBD               	goto	u2940
  5406  04BC                     u2941:
  5407  04BC  2CC5               	goto	l2260
  5408  04BD                     u2940:
  5409  04BD                     l2258:
  5410  04BD  3000               	movlw	0
  5411  04BE  00A7               	movwf	___flmul@a+3
  5412  04BF  3000               	movlw	0
  5413  04C0  00A6               	movwf	___flmul@a+2
  5414  04C1  3000               	movlw	0
  5415  04C2  00A5               	movwf	___flmul@a+1
  5416  04C3  3000               	movlw	0
  5417  04C4  00A4               	movwf	___flmul@a
  5418  04C5                     l2260:
  5419  04C5  17A6               	bsf	___flmul@a+2,7
  5420  04C6  2CCF               	goto	l2264
  5421  04C7                     l2262:
  5422  04C7  3000               	movlw	0
  5423  04C8  00A7               	movwf	___flmul@a+3
  5424  04C9  3000               	movlw	0
  5425  04CA  00A6               	movwf	___flmul@a+2
  5426  04CB  3000               	movlw	0
  5427  04CC  00A5               	movwf	___flmul@a+1
  5428  04CD  3000               	movlw	0
  5429  04CE  00A4               	movwf	___flmul@a
  5430  04CF                     l2264:
  5431  04CF  082D               	movf	___flmul@aexp,w
  5432  04D0  1903               	btfsc	3,2
  5433  04D1  2CD3               	goto	u2951
  5434  04D2  2CD4               	goto	u2950
  5435  04D3                     u2951:
  5436  04D3  2CD9               	goto	l2268
  5437  04D4                     u2950:
  5438  04D4                     l2266:
  5439  04D4  082E               	movf	___flmul@bexp,w
  5440  04D5  1D03               	btfss	3,2
  5441  04D6  2CD8               	goto	u2961
  5442  04D7  2CD9               	goto	u2960
  5443  04D8                     u2961:
  5444  04D8  2CE2               	goto	l2272
  5445  04D9                     u2960:
  5446  04D9                     l2268:
  5447  04D9  3000               	movlw	0
  5448  04DA  00A3               	movwf	?___flmul+3
  5449  04DB  3000               	movlw	0
  5450  04DC  00A2               	movwf	?___flmul+2
  5451  04DD  3000               	movlw	0
  5452  04DE  00A1               	movwf	?___flmul+1
  5453  04DF  3000               	movlw	0
  5454  04E0  00A0               	movwf	?___flmul
  5455  04E1  2FD5               	goto	l653
  5456  04E2                     l2272:
  5457  04E2  0820               	movf	___flmul@b,w
  5458  04E3  00F9               	movwf	??___flmul
  5459  04E4  0879               	movf	??___flmul,w
  5460  04E5  00F0               	movwf	__Umul8_16@multiplicand
  5461  04E6  0826               	movf	___flmul@a+2,w
  5462  04E7  120A  118A  200E  120A  118A  	fcall	__Umul8_16
  5463  04EC  0871               	movf	?__Umul8_16+1,w
  5464  04ED  1283               	bcf	3,5	;RP0=0, select bank0
  5465  04EE  1303               	bcf	3,6	;RP1=0, select bank0
  5466  04EF  00B4               	movwf	___flmul@temp+1
  5467  04F0  0870               	movf	?__Umul8_16,w
  5468  04F1  00B3               	movwf	___flmul@temp
  5469  04F2                     l2274:
  5470  04F2  0833               	movf	___flmul@temp,w
  5471  04F3  00F9               	movwf	??___flmul
  5472  04F4  01FA               	clrf	??___flmul+1
  5473  04F5  01FB               	clrf	??___flmul+2
  5474  04F6  01FC               	clrf	??___flmul+3
  5475  04F7  087C               	movf	??___flmul+3,w
  5476  04F8  00AC               	movwf	___flmul@grs+3
  5477  04F9  087B               	movf	??___flmul+2,w
  5478  04FA  00AB               	movwf	___flmul@grs+2
  5479  04FB  087A               	movf	??___flmul+1,w
  5480  04FC  00AA               	movwf	___flmul@grs+1
  5481  04FD  0879               	movf	??___flmul,w
  5482  04FE  00A9               	movwf	___flmul@grs
  5483  04FF                     l2276:
  5484  04FF  0834               	movf	___flmul@temp+1,w
  5485  0500  00F9               	movwf	??___flmul
  5486  0501  01FA               	clrf	??___flmul+1
  5487  0502  01FB               	clrf	??___flmul+2
  5488  0503  01FC               	clrf	??___flmul+3
  5489  0504  087C               	movf	??___flmul+3,w
  5490  0505  00B2               	movwf	___flmul@prod+3
  5491  0506  087B               	movf	??___flmul+2,w
  5492  0507  00B1               	movwf	___flmul@prod+2
  5493  0508  087A               	movf	??___flmul+1,w
  5494  0509  00B0               	movwf	___flmul@prod+1
  5495  050A  0879               	movf	??___flmul,w
  5496  050B  00AF               	movwf	___flmul@prod
  5497  050C  0821               	movf	___flmul@b+1,w
  5498  050D  00F9               	movwf	??___flmul
  5499  050E  0879               	movf	??___flmul,w
  5500  050F  00F0               	movwf	__Umul8_16@multiplicand
  5501  0510  0825               	movf	___flmul@a+1,w
  5502  0511  120A  118A  200E  120A  118A  	fcall	__Umul8_16
  5503  0516  0871               	movf	?__Umul8_16+1,w
  5504  0517  1283               	bcf	3,5	;RP0=0, select bank0
  5505  0518  1303               	bcf	3,6	;RP1=0, select bank0
  5506  0519  00B4               	movwf	___flmul@temp+1
  5507  051A  0870               	movf	?__Umul8_16,w
  5508  051B  00B3               	movwf	___flmul@temp
  5509  051C                     l2278:
  5510  051C  0833               	movf	___flmul@temp,w
  5511  051D  00F9               	movwf	??___flmul
  5512  051E  01FA               	clrf	??___flmul+1
  5513  051F  01FB               	clrf	??___flmul+2
  5514  0520  01FC               	clrf	??___flmul+3
  5515  0521  0879               	movf	??___flmul,w
  5516  0522  07A9               	addwf	___flmul@grs,f
  5517  0523  087A               	movf	??___flmul+1,w
  5518  0524  1103               	clrz
  5519  0525  1803               	skipnc
  5520  0526  3E01               	addlw	1
  5521  0527  1903               	skipnz
  5522  0528  2D2A               	goto	u2971
  5523  0529  07AA               	addwf	___flmul@grs+1,f
  5524  052A                     u2971:
  5525  052A  087B               	movf	??___flmul+2,w
  5526  052B  1103               	clrz
  5527  052C  1803               	skipnc
  5528  052D  3E01               	addlw	1
  5529  052E  1903               	skipnz
  5530  052F  2D31               	goto	u2972
  5531  0530  07AB               	addwf	___flmul@grs+2,f
  5532  0531                     u2972:
  5533  0531  087C               	movf	??___flmul+3,w
  5534  0532  1103               	clrz
  5535  0533  1803               	skipnc
  5536  0534  3E01               	addlw	1
  5537  0535  1903               	skipnz
  5538  0536  2D38               	goto	u2973
  5539  0537  07AC               	addwf	___flmul@grs+3,f
  5540  0538                     u2973:
  5541  0538                     l2280:
  5542  0538  0834               	movf	___flmul@temp+1,w
  5543  0539  00F9               	movwf	??___flmul
  5544  053A  01FA               	clrf	??___flmul+1
  5545  053B  01FB               	clrf	??___flmul+2
  5546  053C  01FC               	clrf	??___flmul+3
  5547  053D  0879               	movf	??___flmul,w
  5548  053E  07AF               	addwf	___flmul@prod,f
  5549  053F  087A               	movf	??___flmul+1,w
  5550  0540  1103               	clrz
  5551  0541  1803               	skipnc
  5552  0542  3E01               	addlw	1
  5553  0543  1903               	skipnz
  5554  0544  2D46               	goto	u2981
  5555  0545  07B0               	addwf	___flmul@prod+1,f
  5556  0546                     u2981:
  5557  0546  087B               	movf	??___flmul+2,w
  5558  0547  1103               	clrz
  5559  0548  1803               	skipnc
  5560  0549  3E01               	addlw	1
  5561  054A  1903               	skipnz
  5562  054B  2D4D               	goto	u2982
  5563  054C  07B1               	addwf	___flmul@prod+2,f
  5564  054D                     u2982:
  5565  054D  087C               	movf	??___flmul+3,w
  5566  054E  1103               	clrz
  5567  054F  1803               	skipnc
  5568  0550  3E01               	addlw	1
  5569  0551  1903               	skipnz
  5570  0552  2D54               	goto	u2983
  5571  0553  07B2               	addwf	___flmul@prod+3,f
  5572  0554                     u2983:
  5573  0554  0822               	movf	___flmul@b+2,w
  5574  0555  00F9               	movwf	??___flmul
  5575  0556  0879               	movf	??___flmul,w
  5576  0557  00F0               	movwf	__Umul8_16@multiplicand
  5577  0558  0824               	movf	___flmul@a,w
  5578  0559  120A  118A  200E  120A  118A  	fcall	__Umul8_16
  5579  055E  0871               	movf	?__Umul8_16+1,w
  5580  055F  1283               	bcf	3,5	;RP0=0, select bank0
  5581  0560  1303               	bcf	3,6	;RP1=0, select bank0
  5582  0561  00B4               	movwf	___flmul@temp+1
  5583  0562  0870               	movf	?__Umul8_16,w
  5584  0563  00B3               	movwf	___flmul@temp
  5585  0564                     l2282:
  5586  0564  0833               	movf	___flmul@temp,w
  5587  0565  00F9               	movwf	??___flmul
  5588  0566  01FA               	clrf	??___flmul+1
  5589  0567  01FB               	clrf	??___flmul+2
  5590  0568  01FC               	clrf	??___flmul+3
  5591  0569  0879               	movf	??___flmul,w
  5592  056A  07A9               	addwf	___flmul@grs,f
  5593  056B  087A               	movf	??___flmul+1,w
  5594  056C  1103               	clrz
  5595  056D  1803               	skipnc
  5596  056E  3E01               	addlw	1
  5597  056F  1903               	skipnz
  5598  0570  2D72               	goto	u2991
  5599  0571  07AA               	addwf	___flmul@grs+1,f
  5600  0572                     u2991:
  5601  0572  087B               	movf	??___flmul+2,w
  5602  0573  1103               	clrz
  5603  0574  1803               	skipnc
  5604  0575  3E01               	addlw	1
  5605  0576  1903               	skipnz
  5606  0577  2D79               	goto	u2992
  5607  0578  07AB               	addwf	___flmul@grs+2,f
  5608  0579                     u2992:
  5609  0579  087C               	movf	??___flmul+3,w
  5610  057A  1103               	clrz
  5611  057B  1803               	skipnc
  5612  057C  3E01               	addlw	1
  5613  057D  1903               	skipnz
  5614  057E  2D80               	goto	u2993
  5615  057F  07AC               	addwf	___flmul@grs+3,f
  5616  0580                     u2993:
  5617  0580                     l2284:
  5618  0580  0834               	movf	___flmul@temp+1,w
  5619  0581  00F9               	movwf	??___flmul
  5620  0582  01FA               	clrf	??___flmul+1
  5621  0583  01FB               	clrf	??___flmul+2
  5622  0584  01FC               	clrf	??___flmul+3
  5623  0585  0879               	movf	??___flmul,w
  5624  0586  07AF               	addwf	___flmul@prod,f
  5625  0587  087A               	movf	??___flmul+1,w
  5626  0588  1103               	clrz
  5627  0589  1803               	skipnc
  5628  058A  3E01               	addlw	1
  5629  058B  1903               	skipnz
  5630  058C  2D8E               	goto	u3001
  5631  058D  07B0               	addwf	___flmul@prod+1,f
  5632  058E                     u3001:
  5633  058E  087B               	movf	??___flmul+2,w
  5634  058F  1103               	clrz
  5635  0590  1803               	skipnc
  5636  0591  3E01               	addlw	1
  5637  0592  1903               	skipnz
  5638  0593  2D95               	goto	u3002
  5639  0594  07B1               	addwf	___flmul@prod+2,f
  5640  0595                     u3002:
  5641  0595  087C               	movf	??___flmul+3,w
  5642  0596  1103               	clrz
  5643  0597  1803               	skipnc
  5644  0598  3E01               	addlw	1
  5645  0599  1903               	skipnz
  5646  059A  2D9C               	goto	u3003
  5647  059B  07B2               	addwf	___flmul@prod+3,f
  5648  059C                     u3003:
  5649  059C                     l2286:
  5650  059C  3008               	movlw	8
  5651  059D  00F9               	movwf	??___flmul
  5652  059E                     u3015:
  5653  059E  1003               	clrc
  5654  059F  0DA9               	rlf	___flmul@grs,f
  5655  05A0  0DAA               	rlf	___flmul@grs+1,f
  5656  05A1  0DAB               	rlf	___flmul@grs+2,f
  5657  05A2  0DAC               	rlf	___flmul@grs+3,f
  5658  05A3  0BF9               	decfsz	??___flmul,f
  5659  05A4  2D9E               	goto	u3015
  5660  05A5                     l2288:
  5661  05A5  0821               	movf	___flmul@b+1,w
  5662  05A6  00F9               	movwf	??___flmul
  5663  05A7  0879               	movf	??___flmul,w
  5664  05A8  00F0               	movwf	__Umul8_16@multiplicand
  5665  05A9  0824               	movf	___flmul@a,w
  5666  05AA  120A  118A  200E  120A  118A  	fcall	__Umul8_16
  5667  05AF  0871               	movf	?__Umul8_16+1,w
  5668  05B0  1283               	bcf	3,5	;RP0=0, select bank0
  5669  05B1  1303               	bcf	3,6	;RP1=0, select bank0
  5670  05B2  00B4               	movwf	___flmul@temp+1
  5671  05B3  0870               	movf	?__Umul8_16,w
  5672  05B4  00B3               	movwf	___flmul@temp
  5673  05B5                     l2290:
  5674  05B5  0833               	movf	___flmul@temp,w
  5675  05B6  00F9               	movwf	??___flmul
  5676  05B7  0834               	movf	___flmul@temp+1,w
  5677  05B8  00FA               	movwf	??___flmul+1
  5678  05B9  01FB               	clrf	??___flmul+2
  5679  05BA  01FC               	clrf	??___flmul+3
  5680  05BB  0879               	movf	??___flmul,w
  5681  05BC  07A9               	addwf	___flmul@grs,f
  5682  05BD  087A               	movf	??___flmul+1,w
  5683  05BE  1103               	clrz
  5684  05BF  1803               	skipnc
  5685  05C0  3E01               	addlw	1
  5686  05C1  1903               	skipnz
  5687  05C2  2DC4               	goto	u3021
  5688  05C3  07AA               	addwf	___flmul@grs+1,f
  5689  05C4                     u3021:
  5690  05C4  087B               	movf	??___flmul+2,w
  5691  05C5  1103               	clrz
  5692  05C6  1803               	skipnc
  5693  05C7  3E01               	addlw	1
  5694  05C8  1903               	skipnz
  5695  05C9  2DCB               	goto	u3022
  5696  05CA  07AB               	addwf	___flmul@grs+2,f
  5697  05CB                     u3022:
  5698  05CB  087C               	movf	??___flmul+3,w
  5699  05CC  1103               	clrz
  5700  05CD  1803               	skipnc
  5701  05CE  3E01               	addlw	1
  5702  05CF  1903               	skipnz
  5703  05D0  2DD2               	goto	u3023
  5704  05D1  07AC               	addwf	___flmul@grs+3,f
  5705  05D2                     u3023:
  5706  05D2                     l2292:
  5707  05D2  0820               	movf	___flmul@b,w
  5708  05D3  00F9               	movwf	??___flmul
  5709  05D4  0879               	movf	??___flmul,w
  5710  05D5  00F0               	movwf	__Umul8_16@multiplicand
  5711  05D6  0825               	movf	___flmul@a+1,w
  5712  05D7  120A  118A  200E  120A  118A  	fcall	__Umul8_16
  5713  05DC  0871               	movf	?__Umul8_16+1,w
  5714  05DD  1283               	bcf	3,5	;RP0=0, select bank0
  5715  05DE  1303               	bcf	3,6	;RP1=0, select bank0
  5716  05DF  00B4               	movwf	___flmul@temp+1
  5717  05E0  0870               	movf	?__Umul8_16,w
  5718  05E1  00B3               	movwf	___flmul@temp
  5719  05E2                     l2294:
  5720  05E2  0833               	movf	___flmul@temp,w
  5721  05E3  00F9               	movwf	??___flmul
  5722  05E4  0834               	movf	___flmul@temp+1,w
  5723  05E5  00FA               	movwf	??___flmul+1
  5724  05E6  01FB               	clrf	??___flmul+2
  5725  05E7  01FC               	clrf	??___flmul+3
  5726  05E8  0879               	movf	??___flmul,w
  5727  05E9  07A9               	addwf	___flmul@grs,f
  5728  05EA  087A               	movf	??___flmul+1,w
  5729  05EB  1103               	clrz
  5730  05EC  1803               	skipnc
  5731  05ED  3E01               	addlw	1
  5732  05EE  1903               	skipnz
  5733  05EF  2DF1               	goto	u3031
  5734  05F0  07AA               	addwf	___flmul@grs+1,f
  5735  05F1                     u3031:
  5736  05F1  087B               	movf	??___flmul+2,w
  5737  05F2  1103               	clrz
  5738  05F3  1803               	skipnc
  5739  05F4  3E01               	addlw	1
  5740  05F5  1903               	skipnz
  5741  05F6  2DF8               	goto	u3032
  5742  05F7  07AB               	addwf	___flmul@grs+2,f
  5743  05F8                     u3032:
  5744  05F8  087C               	movf	??___flmul+3,w
  5745  05F9  1103               	clrz
  5746  05FA  1803               	skipnc
  5747  05FB  3E01               	addlw	1
  5748  05FC  1903               	skipnz
  5749  05FD  2DFF               	goto	u3033
  5750  05FE  07AC               	addwf	___flmul@grs+3,f
  5751  05FF                     u3033:
  5752  05FF                     l2296:
  5753  05FF  3008               	movlw	8
  5754  0600  00F9               	movwf	??___flmul
  5755  0601                     u3045:
  5756  0601  1003               	clrc
  5757  0602  0DA9               	rlf	___flmul@grs,f
  5758  0603  0DAA               	rlf	___flmul@grs+1,f
  5759  0604  0DAB               	rlf	___flmul@grs+2,f
  5760  0605  0DAC               	rlf	___flmul@grs+3,f
  5761  0606  0BF9               	decfsz	??___flmul,f
  5762  0607  2E01               	goto	u3045
  5763  0608  0820               	movf	___flmul@b,w
  5764  0609  00F9               	movwf	??___flmul
  5765  060A  0879               	movf	??___flmul,w
  5766  060B  00F0               	movwf	__Umul8_16@multiplicand
  5767  060C  0824               	movf	___flmul@a,w
  5768  060D  120A  118A  200E  120A  118A  	fcall	__Umul8_16
  5769  0612  0871               	movf	?__Umul8_16+1,w
  5770  0613  1283               	bcf	3,5	;RP0=0, select bank0
  5771  0614  1303               	bcf	3,6	;RP1=0, select bank0
  5772  0615  00B4               	movwf	___flmul@temp+1
  5773  0616  0870               	movf	?__Umul8_16,w
  5774  0617  00B3               	movwf	___flmul@temp
  5775  0618                     l2298:
  5776  0618  0833               	movf	___flmul@temp,w
  5777  0619  00F9               	movwf	??___flmul
  5778  061A  0834               	movf	___flmul@temp+1,w
  5779  061B  00FA               	movwf	??___flmul+1
  5780  061C  01FB               	clrf	??___flmul+2
  5781  061D  01FC               	clrf	??___flmul+3
  5782  061E  0879               	movf	??___flmul,w
  5783  061F  07A9               	addwf	___flmul@grs,f
  5784  0620  087A               	movf	??___flmul+1,w
  5785  0621  1103               	clrz
  5786  0622  1803               	skipnc
  5787  0623  3E01               	addlw	1
  5788  0624  1903               	skipnz
  5789  0625  2E27               	goto	u3051
  5790  0626  07AA               	addwf	___flmul@grs+1,f
  5791  0627                     u3051:
  5792  0627  087B               	movf	??___flmul+2,w
  5793  0628  1103               	clrz
  5794  0629  1803               	skipnc
  5795  062A  3E01               	addlw	1
  5796  062B  1903               	skipnz
  5797  062C  2E2E               	goto	u3052
  5798  062D  07AB               	addwf	___flmul@grs+2,f
  5799  062E                     u3052:
  5800  062E  087C               	movf	??___flmul+3,w
  5801  062F  1103               	clrz
  5802  0630  1803               	skipnc
  5803  0631  3E01               	addlw	1
  5804  0632  1903               	skipnz
  5805  0633  2E35               	goto	u3053
  5806  0634  07AC               	addwf	___flmul@grs+3,f
  5807  0635                     u3053:
  5808  0635                     l2300:
  5809  0635  0821               	movf	___flmul@b+1,w
  5810  0636  00F9               	movwf	??___flmul
  5811  0637  0879               	movf	??___flmul,w
  5812  0638  00F0               	movwf	__Umul8_16@multiplicand
  5813  0639  0826               	movf	___flmul@a+2,w
  5814  063A  120A  118A  200E  120A  118A  	fcall	__Umul8_16
  5815  063F  0871               	movf	?__Umul8_16+1,w
  5816  0640  1283               	bcf	3,5	;RP0=0, select bank0
  5817  0641  1303               	bcf	3,6	;RP1=0, select bank0
  5818  0642  00B4               	movwf	___flmul@temp+1
  5819  0643  0870               	movf	?__Umul8_16,w
  5820  0644  00B3               	movwf	___flmul@temp
  5821  0645  0833               	movf	___flmul@temp,w
  5822  0646  00F9               	movwf	??___flmul
  5823  0647  0834               	movf	___flmul@temp+1,w
  5824  0648  00FA               	movwf	??___flmul+1
  5825  0649  01FB               	clrf	??___flmul+2
  5826  064A  01FC               	clrf	??___flmul+3
  5827  064B  0879               	movf	??___flmul,w
  5828  064C  07AF               	addwf	___flmul@prod,f
  5829  064D  087A               	movf	??___flmul+1,w
  5830  064E  1103               	clrz
  5831  064F  1803               	skipnc
  5832  0650  3E01               	addlw	1
  5833  0651  1903               	skipnz
  5834  0652  2E54               	goto	u3061
  5835  0653  07B0               	addwf	___flmul@prod+1,f
  5836  0654                     u3061:
  5837  0654  087B               	movf	??___flmul+2,w
  5838  0655  1103               	clrz
  5839  0656  1803               	skipnc
  5840  0657  3E01               	addlw	1
  5841  0658  1903               	skipnz
  5842  0659  2E5B               	goto	u3062
  5843  065A  07B1               	addwf	___flmul@prod+2,f
  5844  065B                     u3062:
  5845  065B  087C               	movf	??___flmul+3,w
  5846  065C  1103               	clrz
  5847  065D  1803               	skipnc
  5848  065E  3E01               	addlw	1
  5849  065F  1903               	skipnz
  5850  0660  2E62               	goto	u3063
  5851  0661  07B2               	addwf	___flmul@prod+3,f
  5852  0662                     u3063:
  5853  0662                     l2302:
  5854  0662  0822               	movf	___flmul@b+2,w
  5855  0663  00F9               	movwf	??___flmul
  5856  0664  0879               	movf	??___flmul,w
  5857  0665  00F0               	movwf	__Umul8_16@multiplicand
  5858  0666  0825               	movf	___flmul@a+1,w
  5859  0667  120A  118A  200E  120A  118A  	fcall	__Umul8_16
  5860  066C  0871               	movf	?__Umul8_16+1,w
  5861  066D  1283               	bcf	3,5	;RP0=0, select bank0
  5862  066E  1303               	bcf	3,6	;RP1=0, select bank0
  5863  066F  00B4               	movwf	___flmul@temp+1
  5864  0670  0870               	movf	?__Umul8_16,w
  5865  0671  00B3               	movwf	___flmul@temp
  5866  0672                     l2304:
  5867  0672  0833               	movf	___flmul@temp,w
  5868  0673  00F9               	movwf	??___flmul
  5869  0674  0834               	movf	___flmul@temp+1,w
  5870  0675  00FA               	movwf	??___flmul+1
  5871  0676  01FB               	clrf	??___flmul+2
  5872  0677  01FC               	clrf	??___flmul+3
  5873  0678  0879               	movf	??___flmul,w
  5874  0679  07AF               	addwf	___flmul@prod,f
  5875  067A  087A               	movf	??___flmul+1,w
  5876  067B  1103               	clrz
  5877  067C  1803               	skipnc
  5878  067D  3E01               	addlw	1
  5879  067E  1903               	skipnz
  5880  067F  2E81               	goto	u3071
  5881  0680  07B0               	addwf	___flmul@prod+1,f
  5882  0681                     u3071:
  5883  0681  087B               	movf	??___flmul+2,w
  5884  0682  1103               	clrz
  5885  0683  1803               	skipnc
  5886  0684  3E01               	addlw	1
  5887  0685  1903               	skipnz
  5888  0686  2E88               	goto	u3072
  5889  0687  07B1               	addwf	___flmul@prod+2,f
  5890  0688                     u3072:
  5891  0688  087C               	movf	??___flmul+3,w
  5892  0689  1103               	clrz
  5893  068A  1803               	skipnc
  5894  068B  3E01               	addlw	1
  5895  068C  1903               	skipnz
  5896  068D  2E8F               	goto	u3073
  5897  068E  07B2               	addwf	___flmul@prod+3,f
  5898  068F                     u3073:
  5899  068F  0822               	movf	___flmul@b+2,w
  5900  0690  00F9               	movwf	??___flmul
  5901  0691  0879               	movf	??___flmul,w
  5902  0692  00F0               	movwf	__Umul8_16@multiplicand
  5903  0693  0826               	movf	___flmul@a+2,w
  5904  0694  120A  118A  200E  120A  118A  	fcall	__Umul8_16
  5905  0699  0871               	movf	?__Umul8_16+1,w
  5906  069A  1283               	bcf	3,5	;RP0=0, select bank0
  5907  069B  1303               	bcf	3,6	;RP1=0, select bank0
  5908  069C  00B4               	movwf	___flmul@temp+1
  5909  069D  0870               	movf	?__Umul8_16,w
  5910  069E  00B3               	movwf	___flmul@temp
  5911  069F                     l2306:
  5912  069F  0833               	movf	___flmul@temp,w
  5913  06A0  00F9               	movwf	??___flmul
  5914  06A1  0834               	movf	___flmul@temp+1,w
  5915  06A2  00FA               	movwf	??___flmul+1
  5916  06A3  01FB               	clrf	??___flmul+2
  5917  06A4  01FC               	clrf	??___flmul+3
  5918  06A5  3008               	movlw	8
  5919  06A6                     u3085:
  5920  06A6  1003               	clrc
  5921  06A7  0DF9               	rlf	??___flmul,f
  5922  06A8  0DFA               	rlf	??___flmul+1,f
  5923  06A9  0DFB               	rlf	??___flmul+2,f
  5924  06AA  0DFC               	rlf	??___flmul+3,f
  5925  06AB                     u3080:
  5926  06AB  3EFF               	addlw	-1
  5927  06AC  1D03               	skipz
  5928  06AD  2EA6               	goto	u3085
  5929  06AE  0879               	movf	??___flmul,w
  5930  06AF  07AF               	addwf	___flmul@prod,f
  5931  06B0  087A               	movf	??___flmul+1,w
  5932  06B1  1103               	clrz
  5933  06B2  1803               	skipnc
  5934  06B3  3E01               	addlw	1
  5935  06B4  1903               	skipnz
  5936  06B5  2EB7               	goto	u3091
  5937  06B6  07B0               	addwf	___flmul@prod+1,f
  5938  06B7                     u3091:
  5939  06B7  087B               	movf	??___flmul+2,w
  5940  06B8  1103               	clrz
  5941  06B9  1803               	skipnc
  5942  06BA  3E01               	addlw	1
  5943  06BB  1903               	skipnz
  5944  06BC  2EBE               	goto	u3092
  5945  06BD  07B1               	addwf	___flmul@prod+2,f
  5946  06BE                     u3092:
  5947  06BE  087C               	movf	??___flmul+3,w
  5948  06BF  1103               	clrz
  5949  06C0  1803               	skipnc
  5950  06C1  3E01               	addlw	1
  5951  06C2  1903               	skipnz
  5952  06C3  2EC5               	goto	u3093
  5953  06C4  07B2               	addwf	___flmul@prod+3,f
  5954  06C5                     u3093:
  5955  06C5                     l2308:
  5956  06C5  0829               	movf	___flmul@grs,w
  5957  06C6  00F9               	movwf	??___flmul
  5958  06C7  082A               	movf	___flmul@grs+1,w
  5959  06C8  00FA               	movwf	??___flmul+1
  5960  06C9  082B               	movf	___flmul@grs+2,w
  5961  06CA  00FB               	movwf	??___flmul+2
  5962  06CB  082C               	movf	___flmul@grs+3,w
  5963  06CC  00FC               	movwf	??___flmul+3
  5964  06CD  3018               	movlw	24
  5965  06CE                     u3105:
  5966  06CE  1003               	clrc
  5967  06CF  0CFC               	rrf	??___flmul+3,f
  5968  06D0  0CFB               	rrf	??___flmul+2,f
  5969  06D1  0CFA               	rrf	??___flmul+1,f
  5970  06D2  0CF9               	rrf	??___flmul,f
  5971  06D3                     u3100:
  5972  06D3  3EFF               	addlw	-1
  5973  06D4  1D03               	skipz
  5974  06D5  2ECE               	goto	u3105
  5975  06D6  0879               	movf	??___flmul,w
  5976  06D7  07AF               	addwf	___flmul@prod,f
  5977  06D8  087A               	movf	??___flmul+1,w
  5978  06D9  1103               	clrz
  5979  06DA  1803               	skipnc
  5980  06DB  3E01               	addlw	1
  5981  06DC  1903               	skipnz
  5982  06DD  2EDF               	goto	u3111
  5983  06DE  07B0               	addwf	___flmul@prod+1,f
  5984  06DF                     u3111:
  5985  06DF  087B               	movf	??___flmul+2,w
  5986  06E0  1103               	clrz
  5987  06E1  1803               	skipnc
  5988  06E2  3E01               	addlw	1
  5989  06E3  1903               	skipnz
  5990  06E4  2EE6               	goto	u3112
  5991  06E5  07B1               	addwf	___flmul@prod+2,f
  5992  06E6                     u3112:
  5993  06E6  087C               	movf	??___flmul+3,w
  5994  06E7  1103               	clrz
  5995  06E8  1803               	skipnc
  5996  06E9  3E01               	addlw	1
  5997  06EA  1903               	skipnz
  5998  06EB  2EED               	goto	u3113
  5999  06EC  07B2               	addwf	___flmul@prod+3,f
  6000  06ED                     u3113:
  6001  06ED                     l2310:
  6002  06ED  3008               	movlw	8
  6003  06EE  00F9               	movwf	??___flmul
  6004  06EF                     u3125:
  6005  06EF  1003               	clrc
  6006  06F0  0DA9               	rlf	___flmul@grs,f
  6007  06F1  0DAA               	rlf	___flmul@grs+1,f
  6008  06F2  0DAB               	rlf	___flmul@grs+2,f
  6009  06F3  0DAC               	rlf	___flmul@grs+3,f
  6010  06F4  0BF9               	decfsz	??___flmul,f
  6011  06F5  2EEF               	goto	u3125
  6012  06F6                     l2312:
  6013  06F6  082E               	movf	___flmul@bexp,w
  6014  06F7  072D               	addwf	___flmul@aexp,w
  6015  06F8  00F9               	movwf	??___flmul
  6016  06F9  01FA               	clrf	??___flmul+1
  6017  06FA  0DFA               	rlf	??___flmul+1,f
  6018  06FB  0879               	movf	??___flmul,w
  6019  06FC  3E82               	addlw	130
  6020  06FD  00B3               	movwf	___flmul@temp
  6021  06FE  087A               	movf	??___flmul+1,w
  6022  06FF  1803               	skipnc
  6023  0700  3E01               	addlw	1
  6024  0701  3EFF               	addlw	255
  6025  0702  00B4               	movwf	___flmul@temp+1
  6026  0703  2F21               	goto	l2324
  6027  0704                     l2314:
  6028  0704  3001               	movlw	1
  6029  0705  00F9               	movwf	??___flmul
  6030  0706                     u3135:
  6031  0706  1003               	clrc
  6032  0707  0DAF               	rlf	___flmul@prod,f
  6033  0708  0DB0               	rlf	___flmul@prod+1,f
  6034  0709  0DB1               	rlf	___flmul@prod+2,f
  6035  070A  0DB2               	rlf	___flmul@prod+3,f
  6036  070B  0BF9               	decfsz	??___flmul,f
  6037  070C  2F06               	goto	u3135
  6038  070D                     l2316:
  6039  070D  1FAC               	btfss	___flmul@grs+3,7
  6040  070E  2F10               	goto	u3141
  6041  070F  2F11               	goto	u3140
  6042  0710                     u3141:
  6043  0710  2F12               	goto	l2320
  6044  0711                     u3140:
  6045  0711                     l2318:
  6046  0711  142F               	bsf	___flmul@prod,0
  6047  0712                     l2320:
  6048  0712  3001               	movlw	1
  6049  0713  00F9               	movwf	??___flmul
  6050  0714                     u3155:
  6051  0714  1003               	clrc
  6052  0715  0DA9               	rlf	___flmul@grs,f
  6053  0716  0DAA               	rlf	___flmul@grs+1,f
  6054  0717  0DAB               	rlf	___flmul@grs+2,f
  6055  0718  0DAC               	rlf	___flmul@grs+3,f
  6056  0719  0BF9               	decfsz	??___flmul,f
  6057  071A  2F14               	goto	u3155
  6058  071B                     l2322:
  6059  071B  30FF               	movlw	255
  6060  071C  07B3               	addwf	___flmul@temp,f
  6061  071D  1803               	skipnc
  6062  071E  0AB4               	incf	___flmul@temp+1,f
  6063  071F  30FF               	movlw	255
  6064  0720  07B4               	addwf	___flmul@temp+1,f
  6065  0721                     l2324:
  6066  0721  1FB1               	btfss	___flmul@prod+2,7
  6067  0722  2F24               	goto	u3161
  6068  0723  2F25               	goto	u3160
  6069  0724                     u3161:
  6070  0724  2F04               	goto	l2314
  6071  0725                     u3160:
  6072  0725                     l2326:
  6073  0725  01AD               	clrf	___flmul@aexp
  6074  0726                     l2328:
  6075  0726  1FAC               	btfss	___flmul@grs+3,7
  6076  0727  2F29               	goto	u3171
  6077  0728  2F2A               	goto	u3170
  6078  0729                     u3171:
  6079  0729  2F46               	goto	l2336
  6080  072A                     u3170:
  6081  072A                     l2330:
  6082  072A  30FF               	movlw	255
  6083  072B  0529               	andwf	___flmul@grs,w
  6084  072C  00F9               	movwf	??___flmul
  6085  072D  30FF               	movlw	255
  6086  072E  052A               	andwf	___flmul@grs+1,w
  6087  072F  00FA               	movwf	??___flmul+1
  6088  0730  30FF               	movlw	255
  6089  0731  052B               	andwf	___flmul@grs+2,w
  6090  0732  00FB               	movwf	??___flmul+2
  6091  0733  307F               	movlw	127
  6092  0734  052C               	andwf	___flmul@grs+3,w
  6093  0735  00FC               	movwf	??___flmul+3
  6094  0736  087C               	movf	??___flmul+3,w
  6095  0737  047B               	iorwf	??___flmul+2,w
  6096  0738  047A               	iorwf	??___flmul+1,w
  6097  0739  0479               	iorwf	??___flmul,w
  6098  073A  1903               	skipnz
  6099  073B  2F3D               	goto	u3181
  6100  073C  2F3E               	goto	u3180
  6101  073D                     u3181:
  6102  073D  2F41               	goto	l659
  6103  073E                     u3180:
  6104  073E                     l2332:
  6105  073E  01AD               	clrf	___flmul@aexp
  6106  073F  0AAD               	incf	___flmul@aexp,f
  6107  0740  2F46               	goto	l2336
  6108  0741                     l659:
  6109  0741  1C2F               	btfss	___flmul@prod,0
  6110  0742  2F44               	goto	u3191
  6111  0743  2F45               	goto	u3190
  6112  0744                     u3191:
  6113  0744  2F46               	goto	l2336
  6114  0745                     u3190:
  6115  0745  2F3E               	goto	l2332
  6116  0746                     l2336:
  6117  0746  082D               	movf	___flmul@aexp,w
  6118  0747  1903               	btfsc	3,2
  6119  0748  2F4A               	goto	u3201
  6120  0749  2F4B               	goto	u3200
  6121  074A                     u3201:
  6122  074A  2F7C               	goto	l2346
  6123  074B                     u3200:
  6124  074B                     l2338:
  6125  074B  3001               	movlw	1
  6126  074C  07AF               	addwf	___flmul@prod,f
  6127  074D  3000               	movlw	0
  6128  074E  1803               	skipnc
  6129  074F  3001               	movlw	1
  6130  0750  07B0               	addwf	___flmul@prod+1,f
  6131  0751  3000               	movlw	0
  6132  0752  1803               	skipnc
  6133  0753  3001               	movlw	1
  6134  0754  07B1               	addwf	___flmul@prod+2,f
  6135  0755  3000               	movlw	0
  6136  0756  1803               	skipnc
  6137  0757  3001               	movlw	1
  6138  0758  07B2               	addwf	___flmul@prod+3,f
  6139  0759                     l2340:
  6140  0759  1C32               	btfss	___flmul@prod+3,0
  6141  075A  2F5C               	goto	u3211
  6142  075B  2F5D               	goto	u3210
  6143  075C                     u3211:
  6144  075C  2F7C               	goto	l2346
  6145  075D                     u3210:
  6146  075D                     l2342:
  6147  075D  082F               	movf	___flmul@prod,w
  6148  075E  00F9               	movwf	??___flmul
  6149  075F  0830               	movf	___flmul@prod+1,w
  6150  0760  00FA               	movwf	??___flmul+1
  6151  0761  0831               	movf	___flmul@prod+2,w
  6152  0762  00FB               	movwf	??___flmul+2
  6153  0763  0832               	movf	___flmul@prod+3,w
  6154  0764  00FC               	movwf	??___flmul+3
  6155  0765  3001               	movlw	1
  6156  0766  00FD               	movwf	??___flmul+4
  6157  0767                     u3225:
  6158  0767  0D7C               	rlf	??___flmul+3,w
  6159  0768  0CFC               	rrf	??___flmul+3,f
  6160  0769  0CFB               	rrf	??___flmul+2,f
  6161  076A  0CFA               	rrf	??___flmul+1,f
  6162  076B  0CF9               	rrf	??___flmul,f
  6163  076C                     u3220:
  6164  076C  0BFD               	decfsz	??___flmul+4,f
  6165  076D  2F67               	goto	u3225
  6166  076E  087C               	movf	??___flmul+3,w
  6167  076F  00B2               	movwf	___flmul@prod+3
  6168  0770  087B               	movf	??___flmul+2,w
  6169  0771  00B1               	movwf	___flmul@prod+2
  6170  0772  087A               	movf	??___flmul+1,w
  6171  0773  00B0               	movwf	___flmul@prod+1
  6172  0774  0879               	movf	??___flmul,w
  6173  0775  00AF               	movwf	___flmul@prod
  6174  0776                     l2344:
  6175  0776  3001               	movlw	1
  6176  0777  07B3               	addwf	___flmul@temp,f
  6177  0778  1803               	skipnc
  6178  0779  0AB4               	incf	___flmul@temp+1,f
  6179  077A  3000               	movlw	0
  6180  077B  07B4               	addwf	___flmul@temp+1,f
  6181  077C                     l2346:
  6182  077C  0834               	movf	___flmul@temp+1,w
  6183  077D  3A80               	xorlw	128
  6184  077E  00FF               	movwf	btemp+1
  6185  077F  3080               	movlw	128
  6186  0780  027F               	subwf	btemp+1,w
  6187  0781  1D03               	skipz
  6188  0782  2F85               	goto	u3235
  6189  0783  30FF               	movlw	255
  6190  0784  0233               	subwf	___flmul@temp,w
  6191  0785                     u3235:
  6192  0785  1C03               	skipc
  6193  0786  2F88               	goto	u3231
  6194  0787  2F89               	goto	u3230
  6195  0788                     u3231:
  6196  0788  2F94               	goto	l2350
  6197  0789                     u3230:
  6198  0789                     l2348:
  6199  0789  307F               	movlw	127
  6200  078A  1283               	bcf	3,5	;RP0=0, select bank0
  6201  078B  1303               	bcf	3,6	;RP1=0, select bank0
  6202  078C  00B2               	movwf	___flmul@prod+3
  6203  078D  3080               	movlw	128
  6204  078E  00B1               	movwf	___flmul@prod+2
  6205  078F  3000               	movlw	0
  6206  0790  00B0               	movwf	___flmul@prod+1
  6207  0791  3000               	movlw	0
  6208  0792  00AF               	movwf	___flmul@prod
  6209  0793  2FC9               	goto	l665
  6210  0794                     l2350:
  6211  0794  1283               	bcf	3,5	;RP0=0, select bank0
  6212  0795  1303               	bcf	3,6	;RP1=0, select bank0
  6213  0796  0834               	movf	___flmul@temp+1,w
  6214  0797  3A80               	xorlw	128
  6215  0798  00FF               	movwf	btemp+1
  6216  0799  3080               	movlw	128
  6217  079A  027F               	subwf	btemp+1,w
  6218  079B  1D03               	skipz
  6219  079C  2F9F               	goto	u3245
  6220  079D  3001               	movlw	1
  6221  079E  0233               	subwf	___flmul@temp,w
  6222  079F                     u3245:
  6223  079F  1803               	skipnc
  6224  07A0  2FA2               	goto	u3241
  6225  07A1  2FA3               	goto	u3240
  6226  07A2                     u3241:
  6227  07A2  2FAF               	goto	l2356
  6228  07A3                     u3240:
  6229  07A3                     l2352:
  6230  07A3  3000               	movlw	0
  6231  07A4  1283               	bcf	3,5	;RP0=0, select bank0
  6232  07A5  1303               	bcf	3,6	;RP1=0, select bank0
  6233  07A6  00B2               	movwf	___flmul@prod+3
  6234  07A7  3000               	movlw	0
  6235  07A8  00B1               	movwf	___flmul@prod+2
  6236  07A9  3000               	movlw	0
  6237  07AA  00B0               	movwf	___flmul@prod+1
  6238  07AB  3000               	movlw	0
  6239  07AC  00AF               	movwf	___flmul@prod
  6240  07AD                     l2354:
  6241  07AD  01A8               	clrf	___flmul@sign
  6242  07AE  2FC9               	goto	l665
  6243  07AF                     l2356:
  6244  07AF  1283               	bcf	3,5	;RP0=0, select bank0
  6245  07B0  1303               	bcf	3,6	;RP1=0, select bank0
  6246  07B1  0833               	movf	___flmul@temp,w
  6247  07B2  00F9               	movwf	??___flmul
  6248  07B3  0879               	movf	??___flmul,w
  6249  07B4  00AE               	movwf	___flmul@bexp
  6250  07B5  30FF               	movlw	255
  6251  07B6  05AF               	andwf	___flmul@prod,f
  6252  07B7  30FF               	movlw	255
  6253  07B8  05B0               	andwf	___flmul@prod+1,f
  6254  07B9  307F               	movlw	127
  6255  07BA  05B1               	andwf	___flmul@prod+2,f
  6256  07BB  3000               	movlw	0
  6257  07BC  05B2               	andwf	___flmul@prod+3,f
  6258  07BD                     l2358:
  6259  07BD  1C2E               	btfss	___flmul@bexp,0
  6260  07BE  2FC0               	goto	u3251
  6261  07BF  2FC1               	goto	u3250
  6262  07C0                     u3251:
  6263  07C0  2FC2               	goto	l2362
  6264  07C1                     u3250:
  6265  07C1                     l2360:
  6266  07C1  17B1               	bsf	___flmul@prod+2,7
  6267  07C2                     l2362:
  6268  07C2  082E               	movf	___flmul@bexp,w
  6269  07C3  00F9               	movwf	??___flmul
  6270  07C4  1003               	clrc
  6271  07C5  0C79               	rrf	??___flmul,w
  6272  07C6  00FA               	movwf	??___flmul+1
  6273  07C7  087A               	movf	??___flmul+1,w
  6274  07C8  00B2               	movwf	___flmul@prod+3
  6275  07C9                     l665:
  6276  07C9  0828               	movf	___flmul@sign,w
  6277  07CA  00F9               	movwf	??___flmul
  6278  07CB  0879               	movf	??___flmul,w
  6279  07CC  04B2               	iorwf	___flmul@prod+3,f
  6280  07CD                     l2364:
  6281  07CD  0832               	movf	___flmul@prod+3,w
  6282  07CE  00A3               	movwf	?___flmul+3
  6283  07CF  0831               	movf	___flmul@prod+2,w
  6284  07D0  00A2               	movwf	?___flmul+2
  6285  07D1  0830               	movf	___flmul@prod+1,w
  6286  07D2  00A1               	movwf	?___flmul+1
  6287  07D3  082F               	movf	___flmul@prod,w
  6288  07D4  00A0               	movwf	?___flmul
  6289  07D5                     l653:
  6290  07D5  0008               	return
  6291  07D6                     __end_of___flmul:
  6292                           
  6293                           	psect	text19
  6294  000E                     __ptext19:	
  6295 ;; *************** function __Umul8_16 *****************
  6296 ;; Defined at:
  6297 ;;		line 4 in file "C:\Program Files\Microchip\xc8\v2.32\pic\sources\c90\common\Umul8_16.c"
  6298 ;; Parameters:    Size  Location     Type
  6299 ;;  multiplier      1    wreg     unsigned char 
  6300 ;;  multiplicand    1    0[COMMON] unsigned char 
  6301 ;; Auto vars:     Size  Location     Type
  6302 ;;  multiplier      1    8[COMMON] unsigned char 
  6303 ;;  word_mpld       2    6[COMMON] unsigned int 
  6304 ;;  product         2    4[COMMON] unsigned int 
  6305 ;; Return value:  Size  Location     Type
  6306 ;;                  2    0[COMMON] unsigned int 
  6307 ;; Registers used:
  6308 ;;		wreg, status,2, status,0
  6309 ;; Tracked objects:
  6310 ;;		On entry : 0/0
  6311 ;;		On exit  : 0/0
  6312 ;;		Unchanged: 0/0
  6313 ;; Data sizes:     COMMON   BANK0   BANK1   BANK3   BANK2
  6314 ;;      Params:         2       0       0       0       0
  6315 ;;      Locals:         5       0       0       0       0
  6316 ;;      Temps:          2       0       0       0       0
  6317 ;;      Totals:         9       0       0       0       0
  6318 ;;Total ram usage:        9 bytes
  6319 ;; Hardware stack levels used: 1
  6320 ;; This function calls:
  6321 ;;		Nothing
  6322 ;; This function is called by:
  6323 ;;		___flmul
  6324 ;; This function uses a non-reentrant model
  6325 ;;
  6326                           
  6327                           
  6328                           ;psect for function __Umul8_16
  6329  000E                     __Umul8_16:
  6330                           
  6331                           ;incstack = 0
  6332                           ; Regs used in __Umul8_16: [wreg+status,2+status,0]
  6333                           ;__Umul8_16@multiplier stored from wreg
  6334  000E  00F8               	movwf	__Umul8_16@multiplier
  6335  000F                     l1964:
  6336  000F  01F4               	clrf	__Umul8_16@product
  6337  0010  01F5               	clrf	__Umul8_16@product+1
  6338  0011                     l1966:
  6339  0011  0870               	movf	__Umul8_16@multiplicand,w
  6340  0012  00F2               	movwf	??__Umul8_16
  6341  0013  01F3               	clrf	??__Umul8_16+1
  6342  0014  0872               	movf	??__Umul8_16,w
  6343  0015  00F6               	movwf	__Umul8_16@word_mpld
  6344  0016  0873               	movf	??__Umul8_16+1,w
  6345  0017  00F7               	movwf	__Umul8_16@word_mpld+1
  6346  0018                     l1968:
  6347  0018  1C78               	btfss	__Umul8_16@multiplier,0
  6348  0019  281B               	goto	u2231
  6349  001A  281C               	goto	u2230
  6350  001B                     u2231:
  6351  001B  2822               	goto	l672
  6352  001C                     u2230:
  6353  001C                     l1970:
  6354  001C  0876               	movf	__Umul8_16@word_mpld,w
  6355  001D  07F4               	addwf	__Umul8_16@product,f
  6356  001E  1803               	skipnc
  6357  001F  0AF5               	incf	__Umul8_16@product+1,f
  6358  0020  0877               	movf	__Umul8_16@word_mpld+1,w
  6359  0021  07F5               	addwf	__Umul8_16@product+1,f
  6360  0022                     l672:
  6361  0022  3001               	movlw	1
  6362  0023                     u2245:
  6363  0023  1003               	clrc
  6364  0024  0DF6               	rlf	__Umul8_16@word_mpld,f
  6365  0025  0DF7               	rlf	__Umul8_16@word_mpld+1,f
  6366  0026  3EFF               	addlw	-1
  6367  0027  1D03               	skipz
  6368  0028  2823               	goto	u2245
  6369  0029  1003               	clrc
  6370  002A  0CF8               	rrf	__Umul8_16@multiplier,f
  6371  002B                     l1972:
  6372  002B  0878               	movf	__Umul8_16@multiplier,w
  6373  002C  1D03               	btfss	3,2
  6374  002D  282F               	goto	u2251
  6375  002E  2830               	goto	u2250
  6376  002F                     u2251:
  6377  002F  2818               	goto	l1968
  6378  0030                     u2250:
  6379  0030                     l1974:
  6380  0030  0875               	movf	__Umul8_16@product+1,w
  6381  0031  00F1               	movwf	?__Umul8_16+1
  6382  0032  0874               	movf	__Umul8_16@product,w
  6383  0033  00F0               	movwf	?__Umul8_16
  6384  0034                     l674:
  6385  0034  0008               	return
  6386  0035                     __end_of__Umul8_16:
  6387                           
  6388                           	psect	text20
  6389  1102                     __ptext20:	
  6390 ;; *************** function ___flsub *****************
  6391 ;; Defined at:
  6392 ;;		line 242 in file "C:\Program Files\Microchip\xc8\v2.32\pic\sources\c90\common\sprcadd.c"
  6393 ;; Parameters:    Size  Location     Type
  6394 ;;  a               4   41[BANK0 ] unsigned int 
  6395 ;;  b               4   45[BANK0 ] unsigned int 
  6396 ;; Auto vars:     Size  Location     Type
  6397 ;;		None
  6398 ;; Return value:  Size  Location     Type
  6399 ;;                  4   41[BANK0 ] unsigned int 
  6400 ;; Registers used:
  6401 ;;		wreg, status,2, status,0, btemp+1, pclath, cstack
  6402 ;; Tracked objects:
  6403 ;;		On entry : 0/0
  6404 ;;		On exit  : 0/0
  6405 ;;		Unchanged: 0/0
  6406 ;; Data sizes:     COMMON   BANK0   BANK1   BANK3   BANK2
  6407 ;;      Params:         0       8       0       0       0
  6408 ;;      Locals:         0       0       0       0       0
  6409 ;;      Temps:          0       0       0       0       0
  6410 ;;      Totals:         0       8       0       0       0
  6411 ;;Total ram usage:        8 bytes
  6412 ;; Hardware stack levels used: 1
  6413 ;; Hardware stack levels required when called: 1
  6414 ;; This function calls:
  6415 ;;		___fladd
  6416 ;; This function is called by:
  6417 ;;		_computeLyapunov
  6418 ;;		_sin
  6419 ;; This function uses a non-reentrant model
  6420 ;;
  6421                           
  6422                           
  6423                           ;psect for function ___flsub
  6424  1102                     ___flsub:
  6425  1102                     l2436:	
  6426                           ;incstack = 0
  6427                           ; Regs used in ___flsub: [wreg+status,2+status,0+btemp+1+pclath+cstack]
  6428                           
  6429  1102  3080               	movlw	128
  6430  1103  1283               	bcf	3,5	;RP0=0, select bank0
  6431  1104  1303               	bcf	3,6	;RP1=0, select bank0
  6432  1105  06CC               	xorwf	___flsub@a+3,f
  6433  1106                     l2438:
  6434  1106  0850               	movf	___flsub@b+3,w
  6435  1107  00B8               	movwf	___fladd@b+3
  6436  1108  084F               	movf	___flsub@b+2,w
  6437  1109  00B7               	movwf	___fladd@b+2
  6438  110A  084E               	movf	___flsub@b+1,w
  6439  110B  00B6               	movwf	___fladd@b+1
  6440  110C  084D               	movf	___flsub@b,w
  6441  110D  00B5               	movwf	___fladd@b
  6442  110E  084C               	movf	___flsub@a+3,w
  6443  110F  00BC               	movwf	___fladd@a+3
  6444  1110  084B               	movf	___flsub@a+2,w
  6445  1111  00BB               	movwf	___fladd@a+2
  6446  1112  084A               	movf	___flsub@a+1,w
  6447  1113  00BA               	movwf	___fladd@a+1
  6448  1114  0849               	movf	___flsub@a,w
  6449  1115  00B9               	movwf	___fladd@a
  6450  1116  120A  158A  2578  160A  118A  	fcall	___fladd
  6451  111B  1283               	bcf	3,5	;RP0=0, select bank0
  6452  111C  1303               	bcf	3,6	;RP1=0, select bank0
  6453  111D  0838               	movf	?___fladd+3,w
  6454  111E  00CC               	movwf	?___flsub+3
  6455  111F  0837               	movf	?___fladd+2,w
  6456  1120  00CB               	movwf	?___flsub+2
  6457  1121  0836               	movf	?___fladd+1,w
  6458  1122  00CA               	movwf	?___flsub+1
  6459  1123  0835               	movf	?___fladd,w
  6460  1124  00C9               	movwf	?___flsub
  6461  1125                     l603:
  6462  1125  0008               	return
  6463  1126                     __end_of___flsub:
  6464                           
  6465                           	psect	text21
  6466  0D78                     __ptext21:	
  6467 ;; *************** function ___fladd *****************
  6468 ;; Defined at:
  6469 ;;		line 10 in file "C:\Program Files\Microchip\xc8\v2.32\pic\sources\c90\common\sprcadd.c"
  6470 ;; Parameters:    Size  Location     Type
  6471 ;;  b               4   21[BANK0 ] unsigned int 
  6472 ;;  a               4   25[BANK0 ] unsigned int 
  6473 ;; Auto vars:     Size  Location     Type
  6474 ;;  grs             1   40[BANK0 ] unsigned char 
  6475 ;;  bexp            1   39[BANK0 ] unsigned char 
  6476 ;;  aexp            1   38[BANK0 ] unsigned char 
  6477 ;;  signs           1   37[BANK0 ] unsigned char 
  6478 ;; Return value:  Size  Location     Type
  6479 ;;                  4   21[BANK0 ] unsigned char 
  6480 ;; Registers used:
  6481 ;;		wreg, status,2, status,0, btemp+1
  6482 ;; Tracked objects:
  6483 ;;		On entry : 0/0
  6484 ;;		On exit  : 0/0
  6485 ;;		Unchanged: 0/0
  6486 ;; Data sizes:     COMMON   BANK0   BANK1   BANK3   BANK2
  6487 ;;      Params:         0       8       0       0       0
  6488 ;;      Locals:         0       4       0       0       0
  6489 ;;      Temps:          0       8       0       0       0
  6490 ;;      Totals:         0      20       0       0       0
  6491 ;;Total ram usage:       20 bytes
  6492 ;; Hardware stack levels used: 1
  6493 ;; This function calls:
  6494 ;;		Nothing
  6495 ;; This function is called by:
  6496 ;;		_computeLyapunov
  6497 ;;		___flsub
  6498 ;;		_cos
  6499 ;;		_eval_poly
  6500 ;;		_floor
  6501 ;; This function uses a non-reentrant model
  6502 ;;
  6503                           
  6504                           
  6505                           ;psect for function ___fladd
  6506  0D78                     ___fladd:
  6507  0D78                     l2034:	
  6508                           ;incstack = 0
  6509                           ; Regs used in ___fladd: [wreg+status,2+status,0+btemp+1]
  6510                           
  6511  0D78  1283               	bcf	3,5	;RP0=0, select bank0
  6512  0D79  1303               	bcf	3,6	;RP1=0, select bank0
  6513  0D7A  0838               	movf	___fladd@b+3,w
  6514  0D7B  3980               	andlw	128
  6515  0D7C  00BD               	movwf	??___fladd
  6516  0D7D  083D               	movf	??___fladd,w
  6517  0D7E  00C5               	movwf	___fladd@signs
  6518  0D7F                     l2036:
  6519  0D7F  0838               	movf	___fladd@b+3,w
  6520  0D80  00BD               	movwf	??___fladd
  6521  0D81  073D               	addwf	??___fladd,w
  6522  0D82  00BE               	movwf	??___fladd+1
  6523  0D83  083E               	movf	??___fladd+1,w
  6524  0D84  00C7               	movwf	___fladd@bexp
  6525  0D85                     l2038:
  6526  0D85  1FB7               	btfss	___fladd@b+2,7
  6527  0D86  2D88               	goto	u2431
  6528  0D87  2D89               	goto	u2430
  6529  0D88                     u2431:
  6530  0D88  2D8A               	goto	l2042
  6531  0D89                     u2430:
  6532  0D89                     l2040:
  6533  0D89  1447               	bsf	___fladd@bexp,0
  6534  0D8A                     l2042:
  6535  0D8A  0847               	movf	___fladd@bexp,w
  6536  0D8B  1903               	btfsc	3,2
  6537  0D8C  2D8E               	goto	u2441
  6538  0D8D  2D8F               	goto	u2440
  6539  0D8E                     u2441:
  6540  0D8E  2D9F               	goto	l2052
  6541  0D8F                     u2440:
  6542  0D8F                     l2044:
  6543  0D8F  0A47               	incf	___fladd@bexp,w
  6544  0D90  1D03               	btfss	3,2
  6545  0D91  2D93               	goto	u2451
  6546  0D92  2D94               	goto	u2450
  6547  0D93                     u2451:
  6548  0D93  2D9C               	goto	l2048
  6549  0D94                     u2450:
  6550  0D94                     l2046:
  6551  0D94  3000               	movlw	0
  6552  0D95  00B8               	movwf	___fladd@b+3
  6553  0D96  3000               	movlw	0
  6554  0D97  00B7               	movwf	___fladd@b+2
  6555  0D98  3000               	movlw	0
  6556  0D99  00B6               	movwf	___fladd@b+1
  6557  0D9A  3000               	movlw	0
  6558  0D9B  00B5               	movwf	___fladd@b
  6559  0D9C                     l2048:
  6560  0D9C  17B7               	bsf	___fladd@b+2,7
  6561  0D9D                     l2050:
  6562  0D9D  01B8               	clrf	___fladd@b+3
  6563  0D9E  2DA7               	goto	l2054
  6564  0D9F                     l2052:
  6565  0D9F  3000               	movlw	0
  6566  0DA0  00B8               	movwf	___fladd@b+3
  6567  0DA1  3000               	movlw	0
  6568  0DA2  00B7               	movwf	___fladd@b+2
  6569  0DA3  3000               	movlw	0
  6570  0DA4  00B6               	movwf	___fladd@b+1
  6571  0DA5  3000               	movlw	0
  6572  0DA6  00B5               	movwf	___fladd@b
  6573  0DA7                     l2054:
  6574  0DA7  083C               	movf	___fladd@a+3,w
  6575  0DA8  3980               	andlw	128
  6576  0DA9  00BD               	movwf	??___fladd
  6577  0DAA  083D               	movf	??___fladd,w
  6578  0DAB  00C6               	movwf	___fladd@aexp
  6579  0DAC                     l2056:
  6580  0DAC  0846               	movf	___fladd@aexp,w
  6581  0DAD  0645               	xorwf	___fladd@signs,w
  6582  0DAE  1903               	skipnz
  6583  0DAF  2DB1               	goto	u2461
  6584  0DB0  2DB2               	goto	u2460
  6585  0DB1                     u2461:
  6586  0DB1  2DB3               	goto	l2060
  6587  0DB2                     u2460:
  6588  0DB2                     l2058:
  6589  0DB2  1745               	bsf	___fladd@signs,6
  6590  0DB3                     l2060:
  6591  0DB3  083C               	movf	___fladd@a+3,w
  6592  0DB4  00BD               	movwf	??___fladd
  6593  0DB5  073D               	addwf	??___fladd,w
  6594  0DB6  00BE               	movwf	??___fladd+1
  6595  0DB7  083E               	movf	??___fladd+1,w
  6596  0DB8  00C6               	movwf	___fladd@aexp
  6597  0DB9                     l2062:
  6598  0DB9  1FBB               	btfss	___fladd@a+2,7
  6599  0DBA  2DBC               	goto	u2471
  6600  0DBB  2DBD               	goto	u2470
  6601  0DBC                     u2471:
  6602  0DBC  2DBE               	goto	l2066
  6603  0DBD                     u2470:
  6604  0DBD                     l2064:
  6605  0DBD  1446               	bsf	___fladd@aexp,0
  6606  0DBE                     l2066:
  6607  0DBE  0846               	movf	___fladd@aexp,w
  6608  0DBF  1903               	btfsc	3,2
  6609  0DC0  2DC2               	goto	u2481
  6610  0DC1  2DC3               	goto	u2480
  6611  0DC2                     u2481:
  6612  0DC2  2DD3               	goto	l2076
  6613  0DC3                     u2480:
  6614  0DC3                     l2068:
  6615  0DC3  0A46               	incf	___fladd@aexp,w
  6616  0DC4  1D03               	btfss	3,2
  6617  0DC5  2DC7               	goto	u2491
  6618  0DC6  2DC8               	goto	u2490
  6619  0DC7                     u2491:
  6620  0DC7  2DD0               	goto	l2072
  6621  0DC8                     u2490:
  6622  0DC8                     l2070:
  6623  0DC8  3000               	movlw	0
  6624  0DC9  00BC               	movwf	___fladd@a+3
  6625  0DCA  3000               	movlw	0
  6626  0DCB  00BB               	movwf	___fladd@a+2
  6627  0DCC  3000               	movlw	0
  6628  0DCD  00BA               	movwf	___fladd@a+1
  6629  0DCE  3000               	movlw	0
  6630  0DCF  00B9               	movwf	___fladd@a
  6631  0DD0                     l2072:
  6632  0DD0  17BB               	bsf	___fladd@a+2,7
  6633  0DD1                     l2074:
  6634  0DD1  01BC               	clrf	___fladd@a+3
  6635  0DD2  2DDB               	goto	l557
  6636  0DD3                     l2076:
  6637  0DD3  3000               	movlw	0
  6638  0DD4  00BC               	movwf	___fladd@a+3
  6639  0DD5  3000               	movlw	0
  6640  0DD6  00BB               	movwf	___fladd@a+2
  6641  0DD7  3000               	movlw	0
  6642  0DD8  00BA               	movwf	___fladd@a+1
  6643  0DD9  3000               	movlw	0
  6644  0DDA  00B9               	movwf	___fladd@a
  6645  0DDB                     l557:
  6646  0DDB  0847               	movf	___fladd@bexp,w
  6647  0DDC  0246               	subwf	___fladd@aexp,w
  6648  0DDD  1803               	skipnc
  6649  0DDE  2DE0               	goto	u2501
  6650  0DDF  2DE1               	goto	u2500
  6651  0DE0                     u2501:
  6652  0DE0  2E25               	goto	l2112
  6653  0DE1                     u2500:
  6654  0DE1                     l2078:
  6655  0DE1  1F45               	btfss	___fladd@signs,6
  6656  0DE2  2DE4               	goto	u2511
  6657  0DE3  2DE5               	goto	u2510
  6658  0DE4                     u2511:
  6659  0DE4  2DE9               	goto	l2082
  6660  0DE5                     u2510:
  6661  0DE5                     l2080:
  6662  0DE5  3080               	movlw	128
  6663  0DE6  00BD               	movwf	??___fladd
  6664  0DE7  083D               	movf	??___fladd,w
  6665  0DE8  06C5               	xorwf	___fladd@signs,f
  6666  0DE9                     l2082:
  6667  0DE9  0847               	movf	___fladd@bexp,w
  6668  0DEA  00BD               	movwf	??___fladd
  6669  0DEB  083D               	movf	??___fladd,w
  6670  0DEC  00C8               	movwf	___fladd@grs
  6671  0DED                     l2084:
  6672  0DED  0846               	movf	___fladd@aexp,w
  6673  0DEE  00BD               	movwf	??___fladd
  6674  0DEF  083D               	movf	??___fladd,w
  6675  0DF0  00C7               	movwf	___fladd@bexp
  6676  0DF1                     l2086:
  6677  0DF1  0848               	movf	___fladd@grs,w
  6678  0DF2  00BD               	movwf	??___fladd
  6679  0DF3  083D               	movf	??___fladd,w
  6680  0DF4  00C6               	movwf	___fladd@aexp
  6681  0DF5                     l2088:
  6682  0DF5  0835               	movf	___fladd@b,w
  6683  0DF6  00BD               	movwf	??___fladd
  6684  0DF7  083D               	movf	??___fladd,w
  6685  0DF8  00C8               	movwf	___fladd@grs
  6686  0DF9                     l2090:
  6687  0DF9  0839               	movf	___fladd@a,w
  6688  0DFA  00BD               	movwf	??___fladd
  6689  0DFB  083D               	movf	??___fladd,w
  6690  0DFC  00B5               	movwf	___fladd@b
  6691  0DFD                     l2092:
  6692  0DFD  0848               	movf	___fladd@grs,w
  6693  0DFE  00BD               	movwf	??___fladd
  6694  0DFF  083D               	movf	??___fladd,w
  6695  0E00  00B9               	movwf	___fladd@a
  6696  0E01                     l2094:
  6697  0E01  0836               	movf	___fladd@b+1,w
  6698  0E02  00BD               	movwf	??___fladd
  6699  0E03  083D               	movf	??___fladd,w
  6700  0E04  00C8               	movwf	___fladd@grs
  6701  0E05                     l2096:
  6702  0E05  083A               	movf	___fladd@a+1,w
  6703  0E06  00BD               	movwf	??___fladd
  6704  0E07  083D               	movf	??___fladd,w
  6705  0E08  00B6               	movwf	___fladd@b+1
  6706  0E09                     l2098:
  6707  0E09  0848               	movf	___fladd@grs,w
  6708  0E0A  00BD               	movwf	??___fladd
  6709  0E0B  083D               	movf	??___fladd,w
  6710  0E0C  00BA               	movwf	___fladd@a+1
  6711  0E0D                     l2100:
  6712  0E0D  0837               	movf	___fladd@b+2,w
  6713  0E0E  00BD               	movwf	??___fladd
  6714  0E0F  083D               	movf	??___fladd,w
  6715  0E10  00C8               	movwf	___fladd@grs
  6716  0E11                     l2102:
  6717  0E11  083B               	movf	___fladd@a+2,w
  6718  0E12  00BD               	movwf	??___fladd
  6719  0E13  083D               	movf	??___fladd,w
  6720  0E14  00B7               	movwf	___fladd@b+2
  6721  0E15                     l2104:
  6722  0E15  0848               	movf	___fladd@grs,w
  6723  0E16  00BD               	movwf	??___fladd
  6724  0E17  083D               	movf	??___fladd,w
  6725  0E18  00BB               	movwf	___fladd@a+2
  6726  0E19                     l2106:
  6727  0E19  0838               	movf	___fladd@b+3,w
  6728  0E1A  00BD               	movwf	??___fladd
  6729  0E1B  083D               	movf	??___fladd,w
  6730  0E1C  00C8               	movwf	___fladd@grs
  6731  0E1D                     l2108:
  6732  0E1D  083C               	movf	___fladd@a+3,w
  6733  0E1E  00BD               	movwf	??___fladd
  6734  0E1F  083D               	movf	??___fladd,w
  6735  0E20  00B8               	movwf	___fladd@b+3
  6736  0E21                     l2110:
  6737  0E21  0848               	movf	___fladd@grs,w
  6738  0E22  00BD               	movwf	??___fladd
  6739  0E23  083D               	movf	??___fladd,w
  6740  0E24  00BC               	movwf	___fladd@a+3
  6741  0E25                     l2112:
  6742  0E25  01C8               	clrf	___fladd@grs
  6743  0E26                     l2114:
  6744  0E26  0846               	movf	___fladd@aexp,w
  6745  0E27  00BD               	movwf	??___fladd
  6746  0E28  01BE               	clrf	??___fladd+1
  6747  0E29  083E               	movf	??___fladd+1,w
  6748  0E2A  00C0               	movwf	??___fladd+3
  6749  0E2B  0847               	movf	___fladd@bexp,w
  6750  0E2C  023D               	subwf	??___fladd,w
  6751  0E2D  00BF               	movwf	??___fladd+2
  6752  0E2E  1C03               	skipc
  6753  0E2F  03C0               	decf	??___fladd+3,f
  6754  0E30  0840               	movf	??___fladd+3,w
  6755  0E31  3A80               	xorlw	128
  6756  0E32  00FF               	movwf	btemp+1
  6757  0E33  3080               	movlw	128
  6758  0E34  027F               	subwf	btemp+1,w
  6759  0E35  1D03               	skipz
  6760  0E36  2E39               	goto	u2525
  6761  0E37  301A               	movlw	26
  6762  0E38  023F               	subwf	??___fladd+2,w
  6763  0E39                     u2525:
  6764  0E39  1C03               	skipc
  6765  0E3A  2E3C               	goto	u2521
  6766  0E3B  2E3D               	goto	u2520
  6767  0E3C                     u2521:
  6768  0E3C  2E7A               	goto	l2130
  6769  0E3D                     u2520:
  6770  0E3D                     l2116:
  6771  0E3D  1283               	bcf	3,5	;RP0=0, select bank0
  6772  0E3E  1303               	bcf	3,6	;RP1=0, select bank0
  6773  0E3F  0838               	movf	___fladd@b+3,w
  6774  0E40  0437               	iorwf	___fladd@b+2,w
  6775  0E41  0436               	iorwf	___fladd@b+1,w
  6776  0E42  0435               	iorwf	___fladd@b,w
  6777  0E43  1D03               	skipz
  6778  0E44  2E46               	goto	u2531
  6779  0E45  2E48               	goto	u2530
  6780  0E46                     u2531:
  6781  0E46  3001               	movlw	1
  6782  0E47  2E49               	goto	u2540
  6783  0E48                     u2530:
  6784  0E48  3000               	movlw	0
  6785  0E49                     u2540:
  6786  0E49  00BD               	movwf	??___fladd
  6787  0E4A  083D               	movf	??___fladd,w
  6788  0E4B  00C8               	movwf	___fladd@grs
  6789  0E4C  3000               	movlw	0
  6790  0E4D  00B8               	movwf	___fladd@b+3
  6791  0E4E  3000               	movlw	0
  6792  0E4F  00B7               	movwf	___fladd@b+2
  6793  0E50  3000               	movlw	0
  6794  0E51  00B6               	movwf	___fladd@b+1
  6795  0E52  3000               	movlw	0
  6796  0E53  00B5               	movwf	___fladd@b
  6797  0E54  0846               	movf	___fladd@aexp,w
  6798  0E55  00BD               	movwf	??___fladd
  6799  0E56  083D               	movf	??___fladd,w
  6800  0E57  00C7               	movwf	___fladd@bexp
  6801  0E58  2E82               	goto	l561
  6802  0E59                     l563:
  6803  0E59  1C48               	btfss	___fladd@grs,0
  6804  0E5A  2E5C               	goto	u2551
  6805  0E5B  2E5D               	goto	u2550
  6806  0E5C                     u2551:
  6807  0E5C  2E66               	goto	l2120
  6808  0E5D                     u2550:
  6809  0E5D                     l2118:
  6810  0E5D  0848               	movf	___fladd@grs,w
  6811  0E5E  00BD               	movwf	??___fladd
  6812  0E5F  1003               	clrc
  6813  0E60  0C3D               	rrf	??___fladd,w
  6814  0E61  3801               	iorlw	1
  6815  0E62  00BE               	movwf	??___fladd+1
  6816  0E63  083E               	movf	??___fladd+1,w
  6817  0E64  00C8               	movwf	___fladd@grs
  6818  0E65  2E68               	goto	l2122
  6819  0E66                     l2120:
  6820  0E66  1003               	clrc
  6821  0E67  0CC8               	rrf	___fladd@grs,f
  6822  0E68                     l2122:
  6823  0E68  1C35               	btfss	___fladd@b,0
  6824  0E69  2E6B               	goto	u2561
  6825  0E6A  2E6C               	goto	u2560
  6826  0E6B                     u2561:
  6827  0E6B  2E6D               	goto	l2126
  6828  0E6C                     u2560:
  6829  0E6C                     l2124:
  6830  0E6C  17C8               	bsf	___fladd@grs,7
  6831  0E6D                     l2126:
  6832  0E6D  3001               	movlw	1
  6833  0E6E  00BD               	movwf	??___fladd
  6834  0E6F                     u2575:
  6835  0E6F  0D38               	rlf	___fladd@b+3,w
  6836  0E70  0CB8               	rrf	___fladd@b+3,f
  6837  0E71  0CB7               	rrf	___fladd@b+2,f
  6838  0E72  0CB6               	rrf	___fladd@b+1,f
  6839  0E73  0CB5               	rrf	___fladd@b,f
  6840  0E74  0BBD               	decfsz	??___fladd& (0+127),f
  6841  0E75  2E6F               	goto	u2575
  6842  0E76                     l2128:
  6843  0E76  3001               	movlw	1
  6844  0E77  00BD               	movwf	??___fladd
  6845  0E78  083D               	movf	??___fladd,w
  6846  0E79  07C7               	addwf	___fladd@bexp,f
  6847  0E7A                     l2130:
  6848  0E7A  1283               	bcf	3,5	;RP0=0, select bank0
  6849  0E7B  1303               	bcf	3,6	;RP1=0, select bank0
  6850  0E7C  0846               	movf	___fladd@aexp,w
  6851  0E7D  0247               	subwf	___fladd@bexp,w
  6852  0E7E  1C03               	skipc
  6853  0E7F  2E81               	goto	u2581
  6854  0E80  2E82               	goto	u2580
  6855  0E81                     u2581:
  6856  0E81  2E59               	goto	l563
  6857  0E82                     u2580:
  6858  0E82                     l561:
  6859  0E82  1B45               	btfsc	___fladd@signs,6
  6860  0E83  2E85               	goto	u2591
  6861  0E84  2E86               	goto	u2590
  6862  0E85                     u2591:
  6863  0E85  2ED1               	goto	l2156
  6864  0E86                     u2590:
  6865  0E86                     l2132:
  6866  0E86  0847               	movf	___fladd@bexp,w
  6867  0E87  1D03               	btfss	3,2
  6868  0E88  2E8A               	goto	u2601
  6869  0E89  2E8B               	goto	u2600
  6870  0E8A                     u2601:
  6871  0E8A  2E94               	goto	l2138
  6872  0E8B                     u2600:
  6873  0E8B                     l2134:
  6874  0E8B  3000               	movlw	0
  6875  0E8C  00B8               	movwf	?___fladd+3
  6876  0E8D  3000               	movlw	0
  6877  0E8E  00B7               	movwf	?___fladd+2
  6878  0E8F  3000               	movlw	0
  6879  0E90  00B6               	movwf	?___fladd+1
  6880  0E91  3000               	movlw	0
  6881  0E92  00B5               	movwf	?___fladd
  6882  0E93  2FFF               	goto	l570
  6883  0E94                     l2138:
  6884  0E94  0839               	movf	___fladd@a,w
  6885  0E95  07B5               	addwf	___fladd@b,f
  6886  0E96  083A               	movf	___fladd@a+1,w
  6887  0E97  1103               	clrz
  6888  0E98  1803               	skipnc
  6889  0E99  3E01               	addlw	1
  6890  0E9A  1903               	skipnz
  6891  0E9B  2E9D               	goto	u2611
  6892  0E9C  07B6               	addwf	___fladd@b+1,f
  6893  0E9D                     u2611:
  6894  0E9D  083B               	movf	___fladd@a+2,w
  6895  0E9E  1103               	clrz
  6896  0E9F  1803               	skipnc
  6897  0EA0  3E01               	addlw	1
  6898  0EA1  1903               	skipnz
  6899  0EA2  2EA4               	goto	u2612
  6900  0EA3  07B7               	addwf	___fladd@b+2,f
  6901  0EA4                     u2612:
  6902  0EA4  083C               	movf	___fladd@a+3,w
  6903  0EA5  1103               	clrz
  6904  0EA6  1803               	skipnc
  6905  0EA7  3E01               	addlw	1
  6906  0EA8  1903               	skipnz
  6907  0EA9  2EAB               	goto	u2613
  6908  0EAA  07B8               	addwf	___fladd@b+3,f
  6909  0EAB                     u2613:
  6910  0EAB                     l2140:
  6911  0EAB  1C38               	btfss	___fladd@b+3,0
  6912  0EAC  2EAE               	goto	u2621
  6913  0EAD  2EAF               	goto	u2620
  6914  0EAE                     u2621:
  6915  0EAE  2F85               	goto	l2190
  6916  0EAF                     u2620:
  6917  0EAF                     l2142:
  6918  0EAF  1C48               	btfss	___fladd@grs,0
  6919  0EB0  2EB2               	goto	u2631
  6920  0EB1  2EB3               	goto	u2630
  6921  0EB2                     u2631:
  6922  0EB2  2EBC               	goto	l2146
  6923  0EB3                     u2630:
  6924  0EB3                     l2144:
  6925  0EB3  0848               	movf	___fladd@grs,w
  6926  0EB4  00BD               	movwf	??___fladd
  6927  0EB5  1003               	clrc
  6928  0EB6  0C3D               	rrf	??___fladd,w
  6929  0EB7  3801               	iorlw	1
  6930  0EB8  00BE               	movwf	??___fladd+1
  6931  0EB9  083E               	movf	??___fladd+1,w
  6932  0EBA  00C8               	movwf	___fladd@grs
  6933  0EBB  2EBE               	goto	l2148
  6934  0EBC                     l2146:
  6935  0EBC  1003               	clrc
  6936  0EBD  0CC8               	rrf	___fladd@grs,f
  6937  0EBE                     l2148:
  6938  0EBE  1C35               	btfss	___fladd@b,0
  6939  0EBF  2EC1               	goto	u2641
  6940  0EC0  2EC2               	goto	u2640
  6941  0EC1                     u2641:
  6942  0EC1  2EC3               	goto	l2152
  6943  0EC2                     u2640:
  6944  0EC2                     l2150:
  6945  0EC2  17C8               	bsf	___fladd@grs,7
  6946  0EC3                     l2152:
  6947  0EC3  3001               	movlw	1
  6948  0EC4  00BD               	movwf	??___fladd
  6949  0EC5                     u2655:
  6950  0EC5  0D38               	rlf	___fladd@b+3,w
  6951  0EC6  0CB8               	rrf	___fladd@b+3,f
  6952  0EC7  0CB7               	rrf	___fladd@b+2,f
  6953  0EC8  0CB6               	rrf	___fladd@b+1,f
  6954  0EC9  0CB5               	rrf	___fladd@b,f
  6955  0ECA  0BBD               	decfsz	??___fladd& (0+127),f
  6956  0ECB  2EC5               	goto	u2655
  6957  0ECC                     l2154:
  6958  0ECC  3001               	movlw	1
  6959  0ECD  00BD               	movwf	??___fladd
  6960  0ECE  083D               	movf	??___fladd,w
  6961  0ECF  07C7               	addwf	___fladd@bexp,f
  6962  0ED0  2F85               	goto	l2190
  6963  0ED1                     l2156:
  6964  0ED1  0838               	movf	___fladd@b+3,w
  6965  0ED2  3A80               	xorlw	128
  6966  0ED3  00FF               	movwf	btemp+1
  6967  0ED4  083C               	movf	___fladd@a+3,w
  6968  0ED5  3A80               	xorlw	128
  6969  0ED6  027F               	subwf	btemp+1,w
  6970  0ED7  1D03               	skipz
  6971  0ED8  2EE3               	goto	u2663
  6972  0ED9  083B               	movf	___fladd@a+2,w
  6973  0EDA  0237               	subwf	___fladd@b+2,w
  6974  0EDB  1D03               	skipz
  6975  0EDC  2EE3               	goto	u2663
  6976  0EDD  083A               	movf	___fladd@a+1,w
  6977  0EDE  0236               	subwf	___fladd@b+1,w
  6978  0EDF  1D03               	skipz
  6979  0EE0  2EE3               	goto	u2663
  6980  0EE1  0839               	movf	___fladd@a,w
  6981  0EE2  0235               	subwf	___fladd@b,w
  6982  0EE3                     u2663:
  6983  0EE3  1803               	skipnc
  6984  0EE4  2EE6               	goto	u2661
  6985  0EE5  2EE7               	goto	u2660
  6986  0EE6                     u2661:
  6987  0EE6  2F3F               	goto	l2166
  6988  0EE7                     u2660:
  6989  0EE7                     l2158:
  6990  0EE7  30FF               	movlw	255
  6991  0EE8  00BD               	movwf	??___fladd
  6992  0EE9  30FF               	movlw	255
  6993  0EEA  00BE               	movwf	??___fladd+1
  6994  0EEB  30FF               	movlw	255
  6995  0EEC  00BF               	movwf	??___fladd+2
  6996  0EED  30FF               	movlw	255
  6997  0EEE  00C0               	movwf	??___fladd+3
  6998  0EEF  0839               	movf	___fladd@a,w
  6999  0EF0  00C1               	movwf	??___fladd+4
  7000  0EF1  083A               	movf	___fladd@a+1,w
  7001  0EF2  00C2               	movwf	??___fladd+5
  7002  0EF3  083B               	movf	___fladd@a+2,w
  7003  0EF4  00C3               	movwf	??___fladd+6
  7004  0EF5  083C               	movf	___fladd@a+3,w
  7005  0EF6  00C4               	movwf	??___fladd+7
  7006  0EF7  0835               	movf	___fladd@b,w
  7007  0EF8  02C1               	subwf	??___fladd+4,f
  7008  0EF9  0836               	movf	___fladd@b+1,w
  7009  0EFA  1C03               	skipc
  7010  0EFB  0F36               	incfsz	___fladd@b+1,w
  7011  0EFC  2EFE               	goto	u2671
  7012  0EFD  2EFF               	goto	u2672
  7013  0EFE                     u2671:
  7014  0EFE  02C2               	subwf	??___fladd+5,f
  7015  0EFF                     u2672:
  7016  0EFF  0837               	movf	___fladd@b+2,w
  7017  0F00  1C03               	skipc
  7018  0F01  0F37               	incfsz	___fladd@b+2,w
  7019  0F02  2F04               	goto	u2673
  7020  0F03  2F05               	goto	u2674
  7021  0F04                     u2673:
  7022  0F04  02C3               	subwf	??___fladd+6,f
  7023  0F05                     u2674:
  7024  0F05  0838               	movf	___fladd@b+3,w
  7025  0F06  1C03               	skipc
  7026  0F07  0F38               	incfsz	___fladd@b+3,w
  7027  0F08  2F0A               	goto	u2675
  7028  0F09  2F0B               	goto	u2676
  7029  0F0A                     u2675:
  7030  0F0A  02C4               	subwf	??___fladd+7,f
  7031  0F0B                     u2676:
  7032  0F0B  0841               	movf	??___fladd+4,w
  7033  0F0C  07BD               	addwf	??___fladd,f
  7034  0F0D  0842               	movf	??___fladd+5,w
  7035  0F0E  1803               	skipnc
  7036  0F0F  0F42               	incfsz	??___fladd+5,w
  7037  0F10  2F12               	goto	u2680
  7038  0F11  2F13               	goto	u2681
  7039  0F12                     u2680:
  7040  0F12  07BE               	addwf	??___fladd+1,f
  7041  0F13                     u2681:
  7042  0F13  0843               	movf	??___fladd+6,w
  7043  0F14  1803               	skipnc
  7044  0F15  0F43               	incfsz	??___fladd+6,w
  7045  0F16  2F18               	goto	u2682
  7046  0F17  2F19               	goto	u2683
  7047  0F18                     u2682:
  7048  0F18  07BF               	addwf	??___fladd+2,f
  7049  0F19                     u2683:
  7050  0F19  0844               	movf	??___fladd+7,w
  7051  0F1A  1803               	skipnc
  7052  0F1B  0A44               	incf	??___fladd+7,w
  7053  0F1C  07C0               	addwf	??___fladd+3,f
  7054  0F1D  0840               	movf	??___fladd+3,w
  7055  0F1E  00B8               	movwf	___fladd@b+3
  7056  0F1F  083F               	movf	??___fladd+2,w
  7057  0F20  00B7               	movwf	___fladd@b+2
  7058  0F21  083E               	movf	??___fladd+1,w
  7059  0F22  00B6               	movwf	___fladd@b+1
  7060  0F23  083D               	movf	??___fladd,w
  7061  0F24  00B5               	movwf	___fladd@b
  7062  0F25                     l2160:
  7063  0F25  3080               	movlw	128
  7064  0F26  00BD               	movwf	??___fladd
  7065  0F27  083D               	movf	??___fladd,w
  7066  0F28  06C5               	xorwf	___fladd@signs,f
  7067  0F29  09C8               	comf	___fladd@grs,f
  7068  0F2A  0AC8               	incf	___fladd@grs,f
  7069  0F2B                     l2162:
  7070  0F2B  0848               	movf	___fladd@grs,w
  7071  0F2C  1D03               	btfss	3,2
  7072  0F2D  2F2F               	goto	u2691
  7073  0F2E  2F30               	goto	u2690
  7074  0F2F                     u2691:
  7075  0F2F  2F4D               	goto	l578
  7076  0F30                     u2690:
  7077  0F30                     l2164:
  7078  0F30  3001               	movlw	1
  7079  0F31  07B5               	addwf	___fladd@b,f
  7080  0F32  3000               	movlw	0
  7081  0F33  1803               	skipnc
  7082  0F34  3001               	movlw	1
  7083  0F35  07B6               	addwf	___fladd@b+1,f
  7084  0F36  3000               	movlw	0
  7085  0F37  1803               	skipnc
  7086  0F38  3001               	movlw	1
  7087  0F39  07B7               	addwf	___fladd@b+2,f
  7088  0F3A  3000               	movlw	0
  7089  0F3B  1803               	skipnc
  7090  0F3C  3001               	movlw	1
  7091  0F3D  07B8               	addwf	___fladd@b+3,f
  7092  0F3E  2F4D               	goto	l578
  7093  0F3F                     l2166:
  7094  0F3F  0839               	movf	___fladd@a,w
  7095  0F40  02B5               	subwf	___fladd@b,f
  7096  0F41  083A               	movf	___fladd@a+1,w
  7097  0F42  1C03               	skipc
  7098  0F43  0F3A               	incfsz	___fladd@a+1,w
  7099  0F44  02B6               	subwf	___fladd@b+1,f
  7100  0F45  083B               	movf	___fladd@a+2,w
  7101  0F46  1C03               	skipc
  7102  0F47  0F3B               	incfsz	___fladd@a+2,w
  7103  0F48  02B7               	subwf	___fladd@b+2,f
  7104  0F49  083C               	movf	___fladd@a+3,w
  7105  0F4A  1C03               	skipc
  7106  0F4B  0F3C               	incfsz	___fladd@a+3,w
  7107  0F4C  02B8               	subwf	___fladd@b+3,f
  7108  0F4D                     l578:
  7109  0F4D  0838               	movf	___fladd@b+3,w
  7110  0F4E  0437               	iorwf	___fladd@b+2,w
  7111  0F4F  0436               	iorwf	___fladd@b+1,w
  7112  0F50  0435               	iorwf	___fladd@b,w
  7113  0F51  1D03               	skipz
  7114  0F52  2F54               	goto	u2701
  7115  0F53  2F55               	goto	u2700
  7116  0F54                     u2701:
  7117  0F54  2F81               	goto	l2188
  7118  0F55                     u2700:
  7119  0F55                     l2168:
  7120  0F55  0848               	movf	___fladd@grs,w
  7121  0F56  1D03               	btfss	3,2
  7122  0F57  2F59               	goto	u2711
  7123  0F58  2F5A               	goto	u2710
  7124  0F59                     u2711:
  7125  0F59  2F81               	goto	l2188
  7126  0F5A                     u2710:
  7127  0F5A                     l2170:
  7128  0F5A  3000               	movlw	0
  7129  0F5B  00B8               	movwf	?___fladd+3
  7130  0F5C  3000               	movlw	0
  7131  0F5D  00B7               	movwf	?___fladd+2
  7132  0F5E  3000               	movlw	0
  7133  0F5F  00B6               	movwf	?___fladd+1
  7134  0F60  3000               	movlw	0
  7135  0F61  00B5               	movwf	?___fladd
  7136  0F62  2FFF               	goto	l570
  7137  0F63                     l2174:
  7138  0F63  3001               	movlw	1
  7139  0F64  00BD               	movwf	??___fladd
  7140  0F65                     u2725:
  7141  0F65  1003               	clrc
  7142  0F66  0DB5               	rlf	___fladd@b,f
  7143  0F67  0DB6               	rlf	___fladd@b+1,f
  7144  0F68  0DB7               	rlf	___fladd@b+2,f
  7145  0F69  0DB8               	rlf	___fladd@b+3,f
  7146  0F6A  0BBD               	decfsz	??___fladd,f
  7147  0F6B  2F65               	goto	u2725
  7148  0F6C                     l2176:
  7149  0F6C  1FC8               	btfss	___fladd@grs,7
  7150  0F6D  2F6F               	goto	u2731
  7151  0F6E  2F70               	goto	u2730
  7152  0F6F                     u2731:
  7153  0F6F  2F71               	goto	l582
  7154  0F70                     u2730:
  7155  0F70                     l2178:
  7156  0F70  1435               	bsf	___fladd@b,0
  7157  0F71                     l582:
  7158  0F71  1C48               	btfss	___fladd@grs,0
  7159  0F72  2F74               	goto	u2741
  7160  0F73  2F75               	goto	u2740
  7161  0F74                     u2741:
  7162  0F74  2F78               	goto	l2182
  7163  0F75                     u2740:
  7164  0F75                     l2180:
  7165  0F75  1403               	setc
  7166  0F76  0DC8               	rlf	___fladd@grs,f
  7167  0F77  2F7A               	goto	l2184
  7168  0F78                     l2182:
  7169  0F78  1003               	clrc
  7170  0F79  0DC8               	rlf	___fladd@grs,f
  7171  0F7A                     l2184:
  7172  0F7A  0847               	movf	___fladd@bexp,w
  7173  0F7B  1903               	btfsc	3,2
  7174  0F7C  2F7E               	goto	u2751
  7175  0F7D  2F7F               	goto	u2750
  7176  0F7E                     u2751:
  7177  0F7E  2F81               	goto	l2188
  7178  0F7F                     u2750:
  7179  0F7F                     l2186:
  7180  0F7F  3001               	movlw	1
  7181  0F80  02C7               	subwf	___fladd@bexp,f
  7182  0F81                     l2188:
  7183  0F81  1FB7               	btfss	___fladd@b+2,7
  7184  0F82  2F84               	goto	u2761
  7185  0F83  2F85               	goto	u2760
  7186  0F84                     u2761:
  7187  0F84  2F63               	goto	l2174
  7188  0F85                     u2760:
  7189  0F85                     l2190:
  7190  0F85  01C6               	clrf	___fladd@aexp
  7191  0F86                     l2192:
  7192  0F86  1FC8               	btfss	___fladd@grs,7
  7193  0F87  2F89               	goto	u2771
  7194  0F88  2F8A               	goto	u2770
  7195  0F89                     u2771:
  7196  0F89  2F98               	goto	l2200
  7197  0F8A                     u2770:
  7198  0F8A                     l2194:
  7199  0F8A  0848               	movf	___fladd@grs,w
  7200  0F8B  397F               	andlw	127
  7201  0F8C  1903               	btfsc	3,2
  7202  0F8D  2F8F               	goto	u2781
  7203  0F8E  2F90               	goto	u2780
  7204  0F8F                     u2781:
  7205  0F8F  2F93               	goto	l588
  7206  0F90                     u2780:
  7207  0F90                     l2196:
  7208  0F90  01C6               	clrf	___fladd@aexp
  7209  0F91  0AC6               	incf	___fladd@aexp,f
  7210  0F92  2F98               	goto	l2200
  7211  0F93                     l588:
  7212  0F93  1C35               	btfss	___fladd@b,0
  7213  0F94  2F96               	goto	u2791
  7214  0F95  2F97               	goto	u2790
  7215  0F96                     u2791:
  7216  0F96  2F98               	goto	l2200
  7217  0F97                     u2790:
  7218  0F97  2F90               	goto	l2196
  7219  0F98                     l2200:
  7220  0F98  0846               	movf	___fladd@aexp,w
  7221  0F99  1903               	btfsc	3,2
  7222  0F9A  2F9C               	goto	u2801
  7223  0F9B  2F9D               	goto	u2800
  7224  0F9C                     u2801:
  7225  0F9C  2FD1               	goto	l591
  7226  0F9D                     u2800:
  7227  0F9D                     l2202:
  7228  0F9D  3001               	movlw	1
  7229  0F9E  07B5               	addwf	___fladd@b,f
  7230  0F9F  3000               	movlw	0
  7231  0FA0  1803               	skipnc
  7232  0FA1  3001               	movlw	1
  7233  0FA2  07B6               	addwf	___fladd@b+1,f
  7234  0FA3  3000               	movlw	0
  7235  0FA4  1803               	skipnc
  7236  0FA5  3001               	movlw	1
  7237  0FA6  07B7               	addwf	___fladd@b+2,f
  7238  0FA7  3000               	movlw	0
  7239  0FA8  1803               	skipnc
  7240  0FA9  3001               	movlw	1
  7241  0FAA  07B8               	addwf	___fladd@b+3,f
  7242  0FAB                     l2204:
  7243  0FAB  1C38               	btfss	___fladd@b+3,0
  7244  0FAC  2FAE               	goto	u2811
  7245  0FAD  2FAF               	goto	u2810
  7246  0FAE                     u2811:
  7247  0FAE  2FD1               	goto	l591
  7248  0FAF                     u2810:
  7249  0FAF                     l2206:
  7250  0FAF  0835               	movf	___fladd@b,w
  7251  0FB0  00BD               	movwf	??___fladd
  7252  0FB1  0836               	movf	___fladd@b+1,w
  7253  0FB2  00BE               	movwf	??___fladd+1
  7254  0FB3  0837               	movf	___fladd@b+2,w
  7255  0FB4  00BF               	movwf	??___fladd+2
  7256  0FB5  0838               	movf	___fladd@b+3,w
  7257  0FB6  00C0               	movwf	??___fladd+3
  7258  0FB7  3001               	movlw	1
  7259  0FB8  00C1               	movwf	??___fladd+4
  7260  0FB9                     u2825:
  7261  0FB9  0D40               	rlf	??___fladd+3,w
  7262  0FBA  0CC0               	rrf	??___fladd+3,f
  7263  0FBB  0CBF               	rrf	??___fladd+2,f
  7264  0FBC  0CBE               	rrf	??___fladd+1,f
  7265  0FBD  0CBD               	rrf	??___fladd,f
  7266  0FBE                     u2820:
  7267  0FBE  0BC1               	decfsz	??___fladd+4,f
  7268  0FBF  2FB9               	goto	u2825
  7269  0FC0  0840               	movf	??___fladd+3,w
  7270  0FC1  00B8               	movwf	___fladd@b+3
  7271  0FC2  083F               	movf	??___fladd+2,w
  7272  0FC3  00B7               	movwf	___fladd@b+2
  7273  0FC4  083E               	movf	??___fladd+1,w
  7274  0FC5  00B6               	movwf	___fladd@b+1
  7275  0FC6  083D               	movf	??___fladd,w
  7276  0FC7  00B5               	movwf	___fladd@b
  7277  0FC8  0A47               	incf	___fladd@bexp,w
  7278  0FC9  1903               	btfsc	3,2
  7279  0FCA  2FCC               	goto	u2831
  7280  0FCB  2FCD               	goto	u2830
  7281  0FCC                     u2831:
  7282  0FCC  2FD1               	goto	l591
  7283  0FCD                     u2830:
  7284  0FCD                     l2208:
  7285  0FCD  3001               	movlw	1
  7286  0FCE  00BD               	movwf	??___fladd
  7287  0FCF  083D               	movf	??___fladd,w
  7288  0FD0  07C7               	addwf	___fladd@bexp,f
  7289  0FD1                     l591:
  7290  0FD1  0A47               	incf	___fladd@bexp,w
  7291  0FD2  1903               	btfsc	3,2
  7292  0FD3  2FD5               	goto	u2841
  7293  0FD4  2FD6               	goto	u2840
  7294  0FD5                     u2841:
  7295  0FD5  2FDB               	goto	l2212
  7296  0FD6                     u2840:
  7297  0FD6                     l2210:
  7298  0FD6  0847               	movf	___fladd@bexp,w
  7299  0FD7  1D03               	btfss	3,2
  7300  0FD8  2FDA               	goto	u2851
  7301  0FD9  2FDB               	goto	u2850
  7302  0FDA                     u2851:
  7303  0FDA  2FE9               	goto	l2218
  7304  0FDB                     u2850:
  7305  0FDB                     l2212:
  7306  0FDB  3000               	movlw	0
  7307  0FDC  00B8               	movwf	___fladd@b+3
  7308  0FDD  3000               	movlw	0
  7309  0FDE  00B7               	movwf	___fladd@b+2
  7310  0FDF  3000               	movlw	0
  7311  0FE0  00B6               	movwf	___fladd@b+1
  7312  0FE1  3000               	movlw	0
  7313  0FE2  00B5               	movwf	___fladd@b
  7314  0FE3                     l2214:
  7315  0FE3  0847               	movf	___fladd@bexp,w
  7316  0FE4  1D03               	btfss	3,2
  7317  0FE5  2FE7               	goto	u2861
  7318  0FE6  2FE8               	goto	u2860
  7319  0FE7                     u2861:
  7320  0FE7  2FE9               	goto	l2218
  7321  0FE8                     u2860:
  7322  0FE8                     l2216:
  7323  0FE8  01C5               	clrf	___fladd@signs
  7324  0FE9                     l2218:
  7325  0FE9  1C47               	btfss	___fladd@bexp,0
  7326  0FEA  2FEC               	goto	u2871
  7327  0FEB  2FED               	goto	u2870
  7328  0FEC                     u2871:
  7329  0FEC  2FEF               	goto	l2222
  7330  0FED                     u2870:
  7331  0FED                     l2220:
  7332  0FED  17B7               	bsf	___fladd@b+2,7
  7333  0FEE  2FF3               	goto	l599
  7334  0FEF                     l2222:
  7335  0FEF  307F               	movlw	127
  7336  0FF0  00BD               	movwf	??___fladd
  7337  0FF1  083D               	movf	??___fladd,w
  7338  0FF2  05B7               	andwf	___fladd@b+2,f
  7339  0FF3                     l599:
  7340  0FF3  0847               	movf	___fladd@bexp,w
  7341  0FF4  00BD               	movwf	??___fladd
  7342  0FF5  1003               	clrc
  7343  0FF6  0C3D               	rrf	??___fladd,w
  7344  0FF7  00BE               	movwf	??___fladd+1
  7345  0FF8  083E               	movf	??___fladd+1,w
  7346  0FF9  00B8               	movwf	___fladd@b+3
  7347  0FFA                     l2224:
  7348  0FFA  1FC5               	btfss	___fladd@signs,7
  7349  0FFB  2FFD               	goto	u2881
  7350  0FFC  2FFE               	goto	u2880
  7351  0FFD                     u2881:
  7352  0FFD  2FFF               	goto	l600
  7353  0FFE                     u2880:
  7354  0FFE                     l2226:
  7355  0FFE  17B8               	bsf	___fladd@b+3,7
  7356  0FFF                     l600:
  7357  0FFF                     l570:
  7358  0FFF  0008               	return
  7359  1000                     __end_of___fladd:
  7360                           
  7361                           	psect	text22
  7362  0003                     __ptext22:	
  7363 ;; *************** function ___flneg *****************
  7364 ;; Defined at:
  7365 ;;		line 15 in file "C:\Program Files\Microchip\xc8\v2.32\pic\sources\c90\common\flneg.c"
  7366 ;; Parameters:    Size  Location     Type
  7367 ;;  f1              4    0[COMMON] unsigned char 
  7368 ;; Auto vars:     Size  Location     Type
  7369 ;;		None
  7370 ;; Return value:  Size  Location     Type
  7371 ;;                  4    0[COMMON] unsigned char 
  7372 ;; Registers used:
  7373 ;;		wreg
  7374 ;; Tracked objects:
  7375 ;;		On entry : 0/0
  7376 ;;		On exit  : 0/0
  7377 ;;		Unchanged: 0/0
  7378 ;; Data sizes:     COMMON   BANK0   BANK1   BANK3   BANK2
  7379 ;;      Params:         4       0       0       0       0
  7380 ;;      Locals:         0       0       0       0       0
  7381 ;;      Temps:          0       0       0       0       0
  7382 ;;      Totals:         4       0       0       0       0
  7383 ;;Total ram usage:        4 bytes
  7384 ;; Hardware stack levels used: 1
  7385 ;; This function calls:
  7386 ;;		Nothing
  7387 ;; This function is called by:
  7388 ;;		_sin
  7389 ;; This function uses a non-reentrant model
  7390 ;;
  7391                           
  7392                           
  7393                           ;psect for function ___flneg
  7394  0003                     ___flneg:
  7395  0003                     l2428:	
  7396                           ;incstack = 0
  7397                           ; Regs used in ___flneg: [wreg]
  7398                           
  7399  0003  0873               	movf	___flneg@f1+3,w
  7400  0004  0472               	iorwf	___flneg@f1+2,w
  7401  0005  0471               	iorwf	___flneg@f1+1,w
  7402  0006  0470               	iorwf	___flneg@f1,w
  7403  0007  1903               	skipnz
  7404  0008  280A               	goto	u3411
  7405  0009  280B               	goto	u3410
  7406  000A                     u3411:
  7407  000A  280D               	goto	l2432
  7408  000B                     u3410:
  7409  000B                     l2430:
  7410  000B  3080               	movlw	128
  7411  000C  06F3               	xorwf	___flneg@f1+3,f
  7412  000D                     l2432:
  7413  000D                     l446:
  7414  000D  0008               	return
  7415  000E                     __end_of___flneg:
  7416                           
  7417                           	psect	text23
  7418  01D5                     __ptext23:	
  7419 ;; *************** function ___fldiv *****************
  7420 ;; Defined at:
  7421 ;;		line 8 in file "C:\Program Files\Microchip\xc8\v2.32\pic\sources\c90\common\sprcdiv.c"
  7422 ;; Parameters:    Size  Location     Type
  7423 ;;  a               4   57[BANK0 ] unsigned char 
  7424 ;;  b               4   61[BANK0 ] unsigned char 
  7425 ;; Auto vars:     Size  Location     Type
  7426 ;;  grs             4    7[BANK1 ] unsigned long 
  7427 ;;  rem             4    0[BANK1 ] unsigned long 
  7428 ;;  new_exp         2    5[BANK1 ] int 
  7429 ;;  aexp            1   12[BANK1 ] unsigned char 
  7430 ;;  bexp            1   11[BANK1 ] unsigned char 
  7431 ;;  sign            1    4[BANK1 ] unsigned char 
  7432 ;; Return value:  Size  Location     Type
  7433 ;;                  4   57[BANK0 ] unsigned char 
  7434 ;; Registers used:
  7435 ;;		wreg, status,2, status,0, btemp+1
  7436 ;; Tracked objects:
  7437 ;;		On entry : 0/0
  7438 ;;		On exit  : 0/0
  7439 ;;		Unchanged: 0/0
  7440 ;; Data sizes:     COMMON   BANK0   BANK1   BANK3   BANK2
  7441 ;;      Params:         0       8       0       0       0
  7442 ;;      Locals:         0       0      13       0       0
  7443 ;;      Temps:          0       5       0       0       0
  7444 ;;      Totals:         0      13      13       0       0
  7445 ;;Total ram usage:       26 bytes
  7446 ;; Hardware stack levels used: 1
  7447 ;; This function calls:
  7448 ;;		Nothing
  7449 ;; This function is called by:
  7450 ;;		_sin
  7451 ;; This function uses a non-reentrant model
  7452 ;;
  7453                           
  7454                           
  7455                           ;psect for function ___fldiv
  7456  01D5                     ___fldiv:
  7457  01D5                     l2442:	
  7458                           ;incstack = 0
  7459                           ; Regs used in ___fldiv: [wreg+status,2+status,0+btemp+1]
  7460                           
  7461  01D5  1283               	bcf	3,5	;RP0=0, select bank0
  7462  01D6  1303               	bcf	3,6	;RP1=0, select bank0
  7463  01D7  0860               	movf	___fldiv@b+3,w
  7464  01D8  3980               	andlw	128
  7465  01D9  00E1               	movwf	??___fldiv
  7466  01DA  0861               	movf	??___fldiv,w
  7467  01DB  1683               	bsf	3,5	;RP0=1, select bank1
  7468  01DC  1303               	bcf	3,6	;RP1=0, select bank1
  7469  01DD  00A4               	movwf	___fldiv@sign^(0+128)
  7470  01DE                     l2444:
  7471  01DE  1283               	bcf	3,5	;RP0=0, select bank0
  7472  01DF  1303               	bcf	3,6	;RP1=0, select bank0
  7473  01E0  0860               	movf	___fldiv@b+3,w
  7474  01E1  00E1               	movwf	??___fldiv
  7475  01E2  0761               	addwf	??___fldiv,w
  7476  01E3  00E2               	movwf	??___fldiv+1
  7477  01E4  0862               	movf	??___fldiv+1,w
  7478  01E5  1683               	bsf	3,5	;RP0=1, select bank1
  7479  01E6  1303               	bcf	3,6	;RP1=0, select bank1
  7480  01E7  00AB               	movwf	___fldiv@bexp^(0+128)
  7481  01E8                     l2446:
  7482  01E8  1283               	bcf	3,5	;RP0=0, select bank0
  7483  01E9  1303               	bcf	3,6	;RP1=0, select bank0
  7484  01EA  1FDF               	btfss	___fldiv@b+2,7
  7485  01EB  29ED               	goto	u3421
  7486  01EC  29EE               	goto	u3420
  7487  01ED                     u3421:
  7488  01ED  29F1               	goto	l2450
  7489  01EE                     u3420:
  7490  01EE                     l2448:
  7491  01EE  1683               	bsf	3,5	;RP0=1, select bank1
  7492  01EF  1303               	bcf	3,6	;RP1=0, select bank1
  7493  01F0  142B               	bsf	___fldiv@bexp^(0+128),0
  7494  01F1                     l2450:
  7495  01F1  1683               	bsf	3,5	;RP0=1, select bank1
  7496  01F2  1303               	bcf	3,6	;RP1=0, select bank1
  7497  01F3  082B               	movf	___fldiv@bexp^(0+128),w
  7498  01F4  1903               	btfsc	3,2
  7499  01F5  29F7               	goto	u3431
  7500  01F6  29F8               	goto	u3430
  7501  01F7                     u3431:
  7502  01F7  2A0B               	goto	l2460
  7503  01F8                     u3430:
  7504  01F8                     l2452:
  7505  01F8  0A2B               	incf	___fldiv@bexp^(0+128),w
  7506  01F9  1D03               	btfss	3,2
  7507  01FA  29FC               	goto	u3441
  7508  01FB  29FD               	goto	u3440
  7509  01FC                     u3441:
  7510  01FC  2A07               	goto	l2456
  7511  01FD                     u3440:
  7512  01FD                     l2454:
  7513  01FD  3000               	movlw	0
  7514  01FE  1283               	bcf	3,5	;RP0=0, select bank0
  7515  01FF  1303               	bcf	3,6	;RP1=0, select bank0
  7516  0200  00E0               	movwf	___fldiv@b+3
  7517  0201  3000               	movlw	0
  7518  0202  00DF               	movwf	___fldiv@b+2
  7519  0203  3000               	movlw	0
  7520  0204  00DE               	movwf	___fldiv@b+1
  7521  0205  3000               	movlw	0
  7522  0206  00DD               	movwf	___fldiv@b
  7523  0207                     l2456:
  7524  0207  1283               	bcf	3,5	;RP0=0, select bank0
  7525  0208  17DF               	bsf	___fldiv@b+2,7
  7526  0209                     l2458:
  7527  0209  01E0               	clrf	___fldiv@b+3
  7528  020A  2A15               	goto	l2462
  7529  020B                     l2460:
  7530  020B  3000               	movlw	0
  7531  020C  1283               	bcf	3,5	;RP0=0, select bank0
  7532  020D  1303               	bcf	3,6	;RP1=0, select bank0
  7533  020E  00E0               	movwf	___fldiv@b+3
  7534  020F  3000               	movlw	0
  7535  0210  00DF               	movwf	___fldiv@b+2
  7536  0211  3000               	movlw	0
  7537  0212  00DE               	movwf	___fldiv@b+1
  7538  0213  3000               	movlw	0
  7539  0214  00DD               	movwf	___fldiv@b
  7540  0215                     l2462:
  7541  0215  085C               	movf	___fldiv@a+3,w
  7542  0216  3980               	andlw	128
  7543  0217  00E1               	movwf	??___fldiv
  7544  0218  0861               	movf	??___fldiv,w
  7545  0219  1683               	bsf	3,5	;RP0=1, select bank1
  7546  021A  1303               	bcf	3,6	;RP1=0, select bank1
  7547  021B  06A4               	xorwf	___fldiv@sign^(0+128),f
  7548  021C                     l2464:
  7549  021C  1283               	bcf	3,5	;RP0=0, select bank0
  7550  021D  1303               	bcf	3,6	;RP1=0, select bank0
  7551  021E  085C               	movf	___fldiv@a+3,w
  7552  021F  00E1               	movwf	??___fldiv
  7553  0220  0761               	addwf	??___fldiv,w
  7554  0221  00E2               	movwf	??___fldiv+1
  7555  0222  0862               	movf	??___fldiv+1,w
  7556  0223  1683               	bsf	3,5	;RP0=1, select bank1
  7557  0224  1303               	bcf	3,6	;RP1=0, select bank1
  7558  0225  00AC               	movwf	___fldiv@aexp^(0+128)
  7559  0226                     l2466:
  7560  0226  1283               	bcf	3,5	;RP0=0, select bank0
  7561  0227  1303               	bcf	3,6	;RP1=0, select bank0
  7562  0228  1FDB               	btfss	___fldiv@a+2,7
  7563  0229  2A2B               	goto	u3451
  7564  022A  2A2C               	goto	u3450
  7565  022B                     u3451:
  7566  022B  2A2F               	goto	l2470
  7567  022C                     u3450:
  7568  022C                     l2468:
  7569  022C  1683               	bsf	3,5	;RP0=1, select bank1
  7570  022D  1303               	bcf	3,6	;RP1=0, select bank1
  7571  022E  142C               	bsf	___fldiv@aexp^(0+128),0
  7572  022F                     l2470:
  7573  022F  1683               	bsf	3,5	;RP0=1, select bank1
  7574  0230  1303               	bcf	3,6	;RP1=0, select bank1
  7575  0231  082C               	movf	___fldiv@aexp^(0+128),w
  7576  0232  1903               	btfsc	3,2
  7577  0233  2A35               	goto	u3461
  7578  0234  2A36               	goto	u3460
  7579  0235                     u3461:
  7580  0235  2A49               	goto	l2480
  7581  0236                     u3460:
  7582  0236                     l2472:
  7583  0236  0A2C               	incf	___fldiv@aexp^(0+128),w
  7584  0237  1D03               	btfss	3,2
  7585  0238  2A3A               	goto	u3471
  7586  0239  2A3B               	goto	u3470
  7587  023A                     u3471:
  7588  023A  2A45               	goto	l2476
  7589  023B                     u3470:
  7590  023B                     l2474:
  7591  023B  3000               	movlw	0
  7592  023C  1283               	bcf	3,5	;RP0=0, select bank0
  7593  023D  1303               	bcf	3,6	;RP1=0, select bank0
  7594  023E  00DC               	movwf	___fldiv@a+3
  7595  023F  3000               	movlw	0
  7596  0240  00DB               	movwf	___fldiv@a+2
  7597  0241  3000               	movlw	0
  7598  0242  00DA               	movwf	___fldiv@a+1
  7599  0243  3000               	movlw	0
  7600  0244  00D9               	movwf	___fldiv@a
  7601  0245                     l2476:
  7602  0245  1283               	bcf	3,5	;RP0=0, select bank0
  7603  0246  17DB               	bsf	___fldiv@a+2,7
  7604  0247                     l2478:
  7605  0247  01DC               	clrf	___fldiv@a+3
  7606  0248  2A53               	goto	l613
  7607  0249                     l2480:
  7608  0249  3000               	movlw	0
  7609  024A  1283               	bcf	3,5	;RP0=0, select bank0
  7610  024B  1303               	bcf	3,6	;RP1=0, select bank0
  7611  024C  00DC               	movwf	___fldiv@a+3
  7612  024D  3000               	movlw	0
  7613  024E  00DB               	movwf	___fldiv@a+2
  7614  024F  3000               	movlw	0
  7615  0250  00DA               	movwf	___fldiv@a+1
  7616  0251  3000               	movlw	0
  7617  0252  00D9               	movwf	___fldiv@a
  7618  0253                     l613:
  7619  0253  085C               	movf	___fldiv@a+3,w
  7620  0254  045B               	iorwf	___fldiv@a+2,w
  7621  0255  045A               	iorwf	___fldiv@a+1,w
  7622  0256  0459               	iorwf	___fldiv@a,w
  7623  0257  1D03               	skipz
  7624  0258  2A5A               	goto	u3481
  7625  0259  2A5B               	goto	u3480
  7626  025A                     u3481:
  7627  025A  2A78               	goto	l2490
  7628  025B                     u3480:
  7629  025B                     l2482:
  7630  025B  3000               	movlw	0
  7631  025C  00E0               	movwf	___fldiv@b+3
  7632  025D  3000               	movlw	0
  7633  025E  00DF               	movwf	___fldiv@b+2
  7634  025F  3000               	movlw	0
  7635  0260  00DE               	movwf	___fldiv@b+1
  7636  0261  3000               	movlw	0
  7637  0262  00DD               	movwf	___fldiv@b
  7638  0263  3080               	movlw	128
  7639  0264  04DF               	iorwf	___fldiv@b+2,f
  7640  0265  307F               	movlw	127
  7641  0266  04E0               	iorwf	___fldiv@b+3,f
  7642  0267                     l2484:
  7643  0267  1683               	bsf	3,5	;RP0=1, select bank1
  7644  0268  1303               	bcf	3,6	;RP1=0, select bank1
  7645  0269  0824               	movf	___fldiv@sign^(0+128),w
  7646  026A  1283               	bcf	3,5	;RP0=0, select bank0
  7647  026B  1303               	bcf	3,6	;RP1=0, select bank0
  7648  026C  00E1               	movwf	??___fldiv
  7649  026D  0861               	movf	??___fldiv,w
  7650  026E  04E0               	iorwf	___fldiv@b+3,f
  7651  026F                     l2486:
  7652  026F  0860               	movf	___fldiv@b+3,w
  7653  0270  00DC               	movwf	?___fldiv+3
  7654  0271  085F               	movf	___fldiv@b+2,w
  7655  0272  00DB               	movwf	?___fldiv+2
  7656  0273  085E               	movf	___fldiv@b+1,w
  7657  0274  00DA               	movwf	?___fldiv+1
  7658  0275  085D               	movf	___fldiv@b,w
  7659  0276  00D9               	movwf	?___fldiv
  7660  0277  2C74               	goto	l615
  7661  0278                     l2490:
  7662  0278  1683               	bsf	3,5	;RP0=1, select bank1
  7663  0279  1303               	bcf	3,6	;RP1=0, select bank1
  7664  027A  082B               	movf	___fldiv@bexp^(0+128),w
  7665  027B  1D03               	btfss	3,2
  7666  027C  2A7E               	goto	u3491
  7667  027D  2A7F               	goto	u3490
  7668  027E                     u3491:
  7669  027E  2A8A               	goto	l2496
  7670  027F                     u3490:
  7671  027F                     l2492:
  7672  027F  3000               	movlw	0
  7673  0280  1283               	bcf	3,5	;RP0=0, select bank0
  7674  0281  1303               	bcf	3,6	;RP1=0, select bank0
  7675  0282  00DC               	movwf	?___fldiv+3
  7676  0283  3000               	movlw	0
  7677  0284  00DB               	movwf	?___fldiv+2
  7678  0285  3000               	movlw	0
  7679  0286  00DA               	movwf	?___fldiv+1
  7680  0287  3000               	movlw	0
  7681  0288  00D9               	movwf	?___fldiv
  7682  0289  2C74               	goto	l615
  7683  028A                     l2496:
  7684  028A  082B               	movf	___fldiv@bexp^(0+128),w
  7685  028B  1283               	bcf	3,5	;RP0=0, select bank0
  7686  028C  1303               	bcf	3,6	;RP1=0, select bank0
  7687  028D  00E1               	movwf	??___fldiv
  7688  028E  01E2               	clrf	??___fldiv+1
  7689  028F  0862               	movf	??___fldiv+1,w
  7690  0290  00E4               	movwf	??___fldiv+3
  7691  0291  1683               	bsf	3,5	;RP0=1, select bank1
  7692  0292  1303               	bcf	3,6	;RP1=0, select bank1
  7693  0293  082C               	movf	___fldiv@aexp^(0+128),w
  7694  0294  1283               	bcf	3,5	;RP0=0, select bank0
  7695  0295  1303               	bcf	3,6	;RP1=0, select bank0
  7696  0296  0261               	subwf	??___fldiv,w
  7697  0297  00E3               	movwf	??___fldiv+2
  7698  0298  1C03               	skipc
  7699  0299  03E4               	decf	??___fldiv+3,f
  7700  029A  0863               	movf	??___fldiv+2,w
  7701  029B  3E7F               	addlw	127
  7702  029C  1683               	bsf	3,5	;RP0=1, select bank1
  7703  029D  1303               	bcf	3,6	;RP1=0, select bank1
  7704  029E  00A5               	movwf	___fldiv@new_exp^(0+128)
  7705  029F  1283               	bcf	3,5	;RP0=0, select bank0
  7706  02A0  1303               	bcf	3,6	;RP1=0, select bank0
  7707  02A1  0864               	movf	??___fldiv+3,w
  7708  02A2  1803               	skipnc
  7709  02A3  3E01               	addlw	1
  7710  02A4  3E00               	addlw	0
  7711  02A5  1683               	bsf	3,5	;RP0=1, select bank1
  7712  02A6  1303               	bcf	3,6	;RP1=0, select bank1
  7713  02A7  00A6               	movwf	(___fldiv@new_exp+1)^(0+128)
  7714  02A8                     l2498:
  7715  02A8  1283               	bcf	3,5	;RP0=0, select bank0
  7716  02A9  1303               	bcf	3,6	;RP1=0, select bank0
  7717  02AA  0860               	movf	___fldiv@b+3,w
  7718  02AB  1683               	bsf	3,5	;RP0=1, select bank1
  7719  02AC  1303               	bcf	3,6	;RP1=0, select bank1
  7720  02AD  00A3               	movwf	(___fldiv@rem+3)^(0+128)
  7721  02AE  1283               	bcf	3,5	;RP0=0, select bank0
  7722  02AF  1303               	bcf	3,6	;RP1=0, select bank0
  7723  02B0  085F               	movf	___fldiv@b+2,w
  7724  02B1  1683               	bsf	3,5	;RP0=1, select bank1
  7725  02B2  1303               	bcf	3,6	;RP1=0, select bank1
  7726  02B3  00A2               	movwf	(___fldiv@rem+2)^(0+128)
  7727  02B4  1283               	bcf	3,5	;RP0=0, select bank0
  7728  02B5  1303               	bcf	3,6	;RP1=0, select bank0
  7729  02B6  085E               	movf	___fldiv@b+1,w
  7730  02B7  1683               	bsf	3,5	;RP0=1, select bank1
  7731  02B8  1303               	bcf	3,6	;RP1=0, select bank1
  7732  02B9  00A1               	movwf	(___fldiv@rem+1)^(0+128)
  7733  02BA  1283               	bcf	3,5	;RP0=0, select bank0
  7734  02BB  1303               	bcf	3,6	;RP1=0, select bank0
  7735  02BC  085D               	movf	___fldiv@b,w
  7736  02BD  1683               	bsf	3,5	;RP0=1, select bank1
  7737  02BE  1303               	bcf	3,6	;RP1=0, select bank1
  7738  02BF  00A0               	movwf	___fldiv@rem^(0+128)
  7739  02C0                     l2500:
  7740  02C0  3000               	movlw	0
  7741  02C1  1283               	bcf	3,5	;RP0=0, select bank0
  7742  02C2  1303               	bcf	3,6	;RP1=0, select bank0
  7743  02C3  00E0               	movwf	___fldiv@b+3
  7744  02C4  3000               	movlw	0
  7745  02C5  00DF               	movwf	___fldiv@b+2
  7746  02C6  3000               	movlw	0
  7747  02C7  00DE               	movwf	___fldiv@b+1
  7748  02C8  3000               	movlw	0
  7749  02C9  00DD               	movwf	___fldiv@b
  7750  02CA                     l2502:
  7751  02CA  3000               	movlw	0
  7752  02CB  1683               	bsf	3,5	;RP0=1, select bank1
  7753  02CC  1303               	bcf	3,6	;RP1=0, select bank1
  7754  02CD  00AA               	movwf	(___fldiv@grs+3)^(0+128)
  7755  02CE  3000               	movlw	0
  7756  02CF  00A9               	movwf	(___fldiv@grs+2)^(0+128)
  7757  02D0  3000               	movlw	0
  7758  02D1  00A8               	movwf	(___fldiv@grs+1)^(0+128)
  7759  02D2  3000               	movlw	0
  7760  02D3  00A7               	movwf	___fldiv@grs^(0+128)
  7761  02D4                     l2504:
  7762  02D4  01AC               	clrf	___fldiv@aexp^(0+128)
  7763  02D5  2B5C               	goto	l2524
  7764  02D6                     l2506:
  7765  02D6  082C               	movf	___fldiv@aexp^(0+128),w
  7766  02D7  1903               	btfsc	3,2
  7767  02D8  2ADA               	goto	u3501
  7768  02D9  2ADB               	goto	u3500
  7769  02DA                     u3501:
  7770  02DA  2B0A               	goto	l2516
  7771  02DB                     u3500:
  7772  02DB                     l2508:
  7773  02DB  3001               	movlw	1
  7774  02DC  1283               	bcf	3,5	;RP0=0, select bank0
  7775  02DD  1303               	bcf	3,6	;RP1=0, select bank0
  7776  02DE  00E1               	movwf	??___fldiv
  7777  02DF                     u3515:
  7778  02DF  1003               	clrc
  7779  02E0  1683               	bsf	3,5	;RP0=1, select bank1
  7780  02E1  1303               	bcf	3,6	;RP1=0, select bank1
  7781  02E2  0DA0               	rlf	___fldiv@rem^(0+128),f
  7782  02E3  0DA1               	rlf	(___fldiv@rem+1)^(0+128),f
  7783  02E4  0DA2               	rlf	(___fldiv@rem+2)^(0+128),f
  7784  02E5  0DA3               	rlf	(___fldiv@rem+3)^(0+128),f
  7785  02E6  1283               	bcf	3,5	;RP0=0, select bank0
  7786  02E7  1303               	bcf	3,6	;RP1=0, select bank0
  7787  02E8  0BE1               	decfsz	??___fldiv,f
  7788  02E9  2ADF               	goto	u3515
  7789  02EA  3001               	movlw	1
  7790  02EB  00E1               	movwf	??___fldiv
  7791  02EC                     u3525:
  7792  02EC  1003               	clrc
  7793  02ED  0DDD               	rlf	___fldiv@b,f
  7794  02EE  0DDE               	rlf	___fldiv@b+1,f
  7795  02EF  0DDF               	rlf	___fldiv@b+2,f
  7796  02F0  0DE0               	rlf	___fldiv@b+3,f
  7797  02F1  0BE1               	decfsz	??___fldiv,f
  7798  02F2  2AEC               	goto	u3525
  7799  02F3                     l2510:
  7800  02F3  1683               	bsf	3,5	;RP0=1, select bank1
  7801  02F4  1303               	bcf	3,6	;RP1=0, select bank1
  7802  02F5  1FAA               	btfss	(___fldiv@grs+3)^(0+128),7
  7803  02F6  2AF8               	goto	u3531
  7804  02F7  2AF9               	goto	u3530
  7805  02F8                     u3531:
  7806  02F8  2AFC               	goto	l2514
  7807  02F9                     u3530:
  7808  02F9                     l2512:
  7809  02F9  1283               	bcf	3,5	;RP0=0, select bank0
  7810  02FA  1303               	bcf	3,6	;RP1=0, select bank0
  7811  02FB  145D               	bsf	___fldiv@b,0
  7812  02FC                     l2514:
  7813  02FC  3001               	movlw	1
  7814  02FD  1283               	bcf	3,5	;RP0=0, select bank0
  7815  02FE  00E1               	movwf	??___fldiv
  7816  02FF                     u3545:
  7817  02FF  1003               	clrc
  7818  0300  1683               	bsf	3,5	;RP0=1, select bank1
  7819  0301  1303               	bcf	3,6	;RP1=0, select bank1
  7820  0302  0DA7               	rlf	___fldiv@grs^(0+128),f
  7821  0303  0DA8               	rlf	(___fldiv@grs+1)^(0+128),f
  7822  0304  0DA9               	rlf	(___fldiv@grs+2)^(0+128),f
  7823  0305  0DAA               	rlf	(___fldiv@grs+3)^(0+128),f
  7824  0306  1283               	bcf	3,5	;RP0=0, select bank0
  7825  0307  1303               	bcf	3,6	;RP1=0, select bank0
  7826  0308  0BE1               	decfsz	??___fldiv,f
  7827  0309  2AFF               	goto	u3545
  7828  030A                     l2516:
  7829  030A  1283               	bcf	3,5	;RP0=0, select bank0
  7830  030B  085C               	movf	___fldiv@a+3,w
  7831  030C  1683               	bsf	3,5	;RP0=1, select bank1
  7832  030D  1303               	bcf	3,6	;RP1=0, select bank1
  7833  030E  0223               	subwf	(___fldiv@rem+3)^(0+128),w
  7834  030F  1D03               	skipz
  7835  0310  2B27               	goto	u3555
  7836  0311  1283               	bcf	3,5	;RP0=0, select bank0
  7837  0312  1303               	bcf	3,6	;RP1=0, select bank0
  7838  0313  085B               	movf	___fldiv@a+2,w
  7839  0314  1683               	bsf	3,5	;RP0=1, select bank1
  7840  0315  1303               	bcf	3,6	;RP1=0, select bank1
  7841  0316  0222               	subwf	(___fldiv@rem+2)^(0+128),w
  7842  0317  1D03               	skipz
  7843  0318  2B27               	goto	u3555
  7844  0319  1283               	bcf	3,5	;RP0=0, select bank0
  7845  031A  1303               	bcf	3,6	;RP1=0, select bank0
  7846  031B  085A               	movf	___fldiv@a+1,w
  7847  031C  1683               	bsf	3,5	;RP0=1, select bank1
  7848  031D  1303               	bcf	3,6	;RP1=0, select bank1
  7849  031E  0221               	subwf	(___fldiv@rem+1)^(0+128),w
  7850  031F  1D03               	skipz
  7851  0320  2B27               	goto	u3555
  7852  0321  1283               	bcf	3,5	;RP0=0, select bank0
  7853  0322  1303               	bcf	3,6	;RP1=0, select bank0
  7854  0323  0859               	movf	___fldiv@a,w
  7855  0324  1683               	bsf	3,5	;RP0=1, select bank1
  7856  0325  1303               	bcf	3,6	;RP1=0, select bank1
  7857  0326  0220               	subwf	___fldiv@rem^(0+128),w
  7858  0327                     u3555:
  7859  0327  1C03               	skipc
  7860  0328  2B2A               	goto	u3551
  7861  0329  2B2B               	goto	u3550
  7862  032A                     u3551:
  7863  032A  2B54               	goto	l2522
  7864  032B                     u3550:
  7865  032B                     l2518:
  7866  032B  172A               	bsf	(___fldiv@grs^(0+128)+3),6
  7867  032C                     l2520:
  7868  032C  1283               	bcf	3,5	;RP0=0, select bank0
  7869  032D  1303               	bcf	3,6	;RP1=0, select bank0
  7870  032E  0859               	movf	___fldiv@a,w
  7871  032F  1683               	bsf	3,5	;RP0=1, select bank1
  7872  0330  1303               	bcf	3,6	;RP1=0, select bank1
  7873  0331  02A0               	subwf	___fldiv@rem^(0+128),f
  7874  0332  1283               	bcf	3,5	;RP0=0, select bank0
  7875  0333  1303               	bcf	3,6	;RP1=0, select bank0
  7876  0334  085A               	movf	___fldiv@a+1,w
  7877  0335  1C03               	skipc
  7878  0336  0F5A               	incfsz	___fldiv@a+1,w
  7879  0337  2B39               	goto	u3565
  7880  0338  2B3C               	goto	u3566
  7881  0339                     u3565:
  7882  0339  1683               	bsf	3,5	;RP0=1, select bank1
  7883  033A  1303               	bcf	3,6	;RP1=0, select bank1
  7884  033B  02A1               	subwf	(___fldiv@rem+1)^(0+128),f
  7885  033C                     u3566:
  7886  033C  1283               	bcf	3,5	;RP0=0, select bank0
  7887  033D  1303               	bcf	3,6	;RP1=0, select bank0
  7888  033E  085B               	movf	___fldiv@a+2,w
  7889  033F  1C03               	skipc
  7890  0340  0F5B               	incfsz	___fldiv@a+2,w
  7891  0341  2B43               	goto	u3567
  7892  0342  2B46               	goto	u3568
  7893  0343                     u3567:
  7894  0343  1683               	bsf	3,5	;RP0=1, select bank1
  7895  0344  1303               	bcf	3,6	;RP1=0, select bank1
  7896  0345  02A2               	subwf	(___fldiv@rem+2)^(0+128),f
  7897  0346                     u3568:
  7898  0346  1283               	bcf	3,5	;RP0=0, select bank0
  7899  0347  1303               	bcf	3,6	;RP1=0, select bank0
  7900  0348  085C               	movf	___fldiv@a+3,w
  7901  0349  1C03               	skipc
  7902  034A  0F5C               	incfsz	___fldiv@a+3,w
  7903  034B  2B4D               	goto	u3569
  7904  034C  2B50               	goto	u3560
  7905  034D                     u3569:
  7906  034D  1683               	bsf	3,5	;RP0=1, select bank1
  7907  034E  1303               	bcf	3,6	;RP1=0, select bank1
  7908  034F  02A3               	subwf	(___fldiv@rem+3)^(0+128),f
  7909  0350                     u3560:
  7910  0350  1283               	bcf	3,5	;RP0=0, select bank0
  7911  0351  1303               	bcf	3,6	;RP1=0, select bank0
  7912  0352  1683               	bsf	3,5	;RP0=1, select bank1
  7913  0353  1303               	bcf	3,6	;RP1=0, select bank1
  7914  0354                     l2522:
  7915  0354  3001               	movlw	1
  7916  0355  1283               	bcf	3,5	;RP0=0, select bank0
  7917  0356  1303               	bcf	3,6	;RP1=0, select bank0
  7918  0357  00E1               	movwf	??___fldiv
  7919  0358  0861               	movf	??___fldiv,w
  7920  0359  1683               	bsf	3,5	;RP0=1, select bank1
  7921  035A  1303               	bcf	3,6	;RP1=0, select bank1
  7922  035B  07AC               	addwf	___fldiv@aexp^(0+128),f
  7923  035C                     l2524:
  7924  035C  301A               	movlw	26
  7925  035D  022C               	subwf	___fldiv@aexp^(0+128),w
  7926  035E  1C03               	skipc
  7927  035F  2B61               	goto	u3571
  7928  0360  2B62               	goto	u3570
  7929  0361                     u3571:
  7930  0361  2AD6               	goto	l2506
  7931  0362                     u3570:
  7932  0362                     l2526:
  7933  0362  0823               	movf	(___fldiv@rem+3)^(0+128),w
  7934  0363  0422               	iorwf	(___fldiv@rem+2)^(0+128),w
  7935  0364  0421               	iorwf	(___fldiv@rem+1)^(0+128),w
  7936  0365  0420               	iorwf	___fldiv@rem^(0+128),w
  7937  0366  1903               	skipnz
  7938  0367  2B69               	goto	u3581
  7939  0368  2B6A               	goto	u3580
  7940  0369                     u3581:
  7941  0369  2B94               	goto	l2540
  7942  036A                     u3580:
  7943  036A                     l2528:
  7944  036A  1427               	bsf	___fldiv@grs^(0+128),0
  7945  036B  2B94               	goto	l2540
  7946  036C                     l2530:
  7947  036C  3001               	movlw	1
  7948  036D  00E1               	movwf	??___fldiv
  7949  036E                     u3595:
  7950  036E  1003               	clrc
  7951  036F  0DDD               	rlf	___fldiv@b,f
  7952  0370  0DDE               	rlf	___fldiv@b+1,f
  7953  0371  0DDF               	rlf	___fldiv@b+2,f
  7954  0372  0DE0               	rlf	___fldiv@b+3,f
  7955  0373  0BE1               	decfsz	??___fldiv,f
  7956  0374  2B6E               	goto	u3595
  7957  0375                     l2532:
  7958  0375  1683               	bsf	3,5	;RP0=1, select bank1
  7959  0376  1303               	bcf	3,6	;RP1=0, select bank1
  7960  0377  1FAA               	btfss	(___fldiv@grs+3)^(0+128),7
  7961  0378  2B7A               	goto	u3601
  7962  0379  2B7B               	goto	u3600
  7963  037A                     u3601:
  7964  037A  2B7E               	goto	l2536
  7965  037B                     u3600:
  7966  037B                     l2534:
  7967  037B  1283               	bcf	3,5	;RP0=0, select bank0
  7968  037C  1303               	bcf	3,6	;RP1=0, select bank0
  7969  037D  145D               	bsf	___fldiv@b,0
  7970  037E                     l2536:
  7971  037E  3001               	movlw	1
  7972  037F  1283               	bcf	3,5	;RP0=0, select bank0
  7973  0380  00E1               	movwf	??___fldiv
  7974  0381                     u3615:
  7975  0381  1003               	clrc
  7976  0382  1683               	bsf	3,5	;RP0=1, select bank1
  7977  0383  1303               	bcf	3,6	;RP1=0, select bank1
  7978  0384  0DA7               	rlf	___fldiv@grs^(0+128),f
  7979  0385  0DA8               	rlf	(___fldiv@grs+1)^(0+128),f
  7980  0386  0DA9               	rlf	(___fldiv@grs+2)^(0+128),f
  7981  0387  0DAA               	rlf	(___fldiv@grs+3)^(0+128),f
  7982  0388  1283               	bcf	3,5	;RP0=0, select bank0
  7983  0389  1303               	bcf	3,6	;RP1=0, select bank0
  7984  038A  0BE1               	decfsz	??___fldiv,f
  7985  038B  2B81               	goto	u3615
  7986  038C                     l2538:
  7987  038C  30FF               	movlw	255
  7988  038D  1683               	bsf	3,5	;RP0=1, select bank1
  7989  038E  1303               	bcf	3,6	;RP1=0, select bank1
  7990  038F  07A5               	addwf	___fldiv@new_exp^(0+128),f
  7991  0390  1803               	skipnc
  7992  0391  0AA6               	incf	(___fldiv@new_exp+1)^(0+128),f
  7993  0392  30FF               	movlw	255
  7994  0393  07A6               	addwf	(___fldiv@new_exp+1)^(0+128),f
  7995  0394                     l2540:
  7996  0394  1283               	bcf	3,5	;RP0=0, select bank0
  7997  0395  1303               	bcf	3,6	;RP1=0, select bank0
  7998  0396  1FDF               	btfss	___fldiv@b+2,7
  7999  0397  2B99               	goto	u3621
  8000  0398  2B9A               	goto	u3620
  8001  0399                     u3621:
  8002  0399  2B6C               	goto	l2530
  8003  039A                     u3620:
  8004  039A                     l2542:
  8005  039A  1683               	bsf	3,5	;RP0=1, select bank1
  8006  039B  1303               	bcf	3,6	;RP1=0, select bank1
  8007  039C  01AC               	clrf	___fldiv@aexp^(0+128)
  8008  039D                     l2544:
  8009  039D  1FAA               	btfss	(___fldiv@grs+3)^(0+128),7
  8010  039E  2BA0               	goto	u3631
  8011  039F  2BA1               	goto	u3630
  8012  03A0                     u3631:
  8013  03A0  2BCD               	goto	l2552
  8014  03A1                     u3630:
  8015  03A1                     l2546:
  8016  03A1  30FF               	movlw	255
  8017  03A2  0527               	andwf	___fldiv@grs^(0+128),w
  8018  03A3  1283               	bcf	3,5	;RP0=0, select bank0
  8019  03A4  1303               	bcf	3,6	;RP1=0, select bank0
  8020  03A5  00E1               	movwf	??___fldiv
  8021  03A6  30FF               	movlw	255
  8022  03A7  1683               	bsf	3,5	;RP0=1, select bank1
  8023  03A8  1303               	bcf	3,6	;RP1=0, select bank1
  8024  03A9  0528               	andwf	(___fldiv@grs+1)^(0+128),w
  8025  03AA  1283               	bcf	3,5	;RP0=0, select bank0
  8026  03AB  1303               	bcf	3,6	;RP1=0, select bank0
  8027  03AC  00E2               	movwf	??___fldiv+1
  8028  03AD  30FF               	movlw	255
  8029  03AE  1683               	bsf	3,5	;RP0=1, select bank1
  8030  03AF  1303               	bcf	3,6	;RP1=0, select bank1
  8031  03B0  0529               	andwf	(___fldiv@grs+2)^(0+128),w
  8032  03B1  1283               	bcf	3,5	;RP0=0, select bank0
  8033  03B2  1303               	bcf	3,6	;RP1=0, select bank0
  8034  03B3  00E3               	movwf	??___fldiv+2
  8035  03B4  307F               	movlw	127
  8036  03B5  1683               	bsf	3,5	;RP0=1, select bank1
  8037  03B6  1303               	bcf	3,6	;RP1=0, select bank1
  8038  03B7  052A               	andwf	(___fldiv@grs+3)^(0+128),w
  8039  03B8  1283               	bcf	3,5	;RP0=0, select bank0
  8040  03B9  1303               	bcf	3,6	;RP1=0, select bank0
  8041  03BA  00E4               	movwf	??___fldiv+3
  8042  03BB  0864               	movf	??___fldiv+3,w
  8043  03BC  0463               	iorwf	??___fldiv+2,w
  8044  03BD  0462               	iorwf	??___fldiv+1,w
  8045  03BE  0461               	iorwf	??___fldiv,w
  8046  03BF  1903               	skipnz
  8047  03C0  2BC2               	goto	u3641
  8048  03C1  2BC3               	goto	u3640
  8049  03C2                     u3641:
  8050  03C2  2BC8               	goto	l629
  8051  03C3                     u3640:
  8052  03C3                     l2548:
  8053  03C3  1683               	bsf	3,5	;RP0=1, select bank1
  8054  03C4  1303               	bcf	3,6	;RP1=0, select bank1
  8055  03C5  01AC               	clrf	___fldiv@aexp^(0+128)
  8056  03C6  0AAC               	incf	___fldiv@aexp^(0+128),f
  8057  03C7  2BCD               	goto	l2552
  8058  03C8                     l629:
  8059  03C8  1C5D               	btfss	___fldiv@b,0
  8060  03C9  2BCB               	goto	u3651
  8061  03CA  2BCC               	goto	u3650
  8062  03CB                     u3651:
  8063  03CB  2BCD               	goto	l2552
  8064  03CC                     u3650:
  8065  03CC  2BC3               	goto	l2548
  8066  03CD                     l2552:
  8067  03CD  1683               	bsf	3,5	;RP0=1, select bank1
  8068  03CE  1303               	bcf	3,6	;RP1=0, select bank1
  8069  03CF  082C               	movf	___fldiv@aexp^(0+128),w
  8070  03D0  1903               	btfsc	3,2
  8071  03D1  2BD3               	goto	u3661
  8072  03D2  2BD4               	goto	u3660
  8073  03D3                     u3661:
  8074  03D3  2C09               	goto	l2562
  8075  03D4                     u3660:
  8076  03D4                     l2554:
  8077  03D4  3001               	movlw	1
  8078  03D5  1283               	bcf	3,5	;RP0=0, select bank0
  8079  03D6  1303               	bcf	3,6	;RP1=0, select bank0
  8080  03D7  07DD               	addwf	___fldiv@b,f
  8081  03D8  3000               	movlw	0
  8082  03D9  1803               	skipnc
  8083  03DA  3001               	movlw	1
  8084  03DB  07DE               	addwf	___fldiv@b+1,f
  8085  03DC  3000               	movlw	0
  8086  03DD  1803               	skipnc
  8087  03DE  3001               	movlw	1
  8088  03DF  07DF               	addwf	___fldiv@b+2,f
  8089  03E0  3000               	movlw	0
  8090  03E1  1803               	skipnc
  8091  03E2  3001               	movlw	1
  8092  03E3  07E0               	addwf	___fldiv@b+3,f
  8093  03E4                     l2556:
  8094  03E4  1C60               	btfss	___fldiv@b+3,0
  8095  03E5  2BE7               	goto	u3671
  8096  03E6  2BE8               	goto	u3670
  8097  03E7                     u3671:
  8098  03E7  2C09               	goto	l2562
  8099  03E8                     u3670:
  8100  03E8                     l2558:
  8101  03E8  085D               	movf	___fldiv@b,w
  8102  03E9  00E1               	movwf	??___fldiv
  8103  03EA  085E               	movf	___fldiv@b+1,w
  8104  03EB  00E2               	movwf	??___fldiv+1
  8105  03EC  085F               	movf	___fldiv@b+2,w
  8106  03ED  00E3               	movwf	??___fldiv+2
  8107  03EE  0860               	movf	___fldiv@b+3,w
  8108  03EF  00E4               	movwf	??___fldiv+3
  8109  03F0  3001               	movlw	1
  8110  03F1  00E5               	movwf	??___fldiv+4
  8111  03F2                     u3685:
  8112  03F2  0D64               	rlf	??___fldiv+3,w
  8113  03F3  0CE4               	rrf	??___fldiv+3,f
  8114  03F4  0CE3               	rrf	??___fldiv+2,f
  8115  03F5  0CE2               	rrf	??___fldiv+1,f
  8116  03F6  0CE1               	rrf	??___fldiv,f
  8117  03F7                     u3680:
  8118  03F7  0BE5               	decfsz	??___fldiv+4,f
  8119  03F8  2BF2               	goto	u3685
  8120  03F9  0864               	movf	??___fldiv+3,w
  8121  03FA  00E0               	movwf	___fldiv@b+3
  8122  03FB  0863               	movf	??___fldiv+2,w
  8123  03FC  00DF               	movwf	___fldiv@b+2
  8124  03FD  0862               	movf	??___fldiv+1,w
  8125  03FE  00DE               	movwf	___fldiv@b+1
  8126  03FF  0861               	movf	??___fldiv,w
  8127  0400  00DD               	movwf	___fldiv@b
  8128  0401                     l2560:
  8129  0401  3001               	movlw	1
  8130  0402  1683               	bsf	3,5	;RP0=1, select bank1
  8131  0403  1303               	bcf	3,6	;RP1=0, select bank1
  8132  0404  07A5               	addwf	___fldiv@new_exp^(0+128),f
  8133  0405  1803               	skipnc
  8134  0406  0AA6               	incf	(___fldiv@new_exp+1)^(0+128),f
  8135  0407  3000               	movlw	0
  8136  0408  07A6               	addwf	(___fldiv@new_exp+1)^(0+128),f
  8137  0409                     l2562:
  8138  0409  1683               	bsf	3,5	;RP0=1, select bank1
  8139  040A  1303               	bcf	3,6	;RP1=0, select bank1
  8140  040B  0826               	movf	(___fldiv@new_exp+1)^(0+128),w
  8141  040C  3A80               	xorlw	128
  8142  040D  00FF               	movwf	btemp+1
  8143  040E  3080               	movlw	128
  8144  040F  027F               	subwf	btemp+1,w
  8145  0410  1D03               	skipz
  8146  0411  2C14               	goto	u3695
  8147  0412  30FF               	movlw	255
  8148  0413  0225               	subwf	___fldiv@new_exp^(0+128),w
  8149  0414                     u3695:
  8150  0414  1C03               	skipc
  8151  0415  2C17               	goto	u3691
  8152  0416  2C18               	goto	u3690
  8153  0417                     u3691:
  8154  0417  2C28               	goto	l2566
  8155  0418                     u3690:
  8156  0418                     l2564:
  8157  0418  30FF               	movlw	255
  8158  0419  1683               	bsf	3,5	;RP0=1, select bank1
  8159  041A  1303               	bcf	3,6	;RP1=0, select bank1
  8160  041B  00A5               	movwf	___fldiv@new_exp^(0+128)
  8161  041C  3000               	movlw	0
  8162  041D  00A6               	movwf	(___fldiv@new_exp^(0+128)+1)
  8163  041E  3000               	movlw	0
  8164  041F  1283               	bcf	3,5	;RP0=0, select bank0
  8165  0420  1303               	bcf	3,6	;RP1=0, select bank0
  8166  0421  00E0               	movwf	___fldiv@b+3
  8167  0422  3000               	movlw	0
  8168  0423  00DF               	movwf	___fldiv@b+2
  8169  0424  3000               	movlw	0
  8170  0425  00DE               	movwf	___fldiv@b+1
  8171  0426  3000               	movlw	0
  8172  0427  00DD               	movwf	___fldiv@b
  8173  0428                     l2566:
  8174  0428  1683               	bsf	3,5	;RP0=1, select bank1
  8175  0429  1303               	bcf	3,6	;RP1=0, select bank1
  8176  042A  0826               	movf	(___fldiv@new_exp+1)^(0+128),w
  8177  042B  3A80               	xorlw	128
  8178  042C  00FF               	movwf	btemp+1
  8179  042D  3080               	movlw	128
  8180  042E  027F               	subwf	btemp+1,w
  8181  042F  1D03               	skipz
  8182  0430  2C33               	goto	u3705
  8183  0431  3001               	movlw	1
  8184  0432  0225               	subwf	___fldiv@new_exp^(0+128),w
  8185  0433                     u3705:
  8186  0433  1803               	skipnc
  8187  0434  2C36               	goto	u3701
  8188  0435  2C37               	goto	u3700
  8189  0436                     u3701:
  8190  0436  2C48               	goto	l635
  8191  0437                     u3700:
  8192  0437                     l2568:
  8193  0437  1683               	bsf	3,5	;RP0=1, select bank1
  8194  0438  1303               	bcf	3,6	;RP1=0, select bank1
  8195  0439  01A5               	clrf	___fldiv@new_exp^(0+128)
  8196  043A  01A6               	clrf	(___fldiv@new_exp+1)^(0+128)
  8197  043B                     l2570:
  8198  043B  3000               	movlw	0
  8199  043C  1283               	bcf	3,5	;RP0=0, select bank0
  8200  043D  1303               	bcf	3,6	;RP1=0, select bank0
  8201  043E  00E0               	movwf	___fldiv@b+3
  8202  043F  3000               	movlw	0
  8203  0440  00DF               	movwf	___fldiv@b+2
  8204  0441  3000               	movlw	0
  8205  0442  00DE               	movwf	___fldiv@b+1
  8206  0443  3000               	movlw	0
  8207  0444  00DD               	movwf	___fldiv@b
  8208  0445                     l2572:
  8209  0445  1683               	bsf	3,5	;RP0=1, select bank1
  8210  0446  1303               	bcf	3,6	;RP1=0, select bank1
  8211  0447  01A4               	clrf	___fldiv@sign^(0+128)
  8212  0448                     l635:
  8213  0448  1683               	bsf	3,5	;RP0=1, select bank1
  8214  0449  1303               	bcf	3,6	;RP1=0, select bank1
  8215  044A  0825               	movf	___fldiv@new_exp^(0+128),w
  8216  044B  1283               	bcf	3,5	;RP0=0, select bank0
  8217  044C  1303               	bcf	3,6	;RP1=0, select bank0
  8218  044D  00E1               	movwf	??___fldiv
  8219  044E  0861               	movf	??___fldiv,w
  8220  044F  1683               	bsf	3,5	;RP0=1, select bank1
  8221  0450  1303               	bcf	3,6	;RP1=0, select bank1
  8222  0451  00AB               	movwf	___fldiv@bexp^(0+128)
  8223  0452                     l2574:
  8224  0452  1C2B               	btfss	___fldiv@bexp^(0+128),0
  8225  0453  2C55               	goto	u3711
  8226  0454  2C56               	goto	u3710
  8227  0455                     u3711:
  8228  0455  2C5A               	goto	l2578
  8229  0456                     u3710:
  8230  0456                     l2576:
  8231  0456  1283               	bcf	3,5	;RP0=0, select bank0
  8232  0457  1303               	bcf	3,6	;RP1=0, select bank0
  8233  0458  17DF               	bsf	___fldiv@b+2,7
  8234  0459  2C60               	goto	l637
  8235  045A                     l2578:
  8236  045A  307F               	movlw	127
  8237  045B  1283               	bcf	3,5	;RP0=0, select bank0
  8238  045C  1303               	bcf	3,6	;RP1=0, select bank0
  8239  045D  00E1               	movwf	??___fldiv
  8240  045E  0861               	movf	??___fldiv,w
  8241  045F  05DF               	andwf	___fldiv@b+2,f
  8242  0460                     l637:
  8243  0460  1683               	bsf	3,5	;RP0=1, select bank1
  8244  0461  1303               	bcf	3,6	;RP1=0, select bank1
  8245  0462  082B               	movf	___fldiv@bexp^(0+128),w
  8246  0463  1283               	bcf	3,5	;RP0=0, select bank0
  8247  0464  1303               	bcf	3,6	;RP1=0, select bank0
  8248  0465  00E1               	movwf	??___fldiv
  8249  0466  1003               	clrc
  8250  0467  0C61               	rrf	??___fldiv,w
  8251  0468  00E2               	movwf	??___fldiv+1
  8252  0469  0862               	movf	??___fldiv+1,w
  8253  046A  00E0               	movwf	___fldiv@b+3
  8254  046B  1683               	bsf	3,5	;RP0=1, select bank1
  8255  046C  1303               	bcf	3,6	;RP1=0, select bank1
  8256  046D  0824               	movf	___fldiv@sign^(0+128),w
  8257  046E  1283               	bcf	3,5	;RP0=0, select bank0
  8258  046F  1303               	bcf	3,6	;RP1=0, select bank0
  8259  0470  00E1               	movwf	??___fldiv
  8260  0471  0861               	movf	??___fldiv,w
  8261  0472  04E0               	iorwf	___fldiv@b+3,f
  8262  0473  2A6F               	goto	l2486
  8263  0474                     l615:
  8264  0474  0008               	return
  8265  0475                     __end_of___fldiv:
  8266                           
  8267                           	psect	text24
  8268  1246                     __ptext24:	
  8269 ;; *************** function ___awdiv *****************
  8270 ;; Defined at:
  8271 ;;		line 5 in file "C:\Program Files\Microchip\xc8\v2.32\pic\sources\c90\common\awdiv.c"
  8272 ;; Parameters:    Size  Location     Type
  8273 ;;  divisor         2   60[BANK0 ] int 
  8274 ;;  dividend        2   62[BANK0 ] int 
  8275 ;; Auto vars:     Size  Location     Type
  8276 ;;  quotient        2   67[BANK0 ] int 
  8277 ;;  sign            1   66[BANK0 ] unsigned char 
  8278 ;;  counter         1   65[BANK0 ] unsigned char 
  8279 ;; Return value:  Size  Location     Type
  8280 ;;                  2   60[BANK0 ] int 
  8281 ;; Registers used:
  8282 ;;		wreg, status,2, status,0
  8283 ;; Tracked objects:
  8284 ;;		On entry : 0/0
  8285 ;;		On exit  : 0/0
  8286 ;;		Unchanged: 0/0
  8287 ;; Data sizes:     COMMON   BANK0   BANK1   BANK3   BANK2
  8288 ;;      Params:         0       4       0       0       0
  8289 ;;      Locals:         0       4       0       0       0
  8290 ;;      Temps:          0       1       0       0       0
  8291 ;;      Totals:         0       9       0       0       0
  8292 ;;Total ram usage:        9 bytes
  8293 ;; Hardware stack levels used: 1
  8294 ;; This function calls:
  8295 ;;		Nothing
  8296 ;; This function is called by:
  8297 ;;		_computeLyapunov
  8298 ;; This function uses a non-reentrant model
  8299 ;;
  8300                           
  8301                           
  8302                           ;psect for function ___awdiv
  8303  1246                     ___awdiv:
  8304  1246                     l2716:	
  8305                           ;incstack = 0
  8306                           ; Regs used in ___awdiv: [wreg+status,2+status,0]
  8307                           
  8308  1246  1283               	bcf	3,5	;RP0=0, select bank0
  8309  1247  1303               	bcf	3,6	;RP1=0, select bank0
  8310  1248  01E2               	clrf	___awdiv@sign
  8311  1249                     l2718:
  8312  1249  1FDD               	btfss	___awdiv@divisor+1,7
  8313  124A  2A4C               	goto	u3981
  8314  124B  2A4D               	goto	u3980
  8315  124C                     u3981:
  8316  124C  2A54               	goto	l2724
  8317  124D                     u3980:
  8318  124D                     l2720:
  8319  124D  09DC               	comf	___awdiv@divisor,f
  8320  124E  09DD               	comf	___awdiv@divisor+1,f
  8321  124F  0ADC               	incf	___awdiv@divisor,f
  8322  1250  1903               	skipnz
  8323  1251  0ADD               	incf	___awdiv@divisor+1,f
  8324  1252                     l2722:
  8325  1252  01E2               	clrf	___awdiv@sign
  8326  1253  0AE2               	incf	___awdiv@sign,f
  8327  1254                     l2724:
  8328  1254  1FDF               	btfss	___awdiv@dividend+1,7
  8329  1255  2A57               	goto	u3991
  8330  1256  2A58               	goto	u3990
  8331  1257                     u3991:
  8332  1257  2A61               	goto	l2730
  8333  1258                     u3990:
  8334  1258                     l2726:
  8335  1258  09DE               	comf	___awdiv@dividend,f
  8336  1259  09DF               	comf	___awdiv@dividend+1,f
  8337  125A  0ADE               	incf	___awdiv@dividend,f
  8338  125B  1903               	skipnz
  8339  125C  0ADF               	incf	___awdiv@dividend+1,f
  8340  125D                     l2728:
  8341  125D  3001               	movlw	1
  8342  125E  00E0               	movwf	??___awdiv
  8343  125F  0860               	movf	??___awdiv,w
  8344  1260  06E2               	xorwf	___awdiv@sign,f
  8345  1261                     l2730:
  8346  1261  01E3               	clrf	___awdiv@quotient
  8347  1262  01E4               	clrf	___awdiv@quotient+1
  8348  1263                     l2732:
  8349  1263  085C               	movf	___awdiv@divisor,w
  8350  1264  045D               	iorwf	___awdiv@divisor+1,w
  8351  1265  1903               	btfsc	3,2
  8352  1266  2A68               	goto	u4001
  8353  1267  2A69               	goto	u4000
  8354  1268                     u4001:
  8355  1268  2AA0               	goto	l2752
  8356  1269                     u4000:
  8357  1269                     l2734:
  8358  1269  01E1               	clrf	___awdiv@counter
  8359  126A  0AE1               	incf	___awdiv@counter,f
  8360  126B  2A77               	goto	l2740
  8361  126C                     l2736:
  8362  126C  3001               	movlw	1
  8363  126D                     u4015:
  8364  126D  1003               	clrc
  8365  126E  0DDC               	rlf	___awdiv@divisor,f
  8366  126F  0DDD               	rlf	___awdiv@divisor+1,f
  8367  1270  3EFF               	addlw	-1
  8368  1271  1D03               	skipz
  8369  1272  2A6D               	goto	u4015
  8370  1273                     l2738:
  8371  1273  3001               	movlw	1
  8372  1274  00E0               	movwf	??___awdiv
  8373  1275  0860               	movf	??___awdiv,w
  8374  1276  07E1               	addwf	___awdiv@counter,f
  8375  1277                     l2740:
  8376  1277  1FDD               	btfss	___awdiv@divisor+1,7
  8377  1278  2A7A               	goto	u4021
  8378  1279  2A7B               	goto	u4020
  8379  127A                     u4021:
  8380  127A  2A6C               	goto	l2736
  8381  127B                     u4020:
  8382  127B                     l2742:
  8383  127B  3001               	movlw	1
  8384  127C                     u4035:
  8385  127C  1003               	clrc
  8386  127D  0DE3               	rlf	___awdiv@quotient,f
  8387  127E  0DE4               	rlf	___awdiv@quotient+1,f
  8388  127F  3EFF               	addlw	-1
  8389  1280  1D03               	skipz
  8390  1281  2A7C               	goto	u4035
  8391  1282  085D               	movf	___awdiv@divisor+1,w
  8392  1283  025F               	subwf	___awdiv@dividend+1,w
  8393  1284  1D03               	skipz
  8394  1285  2A88               	goto	u4045
  8395  1286  085C               	movf	___awdiv@divisor,w
  8396  1287  025E               	subwf	___awdiv@dividend,w
  8397  1288                     u4045:
  8398  1288  1C03               	skipc
  8399  1289  2A8B               	goto	u4041
  8400  128A  2A8C               	goto	u4040
  8401  128B                     u4041:
  8402  128B  2A93               	goto	l2748
  8403  128C                     u4040:
  8404  128C                     l2744:
  8405  128C  085C               	movf	___awdiv@divisor,w
  8406  128D  02DE               	subwf	___awdiv@dividend,f
  8407  128E  085D               	movf	___awdiv@divisor+1,w
  8408  128F  1C03               	skipc
  8409  1290  03DF               	decf	___awdiv@dividend+1,f
  8410  1291  02DF               	subwf	___awdiv@dividend+1,f
  8411  1292                     l2746:
  8412  1292  1463               	bsf	___awdiv@quotient,0
  8413  1293                     l2748:
  8414  1293  3001               	movlw	1
  8415  1294                     u4055:
  8416  1294  1003               	clrc
  8417  1295  0CDD               	rrf	___awdiv@divisor+1,f
  8418  1296  0CDC               	rrf	___awdiv@divisor,f
  8419  1297  3EFF               	addlw	-1
  8420  1298  1D03               	skipz
  8421  1299  2A94               	goto	u4055
  8422  129A                     l2750:
  8423  129A  3001               	movlw	1
  8424  129B  02E1               	subwf	___awdiv@counter,f
  8425  129C  1D03               	btfss	3,2
  8426  129D  2A9F               	goto	u4061
  8427  129E  2AA0               	goto	u4060
  8428  129F                     u4061:
  8429  129F  2A7B               	goto	l2742
  8430  12A0                     u4060:
  8431  12A0                     l2752:
  8432  12A0  0862               	movf	___awdiv@sign,w
  8433  12A1  1903               	btfsc	3,2
  8434  12A2  2AA4               	goto	u4071
  8435  12A3  2AA5               	goto	u4070
  8436  12A4                     u4071:
  8437  12A4  2AAA               	goto	l2756
  8438  12A5                     u4070:
  8439  12A5                     l2754:
  8440  12A5  09E3               	comf	___awdiv@quotient,f
  8441  12A6  09E4               	comf	___awdiv@quotient+1,f
  8442  12A7  0AE3               	incf	___awdiv@quotient,f
  8443  12A8  1903               	skipnz
  8444  12A9  0AE4               	incf	___awdiv@quotient+1,f
  8445  12AA                     l2756:
  8446  12AA  0864               	movf	___awdiv@quotient+1,w
  8447  12AB  00DD               	movwf	?___awdiv+1
  8448  12AC  0863               	movf	___awdiv@quotient,w
  8449  12AD  00DC               	movwf	?___awdiv
  8450  12AE                     l417:
  8451  12AE  0008               	return
  8452  12AF                     __end_of___awdiv:
  8453                           
  8454                           	psect	text25
  8455  10E1                     __ptext25:	
  8456 ;; *************** function _UART_Write_Text *****************
  8457 ;; Defined at:
  8458 ;;		line 53 in file "./uart.h"
  8459 ;; Parameters:    Size  Location     Type
  8460 ;;  text            1    wreg     PTR unsigned char 
  8461 ;;		 -> main@out(10), 
  8462 ;; Auto vars:     Size  Location     Type
  8463 ;;  text            1    4[COMMON] PTR unsigned char 
  8464 ;;		 -> main@out(10), 
  8465 ;;  i               2    2[COMMON] int 
  8466 ;; Return value:  Size  Location     Type
  8467 ;;                  1    wreg      void 
  8468 ;; Registers used:
  8469 ;;		wreg, fsr0l, fsr0h, status,2, status,0, pclath, cstack
  8470 ;; Tracked objects:
  8471 ;;		On entry : 0/0
  8472 ;;		On exit  : 0/0
  8473 ;;		Unchanged: 0/0
  8474 ;; Data sizes:     COMMON   BANK0   BANK1   BANK3   BANK2
  8475 ;;      Params:         0       0       0       0       0
  8476 ;;      Locals:         3       0       0       0       0
  8477 ;;      Temps:          1       0       0       0       0
  8478 ;;      Totals:         4       0       0       0       0
  8479 ;;Total ram usage:        4 bytes
  8480 ;; Hardware stack levels used: 1
  8481 ;; Hardware stack levels required when called: 1
  8482 ;; This function calls:
  8483 ;;		_UART_Write
  8484 ;; This function is called by:
  8485 ;;		_main
  8486 ;; This function uses a non-reentrant model
  8487 ;;
  8488                           
  8489                           
  8490                           ;psect for function _UART_Write_Text
  8491  10E1                     _UART_Write_Text:
  8492                           
  8493                           ;incstack = 0
  8494                           ; Regs used in _UART_Write_Text: [wreg-fsr0h+status,2+status,0+pclath+cstack]
  8495                           ;UART_Write_Text@text stored from wreg
  8496  10E1  00F4               	movwf	UART_Write_Text@text
  8497  10E2                     l2834:
  8498                           
  8499                           ;./uart.h: 53: void UART_Write_Text(char *text);./uart.h: 54: {;./uart.h: 55:   int i;;.
      +                          /uart.h: 56:   for(i=0;text[i]!='\0';i++)
  8500  10E2  01F2               	clrf	UART_Write_Text@i
  8501  10E3  01F3               	clrf	UART_Write_Text@i+1
  8502  10E4  28F6               	goto	l2840
  8503  10E5                     l2836:
  8504                           
  8505                           ;./uart.h: 57:    UART_Write(text[i]);
  8506  10E5  0872               	movf	UART_Write_Text@i,w
  8507  10E6  0774               	addwf	UART_Write_Text@text,w
  8508  10E7  00F1               	movwf	??_UART_Write_Text
  8509  10E8  0871               	movf	??_UART_Write_Text,w
  8510  10E9  0084               	movwf	4
  8511  10EA  0800               	movf	0,w
  8512  10EB  160A  118A  209E  160A  118A  	fcall	_UART_Write
  8513  10F0                     l2838:
  8514  10F0  3001               	movlw	1
  8515  10F1  07F2               	addwf	UART_Write_Text@i,f
  8516  10F2  1803               	skipnc
  8517  10F3  0AF3               	incf	UART_Write_Text@i+1,f
  8518  10F4  3000               	movlw	0
  8519  10F5  07F3               	addwf	UART_Write_Text@i+1,f
  8520  10F6                     l2840:
  8521  10F6  0872               	movf	UART_Write_Text@i,w
  8522  10F7  0774               	addwf	UART_Write_Text@text,w
  8523  10F8  00F1               	movwf	??_UART_Write_Text
  8524  10F9  0871               	movf	??_UART_Write_Text,w
  8525  10FA  0084               	movwf	4
  8526  10FB  1783               	bsf	3,7	;select IRP bank2
  8527  10FC  0800               	movf	0,w
  8528  10FD  1D03               	btfss	3,2
  8529  10FE  2900               	goto	u4291
  8530  10FF  2901               	goto	u4290
  8531  1100                     u4291:
  8532  1100  28E5               	goto	l2836
  8533  1101                     u4290:
  8534  1101                     l89:
  8535  1101  0008               	return
  8536  1102                     __end_of_UART_Write_Text:
  8537                           
  8538                           	psect	text26
  8539  109E                     __ptext26:	
  8540 ;; *************** function _UART_Write *****************
  8541 ;; Defined at:
  8542 ;;		line 47 in file "./uart.h"
  8543 ;; Parameters:    Size  Location     Type
  8544 ;;  data            1    wreg     unsigned char 
  8545 ;; Auto vars:     Size  Location     Type
  8546 ;;  data            1    0[COMMON] unsigned char 
  8547 ;; Return value:  Size  Location     Type
  8548 ;;                  1    wreg      void 
  8549 ;; Registers used:
  8550 ;;		wreg
  8551 ;; Tracked objects:
  8552 ;;		On entry : 0/0
  8553 ;;		On exit  : 0/0
  8554 ;;		Unchanged: 0/0
  8555 ;; Data sizes:     COMMON   BANK0   BANK1   BANK3   BANK2
  8556 ;;      Params:         0       0       0       0       0
  8557 ;;      Locals:         1       0       0       0       0
  8558 ;;      Temps:          0       0       0       0       0
  8559 ;;      Totals:         1       0       0       0       0
  8560 ;;Total ram usage:        1 bytes
  8561 ;; Hardware stack levels used: 1
  8562 ;; This function calls:
  8563 ;;		Nothing
  8564 ;; This function is called by:
  8565 ;;		_UART_Write_Text
  8566 ;; This function uses a non-reentrant model
  8567 ;;
  8568                           
  8569                           
  8570                           ;psect for function _UART_Write
  8571  109E                     _UART_Write:
  8572                           
  8573                           ;incstack = 0
  8574                           ; Regs used in _UART_Write: [wreg]
  8575                           ;UART_Write@data stored from wreg
  8576  109E  00F0               	movwf	UART_Write@data
  8577  109F                     l2656:
  8578  109F                     l80:	
  8579                           ;./uart.h: 47: void UART_Write(char data);./uart.h: 48: {;./uart.h: 49:   while(!TRMT);
  8580                           
  8581  109F  1683               	bsf	3,5	;RP0=1, select bank1
  8582  10A0  1303               	bcf	3,6	;RP1=0, select bank1
  8583  10A1  1C98               	btfss	24,1	;volatile
  8584  10A2  28A4               	goto	u3851
  8585  10A3  28A5               	goto	u3850
  8586  10A4                     u3851:
  8587  10A4  289F               	goto	l80
  8588  10A5                     u3850:
  8589  10A5                     l2658:
  8590                           
  8591                           ;./uart.h: 50:   TXREG = data;
  8592  10A5  0870               	movf	UART_Write@data,w
  8593  10A6  1283               	bcf	3,5	;RP0=0, select bank0
  8594  10A7  1303               	bcf	3,6	;RP1=0, select bank0
  8595  10A8  0099               	movwf	25	;volatile
  8596  10A9                     l83:
  8597  10A9  0008               	return
  8598  10AA                     __end_of_UART_Write:
  8599                           
  8600                           	psect	text27
  8601  1726                     __ptext27:	
  8602 ;; *************** function _UART_Init *****************
  8603 ;; Defined at:
  8604 ;;		line 1 in file "./uart.h"
  8605 ;; Parameters:    Size  Location     Type
  8606 ;;  baudrate        4    6[BANK0 ] const long 
  8607 ;; Auto vars:     Size  Location     Type
  8608 ;;  x               2    9[COMMON] unsigned int 
  8609 ;; Return value:  Size  Location     Type
  8610 ;;                  1    wreg      unsigned char 
  8611 ;; Registers used:
  8612 ;;		wreg, status,2, status,0, pclath, cstack
  8613 ;; Tracked objects:
  8614 ;;		On entry : 0/0
  8615 ;;		On exit  : 0/0
  8616 ;;		Unchanged: 0/0
  8617 ;; Data sizes:     COMMON   BANK0   BANK1   BANK3   BANK2
  8618 ;;      Params:         0       4       0       0       0
  8619 ;;      Locals:         2       0       0       0       0
  8620 ;;      Temps:          0      12       0       0       0
  8621 ;;      Totals:         2      16       0       0       0
  8622 ;;Total ram usage:       18 bytes
  8623 ;; Hardware stack levels used: 1
  8624 ;; Hardware stack levels required when called: 1
  8625 ;; This function calls:
  8626 ;;		___aldiv
  8627 ;; This function is called by:
  8628 ;;		_main
  8629 ;; This function uses a non-reentrant model
  8630 ;;
  8631                           
  8632                           
  8633                           ;psect for function _UART_Init
  8634  1726                     _UART_Init:
  8635  1726                     l2808:	
  8636                           ;incstack = 0
  8637                           ; Regs used in _UART_Init: [wreg+status,2+status,0+pclath+cstack]
  8638                           
  8639                           
  8640                           ;./uart.h: 1: char UART_Init(const long int baudrate);./uart.h: 2: {;./uart.h: 3:  unsig
      +                          ned int x;;./uart.h: 4:  x = (8000000 - baudrate*64)/(baudrate*64);
  8641  1726  1283               	bcf	3,5	;RP0=0, select bank0
  8642  1727  1303               	bcf	3,6	;RP1=0, select bank0
  8643  1728  0826               	movf	UART_Init@baudrate,w
  8644  1729  00AA               	movwf	??_UART_Init
  8645  172A  0827               	movf	UART_Init@baudrate+1,w
  8646  172B  00AB               	movwf	??_UART_Init+1
  8647  172C  0828               	movf	UART_Init@baudrate+2,w
  8648  172D  00AC               	movwf	??_UART_Init+2
  8649  172E  0829               	movf	UART_Init@baudrate+3,w
  8650  172F  00AD               	movwf	??_UART_Init+3
  8651  1730  3006               	movlw	6
  8652  1731                     u4215:
  8653  1731  1003               	clrc
  8654  1732  0DAA               	rlf	??_UART_Init,f
  8655  1733  0DAB               	rlf	??_UART_Init+1,f
  8656  1734  0DAC               	rlf	??_UART_Init+2,f
  8657  1735  0DAD               	rlf	??_UART_Init+3,f
  8658  1736                     u4210:
  8659  1736  3EFF               	addlw	-1
  8660  1737  1D03               	skipz
  8661  1738  2F31               	goto	u4215
  8662  1739  082D               	movf	??_UART_Init+3,w
  8663  173A  00F3               	movwf	___aldiv@divisor+3
  8664  173B  082C               	movf	??_UART_Init+2,w
  8665  173C  00F2               	movwf	___aldiv@divisor+2
  8666  173D  082B               	movf	??_UART_Init+1,w
  8667  173E  00F1               	movwf	___aldiv@divisor+1
  8668  173F  082A               	movf	??_UART_Init,w
  8669  1740  00F0               	movwf	___aldiv@divisor
  8670  1741  0826               	movf	UART_Init@baudrate,w
  8671  1742  00AE               	movwf	??_UART_Init+4
  8672  1743  0827               	movf	UART_Init@baudrate+1,w
  8673  1744  00AF               	movwf	??_UART_Init+5
  8674  1745  0828               	movf	UART_Init@baudrate+2,w
  8675  1746  00B0               	movwf	??_UART_Init+6
  8676  1747  0829               	movf	UART_Init@baudrate+3,w
  8677  1748  00B1               	movwf	??_UART_Init+7
  8678  1749  3006               	movlw	6
  8679  174A                     u4225:
  8680  174A  1003               	clrc
  8681  174B  0DAE               	rlf	??_UART_Init+4,f
  8682  174C  0DAF               	rlf	??_UART_Init+5,f
  8683  174D  0DB0               	rlf	??_UART_Init+6,f
  8684  174E  0DB1               	rlf	??_UART_Init+7,f
  8685  174F                     u4220:
  8686  174F  3EFF               	addlw	-1
  8687  1750  1D03               	skipz
  8688  1751  2F4A               	goto	u4225
  8689  1752  3000               	movlw	0
  8690  1753  00B2               	movwf	??_UART_Init+8
  8691  1754  3012               	movlw	18
  8692  1755  00B3               	movwf	??_UART_Init+9
  8693  1756  307A               	movlw	122
  8694  1757  00B4               	movwf	??_UART_Init+10
  8695  1758  3000               	movlw	0
  8696  1759  00B5               	movwf	??_UART_Init+11
  8697  175A  082E               	movf	??_UART_Init+4,w
  8698  175B  02B2               	subwf	??_UART_Init+8,f
  8699  175C  082F               	movf	??_UART_Init+5,w
  8700  175D  1C03               	skipc
  8701  175E  0F2F               	incfsz	??_UART_Init+5,w
  8702  175F  2F61               	goto	u4231
  8703  1760  2F62               	goto	u4232
  8704  1761                     u4231:
  8705  1761  02B3               	subwf	??_UART_Init+9,f
  8706  1762                     u4232:
  8707  1762  0830               	movf	??_UART_Init+6,w
  8708  1763  1C03               	skipc
  8709  1764  0F30               	incfsz	??_UART_Init+6,w
  8710  1765  2F67               	goto	u4233
  8711  1766  2F68               	goto	u4234
  8712  1767                     u4233:
  8713  1767  02B4               	subwf	??_UART_Init+10,f
  8714  1768                     u4234:
  8715  1768  0831               	movf	??_UART_Init+7,w
  8716  1769  1C03               	skipc
  8717  176A  0F31               	incfsz	??_UART_Init+7,w
  8718  176B  2F6D               	goto	u4235
  8719  176C  2F6E               	goto	u4236
  8720  176D                     u4235:
  8721  176D  02B5               	subwf	??_UART_Init+11,f
  8722  176E                     u4236:
  8723  176E  0835               	movf	??_UART_Init+11,w
  8724  176F  00F7               	movwf	___aldiv@dividend+3
  8725  1770  0834               	movf	??_UART_Init+10,w
  8726  1771  00F6               	movwf	___aldiv@dividend+2
  8727  1772  0833               	movf	??_UART_Init+9,w
  8728  1773  00F5               	movwf	___aldiv@dividend+1
  8729  1774  0832               	movf	??_UART_Init+8,w
  8730  1775  00F4               	movwf	___aldiv@dividend
  8731  1776  160A  118A  232B  160A  118A  	fcall	___aldiv
  8732  177B  0871               	movf	?___aldiv+1,w
  8733  177C  00FA               	movwf	UART_Init@x+1
  8734  177D  0870               	movf	?___aldiv,w
  8735  177E  00F9               	movwf	UART_Init@x
  8736  177F                     l2810:
  8737                           
  8738                           ;./uart.h: 5:  if(x>255)
  8739  177F  3001               	movlw	1
  8740  1780  027A               	subwf	UART_Init@x+1,w
  8741  1781  3000               	movlw	0
  8742  1782  1903               	skipnz
  8743  1783  0279               	subwf	UART_Init@x,w
  8744  1784  1C03               	skipc
  8745  1785  2F87               	goto	u4241
  8746  1786  2F88               	goto	u4240
  8747  1787                     u4241:
  8748  1787  2FE4               	goto	l2816
  8749  1788                     u4240:
  8750  1788                     l2812:
  8751                           
  8752                           ;./uart.h: 6:  {;./uart.h: 7:   x = (8000000 - baudrate*16)/(baudrate*16);
  8753  1788  1283               	bcf	3,5	;RP0=0, select bank0
  8754  1789  1303               	bcf	3,6	;RP1=0, select bank0
  8755  178A  0826               	movf	UART_Init@baudrate,w
  8756  178B  00AA               	movwf	??_UART_Init
  8757  178C  0827               	movf	UART_Init@baudrate+1,w
  8758  178D  00AB               	movwf	??_UART_Init+1
  8759  178E  0828               	movf	UART_Init@baudrate+2,w
  8760  178F  00AC               	movwf	??_UART_Init+2
  8761  1790  0829               	movf	UART_Init@baudrate+3,w
  8762  1791  00AD               	movwf	??_UART_Init+3
  8763  1792  3004               	movlw	4
  8764  1793                     u4255:
  8765  1793  1003               	clrc
  8766  1794  0DAA               	rlf	??_UART_Init,f
  8767  1795  0DAB               	rlf	??_UART_Init+1,f
  8768  1796  0DAC               	rlf	??_UART_Init+2,f
  8769  1797  0DAD               	rlf	??_UART_Init+3,f
  8770  1798                     u4250:
  8771  1798  3EFF               	addlw	-1
  8772  1799  1D03               	skipz
  8773  179A  2F93               	goto	u4255
  8774  179B  082D               	movf	??_UART_Init+3,w
  8775  179C  00F3               	movwf	___aldiv@divisor+3
  8776  179D  082C               	movf	??_UART_Init+2,w
  8777  179E  00F2               	movwf	___aldiv@divisor+2
  8778  179F  082B               	movf	??_UART_Init+1,w
  8779  17A0  00F1               	movwf	___aldiv@divisor+1
  8780  17A1  082A               	movf	??_UART_Init,w
  8781  17A2  00F0               	movwf	___aldiv@divisor
  8782  17A3  0826               	movf	UART_Init@baudrate,w
  8783  17A4  00AE               	movwf	??_UART_Init+4
  8784  17A5  0827               	movf	UART_Init@baudrate+1,w
  8785  17A6  00AF               	movwf	??_UART_Init+5
  8786  17A7  0828               	movf	UART_Init@baudrate+2,w
  8787  17A8  00B0               	movwf	??_UART_Init+6
  8788  17A9  0829               	movf	UART_Init@baudrate+3,w
  8789  17AA  00B1               	movwf	??_UART_Init+7
  8790  17AB  3004               	movlw	4
  8791  17AC                     u4265:
  8792  17AC  1003               	clrc
  8793  17AD  0DAE               	rlf	??_UART_Init+4,f
  8794  17AE  0DAF               	rlf	??_UART_Init+5,f
  8795  17AF  0DB0               	rlf	??_UART_Init+6,f
  8796  17B0  0DB1               	rlf	??_UART_Init+7,f
  8797  17B1                     u4260:
  8798  17B1  3EFF               	addlw	-1
  8799  17B2  1D03               	skipz
  8800  17B3  2FAC               	goto	u4265
  8801  17B4  3000               	movlw	0
  8802  17B5  00B2               	movwf	??_UART_Init+8
  8803  17B6  3012               	movlw	18
  8804  17B7  00B3               	movwf	??_UART_Init+9
  8805  17B8  307A               	movlw	122
  8806  17B9  00B4               	movwf	??_UART_Init+10
  8807  17BA  3000               	movlw	0
  8808  17BB  00B5               	movwf	??_UART_Init+11
  8809  17BC  082E               	movf	??_UART_Init+4,w
  8810  17BD  02B2               	subwf	??_UART_Init+8,f
  8811  17BE  082F               	movf	??_UART_Init+5,w
  8812  17BF  1C03               	skipc
  8813  17C0  0F2F               	incfsz	??_UART_Init+5,w
  8814  17C1  2FC3               	goto	u4271
  8815  17C2  2FC4               	goto	u4272
  8816  17C3                     u4271:
  8817  17C3  02B3               	subwf	??_UART_Init+9,f
  8818  17C4                     u4272:
  8819  17C4  0830               	movf	??_UART_Init+6,w
  8820  17C5  1C03               	skipc
  8821  17C6  0F30               	incfsz	??_UART_Init+6,w
  8822  17C7  2FC9               	goto	u4273
  8823  17C8  2FCA               	goto	u4274
  8824  17C9                     u4273:
  8825  17C9  02B4               	subwf	??_UART_Init+10,f
  8826  17CA                     u4274:
  8827  17CA  0831               	movf	??_UART_Init+7,w
  8828  17CB  1C03               	skipc
  8829  17CC  0F31               	incfsz	??_UART_Init+7,w
  8830  17CD  2FCF               	goto	u4275
  8831  17CE  2FD0               	goto	u4276
  8832  17CF                     u4275:
  8833  17CF  02B5               	subwf	??_UART_Init+11,f
  8834  17D0                     u4276:
  8835  17D0  0835               	movf	??_UART_Init+11,w
  8836  17D1  00F7               	movwf	___aldiv@dividend+3
  8837  17D2  0834               	movf	??_UART_Init+10,w
  8838  17D3  00F6               	movwf	___aldiv@dividend+2
  8839  17D4  0833               	movf	??_UART_Init+9,w
  8840  17D5  00F5               	movwf	___aldiv@dividend+1
  8841  17D6  0832               	movf	??_UART_Init+8,w
  8842  17D7  00F4               	movwf	___aldiv@dividend
  8843  17D8  160A  118A  232B  160A  118A  	fcall	___aldiv
  8844  17DD  0871               	movf	?___aldiv+1,w
  8845  17DE  00FA               	movwf	UART_Init@x+1
  8846  17DF  0870               	movf	?___aldiv,w
  8847  17E0  00F9               	movwf	UART_Init@x
  8848  17E1                     l2814:
  8849                           
  8850                           ;./uart.h: 8:   BRGH = 1;
  8851  17E1  1683               	bsf	3,5	;RP0=1, select bank1
  8852  17E2  1303               	bcf	3,6	;RP1=0, select bank1
  8853  17E3  1518               	bsf	24,2	;volatile
  8854  17E4                     l2816:
  8855                           
  8856                           ;./uart.h: 10:  if(x<256)
  8857  17E4  3001               	movlw	1
  8858  17E5  027A               	subwf	UART_Init@x+1,w
  8859  17E6  3000               	movlw	0
  8860  17E7  1903               	skipnz
  8861  17E8  0279               	subwf	UART_Init@x,w
  8862  17E9  1803               	skipnc
  8863  17EA  2FEC               	goto	u4281
  8864  17EB  2FED               	goto	u4280
  8865  17EC                     u4281:
  8866  17EC  2FFF               	goto	l59
  8867  17ED                     u4280:
  8868  17ED                     l2818:
  8869                           
  8870                           ;./uart.h: 11:  {;./uart.h: 12:    SPBRG = x;
  8871  17ED  0879               	movf	UART_Init@x,w
  8872  17EE  1683               	bsf	3,5	;RP0=1, select bank1
  8873  17EF  1303               	bcf	3,6	;RP1=0, select bank1
  8874  17F0  0099               	movwf	25	;volatile
  8875  17F1                     l2820:
  8876                           
  8877                           ;./uart.h: 13:    SYNC = 0;
  8878  17F1  1218               	bcf	24,4	;volatile
  8879  17F2                     l2822:
  8880                           
  8881                           ;./uart.h: 14:    SPEN = 1;
  8882  17F2  1283               	bcf	3,5	;RP0=0, select bank0
  8883  17F3  1303               	bcf	3,6	;RP1=0, select bank0
  8884  17F4  1798               	bsf	24,7	;volatile
  8885  17F5                     l2824:
  8886                           
  8887                           ;./uart.h: 15:           TRISC7 = 1;
  8888  17F5  1683               	bsf	3,5	;RP0=1, select bank1
  8889  17F6  1303               	bcf	3,6	;RP1=0, select bank1
  8890  17F7  1787               	bsf	7,7	;volatile
  8891  17F8                     l2826:
  8892                           
  8893                           ;./uart.h: 16:           TRISC6 = 1;
  8894  17F8  1707               	bsf	7,6	;volatile
  8895  17F9                     l2828:
  8896                           
  8897                           ;./uart.h: 17:           CREN = 1;
  8898  17F9  1283               	bcf	3,5	;RP0=0, select bank0
  8899  17FA  1303               	bcf	3,6	;RP1=0, select bank0
  8900  17FB  1618               	bsf	24,4	;volatile
  8901  17FC                     l2830:
  8902                           
  8903                           ;./uart.h: 18:           TXEN = 1;
  8904  17FC  1683               	bsf	3,5	;RP0=1, select bank1
  8905  17FD  1303               	bcf	3,6	;RP1=0, select bank1
  8906  17FE  1698               	bsf	24,5	;volatile
  8907  17FF                     l59:
  8908  17FF  0008               	return
  8909  1800                     __end_of_UART_Init:
  8910                           
  8911                           	psect	text28
  8912  132B                     __ptext28:	
  8913 ;; *************** function ___aldiv *****************
  8914 ;; Defined at:
  8915 ;;		line 5 in file "C:\Program Files\Microchip\xc8\v2.32\pic\sources\c90\common\aldiv.c"
  8916 ;; Parameters:    Size  Location     Type
  8917 ;;  divisor         4    0[COMMON] long 
  8918 ;;  dividend        4    4[COMMON] long 
  8919 ;; Auto vars:     Size  Location     Type
  8920 ;;  quotient        4    2[BANK0 ] long 
  8921 ;;  sign            1    1[BANK0 ] unsigned char 
  8922 ;;  counter         1    0[BANK0 ] unsigned char 
  8923 ;; Return value:  Size  Location     Type
  8924 ;;                  4    0[COMMON] long 
  8925 ;; Registers used:
  8926 ;;		wreg, status,2, status,0
  8927 ;; Tracked objects:
  8928 ;;		On entry : 0/0
  8929 ;;		On exit  : 0/0
  8930 ;;		Unchanged: 0/0
  8931 ;; Data sizes:     COMMON   BANK0   BANK1   BANK3   BANK2
  8932 ;;      Params:         8       0       0       0       0
  8933 ;;      Locals:         0       6       0       0       0
  8934 ;;      Temps:          1       0       0       0       0
  8935 ;;      Totals:         9       6       0       0       0
  8936 ;;Total ram usage:       15 bytes
  8937 ;; Hardware stack levels used: 1
  8938 ;; This function calls:
  8939 ;;		Nothing
  8940 ;; This function is called by:
  8941 ;;		_UART_Init
  8942 ;; This function uses a non-reentrant model
  8943 ;;
  8944                           
  8945                           
  8946                           ;psect for function ___aldiv
  8947  132B                     ___aldiv:
  8948  132B                     l2676:	
  8949                           ;incstack = 0
  8950                           ; Regs used in ___aldiv: [wreg+status,2+status,0]
  8951                           
  8952  132B  1283               	bcf	3,5	;RP0=0, select bank0
  8953  132C  1303               	bcf	3,6	;RP1=0, select bank0
  8954  132D  01A1               	clrf	___aldiv@sign
  8955  132E                     l2678:
  8956  132E  1FF3               	btfss	___aldiv@divisor+3,7
  8957  132F  2B31               	goto	u3881
  8958  1330  2B32               	goto	u3880
  8959  1331                     u3881:
  8960  1331  2B3F               	goto	l329
  8961  1332                     u3880:
  8962  1332                     l2680:
  8963  1332  09F0               	comf	___aldiv@divisor,f
  8964  1333  09F1               	comf	___aldiv@divisor+1,f
  8965  1334  09F2               	comf	___aldiv@divisor+2,f
  8966  1335  09F3               	comf	___aldiv@divisor+3,f
  8967  1336  0AF0               	incf	___aldiv@divisor,f
  8968  1337  1903               	skipnz
  8969  1338  0AF1               	incf	___aldiv@divisor+1,f
  8970  1339  1903               	skipnz
  8971  133A  0AF2               	incf	___aldiv@divisor+2,f
  8972  133B  1903               	skipnz
  8973  133C  0AF3               	incf	___aldiv@divisor+3,f
  8974  133D  01A1               	clrf	___aldiv@sign
  8975  133E  0AA1               	incf	___aldiv@sign,f
  8976  133F                     l329:
  8977  133F  1FF7               	btfss	___aldiv@dividend+3,7
  8978  1340  2B42               	goto	u3891
  8979  1341  2B43               	goto	u3890
  8980  1342                     u3891:
  8981  1342  2B52               	goto	l2686
  8982  1343                     u3890:
  8983  1343                     l2682:
  8984  1343  09F4               	comf	___aldiv@dividend,f
  8985  1344  09F5               	comf	___aldiv@dividend+1,f
  8986  1345  09F6               	comf	___aldiv@dividend+2,f
  8987  1346  09F7               	comf	___aldiv@dividend+3,f
  8988  1347  0AF4               	incf	___aldiv@dividend,f
  8989  1348  1903               	skipnz
  8990  1349  0AF5               	incf	___aldiv@dividend+1,f
  8991  134A  1903               	skipnz
  8992  134B  0AF6               	incf	___aldiv@dividend+2,f
  8993  134C  1903               	skipnz
  8994  134D  0AF7               	incf	___aldiv@dividend+3,f
  8995  134E                     l2684:
  8996  134E  3001               	movlw	1
  8997  134F  00F8               	movwf	??___aldiv
  8998  1350  0878               	movf	??___aldiv,w
  8999  1351  06A1               	xorwf	___aldiv@sign,f
  9000  1352                     l2686:
  9001  1352  3000               	movlw	0
  9002  1353  00A5               	movwf	___aldiv@quotient+3
  9003  1354  3000               	movlw	0
  9004  1355  00A4               	movwf	___aldiv@quotient+2
  9005  1356  3000               	movlw	0
  9006  1357  00A3               	movwf	___aldiv@quotient+1
  9007  1358  3000               	movlw	0
  9008  1359  00A2               	movwf	___aldiv@quotient
  9009  135A                     l2688:
  9010  135A  0873               	movf	___aldiv@divisor+3,w
  9011  135B  0472               	iorwf	___aldiv@divisor+2,w
  9012  135C  0471               	iorwf	___aldiv@divisor+1,w
  9013  135D  0470               	iorwf	___aldiv@divisor,w
  9014  135E  1903               	skipnz
  9015  135F  2B61               	goto	u3901
  9016  1360  2B62               	goto	u3900
  9017  1361                     u3901:
  9018  1361  2BAF               	goto	l2708
  9019  1362                     u3900:
  9020  1362                     l2690:
  9021  1362  01A0               	clrf	___aldiv@counter
  9022  1363  0AA0               	incf	___aldiv@counter,f
  9023  1364  2B72               	goto	l2694
  9024  1365                     l2692:
  9025  1365  3001               	movlw	1
  9026  1366  00F8               	movwf	??___aldiv
  9027  1367                     u3915:
  9028  1367  1003               	clrc
  9029  1368  0DF0               	rlf	___aldiv@divisor,f
  9030  1369  0DF1               	rlf	___aldiv@divisor+1,f
  9031  136A  0DF2               	rlf	___aldiv@divisor+2,f
  9032  136B  0DF3               	rlf	___aldiv@divisor+3,f
  9033  136C  0BF8               	decfsz	??___aldiv,f
  9034  136D  2B67               	goto	u3915
  9035  136E  3001               	movlw	1
  9036  136F  00F8               	movwf	??___aldiv
  9037  1370  0878               	movf	??___aldiv,w
  9038  1371  07A0               	addwf	___aldiv@counter,f
  9039  1372                     l2694:
  9040  1372  1FF3               	btfss	___aldiv@divisor+3,7
  9041  1373  2B75               	goto	u3921
  9042  1374  2B76               	goto	u3920
  9043  1375                     u3921:
  9044  1375  2B65               	goto	l2692
  9045  1376                     u3920:
  9046  1376                     l2696:
  9047  1376  3001               	movlw	1
  9048  1377  00F8               	movwf	??___aldiv
  9049  1378                     u3935:
  9050  1378  1003               	clrc
  9051  1379  0DA2               	rlf	___aldiv@quotient,f
  9052  137A  0DA3               	rlf	___aldiv@quotient+1,f
  9053  137B  0DA4               	rlf	___aldiv@quotient+2,f
  9054  137C  0DA5               	rlf	___aldiv@quotient+3,f
  9055  137D  0BF8               	decfsz	??___aldiv,f
  9056  137E  2B78               	goto	u3935
  9057  137F                     l2698:
  9058  137F  0873               	movf	___aldiv@divisor+3,w
  9059  1380  0277               	subwf	___aldiv@dividend+3,w
  9060  1381  1D03               	skipz
  9061  1382  2B8D               	goto	u3945
  9062  1383  0872               	movf	___aldiv@divisor+2,w
  9063  1384  0276               	subwf	___aldiv@dividend+2,w
  9064  1385  1D03               	skipz
  9065  1386  2B8D               	goto	u3945
  9066  1387  0871               	movf	___aldiv@divisor+1,w
  9067  1388  0275               	subwf	___aldiv@dividend+1,w
  9068  1389  1D03               	skipz
  9069  138A  2B8D               	goto	u3945
  9070  138B  0870               	movf	___aldiv@divisor,w
  9071  138C  0274               	subwf	___aldiv@dividend,w
  9072  138D                     u3945:
  9073  138D  1C03               	skipc
  9074  138E  2B90               	goto	u3941
  9075  138F  2B91               	goto	u3940
  9076  1390                     u3941:
  9077  1390  2BA0               	goto	l2704
  9078  1391                     u3940:
  9079  1391                     l2700:
  9080  1391  0870               	movf	___aldiv@divisor,w
  9081  1392  02F4               	subwf	___aldiv@dividend,f
  9082  1393  0871               	movf	___aldiv@divisor+1,w
  9083  1394  1C03               	skipc
  9084  1395  0F71               	incfsz	___aldiv@divisor+1,w
  9085  1396  02F5               	subwf	___aldiv@dividend+1,f
  9086  1397  0872               	movf	___aldiv@divisor+2,w
  9087  1398  1C03               	skipc
  9088  1399  0F72               	incfsz	___aldiv@divisor+2,w
  9089  139A  02F6               	subwf	___aldiv@dividend+2,f
  9090  139B  0873               	movf	___aldiv@divisor+3,w
  9091  139C  1C03               	skipc
  9092  139D  0F73               	incfsz	___aldiv@divisor+3,w
  9093  139E  02F7               	subwf	___aldiv@dividend+3,f
  9094  139F                     l2702:
  9095  139F  1422               	bsf	___aldiv@quotient,0
  9096  13A0                     l2704:
  9097  13A0  3001               	movlw	1
  9098  13A1                     u3955:
  9099  13A1  1003               	clrc
  9100  13A2  0CF3               	rrf	___aldiv@divisor+3,f
  9101  13A3  0CF2               	rrf	___aldiv@divisor+2,f
  9102  13A4  0CF1               	rrf	___aldiv@divisor+1,f
  9103  13A5  0CF0               	rrf	___aldiv@divisor,f
  9104  13A6  3EFF               	addlw	-1
  9105  13A7  1D03               	skipz
  9106  13A8  2BA1               	goto	u3955
  9107  13A9                     l2706:
  9108  13A9  3001               	movlw	1
  9109  13AA  02A0               	subwf	___aldiv@counter,f
  9110  13AB  1D03               	btfss	3,2
  9111  13AC  2BAE               	goto	u3961
  9112  13AD  2BAF               	goto	u3960
  9113  13AE                     u3961:
  9114  13AE  2B76               	goto	l2696
  9115  13AF                     u3960:
  9116  13AF                     l2708:
  9117  13AF  0821               	movf	___aldiv@sign,w
  9118  13B0  1903               	btfsc	3,2
  9119  13B1  2BB3               	goto	u3971
  9120  13B2  2BB4               	goto	u3970
  9121  13B3                     u3971:
  9122  13B3  2BBF               	goto	l2712
  9123  13B4                     u3970:
  9124  13B4                     l2710:
  9125  13B4  09A2               	comf	___aldiv@quotient,f
  9126  13B5  09A3               	comf	___aldiv@quotient+1,f
  9127  13B6  09A4               	comf	___aldiv@quotient+2,f
  9128  13B7  09A5               	comf	___aldiv@quotient+3,f
  9129  13B8  0AA2               	incf	___aldiv@quotient,f
  9130  13B9  1903               	skipnz
  9131  13BA  0AA3               	incf	___aldiv@quotient+1,f
  9132  13BB  1903               	skipnz
  9133  13BC  0AA4               	incf	___aldiv@quotient+2,f
  9134  13BD  1903               	skipnz
  9135  13BE  0AA5               	incf	___aldiv@quotient+3,f
  9136  13BF                     l2712:
  9137  13BF  0825               	movf	___aldiv@quotient+3,w
  9138  13C0  00F3               	movwf	?___aldiv+3
  9139  13C1  0824               	movf	___aldiv@quotient+2,w
  9140  13C2  00F2               	movwf	?___aldiv+2
  9141  13C3  0823               	movf	___aldiv@quotient+1,w
  9142  13C4  00F1               	movwf	?___aldiv+1
  9143  13C5  0822               	movf	___aldiv@quotient,w
  9144  13C6  00F0               	movwf	?___aldiv
  9145  13C7                     l339:
  9146  13C7  0008               	return
  9147  13C8                     __end_of___aldiv:
  9148  007E                     btemp	set	126	;btemp
  9149  007E                     wtemp0	set	126
  9150                           
  9151                           	psect	config
  9152                           
  9153                           ;Config register CONFIG @ 0x2007
  9154                           ;	Oscillator Selection bits
  9155                           ;	FOSC = XT, XT oscillator
  9156                           ;	Watchdog Timer Enable bit
  9157                           ;	WDTE = OFF, WDT disabled
  9158                           ;	Power-up Timer Enable bit
  9159                           ;	PWRTE = OFF, PWRT disabled
  9160                           ;	Brown-out Reset Enable bit
  9161                           ;	BOREN = OFF, BOR disabled
  9162                           ;	Low-Voltage (Single-Supply) In-Circuit Serial Programming Enable bit
  9163                           ;	LVP = OFF, RB3 is digital I/O, HV on MCLR must be used for programming
  9164                           ;	Data EEPROM Memory Code Protection bit
  9165                           ;	CPD = OFF, Data EEPROM code protection off
  9166                           ;	Flash Program Memory Write Enable bits
  9167                           ;	WRT = OFF, Write protection off; all program memory may be written to by EECON control
  9168                           ;	In-Circuit Debugger Mode bit
  9169                           ;	DEBUG = 0x1, unprogrammed default
  9170                           ;	Flash Program Memory Code Protection bit
  9171                           ;	CP = OFF, Code protection off
  9172  2007                     	org	8199
  9173  2007  3F39               	dw	16185

Data Sizes:
    Strings     20
    Constant    46
    Data        22
    BSS         6
    Persistent  0
    Stack       0

Auto Spaces:
    Space          Size  Autos    Used
    COMMON           14     14      14
    BANK0            80     80      80
    BANK1            80     61      79
    BANK3            96     22      32
    BANK2            96      0       0

Pointer List with Targets:

    frexp@eptr	PTR int  size(1) Largest target is 2
		 -> floor@expon(BANK0[2]), 

    eval_poly@d	PTR const  size(1) Largest target is 20
		 -> sin@coeff_a(CODE[20]), sin@coeff_b(CODE[16]), 

    sprintf@f	PTR const unsigned char  size(1) Largest target is 10
		 -> STR_2(CODE[10]), STR_1(CODE[10]), 

    sprintf@sp	PTR unsigned char  size(1) Largest target is 10
		 -> main@out(BANK3[10]), 

    sprintf@ap	PTR void [1] size(1) Largest target is 2
		 -> ?_sprintf(BANK0[2]), 

    UART_Write_Text@text	PTR unsigned char  size(1) Largest target is 10
		 -> main@out(BANK3[10]), 


Critical Paths under _main in COMMON

    _main->___xxtofl
    _sprintf->___lwmod
    ___lwmod->___lwdiv
    _computeLyapunov->___flmul
    _computeLyapunov->___xxtofl
    _sin->___flmul
    _floor->___xxtofl
    _floor->_frexp
    _frexp->___fleq
    ___fltol->___flmul
    ___fltol->___xxtofl
    _eval_poly->___flmul
    ___flmul->__Umul8_16
    ___flsub->___flmul
    ___flsub->___xxtofl
    ___flsub->_frexp
    ___fladd->___flmul
    ___fldiv->___flmul
    ___awdiv->___flmul
    _UART_Write_Text->_UART_Write
    _UART_Init->___aldiv

Critical Paths under _main in BANK0

    _computeLyapunov->_cos
    _cos->_sin
    _sin->_floor
    _floor->___fltol
    ___fltol->___flsub
    _eval_poly->___fladd
    ___flsub->___fladd
    ___flsub->___fladd
    ___fladd->___flmul
    ___fldiv->_eval_poly
    ___awdiv->___fltol
    _UART_Init->___aldiv

Critical Paths under _main in BANK1

    _main->_computeLyapunov
    _computeLyapunov->_cos
    _cos->_sin
    _sin->___fldiv

Critical Paths under _main in BANK3

    None.

Critical Paths under _main in BANK2

    None.

Call Graph Tables:

 ---------------------------------------------------------------------------------
 (Depth) Function   	        Calls       Base Space   Used Autos Params    Refs
 ---------------------------------------------------------------------------------
 (0) _main                                                25    25      0   73037
                                             58 BANK1      3     3      0
                                              0 BANK3     22    22      0
                          _UART_Init
                    _UART_Write_Text
                           ___xxtofl
                    _computeLyapunov
                            _spiInit
                            _spiRead
                           _spiWrite
                            _sprintf
 ---------------------------------------------------------------------------------
 (1) _sprintf                                             21    18      3    1320
                                              0 BANK0     13    10      3
                            ___lwdiv
                            ___lwmod
 ---------------------------------------------------------------------------------
 (2) ___lwmod                                              6     2      4     311
                                              8 COMMON     6     2      4
                            ___lwdiv (ARG)
 ---------------------------------------------------------------------------------
 (2) ___lwdiv                                              8     4      4     314
                                              0 COMMON     8     4      4
 ---------------------------------------------------------------------------------
 (1) _spiWrite                                             1     1      0      22
                                              0 COMMON     1     1      0
 ---------------------------------------------------------------------------------
 (1) _spiRead                                              0     0      0       0
                     _spiReceiveWait
 ---------------------------------------------------------------------------------
 (2) _spiReceiveWait                                       0     0      0       0
 ---------------------------------------------------------------------------------
 (1) _spiInit                                              4     1      3     360
                                              0 COMMON     4     1      3
 ---------------------------------------------------------------------------------
 (1) _computeLyapunov                                     28    20      8   69391
                                             30 BANK1     28    20      8
                            ___awdiv
                            ___fladd
                            ___flmul
                            ___flsub
                            ___fltol
                           ___xxtofl
                                _cos
                                _sin
 ---------------------------------------------------------------------------------
 (2) _cos                                                  8     4      4   30460
                                             76 BANK0      4     4      0
                                             26 BANK1      4     0      4
                            ___fladd
                             ___flge
                                _sin
 ---------------------------------------------------------------------------------
 (2) _sin                                                 18    14      4   25852
                                             71 BANK0      5     1      4
                                             13 BANK1     13    13      0
                            ___fldiv
                             ___flge
                            ___flmul
                            ___flneg
                            ___flsub
                          _eval_poly
                              _floor
 ---------------------------------------------------------------------------------
 (3) _floor                                               11     7      4    6626
                                             60 BANK0     11     7      4
                            ___fladd
                             ___flge
                            ___flsub (ARG)
                            ___fltol
                           ___xxtofl
                              _frexp
 ---------------------------------------------------------------------------------
 (4) _frexp                                                7     2      5     728
                                             12 COMMON     2     2      0
                                              0 BANK0      5     0      5
                             ___fleq
 ---------------------------------------------------------------------------------
 (5) ___fleq                                              12     4      8     368
                                              0 COMMON    12     4      8
 ---------------------------------------------------------------------------------
 (4) ___xxtofl                                            14    10      4     694
                                              0 COMMON    14    10      4
 ---------------------------------------------------------------------------------
 (4) ___fltol                                             11     7      4     457
                                             49 BANK0     11     7      4
                            ___fladd (ARG)
                            ___flmul (ARG)
                            ___flsub (ARG)
                           ___xxtofl (ARG)
 ---------------------------------------------------------------------------------
 (4) ___flge                                              12     4      8    1220
                                              0 COMMON    12     4      8
 ---------------------------------------------------------------------------------
 (3) _eval_poly                                           16     9      7    7907
                                             41 BANK0     16     9      7
                            ___fladd
                            ___flmul
 ---------------------------------------------------------------------------------
 (4) ___flmul                                             26    18      8    4073
                                              9 COMMON     5     5      0
                                              0 BANK0     21    13      8
                          __Umul8_16
 ---------------------------------------------------------------------------------
 (5) __Umul8_16                                            9     7      2     799
                                              0 COMMON     9     7      2
 ---------------------------------------------------------------------------------
 (3) ___flsub                                              8     0      8    3853
                                             41 BANK0      8     0      8
                            ___fladd
                            ___fladd (ARG)
                             ___fleq (ARG)
                             ___flge (ARG)
                            ___flmul (ARG)
                           ___xxtofl (ARG)
                              _frexp (ARG)
 ---------------------------------------------------------------------------------
 (4) ___fladd                                             20    12      8    3200
                                             21 BANK0     20    12      8
                            ___flmul (ARG)
 ---------------------------------------------------------------------------------
 (3) ___flneg                                              4     0      4     197
                                              0 COMMON     4     0      4
 ---------------------------------------------------------------------------------
 (3) ___fldiv                                             26    18      8    1273
                                             57 BANK0     13     5      8
                                              0 BANK1     13    13      0
                            ___flmul (ARG)
                          _eval_poly (ARG)
 ---------------------------------------------------------------------------------
 (2) ___awdiv                                              9     5      4     452
                                             60 BANK0      9     5      4
                            ___fladd (ARG)
                            ___flmul (ARG)
                            ___fltol (ARG)
 ---------------------------------------------------------------------------------
 (1) _UART_Write_Text                                      4     4      0     178
                                              1 COMMON     4     4      0
                         _UART_Write
 ---------------------------------------------------------------------------------
 (2) _UART_Write                                           1     1      0      22
                                              0 COMMON     1     1      0
 ---------------------------------------------------------------------------------
 (1) _UART_Init                                           18    14      4     836
                                              9 COMMON     2     2      0
                                              6 BANK0     16    12      4
                            ___aldiv
 ---------------------------------------------------------------------------------
 (2) ___aldiv                                             15     7      8     604
                                              0 COMMON     9     1      8
                                              0 BANK0      6     6      0
 ---------------------------------------------------------------------------------
 Estimated maximum stack depth 5
 ---------------------------------------------------------------------------------

 Call Graph Graphs:

 _main (ROOT)
   _UART_Init
     ___aldiv
   _UART_Write_Text
     _UART_Write
   ___xxtofl
   _computeLyapunov
     ___awdiv
       ___fladd (ARG)
         ___flmul (ARG)
           __Umul8_16
       ___flmul (ARG)
       ___fltol (ARG)
         ___fladd (ARG)
         ___flmul (ARG)
         ___flsub (ARG)
           ___fladd
           ___fladd (ARG)
           ___fleq (ARG)
           ___flge (ARG)
           ___flmul (ARG)
           ___xxtofl (ARG)
           _frexp (ARG)
             ___fleq
         ___xxtofl (ARG)
     ___fladd
     ___flmul
     ___flsub
     ___fltol
     ___xxtofl
     _cos
       ___fladd
       ___flge
       _sin
         ___fldiv
           ___flmul (ARG)
           _eval_poly (ARG)
             ___fladd
             ___flmul
         ___flge
         ___flmul
         ___flneg
         ___flsub
         _eval_poly
         _floor
           ___fladd
           ___flge
           ___flsub (ARG)
           ___fltol (ARG)
           ___xxtofl (ARG)
           _frexp (ARG)
     _sin
   _spiInit
   _spiRead
     _spiReceiveWait
   _spiWrite
   _sprintf
     ___lwdiv
     ___lwmod
       ___lwdiv (ARG)

 Address spaces:
Name               Size   Autos  Total    Cost      Usage
BANK3               60     16      20       9       33.3%
BITBANK3            60      0       0       8        0.0%
SFR3                 0      0       0       4        0.0%
BITSFR3              0      0       0       4        0.0%
BANK2               60      0       0      11        0.0%
BITBANK2            60      0       0      10        0.0%
SFR2                 0      0       0       5        0.0%
BITSFR2              0      0       0       5        0.0%
BANK1               50     3D      4F       7       98.8%
BITBANK1            50      0       0       6        0.0%
SFR1                 0      0       0       2        0.0%
BITSFR1              0      0       0       2        0.0%
BANK0               50     50      50       5      100.0%
BITBANK0            50      0       0       4        0.0%
SFR0                 0      0       0       1        0.0%
BITSFR0              0      0       0       1        0.0%
COMMON               E      E       E       1      100.0%
BITCOMMON            E      0       0       0        0.0%
CODE                 0      0       0       0        0.0%
DATA                 0      0      CD      12        0.0%
ABS                  0      0      CD       3        0.0%
NULL                 0      0       0       0        0.0%
STACK                0      0       0       2        0.0%
EEDATA             100      0       0       0        0.0%


Microchip Technology PIC Macro Assembler V2.32 build 20210201212658 
Symbol Table                                                                                   Mon Nov 29 11:44:57 2021

            ___fldiv@aexp 00AC              ___fldiv@bexp 00AB                         pc 0002  
            ___fldiv@sign 00A4               _SSPSTATbits 0094                        l80 109F  
                      l59 17FF                        l83 10A9                        l89 1101  
                      _k1 00E5                        _k2 00E1                        _k3 00DD  
            ___awdiv@sign 0062                        fsr 0004       __Umul8_16@word_mpld 0076  
                     l113 0055                       l108 0B29                       l132 10DB  
                     l133 10E0                       l150 109D                       l142 1085  
                     l136 1086                       l139 108C                       l260 08EA  
                     l600 0FFF                       l329 133F                       l417 12AE  
                     l441 14EE                       l433 11C0                       l442 1507  
                     l450 132A                       l434 11DC                       l339 13C7  
                     l603 1125                       l435 11F1                       l460 132A  
                     l613 0253                       l446 000D                       l438 1482  
                     l710 1630                       l615 0474                       l711 163C  
                     l703 1614                       l536 11A3                       l561 0E82  
                     l457 1315                       l570 0FFF                       l546 115F  
                     l635 0448                       l563 0E59                       l731 0C59  
                     l732 0D77                       l637 0460                       l629 03C8  
                     l557 0DDB                       l653 07D5                       l733 0D77  
                     l582 0F71                       l718 15AC                       l591 0FD1  
                     l672 0022                       l665 07C9                       l578 0F4D  
                     l674 0034                       l754 1245                       l746 1725  
                     l659 0741                       l739 1465                       l588 0F93  
                     l599 0FF3                       l697 15CF                       l699 1666  
       ??_computeLyapunov 007E                       _RA1 0029                       _RA2 002A  
                     _RD0 0040                       _RD1 0041                       _cos 1508  
                     _v_l 01AE                       _v_r 00ED                       _sin 0B2A  
                     fsr0 0004                       indf 0000              ___flmul@aexp 002D  
            ___flmul@bexp 002E              ___flmul@sign 0028              ___flmul@temp 0033  
            ___flmul@prod 002F              ___fltol@exp1 005B                      l2000 12BC  
                    l2010 12E3                      l2100 0E0D                      l2020 12F1  
                    l2012 12E5                      l2004 12C5                      l2110 0E21  
                    l2102 0E11                      l2030 131A                      l2014 12E9  
                    l2022 1303                      l2006 12DA                      l2200 0F98  
                    l2120 0E66                      l2104 0E15                      l2112 0E25  
                    l2040 0D89                      l2032 131F                      l2008 12DB  
                    l3000 01C0                      l2210 0FD6                      l2202 0F9D  
                    l2122 0E68                      l2130 0E7A                      l2114 0E26  
                    l2106 0E19                      l2050 0D9D                      l2042 0D8A  
                    l2034 0D78                      l3002 01CE                      l2220 0FED  
                    l2212 0FDB                      l2204 0FAB                      l2140 0EAB  
                    l2132 0E86                      l2124 0E6C                      l2116 0E3D  
                    l2108 0E1D                      l2060 0DB3                      l2044 0D8F  
                    l2052 0D9F                      l2036 0D7F                      l2300 0635  
                    l2028 130A                      l2222 0FEF                      l2214 0FE3  
                    l2206 0FAF                      l2150 0EC2                      l2142 0EAF  
                    l2134 0E8B                      l2126 0E6D                      l2118 0E5D  
                    l2070 0DC8                      l2062 0DB9                      l2054 0DA7  
                    l2046 0D94                      l2038 0D85                      l2310 06ED  
                    l2302 0662                      l2230 047C                      l2224 0FFA  
                    l2216 0FE8                      l2208 0FCD                      l2160 0F25  
                    l2152 0EC3                      l2144 0EB3                      l2128 0E76  
                    l2080 0DE5                      l2072 0DD0                      l2064 0DBD  
                    l2056 0DAC                      l2048 0D9C                      l2320 0712  
                    l2312 06F6                      l2304 0672                      l2240 0491  
                    l2232 0482                      l2400 163E                      l3024 0830  
                    l2226 0FFE                      l2218 0FE9                      l2170 0F5A  
                    l2162 0F2B                      l2154 0ECC                      l2146 0EBC  
                    l2138 0E94                      l2090 0DF9                      l2082 0DE9  
                    l2074 0DD1                      l2066 0DBE                      l2058 0DB2  
                    l2330 072A                      l2322 071B                      l2314 0704  
                    l2306 069F                      l2250 04AE                      l2242 0499  
                    l2234 0486                      l2402 1654                      l2500 02C0  
                    l2180 0F75                      l2164 0F30                      l2148 0EBE  
                    l2156 0ED1                      l2092 0DFD                      l2084 0DED  
                    l2068 0DC3                      l2076 0DD3                      l2340 0759  
                    l2332 073E                      l2316 070D                      l2324 0721  
                    l2308 06C5                      l2260 04C5                      l2252 04B2  
                    l2244 049B                      l2236 0487                      l2228 0475  
                    l2404 1659                      l2420 1233                      l2412 11F2  
                    l2510 02F3                      l2502 02CA                      l2430 000B  
                    l2182 0F78                      l2174 0F63                      l2158 0EE7  
                    l2166 0F3F                      l2190 0F85                      l2094 0E01  
                    l2086 0DF1                      l2078 0DE1                      l2350 0794  
                    l2342 075D                      l2326 0725                      l2318 0711  
                    l2262 04C7                      l2254 04B3                      l2246 04A3  
                    l2238 048C                      l2406 165D                      l2422 1240  
                    l2414 120D                      l2520 032C                      l2512 02F9  
                    l2504 02D4                      l2432 000D                      l2192 0F86  
                    l2184 0F7A                      l2176 0F6C                      l2168 0F55  
                    l2096 0E05                      l2088 0DF5                      l2360 07C1  
                    l2352 07A3                      l2344 0776                      l2336 0746  
                    l2328 0726                      l2280 0538                      l2272 04E2  
                    l2264 04CF                      l2256 04B8                      l2248 04A8  
                    l2408 165E                      l2424 1244                      l2600 16B8  
                    l2530 036C                      l2522 0354                      l2514 02FC  
                    l2506 02D6                      l2450 01F1                      l2442 01D5  
                    l2194 0F8A                      l2186 0F7F                      l2178 0F70  
                    l2098 0E09                      l2362 07C2                      l2354 07AD  
                    l2338 074B                      l2346 077C                      l2290 05B5  
                    l2282 0564                      l2274 04F2                      l2266 04D4  
                    l2258 04BD                      l2370 15B3                      l2418 1216  
                    l2602 16B9                      l2700 1391                      l2532 0375  
                    l2540 0394                      l2508 02DB                      l2516 030A  
                    l2524 035C                      l2452 01F8                      l2460 020B  
                    l2444 01DE                      l2428 0003                      l2196 0F90  
                    l2188 0F81                      l2436 1102                      l2364 07CD  
                    l2356 07AF                      l2348 0789                      l2292 05D2  
                    l2284 0580                      l2276 04FF                      l2268 04D9  
                    l2612 13C8                      l2380 15E0                      l2372 15B7  
                    l2604 16F9                      l2710 13B4                      l2702 139F  
                    l2542 039A                      l2534 037B                      l2526 0362  
                    l2518 032B                      l2470 022F                      l2462 0215  
                    l2454 01FD                      l2446 01E8                      l2438 1106  
                    l2358 07BD                      l2294 05E2                      l2286 059C  
                    l2278 051C                      l2614 13F7                      l2390 160B  
                    l2382 15E5                      l2374 15C7                      l2630 0B65  
                    l2622 0B2A                      l2712 13BF                      l2704 13A0  
                    l2720 124D                      l2560 0401                      l2552 03CD  
                    l2544 039D                      l2536 037E                      l2528 036A  
                    l2472 0236                      l2480 0249                      l2464 021C  
                    l2456 0207                      l2448 01EE                      l2296 05FF  
                    l2288 05A5                      l2616 1457                      l2392 161B  
                    l2384 15F2                      l2376 15D7                      l2368 15AE  
                    l2608 171B                      l2640 0C0D                      l2632 0B86  
                    l2624 0B2D                      l2800 114E                      l2706 13A9  
                    l2810 177F                      l2730 1261                      l2722 1252  
                    l2570 043B                      l2554 03D4                      l2562 0409  
                    l2546 03A1                      l2538 038C                      l2482 025B  
                    l2490 0278                      l2474 023B                      l2466 0226  
                    l2458 0209                      l2298 0618                      l2618 145D  
                    l2394 1626                      l2386 15F9                      l2650 0D56  
                    l2642 0C1D                      l2634 0BB4                      l2626 0B48  
                    l2802 1155                      l2708 13AF                      l2820 17F1  
                    l2812 1788                      l2740 1277                      l2732 1263  
                    l2724 1254                      l2716 1246                      l2572 0445  
                    l2564 0418                      l2556 03E4                      l2548 03C3  
                    l2492 027F                      l2484 0267                      l2476 0245  
                    l2468 022C                      l2396 162A                      l2388 15FD  
                    l2652 0D5D                      l2644 0C38                      l2636 0BD3  
                    l2628 0B61                      l2660 1508                      l2804 115B  
                    l2900 0872                      ?_cos 00BA                      l2830 17FC  
                    l2822 17F2                      l2814 17E1                      l2750 129A  
                    l2742 127B                      l2734 1269                      l2726 1258  
                    l2718 1249                      l2574 0452                      l2566 0428  
                    l2558 03E8                      l2486 026F                      l2478 0247  
                    l2398 1634                      l2590 1699                      l2646 0C88  
                    l2638 0BEC                      l2662 1523                      l2910 0892  
                    l2902 087C                      l2680 1332                      l2824 17F5  
                    l2816 17E4                      l2808 1726                      l2656 109F  
                    l2840 10F6                      l2744 128C                      l2736 126C  
                    l2752 12A0                      l2728 125D                      l2576 0456  
                    l2568 0437                      l2496 028A                      l1960 11F0  
                    l1952 11A4                      l2584 1667                      l2648 0CC3  
                    l2664 1554                      l2760 1160                      l2912 08C0  
                    l2904 0882                      l2920 08E6                      l2690 1362  
                    l2682 1343                      l2826 17F8                      l2818 17ED  
                    l2658 10A5                      l2834 10E2                      l2754 12A5  
                    l2746 1292                      l2738 1273                      l2578 045A  
                    l2498 02A8                      l1970 001C                      l1954 11B8  
                    l2594 16A4                      l2586 167A                      l2842 08EB  
                    l2850 10D3                      l2674 1086                      l2770 1176  
                    l2762 1162                      l2914 08C7                      l2906 0889  
                    l2930 0038                      l2692 1365                      l2684 134E  
                    l2676 132B                      l2828 17F9                      l2836 10E5  
                    l2756 12AA                      l2748 1293                      l1972 002B  
                    l1964 000F                      l1980 147A                      l1956 11D4  
                    l2588 1680                      l2668 157A                      l2844 0904  
                    l2852 10D5                      l2860 1095                      l2780 1199  
                    l2772 117A                      l2764 1168                      l2916 08CB  
                    l2908 088D                      l2940 0059                      l2932 003D  
                    l2694 1372                      l2686 1352                      l2678 132E  
                    l2838 10F0                      l1974 0030                      l1966 0011  
                    l1990 14CA                      l1982 1496                      l1958 11EE  
                    l2598 16AF                      l2846 0943                      l2854 10D7  
                    l2862 109A                      l2774 118B                      l2766 116B  
                    l2782 119F                      l2790 112F                      l2870 0811  
                    l2918 08D4                      l2950 0088                      l2942 0067  
                    l2934 003E                      l2696 1376                      l2688 135A  
                    l1968 0018                      l1992 1504                      l1984 149E  
                    l2856 10DA                      l2848 10CC                      l2776 1191  
                    l2768 1172                      l2792 1136                      l2880 083B  
                    l2872 0818                      l2960 00CF                      l2952 009B  
                    l2944 006A                      l2936 003F                      l2928 0035  
                    l2698 137F                      l1994 1506                      l1986 14A2  
                    l1978 1466                      l2858 1081                      l2778 1192  
                    l2794 113A                      l2786 1126                      l2890 0854  
                    l2882 0843                      l2874 081D                      l2866 0806  
                    l2970 00E4                      l2962 00D2                      l2954 00B5  
                    l2946 0074                      l2938 004C                      l1988 14C6  
                    l2796 113E                      l2788 112C                      l2884 0847  
                    l2868 080B                      l2980 012F                      l2972 00F2  
                    l2964 00D3                      l2956 00BF                      l2948 007A  
                    l1998 12AF                      l2798 1148                      l2886 084B  
                    l2878 081E                      l2990 01A9                      l2982 014A  
                    l2974 0105                      l2966 00D4                      l2958 00C5  
                    l2896 0856                      l2888 084F                      l2992 01B1  
                    l2984 0163                      l2976 011F                      l2968 00DE  
                    l2994 01BB                      l2986 0196                      l2978 0129  
                    l2996 01BE                      l2988 019E                      l2998 01BF  
                    ?_sin 0067                      STR_1 1034                      STR_2 103E  
                    _BRGH 04C2                      _CREN 00C4                      u2200 11B8  
                    u3001 058E                      u2201 11B7                      u3002 0595  
                    u2210 11D4                      u3003 059C                      u2211 11D3  
                    u3100 06D3                      u2300 14CA                      u2220 11EE  
                    u3021 05C4                      u2301 14C9                      u2221 11ED  
                    u2230 001C                      u3022 05CB                      u2231 001B  
                    u3111 06DF                      u3031 05F1                      u3023 05D2  
                    u3015 059E                      u2311 14D9                      u4000 1269  
                    u3200 074B                      u3112 06E6                      u3032 05F8  
                    u2320 1504                      u2312 14DA                      u4001 1268  
                    u3201 074A                      u3113 06ED                      u3105 06CE  
                    u3033 05FF                      u2321 1503                      u2313 14DF  
                    u2225 11EA                      u2250 0030                      u3210 075D  
                    u2314 14E0                      u2410 131A                      u2330 12BC  
                    u2251 002F                      u3211 075C                      u3051 0627  
                    u2315 14E5                      u2411 1319                      u2331 12BB  
                    u4020 127B                      u2500 0DE1                      u3220 076C  
                    u3140 0711                      u3052 062E                      u2316 14E6  
                    u2260 147A                      u2420 131F                      u2340 12D3  
                    u3300 15F8                      u4100 117A                      u4021 127A  
                    u2501 0DE0                      u2245 0023                      u3141 0710  
                    u3125 06EF                      u3061 0654                      u3053 0635  
                    u3045 0601                      u2325 1500                      u2261 1479  
                    u2421 131E                      u2405 130C                      u3301 15F7  
                    u4101 1179                      u2510 0DE5                      u2430 0D89  
                    u3230 0789                      u3062 065B                      u2270 1496  
                    u2350 12E9                      u4015 126D                      u2511 0DE4  
                    u2431 0D88                      u3231 0788                      u3135 0706  
                    u3071 0681                      u3063 0662                      u2271 1495  
                    u2351 12E8                      u4040 128C                      u2600 0E8B  
                    u2520 0E3D                      u2440 0D8F                      u3240 07A3  
                    u3160 0725                      u3080 06AB                      u3072 0688  
                    u2280 14A2                      u2360 12F0                      u3320 161A  
                    u3400 120D                      u4120 118B                      u4200 115B  
                    u4041 128B                      u2601 0E8A                      u2521 0E3C  
                    u2441 0D8E                      u3241 07A2                      u3225 0767  
                    u3161 0724                      u3073 068F                      u2281 14A1  
                    u2361 12EF                      u2345 12CE                      u3321 1619  
                    u3401 120C                      u4121 118A                      u4201 115A  
                    u4210 1736                      u3410 000B                      u2530 0E48  
                    u2450 0D94                      u3250 07C1                      u3170 072A  
                    u4035 127C                      u3411 000A                      u2611 0E9D  
                    u2531 0E46                      u2451 0D93                      u3251 07C0  
                    u3235 0785                      u3171 0729                      u3155 0714  
                    u3091 06B7                      u2291 14B1                      u3315 160C  
                    u4115 117B                      u4220 174F                      u4060 12A0  
                    u3500 02DB                      u3420 01EE                      u2700 0F55  
                    u2620 0EAF                      u2612 0EA4                      u2540 0E49  
                    u2460 0DB2                      u3180 073E                      u3092 06BE  
                    u2292 14B2                      u2380 1302                      u3340 162A  
                    u3260 15B3                      u4300 10D3                      u4140 119F  
                    u4061 129F                      u4045 1288                      u3501 02DA  
                    u3421 01ED                      u2701 0F54                      u2621 0EAE  
                    u2613 0EAB                      u2525 0E39                      u2461 0DB1  
                    u3245 079F                      u3181 073D                      u3093 06C5  
                    u3085 06A6                      u2293 14B7                      u2381 1301  
                    u3341 1629                      u3261 15B2                      u4301 10D2  
                    u4141 119E                      u4125 1187                      u4070 12A5  
                    u3430 01F8                      u2710 0F5A                      u2630 0EB3  
                    u2550 0E5D                      u2470 0DBD                      u3190 0745  
                    u2294 14B8                      u2390 1309                      u3350 1630  
                    u3270 15B7                      u4150 112C                      u4310 0811  
                    u4231 1761                      u4215 1731                      u4071 12A4  
                    u4055 1294                      u3431 01F7                      u2711 0F59  
                    u2631 0EB2                      u2551 0E5C                      u2471 0DBC  
                    u3191 0744                      u2295 14BD                      u2391 1308  
                    u2375 12F2                      u3351 162F                      u3335 161F  
                    u3271 15B6                      u4135 1193                      u4151 112B  
                    u4311 0810                      u4240 1788                      u4232 1762  
                    u3600 037B                      u3440 01FD                      u2800 0F9D  
                    u2640 0EC2                      u2560 0E6C                      u2480 0DC3  
                    u2296 14BE                      u3360 1634                      u3280 15D7  
                    u4080 1168                      u4320 084B                      u4241 1787  
                    u4233 1767                      u4225 174A                      u3601 037A  
                    u3441 01FC                      u2801 0F9C                      u2641 0EC1  
                    u2561 0E6B                      u2481 0DC2                      u3361 1633  
                    u3281 15D6                      u4081 1167                      u4321 084A  
                    u4250 1798                      u4234 1768                      u3530 02F9  
                    u3450 022C                      u2810 0FAF                      u2730 0F70  
                    u2490 0DC8                      u3370 1649                      u4170 113E  
                    u4330 0871                      u4235 176D                      u3531 02F8  
                    u3515 02DF                      u3451 022B                      u2811 0FAE  
                    u2731 0F6F                      u2491 0DC7                      u4171 113D  
                    u4331 0870                      u4260 17B1                      u4236 176E  
                    u3700 0437                      u3620 039A                      u3460 0236  
                    u2820 0FBE                      u2740 0F75                      u2660 0EE7  
                    u2580 0E82                      u2900 048C                      u3380 1659  
                    u4180 1148                      u4340 087C                      u3701 0436  
                    u3621 0399                      u3525 02EC                      u3461 0235  
                    u2741 0F74                      u2725 0F65                      u2661 0EE6  
                    u2581 0E81                      u2901 048B                      u3381 1658  
                    u4181 1147                      u4165 1130                      u4341 087B  
                    u3710 0456                      u3630 03A1                      u3550 032B  
                    u3470 023B                      u2830 0FCD                      u2750 0F7F  
                    u2590 0E86                      u2910 0491                      u3390 165D  
                    u4350 0882                      u4271 17C3                      u4255 1793  
                    u3711 0455                      u3631 03A0                      u3615 0381  
                    u3551 032A                      u3471 023A                      u2831 0FCC  
                    u2751 0F7E                      u2671 0EFE                      u2663 0EE3  
                    u2655 0EC5                      u2591 0E85                      u2575 0E6F  
                    u2911 0490                      u3391 165C                      u3375 1644  
                    u3295 15EA                      u4095 116C                      u4351 0881  
                    u4335 086D                      u4407 0082                      u4280 17ED  
                    u4272 17C4                      u3640 03C3                      u3560 0350  
                    u3480 025B                      u2840 0FD6                      u2760 0F85  
                    u2680 0F12                      u2672 0EFF                      u2920 04B2  
                    u3720 1680                      u3800 0BEC                      u4360 08D4  
                    u4281 17EC                      u4273 17C9                      u4265 17AC  
                    u3705 0433                      u3641 03C2                      u3545 02FF  
                    u3481 025A                      u2841 0FD5                      u2825 0FB9  
                    u2761 0F84                      u2681 0F13                      u2673 0F04  
                    u2921 04B1                      u3721 167F                      u3801 0BEB  
                    u4185 1144                      u4361 08D3                      u4417 00BB  
                    u4274 17CA                      u4290 1101                      u3650 03CC  
                    u3570 0362                      u3490 027F                      u2850 0FDB  
                    u2770 0F8A                      u2690 0F30                      u2682 0F18  
                    u2674 0F05                      u2930 04B8                      u3730 1699  
                    u3810 0C15                      u4370 08E6                      u4275 17CF  
                    u4291 1100                      u3651 03CB                      u3571 0361  
                    u3555 0327                      u3491 027E                      u2851 0FDA  
                    u2771 0F89                      u2691 0F2F                      u2683 0F19  
                    u2675 0F0A                      u2931 04B7                      u3731 1698  
                    u3811 0C13                      u4195 114F                      u4371 08E5  
                    u4427 00CB                      u3900 1362                      u4276 17D0  
                    u3660 03D4                      u3580 036A                      u2860 0FE8  
                    u2780 0F90                      u2676 0F0B                      u2940 04BD  
                    u3740 16B8                      u3820 0C16                      u3901 1361  
                    u3661 03D3                      u3581 0369                      u3565 0339  
                    u2861 0FE7                      u2781 0F8F                      u2941 04BC  
                    u3741 16B7                      u4437 00DA                      u3670 03E8  
                    u3566 033C                      u2870 0FED                      u2790 0F97  
                    u2950 04D4                      u3750 16F9                      u3830 0C38  
                    u3671 03E7                      u3567 0343                      u2871 0FEC  
                    u2791 0F96                      u2951 04D3                      u3751 16F8  
                    u3831 0C37                      u4447 00EC                      u3920 1376  
                    u3680 03F7                      u3568 0346                      u2880 0FFE  
                    u2960 04D9                      u3840 0D5D                      u3921 1375  
                    u3569 034D                      u2881 0FFD                      u2961 04D8  
                    u3841 0D5C                      u4457 0125                      u3850 10A5  
                    u3690 0418                      u2890 0486                      u3915 1367  
                    u3851 10A4                      u3691 0417                      u3595 036E  
                    u2971 052A                      u2891 0485                      u4467 01A4  
                    u4387 0061                      u3940 1391                      u2972 0531  
                    u3780 145D                      u3860 1523                      _RCIF 0065  
                    u3941 1390                      u3685 03F2                      u2981 0546  
                    u2973 0538                      u3781 145C                      u3765 13CD  
                    u3861 1522                      u4477 01B7                      u4397 0070  
                    u2982 054D                      u3790 0B48                      u3870 108C  
                    u3935 1378                      u3695 0414                      u2991 0572  
                    u2983 0554                      u3775 1400                      u3791 0B47  
                    u3871 108B                      u4487 01C8                      u3960 13AF  
                    u3880 1332                      u2992 0579                      u3961 13AE  
                    u3945 138D                      u3881 1331                      u2993 0580  
                    u3970 13B4                      u3890 1343                      u3971 13B3  
                    u3955 13A1                      u3891 1342                      u3980 124D  
                    u3981 124C                      u3990 1258                      u3991 1257  
                    _SPEN 00C7                      _TRMT 04C1                      _TXEN 04C5  
                    _SYNC 04C4                      _main 0035                      cos@f 00BA  
                    btemp 007E                      sin@f 0067                      sin@y 00AD  
                    start 0000           ___fldiv@new_exp 00A5   __end_of_UART_Write_Text 1102  
                   ??_cos 007E                     ??_sin 006B             ___fltol@sign1 005A  
         __end_of___aldiv 13C8           __end_of___fladd 1000                     ?_main 0070  
         __end_of___fldiv 0475           __end_of___awdiv 12AF           __end_of___flneg 000E  
         __end_of___flmul 07D6           __end_of___flsub 1126           __end_of___fltol 132B  
         ___awdiv@divisor 005C           __end_of___lwdiv 11A4           __end_of___lwmod 1160  
         ___awdiv@counter 0061                     _RCREG 001A                     _SPBRG 0099  
                   _PORTD 0008                     _TRISA 0085                     _TRISD 0088  
      __end_ofsin@coeff_a 1024        __end_ofsin@coeff_b 1034                     _TXREG 0019  
                   _nRBPU 040F               ?_UART_Write 0070        __size_of_UART_Init 00DA  
         __end_of_dpowers 1010                     _floor 1667                     _frexp 11F2  
                   _errno 00EB                     _v_ref 01AA                     pclath 000A  
         __end_of_spiInit 10E1                     sin@x2 00B5           __end_of_spiRead 109E  
                   status 0003                     wtemp0 007E           __end_of_sprintf 08EB  
         __initialization 07D6              __end_of_main 01D5                    ??_main 00DA  
                  ?_floor 005C                    ?_frexp 0020          ___awdiv@dividend 005E  
                  _TRISC3 043B                    _TRISC5 043D                    _TRISC6 043E  
                  _TRISC7 043F                    _SSPCON 0014                    _SSPBUF 0013  
        __end_of___xxtofl 1667         __end_of_UART_Init 1800                    ___flge 1466  
                  ___fleq 11A4       __size_of_UART_Write 000C                 ??___aldiv 0078  
               ??___fladd 003D                 ??___fldiv 0061                 ??___awdiv 0060  
               ??___flneg 0074                 ??___flmul 0079          ?_UART_Write_Text 0070  
               ??___flsub 007E                 ??___fltol 0055                 ??___lwdiv 0074  
               ??___lwmod 007C          ___awdiv@quotient 0063                    main@e2 01A2  
                  main@e3 01A4                    floor@i 0061                    floor@x 005C  
        computeLyapunov@v 00D6        __size_of__Umul8_16 0027                    sin@sgn 00B9  
        __end_of_spiWrite 1086                 ??_spiInit 0073                 ??_spiRead 0070  
               ??_sprintf 0023                ___flge@ff1 0070                ___flge@ff2 0074  
            ___xxtofl@arg 007A              ___xxtofl@exp 0079              ___xxtofl@val 0070  
              ___fleq@ff1 0070                ___fleq@ff2 0074   __end_of__initialization 07FC  
     _computeLyapunov$987 00CE       _computeLyapunov$988 00D2       _computeLyapunov$996 00C6  
              ___flneg@f1 0070              eval_poly@res 0055                ___fltol@f1 0051  
         _computeLyapunov 08EB            __pcstackCOMMON 0070              __pidataBANK1 10AA  
            __pidataBANK3 108D             __end_of_floor 1726             __end_of_frexp 1246  
                 ??_floor 0060                   ??_frexp 007C                __pbssBANK1 00EB  
              __pbssBANK3 01AE        __size_of_eval_poly 009E         __end_of__Umul8_16 0035  
              __pmaintext 0035                   ?___flge 0070                   ?___fleq 0070  
 __size_of_spiReceiveWait 0007                 ?___xxtofl 0070              ??_UART_Write 0070  
                 _SSPSTAT 0094                __stringtab 1000   __end_of_computeLyapunov 0B2A  
               ?_spiWrite 0070                   ___aldiv 132B           __size_of___flge 00A2  
         __size_of___fleq 004E                   ___fladd 0D78                   ___fldiv 01D5  
                 ___awdiv 1246                   ___flneg 0003                   ___flmul 0475  
                 ___flsub 1102                   _cos$993 006C                   ___fltol 12AF  
      __end_of_UART_Write 10AA                   ___lwdiv 1160                   ___lwmod 1126  
       __end_of_eval_poly 1466                   __ptext1 0803                   __ptext2 1126  
                 __ptext3 1160                   __ptext4 1080                   __ptext5 1095  
                 __ptext6 1086                   __ptext7 10CB                   __ptext8 08EB  
                 __ptext9 1508                   _sin$994 00B1                   _dpowers 1006  
            __size_of_cos 00A5              __size_of_sin 024E                ??___xxtofl 0074  
        ___aldiv@dividend 0074                   _spiInit 10CB                   _spiRead 1095  
                 _sprintf 0803                   main@out 0190      end_of_initialization 07FC  
       computeLyapunov@e2 00BE         computeLyapunov@e3 00C2          ___aldiv@quotient 0022  
              ??_spiWrite 0070                 _UART_Init 1726            UART_Write@data 0070  
             ___fladd@grs 0048             ___xxtofl@sign 0078               ___fldiv@grs 00A7  
             ___fldiv@rem 00A0               spiWrite@dat 0070               ___flmul@grs 0029  
        ?_computeLyapunov 00BE            _spiReceiveWait 1086            __end_of___flge 1508  
          __end_of___fleq 11F2                ?_UART_Init 0026                floor@expon 0065  
__size_of_UART_Write_Text 0021       start_initialization 07D6                eval_poly@d 004D  
              eval_poly@n 004E                eval_poly@x 0049               __end_of_cos 15AD  
             __end_of_sin 0D78                frexp@value 0020    __end_of_spiReceiveWait 108D  
                ??___flge 0078                  ??___fleq 0078                init_fetch0 10B8  
               __Umul8_16 000E               __pdataBANK1 00DD               __pdataBANK3 01A6  
    computeLyapunov@omega 00CA                 ___fladd@a 0039                 ___fladd@b 0035  
               ___fldiv@a 0059                 ___fldiv@b 005D                 ___flmul@a 0024  
               ___flmul@b 0020                 ___flsub@a 0049                 ___flsub@b 004D  
               ___latbits 0002             __pcstackBANK0 0020             __pcstackBANK1 00A0  
           __pcstackBANK3 0190         __size_of___xxtofl 00BA               sprintf@flag 0027  
              sin@coeff_a 1010                sin@coeff_b 1024               sprintf@prec 0028  
        ___lwdiv@dividend 0072           ?_spiReceiveWait 0070                  ?___aldiv 0070  
                ?___fladd 0035                  ?___fldiv 0059                  ?___awdiv 005C  
                ?___flneg 0070                  ?___flmul 0020                  ?___flsub 0049  
                ?___fltol 0051                ?__Umul8_16 0070                  ?___lwdiv 0070  
                ?___lwmod 0078               ??_UART_Init 002A         __size_of_spiWrite 0006  
               __pstrings 1000                 _eval_poly 13C8                  ?_spiInit 0070  
                ?_spiRead 0070          ___lwdiv@quotient 0075                  ?_sprintf 0020  
          __size_of_floor 00BF            __size_of_frexp 0054                UART_Init@x 0079  
       ??_UART_Write_Text 0071           ___aldiv@divisor 0070      spiInit@sTransmitEdge 0072  
               _omega_ref 01A6           ___aldiv@counter 0020        spiInit@sDataSample 0070  
       UART_Init@baudrate 0026               __stringbase 1005                ?_eval_poly 0049  
          _wheel_distance 00E9                 frexp@eptr 0024               ??__Umul8_16 0072  
        __size_of___aldiv 009D          __size_of___fladd 0288          __size_of___fldiv 02A0  
        __size_of___awdiv 0069          __size_of___flneg 000B          __size_of___flmul 0361  
        __size_of___flsub 0024          __size_of___fltol 007C          __size_of___lwdiv 0044  
        __size_of___lwmod 003A        __end_of__stringtab 1006                sprintf@val 0029  
                ___xxtofl 15AD                  _main$991 019A                  _main$992 019E  
         ___lwdiv@divisor 0070           ___lwdiv@counter 0077                  __ptext10 0B2A  
                __ptext11 1667                  __ptext20 1102                  __ptext12 11F2  
                __ptext21 0D78                  __ptext13 11A4                  __ptext22 0003  
                __ptext14 15AD                  __ptext23 01D5                  __ptext15 12AF  
                __ptext24 1246                  __ptext16 1466                  __ptext25 10E1  
                __ptext17 13C8                  __ptext26 109E                  __ptext18 0475  
                __ptext27 1726                  __ptext19 000E                  __ptext28 132B  
        __size_of_spiInit 0016          __size_of_spiRead 0009          __size_of_sprintf 00E8  
     UART_Write_Text@text 0074             __size_of_main 01A0                  _spiWrite 1080  
__size_of_computeLyapunov 023F              spiInit@sType 0073         spiInit@sClockIdle 0071  
             ??_eval_poly 0050                  init_ram0 10BC                 sprintf@ap 0026  
               sprintf@sp 002B          ___lwmod@dividend 007A          ??_spiReceiveWait 0070  
               stringcode 1000    __Umul8_16@multiplicand 0070           _UART_Write_Text 10E1  
                sprintf@c 002C                  sprintf@f 0020           ___lwmod@divisor 0078  
         ___lwmod@counter 007D                  stringdir 1000                  stringtab 1000  
            ___aldiv@sign 0021                _UART_Write 109E             ___fladd@signs 0045  
        UART_Write_Text@i 0072              ___fladd@aexp 0046              ___fladd@bexp 0047  
    __Umul8_16@multiplier 0078         __Umul8_16@product 0074  
