CCS PCM C Compiler, Version 5.101, 43599               09-Nov-21 19:13

               Filename:   C:\Users\Nguyen Truong An\Desktop\Project\TEST SPI\Test_CB\main.lst

               ROM used:   1603 words (20%)
                           Largest free fragment is 2048
               RAM used:   29 (8%) at main() level
                           51 (14%) worst case
               Stack used: 2 locations
               Stack size: 8

*
0000:  MOVLW  03
0001:  MOVWF  0A
0002:  GOTO   3AB
0003:  NOP
.................... #include <16F877A.h>
.................... //////////// Standard Header file for the PIC16F877A device ////////////////
.................... ///////////////////////////////////////////////////////////////////////////
.................... ////        (C) Copyright 1996, 2020 Custom Computer Services          ////
.................... //// This source code may only be used by licensed users of the CCS C  ////
.................... //// compiler.  This source code may only be distributed to other      ////
.................... //// licensed users of the CCS C compiler.  No other use, reproduction ////
.................... //// or distribution is permitted without written permission.          ////
.................... //// Derivative programs created using this software in object code    ////
.................... //// form are not restricted in any way.                               ////
.................... ///////////////////////////////////////////////////////////////////////////
.................... #device PIC16F877A
0004:  DATA 43,21
0005:  DATA 31,10
0006:  DATA 3D,10
0007:  DATA 25,36
0008:  DATA F5,04
0009:  DATA 00,00
000A:  DATA 43,21
000B:  DATA 32,10
000C:  DATA 3D,10
000D:  DATA 25,36
000E:  DATA F5,04
000F:  DATA 00,01
0010:  DATA 43,21
0011:  DATA 33,10
0012:  DATA 3D,10
0013:  DATA 25,36
0014:  DATA F5,04
0015:  DATA 00,01
0016:  DATA 43,21
0017:  DATA 34,10
0018:  DATA 3D,10
0019:  DATA 25,36
001A:  DATA F5,04
001B:  DATA 00,01
001C:  DATA 43,21
001D:  DATA 35,10
001E:  DATA 3D,10
001F:  DATA 25,36
0020:  DATA F5,04
0021:  DATA 00,01
0022:  DATA 43,21
0023:  DATA 36,10
0024:  DATA 3D,10
0025:  DATA 25,36
0026:  DATA F5,04
0027:  DATA 00,01
0028:  DATA 43,21
0029:  DATA 37,10
002A:  DATA 3D,10
002B:  DATA 25,36
002C:  DATA F5,04
002D:  DATA 00,01
002E:  DATA 4B,34
002F:  DATA EF,30
0030:  DATA EE,33
0031:  DATA A0,31
0032:  DATA E1,31
0033:  DATA 68,10
0034:  DATA 3D,10
0035:  DATA 25,33
0036:  DATA 09,00
0037:  DATA 89,04
0038:  DATA 89,04
0039:  DATA 89,04
003A:  DATA 00,00
003B:  MOVLW  10
003C:  MOVWF  4A
003D:  CLRF   77
003E:  CLRF   7A
003F:  RRF    47,F
0040:  RRF    46,F
0041:  BTFSS  03.0
0042:  GOTO   049
0043:  MOVF   48,W
0044:  ADDWF  77,F
0045:  BTFSC  03.0
0046:  INCF   7A,F
0047:  MOVF   49,W
0048:  ADDWF  7A,F
0049:  RRF    7A,F
004A:  RRF    77,F
004B:  RRF    79,F
004C:  RRF    78,F
004D:  DECFSZ 4A,F
004E:  GOTO   03F
004F:  RETURN
0050:  CLRF   78
0051:  CLRF   79
0052:  CLRF   77
0053:  CLRF   7A
0054:  MOVF   49,W
0055:  BTFSS  03.2
0056:  GOTO   05A
0057:  MOVF   48,W
0058:  BTFSC  03.2
0059:  GOTO   074
005A:  MOVLW  10
005B:  MOVWF  4A
005C:  BCF    03.0
005D:  RLF    46,F
005E:  RLF    47,F
005F:  RLF    77,F
0060:  RLF    7A,F
0061:  MOVF   49,W
0062:  SUBWF  7A,W
0063:  BTFSS  03.2
0064:  GOTO   067
0065:  MOVF   48,W
0066:  SUBWF  77,W
0067:  BTFSS  03.0
0068:  GOTO   070
0069:  MOVF   48,W
006A:  SUBWF  77,F
006B:  BTFSS  03.0
006C:  DECF   7A,F
006D:  MOVF   49,W
006E:  SUBWF  7A,F
006F:  BSF    03.0
0070:  RLF    78,F
0071:  RLF    79,F
0072:  DECFSZ 4A,F
0073:  GOTO   05C
0074:  RETURN
*
00C2:  MOVLW  8E
00C3:  MOVWF  77
00C4:  MOVF   35,W
00C5:  MOVWF  78
00C6:  MOVF   34,W
00C7:  MOVWF  79
00C8:  CLRF   7A
00C9:  MOVF   78,F
00CA:  BTFSS  03.2
00CB:  GOTO   0D6
00CC:  MOVF   79,W
00CD:  MOVWF  78
00CE:  CLRF   79
00CF:  MOVLW  08
00D0:  SUBWF  77,F
00D1:  MOVF   78,F
00D2:  BTFSS  03.2
00D3:  GOTO   0D6
00D4:  CLRF   77
00D5:  GOTO   0DE
00D6:  BCF    03.0
00D7:  BTFSC  78.7
00D8:  GOTO   0DD
00D9:  RLF    79,F
00DA:  RLF    78,F
00DB:  DECF   77,F
00DC:  GOTO   0D6
00DD:  BCF    78.7
00DE:  BCF    0A.3
00DF:  BCF    0A.4
00E0:  GOTO   57D (RETURN)
00E1:  MOVF   0B,W
00E2:  MOVWF  35
00E3:  BCF    0B.7
00E4:  BSF    03.5
00E5:  BSF    03.6
00E6:  BSF    0C.7
00E7:  BSF    0C.0
00E8:  NOP
00E9:  NOP
00EA:  BCF    03.5
00EB:  BCF    03.6
00EC:  BTFSC  35.7
00ED:  BSF    0B.7
00EE:  BTFSC  03.0
00EF:  GOTO   119
00F0:  BSF    03.6
00F1:  MOVF   0C,W
00F2:  ANDLW  7F
00F3:  BCF    03.6
00F4:  MOVWF  35
00F5:  BSF    03.6
00F6:  MOVF   0D,W
00F7:  BCF    03.6
00F8:  MOVWF  36
00F9:  BSF    03.6
00FA:  MOVF   0F,W
00FB:  BCF    03.6
00FC:  MOVWF  37
00FD:  MOVF   35,W
00FE:  BTFSS  0C.4
00FF:  GOTO   0FE
0100:  MOVWF  19
0101:  MOVF   36,W
0102:  BSF    03.6
0103:  MOVWF  0D
0104:  BCF    03.6
0105:  MOVF   37,W
0106:  BSF    03.6
0107:  MOVWF  0F
0108:  BCF    03.6
0109:  MOVF   0B,W
010A:  MOVWF  38
010B:  BCF    0B.7
010C:  BSF    03.5
010D:  BSF    03.6
010E:  BSF    0C.7
010F:  BSF    0C.0
0110:  NOP
0111:  NOP
0112:  BCF    03.5
0113:  BCF    03.6
0114:  BTFSC  38.7
0115:  BSF    0B.7
0116:  DECFSZ 34,F
0117:  GOTO   119
0118:  GOTO   139
0119:  BSF    03.6
011A:  RLF    0C,W
011B:  RLF    0E,W
011C:  ANDLW  7F
011D:  BCF    03.6
011E:  MOVWF  35
011F:  BSF    03.6
0120:  MOVF   0D,W
0121:  BCF    03.6
0122:  MOVWF  36
0123:  BSF    03.6
0124:  MOVF   0F,W
0125:  BCF    03.6
0126:  MOVWF  37
0127:  MOVF   35,W
0128:  BTFSS  0C.4
0129:  GOTO   128
012A:  MOVWF  19
012B:  MOVF   36,W
012C:  BSF    03.6
012D:  MOVWF  0D
012E:  BCF    03.6
012F:  MOVF   37,W
0130:  BSF    03.6
0131:  MOVWF  0F
0132:  INCF   0D,F
0133:  BTFSC  03.2
0134:  INCF   0F,F
0135:  BCF    03.0
0136:  BCF    03.6
0137:  DECFSZ 34,F
0138:  GOTO   0E1
0139:  RETURN
013A:  CLRF   3C
013B:  MOVF   04,W
013C:  MOVWF  3B
013D:  BCF    3C.0
013E:  BTFSC  03.7
013F:  BSF    3C.0
0140:  SWAPF  35,W
0141:  IORLW  F0
0142:  MOVWF  37
0143:  ADDWF  37,F
0144:  ADDLW  E2
0145:  MOVWF  38
0146:  ADDLW  32
0147:  MOVWF  3A
0148:  MOVF   35,W
0149:  ANDLW  0F
014A:  ADDWF  38,F
014B:  ADDWF  38,F
014C:  ADDWF  3A,F
014D:  ADDLW  E9
014E:  MOVWF  39
014F:  ADDWF  39,F
0150:  ADDWF  39,F
0151:  SWAPF  34,W
0152:  ANDLW  0F
0153:  ADDWF  39,F
0154:  ADDWF  3A,F
0155:  RLF    39,F
0156:  RLF    3A,F
0157:  COMF   3A,F
0158:  RLF    3A,F
0159:  MOVF   34,W
015A:  ANDLW  0F
015B:  ADDWF  3A,F
015C:  RLF    37,F
015D:  MOVLW  07
015E:  MOVWF  36
015F:  MOVLW  0A
0160:  ADDWF  3A,F
0161:  DECF   39,F
0162:  BTFSS  03.0
0163:  GOTO   160
0164:  ADDWF  39,F
0165:  DECF   38,F
0166:  BTFSS  03.0
0167:  GOTO   164
0168:  ADDWF  38,F
0169:  DECF   37,F
016A:  BTFSS  03.0
016B:  GOTO   168
016C:  ADDWF  37,F
016D:  DECF   36,F
016E:  BTFSS  03.0
016F:  GOTO   16C
0170:  MOVLW  36
0171:  MOVWF  04
0172:  BCF    03.7
0173:  MOVLW  07
0174:  ANDWF  3B,W
0175:  BCF    3B.6
0176:  ADDWF  04,F
0177:  MOVLW  3A
0178:  SUBWF  04,W
0179:  BTFSC  03.2
017A:  BSF    3B.6
017B:  MOVF   00,W
017C:  MOVWF  77
017D:  BTFSS  03.2
017E:  GOTO   187
017F:  BTFSC  3B.6
0180:  GOTO   187
0181:  BTFSC  3B.4
0182:  GOTO   18F
0183:  BTFSC  3B.3
0184:  GOTO   187
0185:  MOVLW  20
0186:  GOTO   18A
0187:  BSF    3B.3
0188:  BCF    3B.4
0189:  MOVLW  30
018A:  ADDWF  77,F
018B:  MOVF   77,W
018C:  BTFSS  0C.4
018D:  GOTO   18C
018E:  MOVWF  19
018F:  INCF   04,F
0190:  BTFSS  3B.6
0191:  GOTO   177
0192:  RETURN
0193:  BTFSC  03.1
0194:  GOTO   198
0195:  MOVLW  49
0196:  MOVWF  04
0197:  BCF    03.7
0198:  CLRF   77
0199:  CLRF   78
019A:  CLRF   79
019B:  CLRF   7A
019C:  CLRF   49
019D:  CLRF   4A
019E:  CLRF   4B
019F:  CLRF   4C
01A0:  MOVF   48,W
01A1:  IORWF  47,W
01A2:  IORWF  46,W
01A3:  IORWF  45,W
01A4:  BTFSC  03.2
01A5:  GOTO   1D6
01A6:  MOVLW  20
01A7:  MOVWF  4D
01A8:  BCF    03.0
01A9:  RLF    41,F
01AA:  RLF    42,F
01AB:  RLF    43,F
01AC:  RLF    44,F
01AD:  RLF    49,F
01AE:  RLF    4A,F
01AF:  RLF    4B,F
01B0:  RLF    4C,F
01B1:  MOVF   48,W
01B2:  SUBWF  4C,W
01B3:  BTFSS  03.2
01B4:  GOTO   1BF
01B5:  MOVF   47,W
01B6:  SUBWF  4B,W
01B7:  BTFSS  03.2
01B8:  GOTO   1BF
01B9:  MOVF   46,W
01BA:  SUBWF  4A,W
01BB:  BTFSS  03.2
01BC:  GOTO   1BF
01BD:  MOVF   45,W
01BE:  SUBWF  49,W
01BF:  BTFSS  03.0
01C0:  GOTO   1D0
01C1:  MOVF   45,W
01C2:  SUBWF  49,F
01C3:  MOVF   46,W
01C4:  BTFSS  03.0
01C5:  INCFSZ 46,W
01C6:  SUBWF  4A,F
01C7:  MOVF   47,W
01C8:  BTFSS  03.0
01C9:  INCFSZ 47,W
01CA:  SUBWF  4B,F
01CB:  MOVF   48,W
01CC:  BTFSS  03.0
01CD:  INCFSZ 48,W
01CE:  SUBWF  4C,F
01CF:  BSF    03.0
01D0:  RLF    77,F
01D1:  RLF    78,F
01D2:  RLF    79,F
01D3:  RLF    7A,F
01D4:  DECFSZ 4D,F
01D5:  GOTO   1A8
01D6:  MOVF   49,W
01D7:  MOVWF  00
01D8:  INCF   04,F
01D9:  MOVF   4A,W
01DA:  MOVWF  00
01DB:  INCF   04,F
01DC:  MOVF   4B,W
01DD:  MOVWF  00
01DE:  INCF   04,F
01DF:  MOVF   4C,W
01E0:  MOVWF  00
01E1:  RETURN
01E2:  MOVF   04,W
01E3:  MOVWF  39
01E4:  MOVF   38,W
01E5:  MOVWF  3B
01E6:  BTFSC  03.2
01E7:  GOTO   274
01E8:  MOVF   37,W
01E9:  MOVWF  44
01EA:  MOVF   36,W
01EB:  MOVWF  43
01EC:  MOVF   35,W
01ED:  MOVWF  42
01EE:  MOVF   34,W
01EF:  MOVWF  41
01F0:  CLRF   48
01F1:  CLRF   47
01F2:  MOVLW  20
01F3:  MOVWF  46
01F4:  MOVLW  82
01F5:  MOVWF  45
01F6:  MOVF   41,W
01F7:  BTFSC  03.2
01F8:  GOTO   266
01F9:  MOVWF  49
01FA:  MOVF   45,W
01FB:  BTFSC  03.2
01FC:  GOTO   266
01FD:  ADDWF  49,F
01FE:  BTFSC  03.0
01FF:  GOTO   207
0200:  MOVLW  7F
0201:  SUBWF  49,F
0202:  BTFSS  03.0
0203:  GOTO   266
0204:  BTFSC  03.2
0205:  GOTO   266
0206:  GOTO   20B
0207:  MOVLW  81
0208:  ADDWF  49,F
0209:  BTFSC  03.0
020A:  GOTO   266
020B:  MOVF   49,W
020C:  MOVWF  77
020D:  CLRF   78
020E:  CLRF   79
020F:  CLRF   7A
0210:  MOVF   42,W
0211:  MOVWF  4D
0212:  BSF    4D.7
0213:  MOVF   43,W
0214:  MOVWF  4C
0215:  MOVF   44,W
0216:  MOVWF  4B
0217:  MOVLW  18
0218:  MOVWF  49
0219:  CLRF   4A
021A:  BTFSS  4B.0
021B:  GOTO   234
021C:  MOVF   48,W
021D:  ADDWF  7A,F
021E:  BTFSS  03.0
021F:  GOTO   226
0220:  INCF   79,F
0221:  BTFSS  03.2
0222:  GOTO   226
0223:  INCF   78,F
0224:  BTFSC  03.2
0225:  BSF    4A.7
0226:  MOVF   47,W
0227:  ADDWF  79,F
0228:  BTFSS  03.0
0229:  GOTO   22D
022A:  INCF   78,F
022B:  BTFSC  03.2
022C:  BSF    4A.7
022D:  MOVF   46,W
022E:  MOVWF  43
022F:  BSF    43.7
0230:  MOVF   43,W
0231:  ADDWF  78,F
0232:  BTFSC  03.0
0233:  BSF    4A.7
0234:  RLF    4A,F
0235:  RRF    78,F
0236:  RRF    79,F
0237:  RRF    7A,F
0238:  RRF    4D,F
0239:  RRF    4C,F
023A:  RRF    4B,F
023B:  BCF    03.0
023C:  DECFSZ 49,F
023D:  GOTO   219
023E:  MOVLW  01
023F:  ADDWF  77,F
0240:  BTFSC  03.0
0241:  GOTO   266
0242:  BTFSC  78.7
0243:  GOTO   24B
0244:  RLF    4D,F
0245:  RLF    7A,F
0246:  RLF    79,F
0247:  RLF    78,F
0248:  DECF   77,F
0249:  BTFSC  03.2
024A:  GOTO   266
024B:  BTFSS  4D.7
024C:  GOTO   25C
024D:  INCF   7A,F
024E:  BTFSS  03.2
024F:  GOTO   25C
0250:  INCF   79,F
0251:  BTFSS  03.2
0252:  GOTO   25C
0253:  INCF   78,F
0254:  BTFSS  03.2
0255:  GOTO   25C
0256:  RRF    78,F
0257:  RRF    79,F
0258:  RRF    7A,F
0259:  INCF   77,F
025A:  BTFSC  03.2
025B:  GOTO   266
025C:  MOVF   42,W
025D:  MOVWF  4A
025E:  MOVF   46,W
025F:  XORWF  4A,F
0260:  BTFSS  4A.7
0261:  GOTO   264
0262:  BSF    78.7
0263:  GOTO   26A
0264:  BCF    78.7
0265:  GOTO   26A
0266:  CLRF   77
0267:  CLRF   78
0268:  CLRF   79
0269:  CLRF   7A
026A:  MOVF   7A,W
026B:  MOVWF  37
026C:  MOVF   79,W
026D:  MOVWF  36
026E:  MOVF   78,W
026F:  MOVWF  35
0270:  MOVF   77,W
0271:  MOVWF  34
0272:  DECFSZ 3B,F
0273:  GOTO   1E8
0274:  MOVF   37,W
0275:  MOVWF  44
0276:  MOVF   36,W
0277:  MOVWF  43
0278:  MOVF   35,W
0279:  MOVWF  42
027A:  MOVF   34,W
027B:  MOVWF  41
027C:  MOVF   41,W
027D:  SUBLW  B6
027E:  MOVWF  41
027F:  CLRF   7A
0280:  MOVF   42,W
0281:  MOVWF  45
0282:  BSF    42.7
0283:  BCF    03.0
0284:  RRF    42,F
0285:  RRF    43,F
0286:  RRF    44,F
0287:  RRF    7A,F
0288:  RRF    79,F
0289:  RRF    78,F
028A:  RRF    77,F
028B:  DECFSZ 41,F
028C:  GOTO   283
028D:  BTFSS  45.7
028E:  GOTO   29A
028F:  COMF   77,F
0290:  COMF   78,F
0291:  COMF   79,F
0292:  COMF   7A,F
0293:  INCF   77,F
0294:  BTFSC  03.2
0295:  INCF   78,F
0296:  BTFSC  03.2
0297:  INCF   79,F
0298:  BTFSC  03.2
0299:  INCF   7A,F
029A:  MOVF   7A,W
029B:  MOVWF  37
029C:  MOVF   79,W
029D:  MOVWF  36
029E:  MOVF   78,W
029F:  MOVWF  35
02A0:  MOVF   77,W
02A1:  MOVWF  34
02A2:  BTFSS  37.7
02A3:  GOTO   2B1
02A4:  DECF   39,F
02A5:  BSF    39.5
02A6:  COMF   34,F
02A7:  COMF   35,F
02A8:  COMF   36,F
02A9:  COMF   37,F
02AA:  INCF   34,F
02AB:  BTFSC  03.2
02AC:  INCF   35,F
02AD:  BTFSC  03.2
02AE:  INCF   36,F
02AF:  BTFSC  03.2
02B0:  INCF   37,F
02B1:  MOVLW  3B
02B2:  MOVWF  40
02B3:  MOVLW  9A
02B4:  MOVWF  3F
02B5:  MOVLW  CA
02B6:  MOVWF  3E
02B7:  CLRF   3D
02B8:  MOVLW  0A
02B9:  MOVWF  3B
02BA:  MOVF   38,W
02BB:  BTFSC  03.2
02BC:  INCF   39,F
02BD:  BSF    03.1
02BE:  MOVLW  34
02BF:  MOVWF  04
02C0:  BCF    03.7
02C1:  MOVF   37,W
02C2:  MOVWF  44
02C3:  MOVF   36,W
02C4:  MOVWF  43
02C5:  MOVF   35,W
02C6:  MOVWF  42
02C7:  MOVF   34,W
02C8:  MOVWF  41
02C9:  MOVF   40,W
02CA:  MOVWF  48
02CB:  MOVF   3F,W
02CC:  MOVWF  47
02CD:  MOVF   3E,W
02CE:  MOVWF  46
02CF:  MOVF   3D,W
02D0:  MOVWF  45
02D1:  CALL   193
02D2:  MOVF   78,W
02D3:  MOVF   77,F
02D4:  BTFSS  03.2
02D5:  GOTO   2E9
02D6:  INCF   38,W
02D7:  SUBWF  3B,W
02D8:  BTFSC  03.2
02D9:  GOTO   2E9
02DA:  MOVF   39,W
02DB:  BTFSC  03.2
02DC:  GOTO   2EB
02DD:  ANDLW  0F
02DE:  SUBWF  3B,W
02DF:  BTFSC  03.2
02E0:  GOTO   2E3
02E1:  BTFSC  03.0
02E2:  GOTO   31F
02E3:  BTFSC  39.7
02E4:  GOTO   31F
02E5:  BTFSC  39.6
02E6:  GOTO   2EB
02E7:  MOVLW  20
02E8:  GOTO   31A
02E9:  MOVLW  20
02EA:  ANDWF  39,F
02EB:  BTFSS  39.5
02EC:  GOTO   2FA
02ED:  BCF    39.5
02EE:  MOVF   38,W
02EF:  BTFSS  03.2
02F0:  DECF   39,F
02F1:  MOVF   77,W
02F2:  MOVWF  39
02F3:  MOVLW  2D
02F4:  BTFSS  0C.4
02F5:  GOTO   2F4
02F6:  MOVWF  19
02F7:  MOVF   39,W
02F8:  MOVWF  77
02F9:  CLRF   39
02FA:  MOVF   38,W
02FB:  SUBWF  3B,W
02FC:  BTFSS  03.2
02FD:  GOTO   309
02FE:  MOVF   77,W
02FF:  MOVWF  39
0300:  MOVLW  2E
0301:  BTFSS  0C.4
0302:  GOTO   301
0303:  MOVWF  19
0304:  MOVF   39,W
0305:  MOVWF  77
0306:  MOVLW  20
0307:  ANDWF  39,F
0308:  MOVLW  00
0309:  MOVLW  30
030A:  BTFSS  39.5
030B:  GOTO   31A
030C:  BCF    39.5
030D:  MOVF   38,W
030E:  BTFSS  03.2
030F:  DECF   39,F
0310:  MOVF   77,W
0311:  MOVWF  39
0312:  MOVLW  2D
0313:  BTFSS  0C.4
0314:  GOTO   313
0315:  MOVWF  19
0316:  MOVF   39,W
0317:  MOVWF  77
0318:  CLRF   39
0319:  MOVLW  30
031A:  ADDWF  77,F
031B:  MOVF   77,W
031C:  BTFSS  0C.4
031D:  GOTO   31C
031E:  MOVWF  19
031F:  BCF    03.1
0320:  MOVF   40,W
0321:  MOVWF  44
0322:  MOVF   3F,W
0323:  MOVWF  43
0324:  MOVF   3E,W
0325:  MOVWF  42
0326:  MOVF   3D,W
0327:  MOVWF  41
0328:  CLRF   48
0329:  CLRF   47
032A:  CLRF   46
032B:  MOVLW  0A
032C:  MOVWF  45
032D:  CALL   193
032E:  MOVF   7A,W
032F:  MOVWF  40
0330:  MOVF   79,W
0331:  MOVWF  3F
0332:  MOVF   78,W
0333:  MOVWF  3E
0334:  MOVF   77,W
0335:  MOVWF  3D
0336:  DECFSZ 3B,F
0337:  GOTO   2BD
0338:  BCF    0A.3
0339:  BCF    0A.4
033A:  GOTO   62F (RETURN)
033B:  MOVF   0B,W
033C:  MOVWF  34
033D:  BCF    0B.7
033E:  BSF    03.5
033F:  BSF    03.6
0340:  BSF    0C.7
0341:  BSF    0C.0
0342:  NOP
0343:  NOP
0344:  BCF    03.5
0345:  BCF    03.6
0346:  BTFSC  34.7
0347:  BSF    0B.7
0348:  BSF    03.6
0349:  MOVF   0C,W
034A:  ANDLW  7F
034B:  BTFSC  03.2
034C:  GOTO   391
034D:  BCF    03.6
034E:  MOVWF  34
034F:  BSF    03.6
0350:  MOVF   0D,W
0351:  BCF    03.6
0352:  MOVWF  35
0353:  BSF    03.6
0354:  MOVF   0F,W
0355:  BCF    03.6
0356:  MOVWF  36
0357:  MOVF   34,W
0358:  BTFSS  0C.4
0359:  GOTO   358
035A:  MOVWF  19
035B:  MOVF   35,W
035C:  BSF    03.6
035D:  MOVWF  0D
035E:  BCF    03.6
035F:  MOVF   36,W
0360:  BSF    03.6
0361:  MOVWF  0F
0362:  BCF    03.6
0363:  MOVF   0B,W
0364:  MOVWF  37
0365:  BCF    0B.7
0366:  BSF    03.5
0367:  BSF    03.6
0368:  BSF    0C.7
0369:  BSF    0C.0
036A:  NOP
036B:  NOP
036C:  BCF    03.5
036D:  BCF    03.6
036E:  BTFSC  37.7
036F:  BSF    0B.7
0370:  BSF    03.6
0371:  RLF    0C,W
0372:  RLF    0E,W
0373:  ANDLW  7F
0374:  BTFSC  03.2
0375:  GOTO   391
0376:  BCF    03.6
0377:  MOVWF  34
0378:  BSF    03.6
0379:  MOVF   0D,W
037A:  BCF    03.6
037B:  MOVWF  35
037C:  BSF    03.6
037D:  MOVF   0F,W
037E:  BCF    03.6
037F:  MOVWF  36
0380:  MOVF   34,W
0381:  BTFSS  0C.4
0382:  GOTO   381
0383:  MOVWF  19
0384:  MOVF   35,W
0385:  BSF    03.6
0386:  MOVWF  0D
0387:  BCF    03.6
0388:  MOVF   36,W
0389:  BSF    03.6
038A:  MOVWF  0F
038B:  INCF   0D,F
038C:  BTFSC  03.2
038D:  INCF   0F,F
038E:  BCF    03.6
038F:  GOTO   33B
0390:  BSF    03.6
0391:  BCF    03.6
0392:  BCF    0A.3
0393:  BCF    0A.4
0394:  GOTO   63A (RETURN)
.................... 
.................... #list
.................... 
.................... #device ADC=10
.................... #use delay (clock = 20000000)
0395:  MOVLW  35
0396:  MOVWF  04
0397:  BCF    03.7
0398:  MOVF   00,W
0399:  BTFSC  03.2
039A:  GOTO   3A8
039B:  MOVLW  06
039C:  MOVWF  78
039D:  CLRF   77
039E:  DECFSZ 77,F
039F:  GOTO   39E
03A0:  DECFSZ 78,F
03A1:  GOTO   39D
03A2:  MOVLW  7B
03A3:  MOVWF  77
03A4:  DECFSZ 77,F
03A5:  GOTO   3A4
03A6:  DECFSZ 00,F
03A7:  GOTO   39B
03A8:  BCF    0A.3
03A9:  BCF    0A.4
03AA:  GOTO   63F (RETURN)
.................... #fuses HS, NOWDT, NOPROTECT, NOLVP
.................... #use rs232 (baud = 9600, parity = N, xmit = PIN_C6, rcv = PIN_C7, bits = 8)
.................... int16 calib (int16 x, int16 max_x, int16 min_x)
*
0075:  MOVLW  03
0076:  MOVWF  3D
0077:  MOVLW  A1
0078:  MOVWF  3C
0079:  CLRF   3F
007A:  MOVLW  26
007B:  MOVWF  3E
007C:  SUBWF  3C,W
007D:  MOVWF  42
007E:  MOVF   3D,W
007F:  MOVWF  43
0080:  MOVF   3F,W
0081:  BTFSS  03.0
0082:  INCFSZ 3F,W
0083:  SUBWF  43,F
0084:  MOVF   3A,W
0085:  SUBWF  36,W
0086:  MOVWF  77
0087:  MOVF   37,W
0088:  MOVWF  7A
0089:  MOVF   3B,W
008A:  BTFSS  03.0
008B:  INCFSZ 3B,W
008C:  SUBWF  7A,F
008D:  MOVF   77,W
008E:  MOVWF  44
008F:  MOVF   7A,W
0090:  MOVWF  45
0091:  MOVF   43,W
0092:  MOVWF  47
0093:  MOVF   42,W
0094:  MOVWF  46
0095:  MOVF   7A,W
0096:  MOVWF  49
0097:  MOVF   77,W
0098:  MOVWF  48
0099:  CALL   03B
009A:  MOVF   79,W
009B:  MOVWF  43
009C:  MOVF   78,W
009D:  MOVWF  42
009E:  MOVF   3A,W
009F:  SUBWF  38,W
00A0:  MOVWF  77
00A1:  MOVF   39,W
00A2:  MOVWF  7A
00A3:  MOVF   3B,W
00A4:  BTFSS  03.0
00A5:  INCFSZ 3B,W
00A6:  SUBWF  7A,F
00A7:  MOVF   77,W
00A8:  MOVWF  44
00A9:  MOVF   7A,W
00AA:  MOVWF  45
00AB:  MOVF   79,W
00AC:  MOVWF  47
00AD:  MOVF   78,W
00AE:  MOVWF  46
00AF:  MOVF   7A,W
00B0:  MOVWF  49
00B1:  MOVF   77,W
00B2:  MOVWF  48
00B3:  CALL   050
00B4:  MOVF   78,W
00B5:  ADDWF  3E,W
00B6:  MOVWF  40
00B7:  MOVF   3F,W
00B8:  MOVWF  41
00B9:  MOVF   79,W
00BA:  BTFSC  03.0
00BB:  INCFSZ 79,W
00BC:  ADDWF  41,F
.................... {
....................    int16 max_y = 929;
....................    int16 min_y = 38;
....................    int16 y = min_y + (max_y - min_y)*(x - min_x)/(max_x - min_x);
....................    return y;
00BD:  MOVF   40,W
00BE:  MOVWF  78
00BF:  MOVF   41,W
00C0:  MOVWF  79
00C1:  RETURN
.................... }
.................... 
.................... void main()
*
03AB:  MOVF   03,W
03AC:  ANDLW  1F
03AD:  MOVWF  03
03AE:  MOVLW  81
03AF:  BSF    03.5
03B0:  MOVWF  19
03B1:  MOVLW  A6
03B2:  MOVWF  18
03B3:  MOVLW  90
03B4:  BCF    03.5
03B5:  MOVWF  18
03B6:  CLRF   21
03B7:  CLRF   20
03B8:  BSF    03.5
03B9:  BSF    1F.0
03BA:  BSF    1F.1
03BB:  BSF    1F.2
03BC:  BCF    1F.3
03BD:  MOVLW  07
03BE:  MOVWF  1C
03BF:  BCF    03.7
.................... {
....................    setup_adc_ports(ALL_ANALOG);
03C0:  BCF    1F.0
03C1:  BCF    1F.1
03C2:  BCF    1F.2
03C3:  BCF    1F.3
....................    setup_adc(ADC_CLOCK_INTERNAL);
03C4:  BCF    1F.6
03C5:  BCF    03.5
03C6:  BSF    1F.6
03C7:  BSF    1F.7
03C8:  BSF    03.5
03C9:  BSF    1F.7
03CA:  BCF    03.5
03CB:  BSF    1F.0
....................    while(TRUE)
....................    {
....................       int16 x1, x2, x3, x4, x5, x6, x7;
....................       set_adc_channel (0);
03CC:  MOVLW  00
03CD:  MOVWF  78
03CE:  MOVF   1F,W
03CF:  ANDLW  C7
03D0:  IORWF  78,W
03D1:  MOVWF  1F
....................       delay_us (10);
03D2:  MOVLW  10
03D3:  MOVWF  77
03D4:  DECFSZ 77,F
03D5:  GOTO   3D4
03D6:  NOP
....................       x1 = calib (read_adc (), 890, 39);
03D7:  BSF    1F.2
03D8:  BTFSC  1F.2
03D9:  GOTO   3D8
03DA:  MOVF   1E,W
03DB:  MOVWF  79
03DC:  BSF    03.5
03DD:  MOVF   1E,W
03DE:  MOVWF  78
03DF:  MOVF   79,W
03E0:  BCF    03.5
03E1:  MOVWF  35
03E2:  MOVF   78,W
03E3:  MOVWF  34
03E4:  MOVF   35,W
03E5:  MOVWF  37
03E6:  MOVF   78,W
03E7:  MOVWF  36
03E8:  MOVLW  03
03E9:  MOVWF  39
03EA:  MOVLW  7A
03EB:  MOVWF  38
03EC:  CLRF   3B
03ED:  MOVLW  27
03EE:  MOVWF  3A
03EF:  CALL   075
03F0:  MOVF   79,W
03F1:  MOVWF  23
03F2:  MOVF   78,W
03F3:  MOVWF  22
....................       
....................       set_adc_channel (1);
03F4:  MOVLW  08
03F5:  MOVWF  78
03F6:  MOVF   1F,W
03F7:  ANDLW  C7
03F8:  IORWF  78,W
03F9:  MOVWF  1F
....................       delay_us (10);
03FA:  MOVLW  10
03FB:  MOVWF  77
03FC:  DECFSZ 77,F
03FD:  GOTO   3FC
03FE:  NOP
....................       x2 = calib (read_adc (), 919, 39);
03FF:  BSF    1F.2
0400:  BTFSC  1F.2
0401:  GOTO   400
0402:  MOVF   1E,W
0403:  MOVWF  79
0404:  BSF    03.5
0405:  MOVF   1E,W
0406:  MOVWF  78
0407:  MOVF   79,W
0408:  BCF    03.5
0409:  MOVWF  35
040A:  MOVF   78,W
040B:  MOVWF  34
040C:  MOVF   35,W
040D:  MOVWF  37
040E:  MOVF   78,W
040F:  MOVWF  36
0410:  MOVLW  03
0411:  MOVWF  39
0412:  MOVLW  97
0413:  MOVWF  38
0414:  CLRF   3B
0415:  MOVLW  27
0416:  MOVWF  3A
0417:  CALL   075
0418:  MOVF   79,W
0419:  MOVWF  25
041A:  MOVF   78,W
041B:  MOVWF  24
....................       
....................       set_adc_channel (2);
041C:  MOVLW  10
041D:  MOVWF  78
041E:  MOVF   1F,W
041F:  ANDLW  C7
0420:  IORWF  78,W
0421:  MOVWF  1F
....................       delay_us (10);
0422:  MOVLW  10
0423:  MOVWF  77
0424:  DECFSZ 77,F
0425:  GOTO   424
0426:  NOP
....................       x3 = calib (read_adc (), 929, 40);
0427:  BSF    1F.2
0428:  BTFSC  1F.2
0429:  GOTO   428
042A:  MOVF   1E,W
042B:  MOVWF  79
042C:  BSF    03.5
042D:  MOVF   1E,W
042E:  MOVWF  78
042F:  MOVF   79,W
0430:  BCF    03.5
0431:  MOVWF  35
0432:  MOVF   78,W
0433:  MOVWF  34
0434:  MOVF   35,W
0435:  MOVWF  37
0436:  MOVF   78,W
0437:  MOVWF  36
0438:  MOVLW  03
0439:  MOVWF  39
043A:  MOVLW  A1
043B:  MOVWF  38
043C:  CLRF   3B
043D:  MOVLW  28
043E:  MOVWF  3A
043F:  CALL   075
0440:  MOVF   79,W
0441:  MOVWF  27
0442:  MOVF   78,W
0443:  MOVWF  26
....................       
....................       set_adc_channel (3);
0444:  MOVLW  18
0445:  MOVWF  78
0446:  MOVF   1F,W
0447:  ANDLW  C7
0448:  IORWF  78,W
0449:  MOVWF  1F
....................       delay_us (10);
044A:  MOVLW  10
044B:  MOVWF  77
044C:  DECFSZ 77,F
044D:  GOTO   44C
044E:  NOP
....................       x4 = calib (read_adc (), 929, 42);
044F:  BSF    1F.2
0450:  BTFSC  1F.2
0451:  GOTO   450
0452:  MOVF   1E,W
0453:  MOVWF  79
0454:  BSF    03.5
0455:  MOVF   1E,W
0456:  MOVWF  78
0457:  MOVF   79,W
0458:  BCF    03.5
0459:  MOVWF  35
045A:  MOVF   78,W
045B:  MOVWF  34
045C:  MOVF   35,W
045D:  MOVWF  37
045E:  MOVF   78,W
045F:  MOVWF  36
0460:  MOVLW  03
0461:  MOVWF  39
0462:  MOVLW  A1
0463:  MOVWF  38
0464:  CLRF   3B
0465:  MOVLW  2A
0466:  MOVWF  3A
0467:  CALL   075
0468:  MOVF   79,W
0469:  MOVWF  29
046A:  MOVF   78,W
046B:  MOVWF  28
....................       
....................       set_adc_channel (4);
046C:  MOVLW  20
046D:  MOVWF  78
046E:  MOVF   1F,W
046F:  ANDLW  C7
0470:  IORWF  78,W
0471:  MOVWF  1F
....................       delay_us (10);
0472:  MOVLW  10
0473:  MOVWF  77
0474:  DECFSZ 77,F
0475:  GOTO   474
0476:  NOP
....................       x5 = calib (read_adc (), 929, 41);
0477:  BSF    1F.2
0478:  BTFSC  1F.2
0479:  GOTO   478
047A:  MOVF   1E,W
047B:  MOVWF  79
047C:  BSF    03.5
047D:  MOVF   1E,W
047E:  MOVWF  78
047F:  MOVF   79,W
0480:  BCF    03.5
0481:  MOVWF  35
0482:  MOVF   78,W
0483:  MOVWF  34
0484:  MOVF   35,W
0485:  MOVWF  37
0486:  MOVF   78,W
0487:  MOVWF  36
0488:  MOVLW  03
0489:  MOVWF  39
048A:  MOVLW  A1
048B:  MOVWF  38
048C:  CLRF   3B
048D:  MOVLW  29
048E:  MOVWF  3A
048F:  CALL   075
0490:  MOVF   79,W
0491:  MOVWF  2B
0492:  MOVF   78,W
0493:  MOVWF  2A
....................       
....................       set_adc_channel (5);
0494:  MOVLW  28
0495:  MOVWF  78
0496:  MOVF   1F,W
0497:  ANDLW  C7
0498:  IORWF  78,W
0499:  MOVWF  1F
....................       delay_us (10);
049A:  MOVLW  10
049B:  MOVWF  77
049C:  DECFSZ 77,F
049D:  GOTO   49C
049E:  NOP
....................       x6 = calib (read_adc (), 929, 39);
049F:  BSF    1F.2
04A0:  BTFSC  1F.2
04A1:  GOTO   4A0
04A2:  MOVF   1E,W
04A3:  MOVWF  79
04A4:  BSF    03.5
04A5:  MOVF   1E,W
04A6:  MOVWF  78
04A7:  MOVF   79,W
04A8:  BCF    03.5
04A9:  MOVWF  35
04AA:  MOVF   78,W
04AB:  MOVWF  34
04AC:  MOVF   35,W
04AD:  MOVWF  37
04AE:  MOVF   78,W
04AF:  MOVWF  36
04B0:  MOVLW  03
04B1:  MOVWF  39
04B2:  MOVLW  A1
04B3:  MOVWF  38
04B4:  CLRF   3B
04B5:  MOVLW  27
04B6:  MOVWF  3A
04B7:  CALL   075
04B8:  MOVF   79,W
04B9:  MOVWF  2D
04BA:  MOVF   78,W
04BB:  MOVWF  2C
....................       
....................       set_adc_channel (6);
04BC:  MOVLW  30
04BD:  MOVWF  78
04BE:  MOVF   1F,W
04BF:  ANDLW  C7
04C0:  IORWF  78,W
04C1:  MOVWF  1F
....................       delay_us (10);
04C2:  MOVLW  10
04C3:  MOVWF  77
04C4:  DECFSZ 77,F
04C5:  GOTO   4C4
04C6:  NOP
....................       x7 = calib (read_adc (), 890, 38);
04C7:  BSF    1F.2
04C8:  BTFSC  1F.2
04C9:  GOTO   4C8
04CA:  MOVF   1E,W
04CB:  MOVWF  79
04CC:  BSF    03.5
04CD:  MOVF   1E,W
04CE:  MOVWF  78
04CF:  MOVF   79,W
04D0:  BCF    03.5
04D1:  MOVWF  35
04D2:  MOVF   78,W
04D3:  MOVWF  34
04D4:  MOVF   35,W
04D5:  MOVWF  37
04D6:  MOVF   78,W
04D7:  MOVWF  36
04D8:  MOVLW  03
04D9:  MOVWF  39
04DA:  MOVLW  7A
04DB:  MOVWF  38
04DC:  CLRF   3B
04DD:  MOVLW  26
04DE:  MOVWF  3A
04DF:  CALL   075
04E0:  MOVF   79,W
04E1:  MOVWF  2F
04E2:  MOVF   78,W
04E3:  MOVWF  2E
....................       
....................       float x = ((-3)*x1 + (-2)*x2 + (-1)*x3 + 0*x4 + 1*x5 + 2*x6 + 3*x7)*17/(x1 + x2 + x3 + x4 + x5 + x6 + x7);
04E4:  MOVLW  FF
04E5:  MOVWF  47
04E6:  MOVLW  FD
04E7:  MOVWF  46
04E8:  MOVF   23,W
04E9:  MOVWF  49
04EA:  MOVF   22,W
04EB:  MOVWF  48
04EC:  CALL   03B
04ED:  MOVF   79,W
04EE:  MOVWF  35
04EF:  MOVF   78,W
04F0:  MOVWF  34
04F1:  MOVLW  FF
04F2:  MOVWF  47
04F3:  MOVLW  FE
04F4:  MOVWF  46
04F5:  MOVF   25,W
04F6:  MOVWF  49
04F7:  MOVF   24,W
04F8:  MOVWF  48
04F9:  CALL   03B
04FA:  MOVF   79,W
04FB:  MOVWF  7A
04FC:  MOVF   78,W
04FD:  ADDWF  34,F
04FE:  MOVF   79,W
04FF:  BTFSC  03.0
0500:  INCFSZ 79,W
0501:  ADDWF  35,F
0502:  MOVLW  FF
0503:  MOVWF  47
0504:  MOVWF  46
0505:  MOVF   27,W
0506:  MOVWF  49
0507:  MOVF   26,W
0508:  MOVWF  48
0509:  CALL   03B
050A:  MOVF   79,W
050B:  MOVWF  7A
050C:  MOVF   78,W
050D:  ADDWF  34,F
050E:  MOVF   79,W
050F:  BTFSC  03.0
0510:  INCFSZ 79,W
0511:  ADDWF  35,F
0512:  MOVF   2A,W
0513:  ADDWF  34,F
0514:  MOVF   2B,W
0515:  BTFSC  03.0
0516:  INCFSZ 2B,W
0517:  ADDWF  35,F
0518:  BCF    03.0
0519:  RLF    2C,W
051A:  MOVWF  79
051B:  RLF    2D,W
051C:  MOVWF  7A
051D:  MOVF   79,W
051E:  ADDWF  34,F
051F:  MOVF   7A,W
0520:  BTFSC  03.0
0521:  INCFSZ 7A,W
0522:  ADDWF  35,F
0523:  CLRF   47
0524:  MOVLW  03
0525:  MOVWF  46
0526:  MOVF   2F,W
0527:  MOVWF  49
0528:  MOVF   2E,W
0529:  MOVWF  48
052A:  CALL   03B
052B:  MOVF   79,W
052C:  MOVWF  7A
052D:  MOVF   78,W
052E:  ADDWF  34,F
052F:  MOVF   79,W
0530:  BTFSC  03.0
0531:  INCFSZ 79,W
0532:  ADDWF  35,F
0533:  MOVF   35,W
0534:  MOVWF  47
0535:  MOVF   34,W
0536:  MOVWF  46
0537:  CLRF   49
0538:  MOVLW  11
0539:  MOVWF  48
053A:  CALL   03B
053B:  MOVF   79,W
053C:  MOVWF  35
053D:  MOVF   78,W
053E:  MOVWF  34
053F:  MOVF   24,W
0540:  ADDWF  22,W
0541:  MOVWF  36
0542:  MOVF   23,W
0543:  MOVWF  37
0544:  MOVF   25,W
0545:  BTFSC  03.0
0546:  INCFSZ 25,W
0547:  ADDWF  37,F
0548:  MOVF   26,W
0549:  ADDWF  36,F
054A:  MOVF   27,W
054B:  BTFSC  03.0
054C:  INCFSZ 27,W
054D:  ADDWF  37,F
054E:  MOVF   28,W
054F:  ADDWF  36,F
0550:  MOVF   29,W
0551:  BTFSC  03.0
0552:  INCFSZ 29,W
0553:  ADDWF  37,F
0554:  MOVF   2A,W
0555:  ADDWF  36,F
0556:  MOVF   2B,W
0557:  BTFSC  03.0
0558:  INCFSZ 2B,W
0559:  ADDWF  37,F
055A:  MOVF   2C,W
055B:  ADDWF  36,F
055C:  MOVF   2D,W
055D:  BTFSC  03.0
055E:  INCFSZ 2D,W
055F:  ADDWF  37,F
0560:  MOVF   2E,W
0561:  ADDWF  36,W
0562:  MOVWF  78
0563:  MOVF   37,W
0564:  MOVWF  7A
0565:  MOVF   2F,W
0566:  BTFSC  03.0
0567:  INCFSZ 2F,W
0568:  ADDWF  7A,F
0569:  MOVF   78,W
056A:  MOVWF  36
056B:  MOVF   7A,W
056C:  MOVWF  37
056D:  MOVF   79,W
056E:  MOVWF  47
056F:  MOVF   34,W
0570:  MOVWF  46
0571:  MOVF   7A,W
0572:  MOVWF  49
0573:  MOVF   78,W
0574:  MOVWF  48
0575:  CALL   050
0576:  MOVF   79,W
0577:  MOVWF  7A
0578:  MOVF   78,W
0579:  MOVWF  34
057A:  MOVF   79,W
057B:  MOVWF  35
057C:  GOTO   0C2
057D:  MOVF   7A,W
057E:  MOVWF  33
057F:  MOVF   79,W
0580:  MOVWF  32
0581:  MOVF   78,W
0582:  MOVWF  31
0583:  MOVF   77,W
0584:  MOVWF  30
....................       printf ("CB1 = %lu\t", x1);
0585:  MOVLW  04
0586:  BSF    03.6
0587:  MOVWF  0D
0588:  MOVLW  00
0589:  MOVWF  0F
058A:  BCF    03.0
058B:  MOVLW  06
058C:  BCF    03.6
058D:  MOVWF  34
058E:  CALL   0E1
058F:  MOVLW  10
0590:  MOVWF  04
0591:  MOVF   23,W
0592:  MOVWF  35
0593:  MOVF   22,W
0594:  MOVWF  34
0595:  CALL   13A
0596:  MOVLW  09
0597:  BTFSS  0C.4
0598:  GOTO   597
0599:  MOVWF  19
....................       printf ("CB2 = %lu\t", x2);
059A:  MOVLW  0A
059B:  BSF    03.6
059C:  MOVWF  0D
059D:  MOVLW  00
059E:  MOVWF  0F
059F:  BCF    03.0
05A0:  MOVLW  06
05A1:  BCF    03.6
05A2:  MOVWF  34
05A3:  CALL   0E1
05A4:  MOVLW  10
05A5:  MOVWF  04
05A6:  MOVF   25,W
05A7:  MOVWF  35
05A8:  MOVF   24,W
05A9:  MOVWF  34
05AA:  CALL   13A
05AB:  MOVLW  09
05AC:  BTFSS  0C.4
05AD:  GOTO   5AC
05AE:  MOVWF  19
....................       printf ("CB3 = %lu\t", x3);
05AF:  MOVLW  10
05B0:  BSF    03.6
05B1:  MOVWF  0D
05B2:  MOVLW  00
05B3:  MOVWF  0F
05B4:  BCF    03.0
05B5:  MOVLW  06
05B6:  BCF    03.6
05B7:  MOVWF  34
05B8:  CALL   0E1
05B9:  MOVLW  10
05BA:  MOVWF  04
05BB:  MOVF   27,W
05BC:  MOVWF  35
05BD:  MOVF   26,W
05BE:  MOVWF  34
05BF:  CALL   13A
05C0:  MOVLW  09
05C1:  BTFSS  0C.4
05C2:  GOTO   5C1
05C3:  MOVWF  19
....................       printf ("CB4 = %lu\t", x4);
05C4:  MOVLW  16
05C5:  BSF    03.6
05C6:  MOVWF  0D
05C7:  MOVLW  00
05C8:  MOVWF  0F
05C9:  BCF    03.0
05CA:  MOVLW  06
05CB:  BCF    03.6
05CC:  MOVWF  34
05CD:  CALL   0E1
05CE:  MOVLW  10
05CF:  MOVWF  04
05D0:  MOVF   29,W
05D1:  MOVWF  35
05D2:  MOVF   28,W
05D3:  MOVWF  34
05D4:  CALL   13A
05D5:  MOVLW  09
05D6:  BTFSS  0C.4
05D7:  GOTO   5D6
05D8:  MOVWF  19
....................       printf ("CB5 = %lu\t", x5);
05D9:  MOVLW  1C
05DA:  BSF    03.6
05DB:  MOVWF  0D
05DC:  MOVLW  00
05DD:  MOVWF  0F
05DE:  BCF    03.0
05DF:  MOVLW  06
05E0:  BCF    03.6
05E1:  MOVWF  34
05E2:  CALL   0E1
05E3:  MOVLW  10
05E4:  MOVWF  04
05E5:  MOVF   2B,W
05E6:  MOVWF  35
05E7:  MOVF   2A,W
05E8:  MOVWF  34
05E9:  CALL   13A
05EA:  MOVLW  09
05EB:  BTFSS  0C.4
05EC:  GOTO   5EB
05ED:  MOVWF  19
....................       printf ("CB6 = %lu\t", x6);
05EE:  MOVLW  22
05EF:  BSF    03.6
05F0:  MOVWF  0D
05F1:  MOVLW  00
05F2:  MOVWF  0F
05F3:  BCF    03.0
05F4:  MOVLW  06
05F5:  BCF    03.6
05F6:  MOVWF  34
05F7:  CALL   0E1
05F8:  MOVLW  10
05F9:  MOVWF  04
05FA:  MOVF   2D,W
05FB:  MOVWF  35
05FC:  MOVF   2C,W
05FD:  MOVWF  34
05FE:  CALL   13A
05FF:  MOVLW  09
0600:  BTFSS  0C.4
0601:  GOTO   600
0602:  MOVWF  19
....................       printf ("CB7 = %lu\t", x7);
0603:  MOVLW  28
0604:  BSF    03.6
0605:  MOVWF  0D
0606:  MOVLW  00
0607:  MOVWF  0F
0608:  BCF    03.0
0609:  MOVLW  06
060A:  BCF    03.6
060B:  MOVWF  34
060C:  CALL   0E1
060D:  MOVLW  10
060E:  MOVWF  04
060F:  MOVF   2F,W
0610:  MOVWF  35
0611:  MOVF   2E,W
0612:  MOVWF  34
0613:  CALL   13A
0614:  MOVLW  09
0615:  BTFSS  0C.4
0616:  GOTO   615
0617:  MOVWF  19
....................       printf ("Khoang cach = %f\t", x);
0618:  MOVLW  2E
0619:  BSF    03.6
061A:  MOVWF  0D
061B:  MOVLW  00
061C:  MOVWF  0F
061D:  BCF    03.0
061E:  MOVLW  0E
061F:  BCF    03.6
0620:  MOVWF  34
0621:  CALL   0E1
0622:  MOVLW  89
0623:  MOVWF  04
0624:  MOVF   33,W
0625:  MOVWF  37
0626:  MOVF   32,W
0627:  MOVWF  36
0628:  MOVF   31,W
0629:  MOVWF  35
062A:  MOVF   30,W
062B:  MOVWF  34
062C:  MOVLW  02
062D:  MOVWF  38
062E:  GOTO   1E2
062F:  MOVLW  09
0630:  BTFSS  0C.4
0631:  GOTO   630
0632:  MOVWF  19
....................       printf ("\t\t\t\t\t\t");
0633:  MOVLW  37
0634:  BSF    03.6
0635:  MOVWF  0D
0636:  MOVLW  00
0637:  MOVWF  0F
0638:  BCF    03.6
0639:  GOTO   33B
....................       delay_ms (2000);
063A:  MOVLW  08
063B:  MOVWF  34
063C:  MOVLW  FA
063D:  MOVWF  35
063E:  GOTO   395
063F:  DECFSZ 34,F
0640:  GOTO   63C
0641:  GOTO   3CC
....................    }
.................... 
.................... }
0642:  SLEEP

Configuration Fuses:
   Word  1: 3F72   HS NOWDT PUT BROWNOUT NOLVP NOCPD NOWRT NODEBUG NOPROTECT
